ARM GAS  /var/folders/n8/cvzdcwlj0vl4g_wtyz1ffy300000gn/T//ccbfbfEP.s 			page 1


   1              		.cpu cortex-m7
   2              		.eabi_attribute 27, 1
   3              		.eabi_attribute 28, 1
   4              		.eabi_attribute 20, 1
   5              		.eabi_attribute 21, 1
   6              		.eabi_attribute 23, 3
   7              		.eabi_attribute 24, 1
   8              		.eabi_attribute 25, 1
   9              		.eabi_attribute 26, 1
  10              		.eabi_attribute 30, 1
  11              		.eabi_attribute 34, 1
  12              		.eabi_attribute 18, 4
  13              		.file	"App__Generated.c"
  14              		.text
  15              	.Ltext0:
  16              		.cfi_sections	.debug_frame
  17              		.section	.text.App__Main_Page__Validate,"ax",%progbits
  18              		.align	1
  19              		.syntax unified
  20              		.thumb
  21              		.thumb_func
  22              		.fpu fpv5-sp-d16
  24              	App__Main_Page__Validate:
  25              	.LFB16:
  26              		.file 1 "Timer/App__Generated.c"
   1:Timer/App__Generated.c **** /*
   2:Timer/App__Generated.c **** This file is automatically generated
   3:Timer/App__Generated.c **** App
   4:Timer/App__Generated.c **** C Source
   5:Timer/App__Generated.c **** */
   6:Timer/App__Generated.c **** 
   7:Timer/App__Generated.c **** #include "App.h"
   8:Timer/App__Generated.c **** 
   9:Timer/App__Generated.c **** #include "stdlib.h"
  10:Timer/App__Generated.c **** 
  11:Timer/App__Generated.c **** extern void Ft_Esd_Noop(void *context);
  12:Timer/App__Generated.c **** extern void Ft_Esd_Spinner_Popup();
  13:Timer/App__Generated.c **** 
  14:Timer/App__Generated.c **** 
  15:Timer/App__Generated.c **** 
  16:Timer/App__Generated.c **** #define Main_Page__ID 1
  17:Timer/App__Generated.c **** 
  18:Timer/App__Generated.c **** void App__Initializer(App *context)
  19:Timer/App__Generated.c **** {
  20:Timer/App__Generated.c **** 	context->Parent = 0;
  21:Timer/App__Generated.c **** 	context->_ActivePage = 0;
  22:Timer/App__Generated.c **** 	context->Main_Page = 0;
  23:Timer/App__Generated.c **** 	context->Main_Page__Active = 0;
  24:Timer/App__Generated.c **** }
  25:Timer/App__Generated.c **** 
  26:Timer/App__Generated.c **** static void App__Main_Page__Validate(App *context)
  27:Timer/App__Generated.c **** {
  27              		.loc 1 27 0
  28              		.cfi_startproc
  29              		@ args = 0, pretend = 0, frame = 0
  30              		@ frame_needed = 0, uses_anonymous_args = 0
  31              	.LVL0:
ARM GAS  /var/folders/n8/cvzdcwlj0vl4g_wtyz1ffy300000gn/T//ccbfbfEP.s 			page 2


  28:Timer/App__Generated.c **** 	void *parent = context->Parent;
  29:Timer/App__Generated.c **** 	if (!context->Main_Page)
  32              		.loc 1 29 0
  33 0000 8368     		ldr	r3, [r0, #8]
  34 0002 03B1     		cbz	r3, .L7
  35 0004 7047     		bx	lr
  36              	.L7:
  27:Timer/App__Generated.c **** 	void *parent = context->Parent;
  37              		.loc 1 27 0
  38 0006 10B5     		push	{r4, lr}
  39              	.LCFI0:
  40              		.cfi_def_cfa_offset 8
  41              		.cfi_offset 4, -8
  42              		.cfi_offset 14, -4
  43 0008 0446     		mov	r4, r0
  30:Timer/App__Generated.c **** 	{
  31:Timer/App__Generated.c **** 		context->Main_Page = (MainPage *)malloc(sizeof(MainPage));
  44              		.loc 1 31 0
  45 000a 40F24C40 		movw	r0, #1100
  46              	.LVL1:
  47 000e FFF7FEFF 		bl	malloc
  48              	.LVL2:
  49 0012 A060     		str	r0, [r4, #8]
  32:Timer/App__Generated.c **** 		MainPage__Initializer(context->Main_Page);
  50              		.loc 1 32 0
  51 0014 FFF7FEFF 		bl	MainPage__Initializer
  52              	.LVL3:
  33:Timer/App__Generated.c **** 		context->Main_Page->Parent = context;
  53              		.loc 1 33 0
  54 0018 A368     		ldr	r3, [r4, #8]
  55 001a 1C60     		str	r4, [r3]
  34:Timer/App__Generated.c **** 		MainPage_Start(context->Main_Page);
  56              		.loc 1 34 0
  57 001c A068     		ldr	r0, [r4, #8]
  58 001e FFF7FEFF 		bl	MainPage_Start
  59              	.LVL4:
  35:Timer/App__Generated.c **** 	}
  36:Timer/App__Generated.c **** }
  60              		.loc 1 36 0
  61 0022 10BD     		pop	{r4, pc}
  62              		.cfi_endproc
  63              	.LFE16:
  65              		.section	.text.App__Main_Page__Create,"ax",%progbits
  66              		.align	1
  67              		.syntax unified
  68              		.thumb
  69              		.thumb_func
  70              		.fpu fpv5-sp-d16
  72              	App__Main_Page__Create:
  73              	.LFB17:
  37:Timer/App__Generated.c **** 
  38:Timer/App__Generated.c **** static void App__Main_Page__Create(App *context)
  39:Timer/App__Generated.c **** {
  74              		.loc 1 39 0
  75              		.cfi_startproc
  76              		@ args = 0, pretend = 0, frame = 0
  77              		@ frame_needed = 0, uses_anonymous_args = 0
ARM GAS  /var/folders/n8/cvzdcwlj0vl4g_wtyz1ffy300000gn/T//ccbfbfEP.s 			page 3


  78              	.LVL5:
  79 0000 10B5     		push	{r4, lr}
  80              	.LCFI1:
  81              		.cfi_def_cfa_offset 8
  82              		.cfi_offset 4, -8
  83              		.cfi_offset 14, -4
  84 0002 0446     		mov	r4, r0
  40:Timer/App__Generated.c **** 	App__Main_Page__Validate(context);
  85              		.loc 1 40 0
  86 0004 FFF7FEFF 		bl	App__Main_Page__Validate
  87              	.LVL6:
  41:Timer/App__Generated.c **** 	context->Main_Page__Active = 1;
  88              		.loc 1 41 0
  89 0008 0123     		movs	r3, #1
  90 000a E360     		str	r3, [r4, #12]
  42:Timer/App__Generated.c **** }
  91              		.loc 1 42 0
  92 000c 10BD     		pop	{r4, pc}
  93              		.cfi_endproc
  94              	.LFE17:
  96              		.section	.text.App__Main_Page__Destroy,"ax",%progbits
  97              		.align	1
  98              		.syntax unified
  99              		.thumb
 100              		.thumb_func
 101              		.fpu fpv5-sp-d16
 103              	App__Main_Page__Destroy:
 104              	.LFB18:
  43:Timer/App__Generated.c **** 
  44:Timer/App__Generated.c **** static void App__Main_Page__Destroy(App *context, int final)
  45:Timer/App__Generated.c **** {
 105              		.loc 1 45 0
 106              		.cfi_startproc
 107              		@ args = 0, pretend = 0, frame = 0
 108              		@ frame_needed = 0, uses_anonymous_args = 0
 109              	.LVL7:
  46:Timer/App__Generated.c **** 	if (context->Main_Page__Active)
 110              		.loc 1 46 0
 111 0000 C368     		ldr	r3, [r0, #12]
 112 0002 0BB1     		cbz	r3, .L11
  47:Timer/App__Generated.c **** 	{
  48:Timer/App__Generated.c **** 		context->Main_Page__Active = 0;
 113              		.loc 1 48 0
 114 0004 0023     		movs	r3, #0
 115 0006 C360     		str	r3, [r0, #12]
 116              	.L11:
  49:Timer/App__Generated.c **** 	}
  50:Timer/App__Generated.c **** 	if (context->Main_Page)
 117              		.loc 1 50 0
 118 0008 8368     		ldr	r3, [r0, #8]
 119 000a 53B1     		cbz	r3, .L14
  45:Timer/App__Generated.c **** 	if (context->Main_Page__Active)
 120              		.loc 1 45 0
 121 000c 10B5     		push	{r4, lr}
 122              	.LCFI2:
 123              		.cfi_def_cfa_offset 8
 124              		.cfi_offset 4, -8
ARM GAS  /var/folders/n8/cvzdcwlj0vl4g_wtyz1ffy300000gn/T//ccbfbfEP.s 			page 4


 125              		.cfi_offset 14, -4
 126 000e 0446     		mov	r4, r0
  51:Timer/App__Generated.c **** 	{
  52:Timer/App__Generated.c **** 		MainPage_End(context->Main_Page);
 127              		.loc 1 52 0
 128 0010 1846     		mov	r0, r3
 129              	.LVL8:
 130 0012 FFF7FEFF 		bl	MainPage_End
 131              	.LVL9:
  53:Timer/App__Generated.c **** 		free(context->Main_Page);
 132              		.loc 1 53 0
 133 0016 A068     		ldr	r0, [r4, #8]
 134 0018 FFF7FEFF 		bl	free
 135              	.LVL10:
  54:Timer/App__Generated.c **** 		context->Main_Page = 0;
 136              		.loc 1 54 0
 137 001c 0023     		movs	r3, #0
 138 001e A360     		str	r3, [r4, #8]
  55:Timer/App__Generated.c **** 	}
  56:Timer/App__Generated.c **** }
 139              		.loc 1 56 0
 140 0020 10BD     		pop	{r4, pc}
 141              	.LVL11:
 142              	.L14:
 143              	.LCFI3:
 144              		.cfi_def_cfa_offset 0
 145              		.cfi_restore 4
 146              		.cfi_restore 14
 147 0022 7047     		bx	lr
 148              		.cfi_endproc
 149              	.LFE18:
 151              		.section	.text.App__Initializer,"ax",%progbits
 152              		.align	1
 153              		.global	App__Initializer
 154              		.syntax unified
 155              		.thumb
 156              		.thumb_func
 157              		.fpu fpv5-sp-d16
 159              	App__Initializer:
 160              	.LFB15:
  19:Timer/App__Generated.c **** 	context->Parent = 0;
 161              		.loc 1 19 0
 162              		.cfi_startproc
 163              		@ args = 0, pretend = 0, frame = 0
 164              		@ frame_needed = 0, uses_anonymous_args = 0
 165              		@ link register save eliminated.
 166              	.LVL12:
  20:Timer/App__Generated.c **** 	context->_ActivePage = 0;
 167              		.loc 1 20 0
 168 0000 0023     		movs	r3, #0
 169 0002 0360     		str	r3, [r0]
  21:Timer/App__Generated.c **** 	context->Main_Page = 0;
 170              		.loc 1 21 0
 171 0004 4360     		str	r3, [r0, #4]
  22:Timer/App__Generated.c **** 	context->Main_Page__Active = 0;
 172              		.loc 1 22 0
 173 0006 8360     		str	r3, [r0, #8]
ARM GAS  /var/folders/n8/cvzdcwlj0vl4g_wtyz1ffy300000gn/T//ccbfbfEP.s 			page 5


  23:Timer/App__Generated.c **** }
 174              		.loc 1 23 0
 175 0008 C360     		str	r3, [r0, #12]
  24:Timer/App__Generated.c **** 
 176              		.loc 1 24 0
 177 000a 7047     		bx	lr
 178              		.cfi_endproc
 179              	.LFE15:
 181              		.section	.text.App_Start,"ax",%progbits
 182              		.align	1
 183              		.global	App_Start
 184              		.syntax unified
 185              		.thumb
 186              		.thumb_func
 187              		.fpu fpv5-sp-d16
 189              	App_Start:
 190              	.LFB19:
  57:Timer/App__Generated.c **** 
  58:Timer/App__Generated.c **** void App_Start(App *context)
  59:Timer/App__Generated.c **** {
 191              		.loc 1 59 0
 192              		.cfi_startproc
 193              		@ args = 0, pretend = 0, frame = 0
 194              		@ frame_needed = 0, uses_anonymous_args = 0
 195              	.LVL13:
 196 0000 08B5     		push	{r3, lr}
 197              	.LCFI4:
 198              		.cfi_def_cfa_offset 8
 199              		.cfi_offset 3, -8
 200              		.cfi_offset 14, -4
 201              	.LVL14:
  60:Timer/App__Generated.c **** 	void *parent = context->Parent;
  61:Timer/App__Generated.c **** 	App__Main_Page__Create(context);
 202              		.loc 1 61 0
 203 0002 FFF7FEFF 		bl	App__Main_Page__Create
 204              	.LVL15:
  62:Timer/App__Generated.c **** }
 205              		.loc 1 62 0
 206 0006 08BD     		pop	{r3, pc}
 207              		.cfi_endproc
 208              	.LFE19:
 210              		.section	.text.App_Update,"ax",%progbits
 211              		.align	1
 212              		.global	App_Update
 213              		.syntax unified
 214              		.thumb
 215              		.thumb_func
 216              		.fpu fpv5-sp-d16
 218              	App_Update:
 219              	.LFB20:
  63:Timer/App__Generated.c **** 
  64:Timer/App__Generated.c **** void App_Update(App *context)
  65:Timer/App__Generated.c **** {
 220              		.loc 1 65 0
 221              		.cfi_startproc
 222              		@ args = 0, pretend = 0, frame = 0
 223              		@ frame_needed = 0, uses_anonymous_args = 0
ARM GAS  /var/folders/n8/cvzdcwlj0vl4g_wtyz1ffy300000gn/T//ccbfbfEP.s 			page 6


 224              	.LVL16:
 225 0000 08B5     		push	{r3, lr}
 226              	.LCFI5:
 227              		.cfi_def_cfa_offset 8
 228              		.cfi_offset 3, -8
 229              		.cfi_offset 14, -4
 230              	.LVL17:
  66:Timer/App__Generated.c **** 	void *parent = context->Parent;
  67:Timer/App__Generated.c **** 	MainPage_Update(context->Main_Page);
 231              		.loc 1 67 0
 232 0002 8068     		ldr	r0, [r0, #8]
 233              	.LVL18:
 234 0004 FFF7FEFF 		bl	MainPage_Update
 235              	.LVL19:
  68:Timer/App__Generated.c **** }
 236              		.loc 1 68 0
 237 0008 08BD     		pop	{r3, pc}
 238              		.cfi_endproc
 239              	.LFE20:
 241              		.section	.text.App_Render,"ax",%progbits
 242              		.align	1
 243              		.global	App_Render
 244              		.syntax unified
 245              		.thumb
 246              		.thumb_func
 247              		.fpu fpv5-sp-d16
 249              	App_Render:
 250              	.LFB21:
  69:Timer/App__Generated.c **** 
  70:Timer/App__Generated.c **** void App_Render(App *context)
  71:Timer/App__Generated.c **** {
 251              		.loc 1 71 0
 252              		.cfi_startproc
 253              		@ args = 0, pretend = 0, frame = 0
 254              		@ frame_needed = 0, uses_anonymous_args = 0
 255              	.LVL20:
 256 0000 08B5     		push	{r3, lr}
 257              	.LCFI6:
 258              		.cfi_def_cfa_offset 8
 259              		.cfi_offset 3, -8
 260              		.cfi_offset 14, -4
 261              	.LVL21:
  72:Timer/App__Generated.c **** 	void *parent = context->Parent;
  73:Timer/App__Generated.c **** 	MainPage_Render(context->Main_Page);
 262              		.loc 1 73 0
 263 0002 8068     		ldr	r0, [r0, #8]
 264              	.LVL22:
 265 0004 FFF7FEFF 		bl	MainPage_Render
 266              	.LVL23:
  74:Timer/App__Generated.c **** }
 267              		.loc 1 74 0
 268 0008 08BD     		pop	{r3, pc}
 269              		.cfi_endproc
 270              	.LFE21:
 272              		.section	.text.App_Idle,"ax",%progbits
 273              		.align	1
 274              		.global	App_Idle
ARM GAS  /var/folders/n8/cvzdcwlj0vl4g_wtyz1ffy300000gn/T//ccbfbfEP.s 			page 7


 275              		.syntax unified
 276              		.thumb
 277              		.thumb_func
 278              		.fpu fpv5-sp-d16
 280              	App_Idle:
 281              	.LFB22:
  75:Timer/App__Generated.c **** 
  76:Timer/App__Generated.c **** void App_Idle(App *context)
  77:Timer/App__Generated.c **** {
 282              		.loc 1 77 0
 283              		.cfi_startproc
 284              		@ args = 0, pretend = 0, frame = 0
 285              		@ frame_needed = 0, uses_anonymous_args = 0
 286              	.LVL24:
 287 0000 08B5     		push	{r3, lr}
 288              	.LCFI7:
 289              		.cfi_def_cfa_offset 8
 290              		.cfi_offset 3, -8
 291              		.cfi_offset 14, -4
 292              	.LVL25:
  78:Timer/App__Generated.c **** 	void *parent = context->Parent;
  79:Timer/App__Generated.c **** 	MainPage_Idle(context->Main_Page);
 293              		.loc 1 79 0
 294 0002 8068     		ldr	r0, [r0, #8]
 295              	.LVL26:
 296 0004 FFF7FEFF 		bl	MainPage_Idle
 297              	.LVL27:
  80:Timer/App__Generated.c **** }
 298              		.loc 1 80 0
 299 0008 08BD     		pop	{r3, pc}
 300              		.cfi_endproc
 301              	.LFE22:
 303              		.section	.text.App_End,"ax",%progbits
 304              		.align	1
 305              		.global	App_End
 306              		.syntax unified
 307              		.thumb
 308              		.thumb_func
 309              		.fpu fpv5-sp-d16
 311              	App_End:
 312              	.LFB23:
  81:Timer/App__Generated.c **** 
  82:Timer/App__Generated.c **** void App_End(App *context)
  83:Timer/App__Generated.c **** {
 313              		.loc 1 83 0
 314              		.cfi_startproc
 315              		@ args = 0, pretend = 0, frame = 0
 316              		@ frame_needed = 0, uses_anonymous_args = 0
 317              	.LVL28:
 318 0000 08B5     		push	{r3, lr}
 319              	.LCFI8:
 320              		.cfi_def_cfa_offset 8
 321              		.cfi_offset 3, -8
 322              		.cfi_offset 14, -4
 323              	.LVL29:
  84:Timer/App__Generated.c **** 	void *parent = context->Parent;
  85:Timer/App__Generated.c **** 	App__Main_Page__Destroy(context, 1);
ARM GAS  /var/folders/n8/cvzdcwlj0vl4g_wtyz1ffy300000gn/T//ccbfbfEP.s 			page 8


 324              		.loc 1 85 0
 325 0002 0121     		movs	r1, #1
 326 0004 FFF7FEFF 		bl	App__Main_Page__Destroy
 327              	.LVL30:
  86:Timer/App__Generated.c **** }
 328              		.loc 1 86 0
 329 0008 08BD     		pop	{r3, pc}
 330              		.cfi_endproc
 331              	.LFE23:
 333              		.section	.text.Ft_Main__Start,"ax",%progbits
 334              		.align	1
 335              		.global	Ft_Main__Start
 336              		.syntax unified
 337              		.thumb
 338              		.thumb_func
 339              		.fpu fpv5-sp-d16
 341              	Ft_Main__Start:
 342              	.LFB24:
  87:Timer/App__Generated.c **** 
  88:Timer/App__Generated.c **** static App application;
  89:Timer/App__Generated.c **** 
  90:Timer/App__Generated.c **** void Ft_Main__Start()
  91:Timer/App__Generated.c **** {
 343              		.loc 1 91 0
 344              		.cfi_startproc
 345              		@ args = 0, pretend = 0, frame = 0
 346              		@ frame_needed = 0, uses_anonymous_args = 0
 347 0000 10B5     		push	{r4, lr}
 348              	.LCFI9:
 349              		.cfi_def_cfa_offset 8
 350              		.cfi_offset 4, -8
 351              		.cfi_offset 14, -4
  92:Timer/App__Generated.c **** 	App__Initializer(&application);
 352              		.loc 1 92 0
 353 0002 044C     		ldr	r4, .L30
 354 0004 2046     		mov	r0, r4
 355 0006 FFF7FEFF 		bl	App__Initializer
 356              	.LVL31:
  93:Timer/App__Generated.c **** 	App_Start(&application);
 357              		.loc 1 93 0
 358 000a 2046     		mov	r0, r4
 359 000c FFF7FEFF 		bl	App_Start
 360              	.LVL32:
  94:Timer/App__Generated.c **** }
 361              		.loc 1 94 0
 362 0010 10BD     		pop	{r4, pc}
 363              	.L31:
 364 0012 00BF     		.align	2
 365              	.L30:
 366 0014 00000000 		.word	.LANCHOR0
 367              		.cfi_endproc
 368              	.LFE24:
 370              		.section	.text.Ft_Main__Update,"ax",%progbits
 371              		.align	1
 372              		.global	Ft_Main__Update
 373              		.syntax unified
 374              		.thumb
ARM GAS  /var/folders/n8/cvzdcwlj0vl4g_wtyz1ffy300000gn/T//ccbfbfEP.s 			page 9


 375              		.thumb_func
 376              		.fpu fpv5-sp-d16
 378              	Ft_Main__Update:
 379              	.LFB25:
  95:Timer/App__Generated.c **** 
  96:Timer/App__Generated.c **** void Ft_Main__Update()
  97:Timer/App__Generated.c **** {
 380              		.loc 1 97 0
 381              		.cfi_startproc
 382              		@ args = 0, pretend = 0, frame = 0
 383              		@ frame_needed = 0, uses_anonymous_args = 0
 384 0000 08B5     		push	{r3, lr}
 385              	.LCFI10:
 386              		.cfi_def_cfa_offset 8
 387              		.cfi_offset 3, -8
 388              		.cfi_offset 14, -4
  98:Timer/App__Generated.c **** 	App_Update(&application);
 389              		.loc 1 98 0
 390 0002 0248     		ldr	r0, .L34
 391 0004 FFF7FEFF 		bl	App_Update
 392              	.LVL33:
  99:Timer/App__Generated.c **** }
 393              		.loc 1 99 0
 394 0008 08BD     		pop	{r3, pc}
 395              	.L35:
 396 000a 00BF     		.align	2
 397              	.L34:
 398 000c 00000000 		.word	.LANCHOR0
 399              		.cfi_endproc
 400              	.LFE25:
 402              		.section	.text.Ft_Main__Render,"ax",%progbits
 403              		.align	1
 404              		.global	Ft_Main__Render
 405              		.syntax unified
 406              		.thumb
 407              		.thumb_func
 408              		.fpu fpv5-sp-d16
 410              	Ft_Main__Render:
 411              	.LFB26:
 100:Timer/App__Generated.c **** 
 101:Timer/App__Generated.c **** void Ft_Main__Render()
 102:Timer/App__Generated.c **** {
 412              		.loc 1 102 0
 413              		.cfi_startproc
 414              		@ args = 0, pretend = 0, frame = 0
 415              		@ frame_needed = 0, uses_anonymous_args = 0
 416 0000 08B5     		push	{r3, lr}
 417              	.LCFI11:
 418              		.cfi_def_cfa_offset 8
 419              		.cfi_offset 3, -8
 420              		.cfi_offset 14, -4
 103:Timer/App__Generated.c **** 	App_Render(&application);
 421              		.loc 1 103 0
 422 0002 0248     		ldr	r0, .L38
 423 0004 FFF7FEFF 		bl	App_Render
 424              	.LVL34:
 104:Timer/App__Generated.c **** }
ARM GAS  /var/folders/n8/cvzdcwlj0vl4g_wtyz1ffy300000gn/T//ccbfbfEP.s 			page 10


 425              		.loc 1 104 0
 426 0008 08BD     		pop	{r3, pc}
 427              	.L39:
 428 000a 00BF     		.align	2
 429              	.L38:
 430 000c 00000000 		.word	.LANCHOR0
 431              		.cfi_endproc
 432              	.LFE26:
 434              		.section	.text.Ft_Main__Idle,"ax",%progbits
 435              		.align	1
 436              		.global	Ft_Main__Idle
 437              		.syntax unified
 438              		.thumb
 439              		.thumb_func
 440              		.fpu fpv5-sp-d16
 442              	Ft_Main__Idle:
 443              	.LFB27:
 105:Timer/App__Generated.c **** 
 106:Timer/App__Generated.c **** void Ft_Main__Idle()
 107:Timer/App__Generated.c **** {
 444              		.loc 1 107 0
 445              		.cfi_startproc
 446              		@ args = 0, pretend = 0, frame = 0
 447              		@ frame_needed = 0, uses_anonymous_args = 0
 448 0000 08B5     		push	{r3, lr}
 449              	.LCFI12:
 450              		.cfi_def_cfa_offset 8
 451              		.cfi_offset 3, -8
 452              		.cfi_offset 14, -4
 108:Timer/App__Generated.c **** 	App_Idle(&application);
 453              		.loc 1 108 0
 454 0002 0248     		ldr	r0, .L42
 455 0004 FFF7FEFF 		bl	App_Idle
 456              	.LVL35:
 109:Timer/App__Generated.c **** }
 457              		.loc 1 109 0
 458 0008 08BD     		pop	{r3, pc}
 459              	.L43:
 460 000a 00BF     		.align	2
 461              	.L42:
 462 000c 00000000 		.word	.LANCHOR0
 463              		.cfi_endproc
 464              	.LFE27:
 466              		.section	.text.Ft_Main__End,"ax",%progbits
 467              		.align	1
 468              		.global	Ft_Main__End
 469              		.syntax unified
 470              		.thumb
 471              		.thumb_func
 472              		.fpu fpv5-sp-d16
 474              	Ft_Main__End:
 475              	.LFB28:
 110:Timer/App__Generated.c **** 
 111:Timer/App__Generated.c **** void Ft_Main__End()
 112:Timer/App__Generated.c **** {
 476              		.loc 1 112 0
 477              		.cfi_startproc
ARM GAS  /var/folders/n8/cvzdcwlj0vl4g_wtyz1ffy300000gn/T//ccbfbfEP.s 			page 11


 478              		@ args = 0, pretend = 0, frame = 0
 479              		@ frame_needed = 0, uses_anonymous_args = 0
 480 0000 08B5     		push	{r3, lr}
 481              	.LCFI13:
 482              		.cfi_def_cfa_offset 8
 483              		.cfi_offset 3, -8
 484              		.cfi_offset 14, -4
 113:Timer/App__Generated.c **** 	App_End(&application);
 485              		.loc 1 113 0
 486 0002 0248     		ldr	r0, .L46
 487 0004 FFF7FEFF 		bl	App_End
 488              	.LVL36:
 114:Timer/App__Generated.c **** }
 489              		.loc 1 114 0
 490 0008 08BD     		pop	{r3, pc}
 491              	.L47:
 492 000a 00BF     		.align	2
 493              	.L46:
 494 000c 00000000 		.word	.LANCHOR0
 495              		.cfi_endproc
 496              	.LFE28:
 498              		.section	.bss.application,"aw",%nobits
 499              		.align	2
 500              		.set	.LANCHOR0,. + 0
 503              	application:
 504 0000 00000000 		.space	16
 504      00000000 
 504      00000000 
 504      00000000 
 505              		.text
 506              	.Letext0:
 507              		.file 2 "FT_Eve_Hal/FT_DataTypes.h"
 508              		.file 3 "/usr/local/Cellar/arm-none-eabi-gcc/20180627/arm-none-eabi/include/sys/lock.h"
 509              		.file 4 "/usr/local/Cellar/arm-none-eabi-gcc/20180627/arm-none-eabi/include/sys/_types.h"
 510              		.file 5 "/usr/local/Cellar/arm-none-eabi-gcc/20180627/lib/gcc/arm-none-eabi/7.3.1/include/stddef.h
 511              		.file 6 "/usr/local/Cellar/arm-none-eabi-gcc/20180627/arm-none-eabi/include/sys/unistd.h"
 512              		.file 7 "/usr/local/Cellar/arm-none-eabi-gcc/20180627/arm-none-eabi/include/sys/reent.h"
 513              		.file 8 "/usr/local/Cellar/arm-none-eabi-gcc/20180627/arm-none-eabi/include/stdlib.h"
 514              		.file 9 "FT_Esd_Framework/Ft_Esd.h"
 515              		.file 10 "FT_Esd_Widgets/FT_Esd_Theme.h"
 516              		.file 11 "FT_Esd_Widgets/Ft_Esd_DefaultTheme.h"
 517              		.file 12 "FT_Esd_Widgets/Ft_Esd_Label.h"
 518              		.file 13 "FT_Esd_Framework/Ft_Esd_TouchTag.h"
 519              		.file 14 "FT_Esd_Widgets/Ft_Esd_PushButton.h"
 520              		.file 15 "FT_Esd_Widgets/LayoutMargin.h"
 521              		.file 16 "FT_Esd_Widgets/LayoutSplit.h"
 522              		.file 17 "FT_Esd_Widgets/Ft_Esd_SpinBox.h"
 523              		.file 18 "FT_Esd_Framework/Ft_Esd_Timer.h"
 524              		.file 19 "Timer/MainPage.h"
 525              		.file 20 "Timer/App.h"
ARM GAS  /var/folders/n8/cvzdcwlj0vl4g_wtyz1ffy300000gn/T//ccbfbfEP.s 			page 12

