ARM GAS  /var/folders/n8/cvzdcwlj0vl4g_wtyz1ffy300000gn/T//cc4cRNue.s 			page 1


   1              		.cpu cortex-m7
   2              		.eabi_attribute 27, 1
   3              		.eabi_attribute 28, 1
   4              		.eabi_attribute 20, 1
   5              		.eabi_attribute 21, 1
   6              		.eabi_attribute 23, 3
   7              		.eabi_attribute 24, 1
   8              		.eabi_attribute 25, 1
   9              		.eabi_attribute 26, 1
  10              		.eabi_attribute 30, 1
  11              		.eabi_attribute 34, 1
  12              		.eabi_attribute 18, 4
  13              		.file	"Ft_Esd_Timer.c"
  14              		.text
  15              	.Ltext0:
  16              		.cfi_sections	.debug_frame
  17              		.section	.text.Ft_Esd_Timer_RunGlobal,"ax",%progbits
  18              		.align	1
  19              		.global	Ft_Esd_Timer_RunGlobal
  20              		.syntax unified
  21              		.thumb
  22              		.thumb_func
  23              		.fpu fpv5-sp-d16
  25              	Ft_Esd_Timer_RunGlobal:
  26              	.LFB3:
  27              		.file 1 "FT_Esd_Framework/Ft_Esd_Timer.c"
   1:FT_Esd_Framework/Ft_Esd_Timer.c **** #include "Ft_Esd.h"
   2:FT_Esd_Framework/Ft_Esd_Timer.c **** #include "Ft_Esd_Timer.h"
   3:FT_Esd_Framework/Ft_Esd_Timer.c **** #include <stdio.h>
   4:FT_Esd_Framework/Ft_Esd_Timer.c **** 
   5:FT_Esd_Framework/Ft_Esd_Timer.c **** ft_uint32_t Ft_Esd_GetMillis();
   6:FT_Esd_Framework/Ft_Esd_Timer.c **** 
   7:FT_Esd_Framework/Ft_Esd_Timer.c **** #define FT_ESD_TIMER_MAXNB 64
   8:FT_Esd_Framework/Ft_Esd_Timer.c **** typedef struct
   9:FT_Esd_Framework/Ft_Esd_Timer.c **** {
  10:FT_Esd_Framework/Ft_Esd_Timer.c **** 	ft_int32_t TimeMs;
  11:FT_Esd_Framework/Ft_Esd_Timer.c **** 	Ft_Esd_Timer *Timer;
  12:FT_Esd_Framework/Ft_Esd_Timer.c **** } Ft_Esd_TimerEntry;
  13:FT_Esd_Framework/Ft_Esd_Timer.c **** Ft_Esd_TimerEntry Ft_Esd_TimerEntries[FT_ESD_TIMER_MAXNB];
  14:FT_Esd_Framework/Ft_Esd_Timer.c **** unsigned int Ft_Esd_TimerEntryNb = 0;
  15:FT_Esd_Framework/Ft_Esd_Timer.c **** 
  16:FT_Esd_Framework/Ft_Esd_Timer.c **** void Ft_Esd_Timer_RunGlobal(Ft_Esd_Timer *timer, ft_int32_t timeMs)
  17:FT_Esd_Framework/Ft_Esd_Timer.c **** {
  28              		.loc 1 17 0
  29              		.cfi_startproc
  30              		@ args = 0, pretend = 0, frame = 0
  31              		@ frame_needed = 0, uses_anonymous_args = 0
  32              		@ link register save eliminated.
  33              	.LVL0:
  34 0000 F0B4     		push	{r4, r5, r6, r7}
  35              	.LCFI0:
  36              		.cfi_def_cfa_offset 16
  37              		.cfi_offset 4, -16
  38              		.cfi_offset 5, -12
  39              		.cfi_offset 6, -8
  40              		.cfi_offset 7, -4
  18:FT_Esd_Framework/Ft_Esd_Timer.c **** 	if (Ft_Esd_TimerEntryNb < FT_ESD_TIMER_MAXNB)
ARM GAS  /var/folders/n8/cvzdcwlj0vl4g_wtyz1ffy300000gn/T//cc4cRNue.s 			page 2


  41              		.loc 1 18 0
  42 0002 164B     		ldr	r3, .L10
  43 0004 1E68     		ldr	r6, [r3]
  44 0006 3F2E     		cmp	r6, #63
  45 0008 25D8     		bhi	.L1
  46 000a 8446     		mov	ip, r0
  47 000c 0F46     		mov	r7, r1
  48              	.LBB2:
  19:FT_Esd_Framework/Ft_Esd_Timer.c **** 	{
  20:FT_Esd_Framework/Ft_Esd_Timer.c **** 		int i = 0;
  21:FT_Esd_Framework/Ft_Esd_Timer.c **** 		for (i = 0; i < Ft_Esd_TimerEntryNb; ++i)
  49              		.loc 1 21 0
  50 000e 0023     		movs	r3, #0
  51              	.L2:
  52              	.LVL1:
  53              		.loc 1 21 0 is_stmt 0 discriminator 1
  54 0010 9E42     		cmp	r6, r3
  55 0012 07D9     		bls	.L4
  22:FT_Esd_Framework/Ft_Esd_Timer.c **** 		{
  23:FT_Esd_Framework/Ft_Esd_Timer.c **** 			if ((timeMs - Ft_Esd_TimerEntries[i].TimeMs) >= 0)
  56              		.loc 1 23 0 is_stmt 1
  57 0014 124A     		ldr	r2, .L10+4
  58 0016 52F83320 		ldr	r2, [r2, r3, lsl #3]
  59 001a BA1A     		subs	r2, r7, r2
  60 001c 002A     		cmp	r2, #0
  61 001e 01DA     		bge	.L4
  21:FT_Esd_Framework/Ft_Esd_Timer.c **** 		{
  62              		.loc 1 21 0 discriminator 2
  63 0020 0133     		adds	r3, r3, #1
  64              	.LVL2:
  65 0022 F5E7     		b	.L2
  66              	.L4:
  67              	.LBB3:
  24:FT_Esd_Framework/Ft_Esd_Timer.c **** 			{
  25:FT_Esd_Framework/Ft_Esd_Timer.c **** 				break;
  26:FT_Esd_Framework/Ft_Esd_Timer.c **** 			}
  27:FT_Esd_Framework/Ft_Esd_Timer.c **** 		}
  28:FT_Esd_Framework/Ft_Esd_Timer.c **** 		for (int j = Ft_Esd_TimerEntryNb - 1; j >= i; --j)
  68              		.loc 1 28 0
  69 0024 741E     		subs	r4, r6, #1
  70              	.LVL3:
  71 0026 0AE0     		b	.L6
  72              	.LVL4:
  73              	.L7:
  29:FT_Esd_Framework/Ft_Esd_Timer.c **** 		{
  30:FT_Esd_Framework/Ft_Esd_Timer.c **** 			Ft_Esd_TimerEntries[j + 1] = Ft_Esd_TimerEntries[j];
  74              		.loc 1 30 0 discriminator 3
  75 0028 651C     		adds	r5, r4, #1
  76 002a 0D4A     		ldr	r2, .L10+4
  77 002c 02EBC505 		add	r5, r2, r5, lsl #3
  78 0030 02EBC402 		add	r2, r2, r4, lsl #3
  79 0034 92E80300 		ldm	r2, {r0, r1}
  80 0038 85E80300 		stm	r5, {r0, r1}
  28:FT_Esd_Framework/Ft_Esd_Timer.c **** 		{
  81              		.loc 1 28 0 discriminator 3
  82 003c 013C     		subs	r4, r4, #1
  83              	.LVL5:
ARM GAS  /var/folders/n8/cvzdcwlj0vl4g_wtyz1ffy300000gn/T//cc4cRNue.s 			page 3


  84              	.L6:
  28:FT_Esd_Framework/Ft_Esd_Timer.c **** 		{
  85              		.loc 1 28 0 is_stmt 0 discriminator 1
  86 003e A342     		cmp	r3, r4
  87 0040 F2DD     		ble	.L7
  88              	.LBE3:
  31:FT_Esd_Framework/Ft_Esd_Timer.c **** 		}
  32:FT_Esd_Framework/Ft_Esd_Timer.c **** 		Ft_Esd_TimerEntries[i].Timer = timer;
  89              		.loc 1 32 0 is_stmt 1
  90 0042 074A     		ldr	r2, .L10+4
  91 0044 02EBC301 		add	r1, r2, r3, lsl #3
  92 0048 C1F804C0 		str	ip, [r1, #4]
  33:FT_Esd_Framework/Ft_Esd_Timer.c **** 		Ft_Esd_TimerEntries[i].TimeMs = timeMs;
  93              		.loc 1 33 0
  94 004c 42F83370 		str	r7, [r2, r3, lsl #3]
  34:FT_Esd_Framework/Ft_Esd_Timer.c **** 		++Ft_Esd_TimerEntryNb;
  95              		.loc 1 34 0
  96 0050 0136     		adds	r6, r6, #1
  97 0052 024B     		ldr	r3, .L10
  98              	.LVL6:
  99 0054 1E60     		str	r6, [r3]
 100              	.LVL7:
 101              	.L1:
 102              	.LBE2:
  35:FT_Esd_Framework/Ft_Esd_Timer.c **** 	}
  36:FT_Esd_Framework/Ft_Esd_Timer.c **** }
 103              		.loc 1 36 0
 104 0056 F0BC     		pop	{r4, r5, r6, r7}
 105              	.LCFI1:
 106              		.cfi_restore 7
 107              		.cfi_restore 6
 108              		.cfi_restore 5
 109              		.cfi_restore 4
 110              		.cfi_def_cfa_offset 0
 111 0058 7047     		bx	lr
 112              	.L11:
 113 005a 00BF     		.align	2
 114              	.L10:
 115 005c 00000000 		.word	.LANCHOR0
 116 0060 00000000 		.word	Ft_Esd_TimerEntries
 117              		.cfi_endproc
 118              	.LFE3:
 120              		.section	.text.Ft_Esd_Timer_UpdateGlobal,"ax",%progbits
 121              		.align	1
 122              		.global	Ft_Esd_Timer_UpdateGlobal
 123              		.syntax unified
 124              		.thumb
 125              		.thumb_func
 126              		.fpu fpv5-sp-d16
 128              	Ft_Esd_Timer_UpdateGlobal:
 129              	.LFB4:
  37:FT_Esd_Framework/Ft_Esd_Timer.c **** 
  38:FT_Esd_Framework/Ft_Esd_Timer.c **** void Ft_Esd_Timer_UpdateGlobal()
  39:FT_Esd_Framework/Ft_Esd_Timer.c **** {
 130              		.loc 1 39 0
 131              		.cfi_startproc
 132              		@ args = 0, pretend = 0, frame = 0
ARM GAS  /var/folders/n8/cvzdcwlj0vl4g_wtyz1ffy300000gn/T//cc4cRNue.s 			page 4


 133              		@ frame_needed = 0, uses_anonymous_args = 0
  40:FT_Esd_Framework/Ft_Esd_Timer.c **** 	if (Ft_Esd_TimerEntryNb)
 134              		.loc 1 40 0
 135 0000 174B     		ldr	r3, .L21
 136 0002 1B68     		ldr	r3, [r3]
 137 0004 03B9     		cbnz	r3, .L20
 138 0006 7047     		bx	lr
 139              	.L20:
  39:FT_Esd_Framework/Ft_Esd_Timer.c **** 	if (Ft_Esd_TimerEntryNb)
 140              		.loc 1 39 0
 141 0008 70B5     		push	{r4, r5, r6, lr}
 142              	.LCFI2:
 143              		.cfi_def_cfa_offset 16
 144              		.cfi_offset 4, -16
 145              		.cfi_offset 5, -12
 146              		.cfi_offset 6, -8
 147              		.cfi_offset 14, -4
 148              	.LBB4:
  41:FT_Esd_Framework/Ft_Esd_Timer.c **** 	{
  42:FT_Esd_Framework/Ft_Esd_Timer.c **** 		ft_int32_t timeMs = (ft_int32_t)Ft_Esd_GetMillis();
 149              		.loc 1 42 0
 150 000a FFF7FEFF 		bl	Ft_Esd_GetMillis
 151              	.LVL8:
 152 000e 0646     		mov	r6, r0
 153              	.LVL9:
 154 0010 02E0     		b	.L15
 155              	.LVL10:
 156              	.L14:
  43:FT_Esd_Framework/Ft_Esd_Timer.c **** 		do
  44:FT_Esd_Framework/Ft_Esd_Timer.c **** 		{
  45:FT_Esd_Framework/Ft_Esd_Timer.c **** 			int i = Ft_Esd_TimerEntryNb - 1;
  46:FT_Esd_Framework/Ft_Esd_Timer.c **** 			if ((timeMs - Ft_Esd_TimerEntries[i].TimeMs) >= 0)
  47:FT_Esd_Framework/Ft_Esd_Timer.c **** 			{
  48:FT_Esd_Framework/Ft_Esd_Timer.c **** 				Ft_Esd_Timer *timer = Ft_Esd_TimerEntries[i].Timer;
  49:FT_Esd_Framework/Ft_Esd_Timer.c **** 				timer->Fired(timer->Parent);
  50:FT_Esd_Framework/Ft_Esd_Timer.c **** 				--Ft_Esd_TimerEntryNb;
  51:FT_Esd_Framework/Ft_Esd_Timer.c **** 				if (timer->Repeat && timer->TimeoutMs)
  52:FT_Esd_Framework/Ft_Esd_Timer.c **** 				{
  53:FT_Esd_Framework/Ft_Esd_Timer.c **** 					Ft_Esd_Timer_RunGlobal(timer, timer->TimeoutMs + Ft_Esd_TimerEntries[i].TimeMs); 
  54:FT_Esd_Framework/Ft_Esd_Timer.c **** 				}
  55:FT_Esd_Framework/Ft_Esd_Timer.c **** 			}
  56:FT_Esd_Framework/Ft_Esd_Timer.c **** 			else
  57:FT_Esd_Framework/Ft_Esd_Timer.c **** 			{
  58:FT_Esd_Framework/Ft_Esd_Timer.c **** 				break;
  59:FT_Esd_Framework/Ft_Esd_Timer.c **** 			}
  60:FT_Esd_Framework/Ft_Esd_Timer.c **** 		} while (Ft_Esd_TimerEntryNb);
 157              		.loc 1 60 0
 158 0012 134B     		ldr	r3, .L21
 159 0014 1B68     		ldr	r3, [r3]
 160 0016 0BB3     		cbz	r3, .L12
 161              	.LVL11:
 162              	.L15:
 163              	.LBB5:
  45:FT_Esd_Framework/Ft_Esd_Timer.c **** 			if ((timeMs - Ft_Esd_TimerEntries[i].TimeMs) >= 0)
 164              		.loc 1 45 0
 165 0018 114B     		ldr	r3, .L21
 166 001a 1C68     		ldr	r4, [r3]
ARM GAS  /var/folders/n8/cvzdcwlj0vl4g_wtyz1ffy300000gn/T//cc4cRNue.s 			page 5


 167 001c 013C     		subs	r4, r4, #1
 168              	.LVL12:
  46:FT_Esd_Framework/Ft_Esd_Timer.c **** 			{
 169              		.loc 1 46 0
 170 001e 114B     		ldr	r3, .L21+4
 171 0020 53F83430 		ldr	r3, [r3, r4, lsl #3]
 172 0024 F31A     		subs	r3, r6, r3
 173 0026 002B     		cmp	r3, #0
 174 0028 18DB     		blt	.L12
 175              	.LBB6:
  48:FT_Esd_Framework/Ft_Esd_Timer.c **** 				timer->Fired(timer->Parent);
 176              		.loc 1 48 0
 177 002a 0E4B     		ldr	r3, .L21+4
 178 002c 03EBC403 		add	r3, r3, r4, lsl #3
 179 0030 5D68     		ldr	r5, [r3, #4]
 180              	.LVL13:
  49:FT_Esd_Framework/Ft_Esd_Timer.c **** 				--Ft_Esd_TimerEntryNb;
 181              		.loc 1 49 0
 182 0032 6B68     		ldr	r3, [r5, #4]
 183 0034 2868     		ldr	r0, [r5]
 184 0036 9847     		blx	r3
 185              	.LVL14:
  50:FT_Esd_Framework/Ft_Esd_Timer.c **** 				if (timer->Repeat && timer->TimeoutMs)
 186              		.loc 1 50 0
 187 0038 094A     		ldr	r2, .L21
 188 003a 1368     		ldr	r3, [r2]
 189 003c 013B     		subs	r3, r3, #1
 190 003e 1360     		str	r3, [r2]
  51:FT_Esd_Framework/Ft_Esd_Timer.c **** 				{
 191              		.loc 1 51 0
 192 0040 2B7B     		ldrb	r3, [r5, #12]	@ zero_extendqisi2
 193 0042 002B     		cmp	r3, #0
 194 0044 E5D0     		beq	.L14
  51:FT_Esd_Framework/Ft_Esd_Timer.c **** 				{
 195              		.loc 1 51 0 is_stmt 0 discriminator 1
 196 0046 AB68     		ldr	r3, [r5, #8]
 197 0048 002B     		cmp	r3, #0
 198 004a E2D0     		beq	.L14
  53:FT_Esd_Framework/Ft_Esd_Timer.c **** 				}
 199              		.loc 1 53 0 is_stmt 1
 200 004c 054A     		ldr	r2, .L21+4
 201 004e 52F83410 		ldr	r1, [r2, r4, lsl #3]
 202 0052 1944     		add	r1, r1, r3
 203 0054 2846     		mov	r0, r5
 204 0056 FFF7FEFF 		bl	Ft_Esd_Timer_RunGlobal
 205              	.LVL15:
 206 005a DAE7     		b	.L14
 207              	.LVL16:
 208              	.L12:
 209              	.LBE6:
 210              	.LBE5:
 211              	.LBE4:
  61:FT_Esd_Framework/Ft_Esd_Timer.c **** 	}
  62:FT_Esd_Framework/Ft_Esd_Timer.c **** }
 212              		.loc 1 62 0
 213 005c 70BD     		pop	{r4, r5, r6, pc}
 214              	.LVL17:
ARM GAS  /var/folders/n8/cvzdcwlj0vl4g_wtyz1ffy300000gn/T//cc4cRNue.s 			page 6


 215              	.L22:
 216 005e 00BF     		.align	2
 217              	.L21:
 218 0060 00000000 		.word	.LANCHOR0
 219 0064 00000000 		.word	Ft_Esd_TimerEntries
 220              		.cfi_endproc
 221              	.LFE4:
 223              		.section	.text.Ft_Esd_Timer_CancelGlobal,"ax",%progbits
 224              		.align	1
 225              		.global	Ft_Esd_Timer_CancelGlobal
 226              		.syntax unified
 227              		.thumb
 228              		.thumb_func
 229              		.fpu fpv5-sp-d16
 231              	Ft_Esd_Timer_CancelGlobal:
 232              	.LFB5:
  63:FT_Esd_Framework/Ft_Esd_Timer.c **** 
  64:FT_Esd_Framework/Ft_Esd_Timer.c **** void Ft_Esd_Timer_CancelGlobal()
  65:FT_Esd_Framework/Ft_Esd_Timer.c **** {
 233              		.loc 1 65 0
 234              		.cfi_startproc
 235              		@ args = 0, pretend = 0, frame = 0
 236              		@ frame_needed = 0, uses_anonymous_args = 0
 237              		@ link register save eliminated.
  66:FT_Esd_Framework/Ft_Esd_Timer.c **** 	Ft_Esd_TimerEntryNb = 0;
 238              		.loc 1 66 0
 239 0000 014B     		ldr	r3, .L24
 240 0002 0022     		movs	r2, #0
 241 0004 1A60     		str	r2, [r3]
  67:FT_Esd_Framework/Ft_Esd_Timer.c **** }
 242              		.loc 1 67 0
 243 0006 7047     		bx	lr
 244              	.L25:
 245              		.align	2
 246              	.L24:
 247 0008 00000000 		.word	.LANCHOR0
 248              		.cfi_endproc
 249              	.LFE5:
 251              		.section	.text.Ft_Esd_Timer_End_Signal,"ax",%progbits
 252              		.align	1
 253              		.global	Ft_Esd_Timer_End_Signal
 254              		.syntax unified
 255              		.thumb
 256              		.thumb_func
 257              		.fpu fpv5-sp-d16
 259              	Ft_Esd_Timer_End_Signal:
 260              	.LFB6:
  68:FT_Esd_Framework/Ft_Esd_Timer.c **** 
  69:FT_Esd_Framework/Ft_Esd_Timer.c **** ESD_METHOD(Ft_Esd_Timer_End_Signal, Context = Ft_Esd_Timer)
  70:FT_Esd_Framework/Ft_Esd_Timer.c **** void Ft_Esd_Timer_End_Signal(Ft_Esd_Timer *context)
  71:FT_Esd_Framework/Ft_Esd_Timer.c **** {
 261              		.loc 1 71 0
 262              		.cfi_startproc
 263              		@ args = 0, pretend = 0, frame = 0
 264              		@ frame_needed = 0, uses_anonymous_args = 0
 265              		@ link register save eliminated.
 266              	.LVL18:
ARM GAS  /var/folders/n8/cvzdcwlj0vl4g_wtyz1ffy300000gn/T//cc4cRNue.s 			page 7


  72:FT_Esd_Framework/Ft_Esd_Timer.c **** 	if (Ft_Esd_TimerEntryNb)
 267              		.loc 1 72 0
 268 0000 124B     		ldr	r3, .L38
 269 0002 1968     		ldr	r1, [r3]
 270 0004 61B1     		cbz	r1, .L37
  71:FT_Esd_Framework/Ft_Esd_Timer.c **** 	if (Ft_Esd_TimerEntryNb)
 271              		.loc 1 71 0
 272 0006 30B4     		push	{r4, r5}
 273              	.LCFI3:
 274              		.cfi_def_cfa_offset 8
 275              		.cfi_offset 4, -8
 276              		.cfi_offset 5, -4
 277              	.LBB7:
  73:FT_Esd_Framework/Ft_Esd_Timer.c **** 	{
  74:FT_Esd_Framework/Ft_Esd_Timer.c **** 		int i;
  75:FT_Esd_Framework/Ft_Esd_Timer.c **** 		for (i = 0; i < Ft_Esd_TimerEntryNb; ++i)
 278              		.loc 1 75 0
 279 0008 0023     		movs	r3, #0
 280              	.L27:
 281              	.LVL19:
 282              		.loc 1 75 0 is_stmt 0 discriminator 1
 283 000a 1C46     		mov	r4, r3
 284 000c 9942     		cmp	r1, r3
 285 000e 08D9     		bls	.L29
  76:FT_Esd_Framework/Ft_Esd_Timer.c **** 		{
  77:FT_Esd_Framework/Ft_Esd_Timer.c **** 			if (Ft_Esd_TimerEntries[i].Timer == context)
 286              		.loc 1 77 0 is_stmt 1
 287 0010 0F4A     		ldr	r2, .L38+4
 288 0012 02EBC302 		add	r2, r2, r3, lsl #3
 289 0016 5268     		ldr	r2, [r2, #4]
 290 0018 8242     		cmp	r2, r0
 291 001a 02D0     		beq	.L29
  75:FT_Esd_Framework/Ft_Esd_Timer.c **** 		{
 292              		.loc 1 75 0 discriminator 2
 293 001c 0133     		adds	r3, r3, #1
 294              	.LVL20:
 295 001e F4E7     		b	.L27
 296              	.LVL21:
 297              	.L37:
 298              	.LCFI4:
 299              		.cfi_def_cfa_offset 0
 300              		.cfi_restore 4
 301              		.cfi_restore 5
 302 0020 7047     		bx	lr
 303              	.LVL22:
 304              	.L29:
 305              	.LCFI5:
 306              		.cfi_def_cfa_offset 8
 307              		.cfi_offset 4, -8
 308              		.cfi_offset 5, -4
  78:FT_Esd_Framework/Ft_Esd_Timer.c **** 			{
  79:FT_Esd_Framework/Ft_Esd_Timer.c **** 				break;
  80:FT_Esd_Framework/Ft_Esd_Timer.c **** 			}
  81:FT_Esd_Framework/Ft_Esd_Timer.c **** 		}
  82:FT_Esd_Framework/Ft_Esd_Timer.c **** 		if (i < Ft_Esd_TimerEntryNb)
 309              		.loc 1 82 0
 310 0022 A142     		cmp	r1, r4
ARM GAS  /var/folders/n8/cvzdcwlj0vl4g_wtyz1ffy300000gn/T//cc4cRNue.s 			page 8


 311 0024 10D9     		bls	.L26
  83:FT_Esd_Framework/Ft_Esd_Timer.c **** 		{
  84:FT_Esd_Framework/Ft_Esd_Timer.c **** 			--Ft_Esd_TimerEntryNb;
 312              		.loc 1 84 0
 313 0026 4C1E     		subs	r4, r1, #1
 314 0028 084A     		ldr	r2, .L38
 315 002a 1460     		str	r4, [r2]
  85:FT_Esd_Framework/Ft_Esd_Timer.c **** 			for (; i < Ft_Esd_TimerEntryNb; ++i)
 316              		.loc 1 85 0
 317 002c 0AE0     		b	.L31
 318              	.LVL23:
 319              	.L32:
  86:FT_Esd_Framework/Ft_Esd_Timer.c **** 			{
  87:FT_Esd_Framework/Ft_Esd_Timer.c **** 				Ft_Esd_TimerEntries[i] = Ft_Esd_TimerEntries[i + 1];
 320              		.loc 1 87 0 discriminator 2
 321 002e 5D1C     		adds	r5, r3, #1
 322 0030 074A     		ldr	r2, .L38+4
 323 0032 02EBC303 		add	r3, r2, r3, lsl #3
 324              	.LVL24:
 325 0036 02EBC502 		add	r2, r2, r5, lsl #3
 326 003a 92E80300 		ldm	r2, {r0, r1}
 327 003e 83E80300 		stm	r3, {r0, r1}
 328              	.LVL25:
  85:FT_Esd_Framework/Ft_Esd_Timer.c **** 			for (; i < Ft_Esd_TimerEntryNb; ++i)
 329              		.loc 1 85 0 discriminator 2
 330 0042 2B46     		mov	r3, r5
 331              	.LVL26:
 332              	.L31:
  85:FT_Esd_Framework/Ft_Esd_Timer.c **** 			for (; i < Ft_Esd_TimerEntryNb; ++i)
 333              		.loc 1 85 0 is_stmt 0 discriminator 1
 334 0044 9C42     		cmp	r4, r3
 335 0046 F2D8     		bhi	.L32
 336              	.L26:
 337              	.LBE7:
  88:FT_Esd_Framework/Ft_Esd_Timer.c **** 			}
  89:FT_Esd_Framework/Ft_Esd_Timer.c **** 		}
  90:FT_Esd_Framework/Ft_Esd_Timer.c **** 	}
  91:FT_Esd_Framework/Ft_Esd_Timer.c **** }
 338              		.loc 1 91 0 is_stmt 1
 339 0048 30BC     		pop	{r4, r5}
 340              	.LCFI6:
 341              		.cfi_restore 5
 342              		.cfi_restore 4
 343              		.cfi_def_cfa_offset 0
 344 004a 7047     		bx	lr
 345              	.L39:
 346              		.align	2
 347              	.L38:
 348 004c 00000000 		.word	.LANCHOR0
 349 0050 00000000 		.word	Ft_Esd_TimerEntries
 350              		.cfi_endproc
 351              	.LFE6:
 353              		.section	.text.Ft_Esd_Timer_Run_Signal,"ax",%progbits
 354              		.align	1
 355              		.global	Ft_Esd_Timer_Run_Signal
 356              		.syntax unified
 357              		.thumb
ARM GAS  /var/folders/n8/cvzdcwlj0vl4g_wtyz1ffy300000gn/T//cc4cRNue.s 			page 9


 358              		.thumb_func
 359              		.fpu fpv5-sp-d16
 361              	Ft_Esd_Timer_Run_Signal:
 362              	.LFB7:
  92:FT_Esd_Framework/Ft_Esd_Timer.c **** 
  93:FT_Esd_Framework/Ft_Esd_Timer.c **** ESD_METHOD(Ft_Esd_Timer_Run_Signal, Context = Ft_Esd_Timer)
  94:FT_Esd_Framework/Ft_Esd_Timer.c **** void Ft_Esd_Timer_Run_Signal(Ft_Esd_Timer *context)
  95:FT_Esd_Framework/Ft_Esd_Timer.c **** {
 363              		.loc 1 95 0
 364              		.cfi_startproc
 365              		@ args = 0, pretend = 0, frame = 0
 366              		@ frame_needed = 0, uses_anonymous_args = 0
 367              	.LVL27:
 368 0000 38B5     		push	{r3, r4, r5, lr}
 369              	.LCFI7:
 370              		.cfi_def_cfa_offset 16
 371              		.cfi_offset 3, -16
 372              		.cfi_offset 4, -12
 373              		.cfi_offset 5, -8
 374              		.cfi_offset 14, -4
 375 0002 0446     		mov	r4, r0
  96:FT_Esd_Framework/Ft_Esd_Timer.c **** 	Ft_Esd_Timer_End_Signal(context);
 376              		.loc 1 96 0
 377 0004 FFF7FEFF 		bl	Ft_Esd_Timer_End_Signal
 378              	.LVL28:
  97:FT_Esd_Framework/Ft_Esd_Timer.c **** 	Ft_Esd_Timer_RunGlobal(context, context->TimeoutMs + (ft_int32_t)Ft_Esd_GetMillis()); 
 379              		.loc 1 97 0
 380 0008 A568     		ldr	r5, [r4, #8]
 381 000a FFF7FEFF 		bl	Ft_Esd_GetMillis
 382              	.LVL29:
 383 000e 2918     		adds	r1, r5, r0
 384 0010 2046     		mov	r0, r4
 385 0012 FFF7FEFF 		bl	Ft_Esd_Timer_RunGlobal
 386              	.LVL30:
  98:FT_Esd_Framework/Ft_Esd_Timer.c **** }
 387              		.loc 1 98 0
 388 0016 38BD     		pop	{r3, r4, r5, pc}
 389              		.cfi_endproc
 390              	.LFE7:
 392              		.global	Ft_Esd_TimerEntryNb
 393              		.comm	Ft_Esd_TimerEntries,512,4
 394              		.section	.bss.Ft_Esd_TimerEntryNb,"aw",%nobits
 395              		.align	2
 396              		.set	.LANCHOR0,. + 0
 399              	Ft_Esd_TimerEntryNb:
 400 0000 00000000 		.space	4
 401              		.text
 402              	.Letext0:
 403              		.file 2 "FT_Eve_Hal/FT_DataTypes.h"
 404              		.file 3 "/usr/local/Cellar/arm-none-eabi-gcc/20180627/arm-none-eabi/include/sys/lock.h"
 405              		.file 4 "/usr/local/Cellar/arm-none-eabi-gcc/20180627/arm-none-eabi/include/sys/_types.h"
 406              		.file 5 "/usr/local/Cellar/arm-none-eabi-gcc/20180627/lib/gcc/arm-none-eabi/7.3.1/include/stddef.h
 407              		.file 6 "/usr/local/Cellar/arm-none-eabi-gcc/20180627/arm-none-eabi/include/sys/unistd.h"
 408              		.file 7 "/usr/local/Cellar/arm-none-eabi-gcc/20180627/arm-none-eabi/include/sys/reent.h"
 409              		.file 8 "/usr/local/Cellar/arm-none-eabi-gcc/20180627/arm-none-eabi/include/stdlib.h"
 410              		.file 9 "FT_Esd_Framework/Ft_Esd_Timer.h"
ARM GAS  /var/folders/n8/cvzdcwlj0vl4g_wtyz1ffy300000gn/T//cc4cRNue.s 			page 10

