ARM GAS  /var/folders/n8/cvzdcwlj0vl4g_wtyz1ffy300000gn/T//ccDLYRyM.s 			page 1


   1              		.cpu cortex-m7
   2              		.eabi_attribute 27, 1
   3              		.eabi_attribute 28, 1
   4              		.eabi_attribute 20, 1
   5              		.eabi_attribute 21, 1
   6              		.eabi_attribute 23, 3
   7              		.eabi_attribute 24, 1
   8              		.eabi_attribute 25, 1
   9              		.eabi_attribute 26, 1
  10              		.eabi_attribute 30, 1
  11              		.eabi_attribute 34, 1
  12              		.eabi_attribute 18, 4
  13              		.file	"Ft_Esd_RadioButton__Generated.c"
  14              		.text
  15              	.Ltext0:
  16              		.cfi_sections	.debug_frame
  17              		.section	.text.Ft_Esd_RadioButton_X__Default,"ax",%progbits
  18              		.align	1
  19              		.global	Ft_Esd_RadioButton_X__Default
  20              		.syntax unified
  21              		.thumb
  22              		.thumb_func
  23              		.fpu fpv5-sp-d16
  25              	Ft_Esd_RadioButton_X__Default:
  26              	.LFB28:
  27              		.file 1 "FT_Esd_Widgets/Ft_Esd_RadioButton__Generated.c"
   1:FT_Esd_Widgets/Ft_Esd_RadioButton__Generated.c **** /*
   2:FT_Esd_Widgets/Ft_Esd_RadioButton__Generated.c **** This file is automatically generated
   3:FT_Esd_Widgets/Ft_Esd_RadioButton__Generated.c **** Ft_Esd_RadioButton
   4:FT_Esd_Widgets/Ft_Esd_RadioButton__Generated.c **** C Source
   5:FT_Esd_Widgets/Ft_Esd_RadioButton__Generated.c **** */
   6:FT_Esd_Widgets/Ft_Esd_RadioButton__Generated.c **** 
   7:FT_Esd_Widgets/Ft_Esd_RadioButton__Generated.c **** #include "Ft_Esd_RadioButton.h"
   8:FT_Esd_Widgets/Ft_Esd_RadioButton__Generated.c **** 
   9:FT_Esd_Widgets/Ft_Esd_RadioButton__Generated.c **** #include "FT_Esd_Dl.h"
  10:FT_Esd_Widgets/Ft_Esd_RadioButton__Generated.c **** #include "Ft_Esd_Elements.h"
  11:FT_Esd_Widgets/Ft_Esd_RadioButton__Generated.c **** 
  12:FT_Esd_Widgets/Ft_Esd_RadioButton__Generated.c **** extern void Ft_Esd_Noop(void *context);
  13:FT_Esd_Widgets/Ft_Esd_RadioButton__Generated.c **** Ft_Esd_Theme * Ft_Esd_RadioButton_Theme__Default(void *context) { return Ft_Esd_Theme_GetCurrent();
  14:FT_Esd_Widgets/Ft_Esd_RadioButton__Generated.c **** int Ft_Esd_RadioButton_X__Default(void *context) { return 0L; }
  28              		.loc 1 14 0
  29              		.cfi_startproc
  30              		@ args = 0, pretend = 0, frame = 0
  31              		@ frame_needed = 0, uses_anonymous_args = 0
  32              		@ link register save eliminated.
  33              	.LVL0:
  34              		.loc 1 14 0
  35 0000 0020     		movs	r0, #0
  36              	.LVL1:
  37 0002 7047     		bx	lr
  38              		.cfi_endproc
  39              	.LFE28:
  41              		.section	.text.Ft_Esd_RadioButton_Y__Default,"ax",%progbits
  42              		.align	1
  43              		.global	Ft_Esd_RadioButton_Y__Default
  44              		.syntax unified
  45              		.thumb
ARM GAS  /var/folders/n8/cvzdcwlj0vl4g_wtyz1ffy300000gn/T//ccDLYRyM.s 			page 2


  46              		.thumb_func
  47              		.fpu fpv5-sp-d16
  49              	Ft_Esd_RadioButton_Y__Default:
  50              	.LFB29:
  15:FT_Esd_Widgets/Ft_Esd_RadioButton__Generated.c **** int Ft_Esd_RadioButton_Y__Default(void *context) { return 0L; }
  51              		.loc 1 15 0
  52              		.cfi_startproc
  53              		@ args = 0, pretend = 0, frame = 0
  54              		@ frame_needed = 0, uses_anonymous_args = 0
  55              		@ link register save eliminated.
  56              	.LVL2:
  57              		.loc 1 15 0
  58 0000 0020     		movs	r0, #0
  59              	.LVL3:
  60 0002 7047     		bx	lr
  61              		.cfi_endproc
  62              	.LFE29:
  64              		.section	.text.Ft_Esd_RadioButton_Width__Default,"ax",%progbits
  65              		.align	1
  66              		.global	Ft_Esd_RadioButton_Width__Default
  67              		.syntax unified
  68              		.thumb
  69              		.thumb_func
  70              		.fpu fpv5-sp-d16
  72              	Ft_Esd_RadioButton_Width__Default:
  73              	.LFB30:
  16:FT_Esd_Widgets/Ft_Esd_RadioButton__Generated.c **** int Ft_Esd_RadioButton_Width__Default(void *context) { return 20L; }
  74              		.loc 1 16 0
  75              		.cfi_startproc
  76              		@ args = 0, pretend = 0, frame = 0
  77              		@ frame_needed = 0, uses_anonymous_args = 0
  78              		@ link register save eliminated.
  79              	.LVL4:
  80              		.loc 1 16 0
  81 0000 1420     		movs	r0, #20
  82              	.LVL5:
  83 0002 7047     		bx	lr
  84              		.cfi_endproc
  85              	.LFE30:
  87              		.section	.text.Ft_Esd_RadioButton_Height__Default,"ax",%progbits
  88              		.align	1
  89              		.global	Ft_Esd_RadioButton_Height__Default
  90              		.syntax unified
  91              		.thumb
  92              		.thumb_func
  93              		.fpu fpv5-sp-d16
  95              	Ft_Esd_RadioButton_Height__Default:
  96              	.LFB31:
  17:FT_Esd_Widgets/Ft_Esd_RadioButton__Generated.c **** int Ft_Esd_RadioButton_Height__Default(void *context) { return 20L; }
  97              		.loc 1 17 0
  98              		.cfi_startproc
  99              		@ args = 0, pretend = 0, frame = 0
 100              		@ frame_needed = 0, uses_anonymous_args = 0
 101              		@ link register save eliminated.
 102              	.LVL6:
 103              		.loc 1 17 0
 104 0000 1420     		movs	r0, #20
ARM GAS  /var/folders/n8/cvzdcwlj0vl4g_wtyz1ffy300000gn/T//ccDLYRyM.s 			page 3


 105              	.LVL7:
 106 0002 7047     		bx	lr
 107              		.cfi_endproc
 108              	.LFE31:
 110              		.section	.text.Ft_Esd_RadioButton_RadioGroup__Default,"ax",%progbits
 111              		.align	1
 112              		.global	Ft_Esd_RadioButton_RadioGroup__Default
 113              		.syntax unified
 114              		.thumb
 115              		.thumb_func
 116              		.fpu fpv5-sp-d16
 118              	Ft_Esd_RadioButton_RadioGroup__Default:
 119              	.LFB32:
  18:FT_Esd_Widgets/Ft_Esd_RadioButton__Generated.c **** Ft_Esd_RadioGroup * Ft_Esd_RadioButton_RadioGroup__Default(void *context) { return 0x0; }
 120              		.loc 1 18 0
 121              		.cfi_startproc
 122              		@ args = 0, pretend = 0, frame = 0
 123              		@ frame_needed = 0, uses_anonymous_args = 0
 124              		@ link register save eliminated.
 125              	.LVL8:
 126              		.loc 1 18 0
 127 0000 0020     		movs	r0, #0
 128              	.LVL9:
 129 0002 7047     		bx	lr
 130              		.cfi_endproc
 131              	.LFE32:
 133              		.section	.text.Ft_Esd_RadioButton_Changed__Noop,"ax",%progbits
 134              		.align	1
 135              		.global	Ft_Esd_RadioButton_Changed__Noop
 136              		.syntax unified
 137              		.thumb
 138              		.thumb_func
 139              		.fpu fpv5-sp-d16
 141              	Ft_Esd_RadioButton_Changed__Noop:
 142              	.LFB33:
  19:FT_Esd_Widgets/Ft_Esd_RadioButton__Generated.c **** void Ft_Esd_RadioButton_Changed__Noop(void *context, ft_bool_t value) { }
 143              		.loc 1 19 0
 144              		.cfi_startproc
 145              		@ args = 0, pretend = 0, frame = 0
 146              		@ frame_needed = 0, uses_anonymous_args = 0
 147              		@ link register save eliminated.
 148              	.LVL10:
 149              		.loc 1 19 0
 150 0000 7047     		bx	lr
 151              		.cfi_endproc
 152              	.LFE33:
 154              		.section	.text.Ft_Esd_RadioButton_Font__Default,"ax",%progbits
 155              		.align	1
 156              		.global	Ft_Esd_RadioButton_Font__Default
 157              		.syntax unified
 158              		.thumb
 159              		.thumb_func
 160              		.fpu fpv5-sp-d16
 162              	Ft_Esd_RadioButton_Font__Default:
 163              	.LFB34:
  20:FT_Esd_Widgets/Ft_Esd_RadioButton__Generated.c **** int Ft_Esd_RadioButton_Font__Default(void *context) { return 27L; }
 164              		.loc 1 20 0
ARM GAS  /var/folders/n8/cvzdcwlj0vl4g_wtyz1ffy300000gn/T//ccDLYRyM.s 			page 4


 165              		.cfi_startproc
 166              		@ args = 0, pretend = 0, frame = 0
 167              		@ frame_needed = 0, uses_anonymous_args = 0
 168              		@ link register save eliminated.
 169              	.LVL11:
 170              		.loc 1 20 0
 171 0000 1B20     		movs	r0, #27
 172              	.LVL12:
 173 0002 7047     		bx	lr
 174              		.cfi_endproc
 175              	.LFE34:
 177              		.section	.text.Ft_Esd_RadioButton_Text__Default,"ax",%progbits
 178              		.align	1
 179              		.global	Ft_Esd_RadioButton_Text__Default
 180              		.syntax unified
 181              		.thumb
 182              		.thumb_func
 183              		.fpu fpv5-sp-d16
 185              	Ft_Esd_RadioButton_Text__Default:
 186              	.LFB35:
  21:FT_Esd_Widgets/Ft_Esd_RadioButton__Generated.c **** char * Ft_Esd_RadioButton_Text__Default(void *context) { return "Option"; }
 187              		.loc 1 21 0
 188              		.cfi_startproc
 189              		@ args = 0, pretend = 0, frame = 0
 190              		@ frame_needed = 0, uses_anonymous_args = 0
 191              		@ link register save eliminated.
 192              	.LVL13:
 193              		.loc 1 21 0
 194 0000 0048     		ldr	r0, .L9
 195              	.LVL14:
 196 0002 7047     		bx	lr
 197              	.L10:
 198              		.align	2
 199              	.L9:
 200 0004 00000000 		.word	.LC0
 201              		.cfi_endproc
 202              	.LFE35:
 204              		.section	.text.Ft_Esd_RadioButton_ESD_Label_AlignY__Property,"ax",%progbits
 205              		.align	1
 206              		.syntax unified
 207              		.thumb
 208              		.thumb_func
 209              		.fpu fpv5-sp-d16
 211              	Ft_Esd_RadioButton_ESD_Label_AlignY__Property:
 212              	.LFB36:
  22:FT_Esd_Widgets/Ft_Esd_RadioButton__Generated.c **** 
  23:FT_Esd_Widgets/Ft_Esd_RadioButton__Generated.c **** Ft_Esd_Theme * Ft_Esd_Theme_GetCurrent();
  24:FT_Esd_Widgets/Ft_Esd_RadioButton__Generated.c **** static Ft_Esd_Theme * Ft_Esd_RadioButton_ESD_Label_Theme__Property(void *context);
  25:FT_Esd_Widgets/Ft_Esd_RadioButton__Generated.c **** static ft_int16_t Ft_Esd_RadioButton_ESD_Label_Font__Property(void *context);
  26:FT_Esd_Widgets/Ft_Esd_RadioButton__Generated.c **** static const char * Ft_Esd_RadioButton_ESD_Label_Text__Property(void *context);
  27:FT_Esd_Widgets/Ft_Esd_RadioButton__Generated.c **** static ft_int16_t Ft_Esd_RadioButton_ESD_Label_X__Property(void *context);
  28:FT_Esd_Widgets/Ft_Esd_RadioButton__Generated.c **** static ft_int16_t Ft_Esd_RadioButton_ESD_Label_Y__Property(void *context);
  29:FT_Esd_Widgets/Ft_Esd_RadioButton__Generated.c **** static ft_int16_t Ft_Esd_RadioButton_ESD_Label_Width__Property(void *context);
  30:FT_Esd_Widgets/Ft_Esd_RadioButton__Generated.c **** static ft_int16_t Ft_Esd_RadioButton_ESD_Label_Height__Property(void *context);
  31:FT_Esd_Widgets/Ft_Esd_RadioButton__Generated.c **** static ft_uint16_t Ft_Esd_RadioButton_ESD_Label_AlignY__Property(void *context) { return 1; }
 213              		.loc 1 31 0
 214              		.cfi_startproc
ARM GAS  /var/folders/n8/cvzdcwlj0vl4g_wtyz1ffy300000gn/T//ccDLYRyM.s 			page 5


 215              		@ args = 0, pretend = 0, frame = 0
 216              		@ frame_needed = 0, uses_anonymous_args = 0
 217              		@ link register save eliminated.
 218              	.LVL15:
 219              		.loc 1 31 0
 220 0000 0120     		movs	r0, #1
 221              	.LVL16:
 222 0002 7047     		bx	lr
 223              		.cfi_endproc
 224              	.LFE36:
 226              		.section	.text.Ft_Esd_RadioButton_ESD_Label_Theme__Property,"ax",%progbits
 227              		.align	1
 228              		.syntax unified
 229              		.thumb
 230              		.thumb_func
 231              		.fpu fpv5-sp-d16
 233              	Ft_Esd_RadioButton_ESD_Label_Theme__Property:
 234              	.LFB46:
  32:FT_Esd_Widgets/Ft_Esd_RadioButton__Generated.c **** 
  33:FT_Esd_Widgets/Ft_Esd_RadioButton__Generated.c **** static void Ft_Esd_RadioButton_Touch_Tag_Tap__Signal(void *context);
  34:FT_Esd_Widgets/Ft_Esd_RadioButton__Generated.c **** 
  35:FT_Esd_Widgets/Ft_Esd_RadioButton__Generated.c **** void Ft_Esd_RadioButton__Initializer(Ft_Esd_RadioButton *context)
  36:FT_Esd_Widgets/Ft_Esd_RadioButton__Generated.c **** {
  37:FT_Esd_Widgets/Ft_Esd_RadioButton__Generated.c **** 	context->Parent = 0;
  38:FT_Esd_Widgets/Ft_Esd_RadioButton__Generated.c **** 	Ft_Esd_TouchTag__Initializer(&context->Touch_Tag);
  39:FT_Esd_Widgets/Ft_Esd_RadioButton__Generated.c **** 	context->Touch_Tag.Parent = context;
  40:FT_Esd_Widgets/Ft_Esd_RadioButton__Generated.c **** 	context->Touch_Tag.Tap = Ft_Esd_RadioButton_Touch_Tag_Tap__Signal;
  41:FT_Esd_Widgets/Ft_Esd_RadioButton__Generated.c **** 	context->Theme = Ft_Esd_RadioButton_Theme__Default;
  42:FT_Esd_Widgets/Ft_Esd_RadioButton__Generated.c **** 	context->X = Ft_Esd_RadioButton_X__Default;
  43:FT_Esd_Widgets/Ft_Esd_RadioButton__Generated.c **** 	context->Y = Ft_Esd_RadioButton_Y__Default;
  44:FT_Esd_Widgets/Ft_Esd_RadioButton__Generated.c **** 	context->Width = Ft_Esd_RadioButton_Width__Default;
  45:FT_Esd_Widgets/Ft_Esd_RadioButton__Generated.c **** 	context->Height = Ft_Esd_RadioButton_Height__Default;
  46:FT_Esd_Widgets/Ft_Esd_RadioButton__Generated.c **** 	context->RadioGroup = Ft_Esd_RadioButton_RadioGroup__Default;
  47:FT_Esd_Widgets/Ft_Esd_RadioButton__Generated.c **** 	context->Checked = Ft_Esd_Noop;
  48:FT_Esd_Widgets/Ft_Esd_RadioButton__Generated.c **** 	context->Changed = Ft_Esd_RadioButton_Changed__Noop;
  49:FT_Esd_Widgets/Ft_Esd_RadioButton__Generated.c **** 	context->Font = Ft_Esd_RadioButton_Font__Default;
  50:FT_Esd_Widgets/Ft_Esd_RadioButton__Generated.c **** 	context->Text = Ft_Esd_RadioButton_Text__Default;
  51:FT_Esd_Widgets/Ft_Esd_RadioButton__Generated.c **** 	Ft_Esd_Label__Initializer(&context->ESD_Label);
  52:FT_Esd_Widgets/Ft_Esd_RadioButton__Generated.c **** 	context->ESD_Label.Parent = context;
  53:FT_Esd_Widgets/Ft_Esd_RadioButton__Generated.c **** 	context->ESD_Label.Theme = Ft_Esd_RadioButton_ESD_Label_Theme__Property;
  54:FT_Esd_Widgets/Ft_Esd_RadioButton__Generated.c **** 	context->ESD_Label.Font = Ft_Esd_RadioButton_ESD_Label_Font__Property;
  55:FT_Esd_Widgets/Ft_Esd_RadioButton__Generated.c **** 	context->ESD_Label.Text = Ft_Esd_RadioButton_ESD_Label_Text__Property;
  56:FT_Esd_Widgets/Ft_Esd_RadioButton__Generated.c **** 	context->ESD_Label.X = Ft_Esd_RadioButton_ESD_Label_X__Property;
  57:FT_Esd_Widgets/Ft_Esd_RadioButton__Generated.c **** 	context->ESD_Label.Y = Ft_Esd_RadioButton_ESD_Label_Y__Property;
  58:FT_Esd_Widgets/Ft_Esd_RadioButton__Generated.c **** 	context->ESD_Label.Width = Ft_Esd_RadioButton_ESD_Label_Width__Property;
  59:FT_Esd_Widgets/Ft_Esd_RadioButton__Generated.c **** 	context->ESD_Label.Height = Ft_Esd_RadioButton_ESD_Label_Height__Property;
  60:FT_Esd_Widgets/Ft_Esd_RadioButton__Generated.c **** 	context->ESD_Label.AlignY = Ft_Esd_RadioButton_ESD_Label_AlignY__Property;
  61:FT_Esd_Widgets/Ft_Esd_RadioButton__Generated.c **** }
  62:FT_Esd_Widgets/Ft_Esd_RadioButton__Generated.c **** 
  63:FT_Esd_Widgets/Ft_Esd_RadioButton__Generated.c **** static ft_bool_t Ft_Esd_RadioButton_Is_Checked__return(Ft_Esd_RadioButton *context);
  64:FT_Esd_Widgets/Ft_Esd_RadioButton__Generated.c **** 
  65:FT_Esd_Widgets/Ft_Esd_RadioButton__Generated.c **** void Ft_Esd_RadioButton_Check_Signal(Ft_Esd_RadioButton *context);
  66:FT_Esd_Widgets/Ft_Esd_RadioButton__Generated.c **** ft_bool_t Ft_Esd_RadioButton_IsChecked(Ft_Esd_RadioButton *context);
  67:FT_Esd_Widgets/Ft_Esd_RadioButton__Generated.c **** void Ft_Esd_Elements_CircleSunken(ft_rgb32_t, ft_int16_t, ft_int16_t, ft_int16_t);
  68:FT_Esd_Widgets/Ft_Esd_RadioButton__Generated.c **** void Ft_Esd_Elements_CircleFlat(ft_rgb32_t, ft_int16_t, ft_int16_t, ft_int16_t);
  69:FT_Esd_Widgets/Ft_Esd_RadioButton__Generated.c **** 
  70:FT_Esd_Widgets/Ft_Esd_RadioButton__Generated.c **** void Ft_Esd_RadioButton_Render(Ft_Esd_RadioButton *context)
ARM GAS  /var/folders/n8/cvzdcwlj0vl4g_wtyz1ffy300000gn/T//ccDLYRyM.s 			page 6


  71:FT_Esd_Widgets/Ft_Esd_RadioButton__Generated.c **** {
  72:FT_Esd_Widgets/Ft_Esd_RadioButton__Generated.c **** 	void *parent = context->Parent;
  73:FT_Esd_Widgets/Ft_Esd_RadioButton__Generated.c **** 	ft_uint8_t alpha = 255;
  74:FT_Esd_Widgets/Ft_Esd_RadioButton__Generated.c **** 	Ft_Esd_Dl_COLOR_A(alpha);
  75:FT_Esd_Widgets/Ft_Esd_RadioButton__Generated.c **** 	ft_uint8_t s = Ft_Esd_TouchTag_Tag(&context->Touch_Tag);
  76:FT_Esd_Widgets/Ft_Esd_RadioButton__Generated.c **** 	Ft_Esd_Dl_TAG(s);
  77:FT_Esd_Widgets/Ft_Esd_RadioButton__Generated.c **** 	Ft_Esd_Theme * theme = context->Theme(parent);
  78:FT_Esd_Widgets/Ft_Esd_RadioButton__Generated.c **** 	ft_rgb32_t color = Ft_Esd_Theme_GetBackColor(theme);
  79:FT_Esd_Widgets/Ft_Esd_RadioButton__Generated.c **** 	int left = context->X(parent);
  80:FT_Esd_Widgets/Ft_Esd_RadioButton__Generated.c **** 	int left_2 = context->Width(parent);
  81:FT_Esd_Widgets/Ft_Esd_RadioButton__Generated.c **** 	int right_1 = context->Height(parent);
  82:FT_Esd_Widgets/Ft_Esd_RadioButton__Generated.c **** 	int if_1 = left_2 <= right_1;
  83:FT_Esd_Widgets/Ft_Esd_RadioButton__Generated.c **** 	int left_1;
  84:FT_Esd_Widgets/Ft_Esd_RadioButton__Generated.c **** 	if (if_1)
  85:FT_Esd_Widgets/Ft_Esd_RadioButton__Generated.c **** 	{
  86:FT_Esd_Widgets/Ft_Esd_RadioButton__Generated.c **** 		left_1 = context->Width(parent);
  87:FT_Esd_Widgets/Ft_Esd_RadioButton__Generated.c **** 	}
  88:FT_Esd_Widgets/Ft_Esd_RadioButton__Generated.c **** 	else
  89:FT_Esd_Widgets/Ft_Esd_RadioButton__Generated.c **** 	{
  90:FT_Esd_Widgets/Ft_Esd_RadioButton__Generated.c **** 		left_1 = context->Height(parent);
  91:FT_Esd_Widgets/Ft_Esd_RadioButton__Generated.c **** 	}
  92:FT_Esd_Widgets/Ft_Esd_RadioButton__Generated.c **** 	int right_2 = 2L;
  93:FT_Esd_Widgets/Ft_Esd_RadioButton__Generated.c **** 	int right = left_1 / right_2;
  94:FT_Esd_Widgets/Ft_Esd_RadioButton__Generated.c **** 	int x = left + right;
  95:FT_Esd_Widgets/Ft_Esd_RadioButton__Generated.c **** 	int left_3 = context->Y(parent);
  96:FT_Esd_Widgets/Ft_Esd_RadioButton__Generated.c **** 	int left_4 = context->Height(parent);
  97:FT_Esd_Widgets/Ft_Esd_RadioButton__Generated.c **** 	int right_4 = 2L;
  98:FT_Esd_Widgets/Ft_Esd_RadioButton__Generated.c **** 	int right_3 = left_4 / right_4;
  99:FT_Esd_Widgets/Ft_Esd_RadioButton__Generated.c **** 	int y = left_3 + right_3;
 100:FT_Esd_Widgets/Ft_Esd_RadioButton__Generated.c **** 	int left_6 = context->Width(parent);
 101:FT_Esd_Widgets/Ft_Esd_RadioButton__Generated.c **** 	int right_5 = context->Height(parent);
 102:FT_Esd_Widgets/Ft_Esd_RadioButton__Generated.c **** 	int if_2 = left_6 <= right_5;
 103:FT_Esd_Widgets/Ft_Esd_RadioButton__Generated.c **** 	int left_5;
 104:FT_Esd_Widgets/Ft_Esd_RadioButton__Generated.c **** 	if (if_2)
 105:FT_Esd_Widgets/Ft_Esd_RadioButton__Generated.c **** 	{
 106:FT_Esd_Widgets/Ft_Esd_RadioButton__Generated.c **** 		left_5 = context->Width(parent);
 107:FT_Esd_Widgets/Ft_Esd_RadioButton__Generated.c **** 	}
 108:FT_Esd_Widgets/Ft_Esd_RadioButton__Generated.c **** 	else
 109:FT_Esd_Widgets/Ft_Esd_RadioButton__Generated.c **** 	{
 110:FT_Esd_Widgets/Ft_Esd_RadioButton__Generated.c **** 		left_5 = context->Height(parent);
 111:FT_Esd_Widgets/Ft_Esd_RadioButton__Generated.c **** 	}
 112:FT_Esd_Widgets/Ft_Esd_RadioButton__Generated.c **** 	int right_6 = 2L;
 113:FT_Esd_Widgets/Ft_Esd_RadioButton__Generated.c **** 	int radius = left_5 / right_6;
 114:FT_Esd_Widgets/Ft_Esd_RadioButton__Generated.c **** 	Ft_Esd_Elements_CircleSunken(color, x, y, radius);
 115:FT_Esd_Widgets/Ft_Esd_RadioButton__Generated.c **** 	Ft_Esd_Label_Render(&context->ESD_Label);
 116:FT_Esd_Widgets/Ft_Esd_RadioButton__Generated.c **** 	ft_bool_t left_7 = Ft_Esd_RadioButton_Is_Checked__return(context);
 117:FT_Esd_Widgets/Ft_Esd_RadioButton__Generated.c **** 	ft_bool_t right_7 = Ft_Esd_TouchTag_Inside(&context->Touch_Tag);
 118:FT_Esd_Widgets/Ft_Esd_RadioButton__Generated.c **** 	int if_3 = left_7 || right_7;
 119:FT_Esd_Widgets/Ft_Esd_RadioButton__Generated.c **** 	if (if_3)
 120:FT_Esd_Widgets/Ft_Esd_RadioButton__Generated.c **** 	{
 121:FT_Esd_Widgets/Ft_Esd_RadioButton__Generated.c **** 		ft_bool_t if_4 = Ft_Esd_TouchTag_Inside(&context->Touch_Tag);
 122:FT_Esd_Widgets/Ft_Esd_RadioButton__Generated.c **** 		int color_1;
 123:FT_Esd_Widgets/Ft_Esd_RadioButton__Generated.c **** 		if (if_4)
 124:FT_Esd_Widgets/Ft_Esd_RadioButton__Generated.c **** 		{
 125:FT_Esd_Widgets/Ft_Esd_RadioButton__Generated.c **** 			Ft_Esd_Theme * theme_1 = context->Theme(parent);
 126:FT_Esd_Widgets/Ft_Esd_RadioButton__Generated.c **** 			color_1 = Ft_Esd_Theme_GetTextColor(theme_1);
 127:FT_Esd_Widgets/Ft_Esd_RadioButton__Generated.c **** 		}
ARM GAS  /var/folders/n8/cvzdcwlj0vl4g_wtyz1ffy300000gn/T//ccDLYRyM.s 			page 7


 128:FT_Esd_Widgets/Ft_Esd_RadioButton__Generated.c **** 		else
 129:FT_Esd_Widgets/Ft_Esd_RadioButton__Generated.c **** 		{
 130:FT_Esd_Widgets/Ft_Esd_RadioButton__Generated.c **** 			Ft_Esd_Theme * theme_2 = context->Theme(parent);
 131:FT_Esd_Widgets/Ft_Esd_RadioButton__Generated.c **** 			color_1 = Ft_Esd_Theme_GetPrimaryColor(theme_2);
 132:FT_Esd_Widgets/Ft_Esd_RadioButton__Generated.c **** 		}
 133:FT_Esd_Widgets/Ft_Esd_RadioButton__Generated.c **** 		int left_8 = context->X(parent);
 134:FT_Esd_Widgets/Ft_Esd_RadioButton__Generated.c **** 		int left_10 = context->Width(parent);
 135:FT_Esd_Widgets/Ft_Esd_RadioButton__Generated.c **** 		int right_9 = context->Height(parent);
 136:FT_Esd_Widgets/Ft_Esd_RadioButton__Generated.c **** 		int if_5 = left_10 <= right_9;
 137:FT_Esd_Widgets/Ft_Esd_RadioButton__Generated.c **** 		int left_9;
 138:FT_Esd_Widgets/Ft_Esd_RadioButton__Generated.c **** 		if (if_5)
 139:FT_Esd_Widgets/Ft_Esd_RadioButton__Generated.c **** 		{
 140:FT_Esd_Widgets/Ft_Esd_RadioButton__Generated.c **** 			left_9 = context->Width(parent);
 141:FT_Esd_Widgets/Ft_Esd_RadioButton__Generated.c **** 		}
 142:FT_Esd_Widgets/Ft_Esd_RadioButton__Generated.c **** 		else
 143:FT_Esd_Widgets/Ft_Esd_RadioButton__Generated.c **** 		{
 144:FT_Esd_Widgets/Ft_Esd_RadioButton__Generated.c **** 			left_9 = context->Height(parent);
 145:FT_Esd_Widgets/Ft_Esd_RadioButton__Generated.c **** 		}
 146:FT_Esd_Widgets/Ft_Esd_RadioButton__Generated.c **** 		int right_10 = 2L;
 147:FT_Esd_Widgets/Ft_Esd_RadioButton__Generated.c **** 		int right_8 = left_9 / right_10;
 148:FT_Esd_Widgets/Ft_Esd_RadioButton__Generated.c **** 		int x_1 = left_8 + right_8;
 149:FT_Esd_Widgets/Ft_Esd_RadioButton__Generated.c **** 		int left_11 = context->Y(parent);
 150:FT_Esd_Widgets/Ft_Esd_RadioButton__Generated.c **** 		int left_12 = context->Height(parent);
 151:FT_Esd_Widgets/Ft_Esd_RadioButton__Generated.c **** 		int right_12 = 2L;
 152:FT_Esd_Widgets/Ft_Esd_RadioButton__Generated.c **** 		int right_11 = left_12 / right_12;
 153:FT_Esd_Widgets/Ft_Esd_RadioButton__Generated.c **** 		int y_1 = left_11 + right_11;
 154:FT_Esd_Widgets/Ft_Esd_RadioButton__Generated.c **** 		int left_14 = context->Width(parent);
 155:FT_Esd_Widgets/Ft_Esd_RadioButton__Generated.c **** 		int right_13 = context->Height(parent);
 156:FT_Esd_Widgets/Ft_Esd_RadioButton__Generated.c **** 		int if_6 = left_14 <= right_13;
 157:FT_Esd_Widgets/Ft_Esd_RadioButton__Generated.c **** 		int left_13;
 158:FT_Esd_Widgets/Ft_Esd_RadioButton__Generated.c **** 		if (if_6)
 159:FT_Esd_Widgets/Ft_Esd_RadioButton__Generated.c **** 		{
 160:FT_Esd_Widgets/Ft_Esd_RadioButton__Generated.c **** 			left_13 = context->Width(parent);
 161:FT_Esd_Widgets/Ft_Esd_RadioButton__Generated.c **** 		}
 162:FT_Esd_Widgets/Ft_Esd_RadioButton__Generated.c **** 		else
 163:FT_Esd_Widgets/Ft_Esd_RadioButton__Generated.c **** 		{
 164:FT_Esd_Widgets/Ft_Esd_RadioButton__Generated.c **** 			left_13 = context->Height(parent);
 165:FT_Esd_Widgets/Ft_Esd_RadioButton__Generated.c **** 		}
 166:FT_Esd_Widgets/Ft_Esd_RadioButton__Generated.c **** 		int right_14 = 3L;
 167:FT_Esd_Widgets/Ft_Esd_RadioButton__Generated.c **** 		int radius_1 = left_13 / right_14;
 168:FT_Esd_Widgets/Ft_Esd_RadioButton__Generated.c **** 		Ft_Esd_Elements_CircleFlat(color_1, x_1, y_1, radius_1);
 169:FT_Esd_Widgets/Ft_Esd_RadioButton__Generated.c **** 		ft_uint8_t s_1 = 255;
 170:FT_Esd_Widgets/Ft_Esd_RadioButton__Generated.c **** 		Ft_Esd_Dl_TAG(s_1);
 171:FT_Esd_Widgets/Ft_Esd_RadioButton__Generated.c **** 	}
 172:FT_Esd_Widgets/Ft_Esd_RadioButton__Generated.c **** 	else
 173:FT_Esd_Widgets/Ft_Esd_RadioButton__Generated.c **** 	{
 174:FT_Esd_Widgets/Ft_Esd_RadioButton__Generated.c **** 		ft_uint8_t s_2 = 255;
 175:FT_Esd_Widgets/Ft_Esd_RadioButton__Generated.c **** 		Ft_Esd_Dl_TAG(s_2);
 176:FT_Esd_Widgets/Ft_Esd_RadioButton__Generated.c **** 	}
 177:FT_Esd_Widgets/Ft_Esd_RadioButton__Generated.c **** }
 178:FT_Esd_Widgets/Ft_Esd_RadioButton__Generated.c **** 
 179:FT_Esd_Widgets/Ft_Esd_RadioButton__Generated.c **** void Ft_Esd_RadioButton_Touch_Tag_Tap__Signal(void *c)
 180:FT_Esd_Widgets/Ft_Esd_RadioButton__Generated.c **** {
 181:FT_Esd_Widgets/Ft_Esd_RadioButton__Generated.c **** 	Ft_Esd_RadioButton *context = (Ft_Esd_RadioButton *)c;
 182:FT_Esd_Widgets/Ft_Esd_RadioButton__Generated.c **** 	void *parent = context->Parent;
 183:FT_Esd_Widgets/Ft_Esd_RadioButton__Generated.c **** 	Ft_Esd_RadioButton_Check_Signal(context);
 184:FT_Esd_Widgets/Ft_Esd_RadioButton__Generated.c **** 	context->Checked(parent);
ARM GAS  /var/folders/n8/cvzdcwlj0vl4g_wtyz1ffy300000gn/T//ccDLYRyM.s 			page 8


 185:FT_Esd_Widgets/Ft_Esd_RadioButton__Generated.c **** 	ft_bool_t set_variable = Ft_Esd_RadioButton_Is_Checked__return(context);
 186:FT_Esd_Widgets/Ft_Esd_RadioButton__Generated.c **** 	context->Changed(parent, set_variable);
 187:FT_Esd_Widgets/Ft_Esd_RadioButton__Generated.c **** }
 188:FT_Esd_Widgets/Ft_Esd_RadioButton__Generated.c **** 
 189:FT_Esd_Widgets/Ft_Esd_RadioButton__Generated.c **** void Ft_Esd_RadioButton_Start(Ft_Esd_RadioButton *context)
 190:FT_Esd_Widgets/Ft_Esd_RadioButton__Generated.c **** {
 191:FT_Esd_Widgets/Ft_Esd_RadioButton__Generated.c **** 	void *parent = context->Parent;
 192:FT_Esd_Widgets/Ft_Esd_RadioButton__Generated.c **** 	Ft_Esd_TouchTag_Start(&context->Touch_Tag);
 193:FT_Esd_Widgets/Ft_Esd_RadioButton__Generated.c **** }
 194:FT_Esd_Widgets/Ft_Esd_RadioButton__Generated.c **** 
 195:FT_Esd_Widgets/Ft_Esd_RadioButton__Generated.c **** void Ft_Esd_RadioButton_Update(Ft_Esd_RadioButton *context)
 196:FT_Esd_Widgets/Ft_Esd_RadioButton__Generated.c **** {
 197:FT_Esd_Widgets/Ft_Esd_RadioButton__Generated.c **** 	void *parent = context->Parent;
 198:FT_Esd_Widgets/Ft_Esd_RadioButton__Generated.c **** 	Ft_Esd_TouchTag_Update(&context->Touch_Tag);
 199:FT_Esd_Widgets/Ft_Esd_RadioButton__Generated.c **** }
 200:FT_Esd_Widgets/Ft_Esd_RadioButton__Generated.c **** 
 201:FT_Esd_Widgets/Ft_Esd_RadioButton__Generated.c **** void Ft_Esd_RadioButton_End(Ft_Esd_RadioButton *context)
 202:FT_Esd_Widgets/Ft_Esd_RadioButton__Generated.c **** {
 203:FT_Esd_Widgets/Ft_Esd_RadioButton__Generated.c **** 	void *parent = context->Parent;
 204:FT_Esd_Widgets/Ft_Esd_RadioButton__Generated.c **** 	Ft_Esd_TouchTag_End(&context->Touch_Tag);
 205:FT_Esd_Widgets/Ft_Esd_RadioButton__Generated.c **** }
 206:FT_Esd_Widgets/Ft_Esd_RadioButton__Generated.c **** 
 207:FT_Esd_Widgets/Ft_Esd_RadioButton__Generated.c **** void Ft_Esd_RadioButton_Check(Ft_Esd_RadioButton *context)
 208:FT_Esd_Widgets/Ft_Esd_RadioButton__Generated.c **** {
 209:FT_Esd_Widgets/Ft_Esd_RadioButton__Generated.c **** 	void *parent = context->Parent;
 210:FT_Esd_Widgets/Ft_Esd_RadioButton__Generated.c **** 	Ft_Esd_RadioButton_Check_Signal(context);
 211:FT_Esd_Widgets/Ft_Esd_RadioButton__Generated.c **** 	context->Checked(parent);
 212:FT_Esd_Widgets/Ft_Esd_RadioButton__Generated.c **** 	ft_bool_t set_variable_1 = Ft_Esd_RadioButton_Is_Checked__return(context);
 213:FT_Esd_Widgets/Ft_Esd_RadioButton__Generated.c **** 	context->Changed(parent, set_variable_1);
 214:FT_Esd_Widgets/Ft_Esd_RadioButton__Generated.c **** }
 215:FT_Esd_Widgets/Ft_Esd_RadioButton__Generated.c **** 
 216:FT_Esd_Widgets/Ft_Esd_RadioButton__Generated.c **** ft_bool_t Ft_Esd_RadioButton_Is_Checked__return(Ft_Esd_RadioButton *context)
 217:FT_Esd_Widgets/Ft_Esd_RadioButton__Generated.c **** {
 218:FT_Esd_Widgets/Ft_Esd_RadioButton__Generated.c **** 	void *parent = context->Parent;
 219:FT_Esd_Widgets/Ft_Esd_RadioButton__Generated.c **** 	return Ft_Esd_RadioButton_IsChecked(context);
 220:FT_Esd_Widgets/Ft_Esd_RadioButton__Generated.c **** }
 221:FT_Esd_Widgets/Ft_Esd_RadioButton__Generated.c **** 
 222:FT_Esd_Widgets/Ft_Esd_RadioButton__Generated.c **** ft_bool_t Ft_Esd_RadioButton_Value(Ft_Esd_RadioButton *context)
 223:FT_Esd_Widgets/Ft_Esd_RadioButton__Generated.c **** {
 224:FT_Esd_Widgets/Ft_Esd_RadioButton__Generated.c **** 	void *parent = context->Parent;
 225:FT_Esd_Widgets/Ft_Esd_RadioButton__Generated.c **** 	return Ft_Esd_RadioButton_Is_Checked__return(context);
 226:FT_Esd_Widgets/Ft_Esd_RadioButton__Generated.c **** }
 227:FT_Esd_Widgets/Ft_Esd_RadioButton__Generated.c **** 
 228:FT_Esd_Widgets/Ft_Esd_RadioButton__Generated.c **** Ft_Esd_Theme * Ft_Esd_RadioButton_ESD_Label_Theme__Property(void *c)
 229:FT_Esd_Widgets/Ft_Esd_RadioButton__Generated.c **** {
 235              		.loc 1 229 0
 236              		.cfi_startproc
 237              		@ args = 0, pretend = 0, frame = 0
 238              		@ frame_needed = 0, uses_anonymous_args = 0
 239              	.LVL17:
 240 0000 08B5     		push	{r3, lr}
 241              	.LCFI0:
 242              		.cfi_def_cfa_offset 8
 243              		.cfi_offset 3, -8
 244              		.cfi_offset 14, -4
 245              	.LVL18:
 230:FT_Esd_Widgets/Ft_Esd_RadioButton__Generated.c **** 	Ft_Esd_RadioButton *context = (Ft_Esd_RadioButton *)c;
ARM GAS  /var/folders/n8/cvzdcwlj0vl4g_wtyz1ffy300000gn/T//ccDLYRyM.s 			page 9


 231:FT_Esd_Widgets/Ft_Esd_RadioButton__Generated.c **** 	void *parent = context->Parent;
 232:FT_Esd_Widgets/Ft_Esd_RadioButton__Generated.c **** 	return context->Theme(parent);
 246              		.loc 1 232 0
 247 0002 C369     		ldr	r3, [r0, #28]
 248 0004 0068     		ldr	r0, [r0]
 249              	.LVL19:
 250 0006 9847     		blx	r3
 251              	.LVL20:
 233:FT_Esd_Widgets/Ft_Esd_RadioButton__Generated.c **** }
 252              		.loc 1 233 0
 253 0008 08BD     		pop	{r3, pc}
 254              		.cfi_endproc
 255              	.LFE46:
 257              		.section	.text.Ft_Esd_RadioButton_ESD_Label_Font__Property,"ax",%progbits
 258              		.align	1
 259              		.syntax unified
 260              		.thumb
 261              		.thumb_func
 262              		.fpu fpv5-sp-d16
 264              	Ft_Esd_RadioButton_ESD_Label_Font__Property:
 265              	.LFB47:
 234:FT_Esd_Widgets/Ft_Esd_RadioButton__Generated.c **** 
 235:FT_Esd_Widgets/Ft_Esd_RadioButton__Generated.c **** ft_int16_t Ft_Esd_RadioButton_ESD_Label_Font__Property(void *c)
 236:FT_Esd_Widgets/Ft_Esd_RadioButton__Generated.c **** {
 266              		.loc 1 236 0
 267              		.cfi_startproc
 268              		@ args = 0, pretend = 0, frame = 0
 269              		@ frame_needed = 0, uses_anonymous_args = 0
 270              	.LVL21:
 271 0000 08B5     		push	{r3, lr}
 272              	.LCFI1:
 273              		.cfi_def_cfa_offset 8
 274              		.cfi_offset 3, -8
 275              		.cfi_offset 14, -4
 276              	.LVL22:
 237:FT_Esd_Widgets/Ft_Esd_RadioButton__Generated.c **** 	Ft_Esd_RadioButton *context = (Ft_Esd_RadioButton *)c;
 238:FT_Esd_Widgets/Ft_Esd_RadioButton__Generated.c **** 	void *parent = context->Parent;
 239:FT_Esd_Widgets/Ft_Esd_RadioButton__Generated.c **** 	return context->Font(parent);
 277              		.loc 1 239 0
 278 0002 C36B     		ldr	r3, [r0, #60]
 279 0004 0068     		ldr	r0, [r0]
 280              	.LVL23:
 281 0006 9847     		blx	r3
 282              	.LVL24:
 240:FT_Esd_Widgets/Ft_Esd_RadioButton__Generated.c **** }
 283              		.loc 1 240 0
 284 0008 00B2     		sxth	r0, r0
 285 000a 08BD     		pop	{r3, pc}
 286              		.cfi_endproc
 287              	.LFE47:
 289              		.section	.text.Ft_Esd_RadioButton_ESD_Label_Text__Property,"ax",%progbits
 290              		.align	1
 291              		.syntax unified
 292              		.thumb
 293              		.thumb_func
 294              		.fpu fpv5-sp-d16
 296              	Ft_Esd_RadioButton_ESD_Label_Text__Property:
ARM GAS  /var/folders/n8/cvzdcwlj0vl4g_wtyz1ffy300000gn/T//ccDLYRyM.s 			page 10


 297              	.LFB48:
 241:FT_Esd_Widgets/Ft_Esd_RadioButton__Generated.c **** 
 242:FT_Esd_Widgets/Ft_Esd_RadioButton__Generated.c **** const char * Ft_Esd_RadioButton_ESD_Label_Text__Property(void *c)
 243:FT_Esd_Widgets/Ft_Esd_RadioButton__Generated.c **** {
 298              		.loc 1 243 0
 299              		.cfi_startproc
 300              		@ args = 0, pretend = 0, frame = 0
 301              		@ frame_needed = 0, uses_anonymous_args = 0
 302              	.LVL25:
 303 0000 08B5     		push	{r3, lr}
 304              	.LCFI2:
 305              		.cfi_def_cfa_offset 8
 306              		.cfi_offset 3, -8
 307              		.cfi_offset 14, -4
 308              	.LVL26:
 244:FT_Esd_Widgets/Ft_Esd_RadioButton__Generated.c **** 	Ft_Esd_RadioButton *context = (Ft_Esd_RadioButton *)c;
 245:FT_Esd_Widgets/Ft_Esd_RadioButton__Generated.c **** 	void *parent = context->Parent;
 246:FT_Esd_Widgets/Ft_Esd_RadioButton__Generated.c **** 	return context->Text(parent);
 309              		.loc 1 246 0
 310 0002 036C     		ldr	r3, [r0, #64]
 311 0004 0068     		ldr	r0, [r0]
 312              	.LVL27:
 313 0006 9847     		blx	r3
 314              	.LVL28:
 247:FT_Esd_Widgets/Ft_Esd_RadioButton__Generated.c **** }
 315              		.loc 1 247 0
 316 0008 08BD     		pop	{r3, pc}
 317              		.cfi_endproc
 318              	.LFE48:
 320              		.section	.text.Ft_Esd_RadioButton_ESD_Label_X__Property,"ax",%progbits
 321              		.align	1
 322              		.syntax unified
 323              		.thumb
 324              		.thumb_func
 325              		.fpu fpv5-sp-d16
 327              	Ft_Esd_RadioButton_ESD_Label_X__Property:
 328              	.LFB49:
 248:FT_Esd_Widgets/Ft_Esd_RadioButton__Generated.c **** 
 249:FT_Esd_Widgets/Ft_Esd_RadioButton__Generated.c **** ft_int16_t Ft_Esd_RadioButton_ESD_Label_X__Property(void *c)
 250:FT_Esd_Widgets/Ft_Esd_RadioButton__Generated.c **** {
 329              		.loc 1 250 0
 330              		.cfi_startproc
 331              		@ args = 0, pretend = 0, frame = 0
 332              		@ frame_needed = 0, uses_anonymous_args = 0
 333              	.LVL29:
 334 0000 2DE9F041 		push	{r4, r5, r6, r7, r8, lr}
 335              	.LCFI3:
 336              		.cfi_def_cfa_offset 24
 337              		.cfi_offset 4, -24
 338              		.cfi_offset 5, -20
 339              		.cfi_offset 6, -16
 340              		.cfi_offset 7, -12
 341              		.cfi_offset 8, -8
 342              		.cfi_offset 14, -4
 343 0004 0446     		mov	r4, r0
 344              	.LVL30:
 251:FT_Esd_Widgets/Ft_Esd_RadioButton__Generated.c **** 	Ft_Esd_RadioButton *context = (Ft_Esd_RadioButton *)c;
ARM GAS  /var/folders/n8/cvzdcwlj0vl4g_wtyz1ffy300000gn/T//ccDLYRyM.s 			page 11


 252:FT_Esd_Widgets/Ft_Esd_RadioButton__Generated.c **** 	void *parent = context->Parent;
 345              		.loc 1 252 0
 346 0006 0568     		ldr	r5, [r0]
 347              	.LVL31:
 253:FT_Esd_Widgets/Ft_Esd_RadioButton__Generated.c **** 	int left_16 = context->X(parent);
 348              		.loc 1 253 0
 349 0008 036A     		ldr	r3, [r0, #32]
 350 000a 2846     		mov	r0, r5
 351              	.LVL32:
 352 000c 9847     		blx	r3
 353              	.LVL33:
 354 000e 0646     		mov	r6, r0
 355              	.LVL34:
 254:FT_Esd_Widgets/Ft_Esd_RadioButton__Generated.c **** 	int left_17 = context->Width(parent);
 356              		.loc 1 254 0
 357 0010 A36A     		ldr	r3, [r4, #40]
 358 0012 2846     		mov	r0, r5
 359              	.LVL35:
 360 0014 9847     		blx	r3
 361              	.LVL36:
 362 0016 0746     		mov	r7, r0
 363              	.LVL37:
 255:FT_Esd_Widgets/Ft_Esd_RadioButton__Generated.c **** 	int right_16 = context->Height(parent);
 364              		.loc 1 255 0
 365 0018 E36A     		ldr	r3, [r4, #44]
 366 001a 2846     		mov	r0, r5
 367              	.LVL38:
 368 001c 9847     		blx	r3
 369              	.LVL39:
 256:FT_Esd_Widgets/Ft_Esd_RadioButton__Generated.c **** 	int if_7 = left_17 <= right_16;
 257:FT_Esd_Widgets/Ft_Esd_RadioButton__Generated.c **** 	int right_15;
 258:FT_Esd_Widgets/Ft_Esd_RadioButton__Generated.c **** 	if (if_7)
 370              		.loc 1 258 0
 371 001e 8742     		cmp	r7, r0
 372 0020 1CDC     		bgt	.L19
 259:FT_Esd_Widgets/Ft_Esd_RadioButton__Generated.c **** 	{
 260:FT_Esd_Widgets/Ft_Esd_RadioButton__Generated.c **** 		right_15 = context->Width(parent);
 373              		.loc 1 260 0
 374 0022 A36A     		ldr	r3, [r4, #40]
 375 0024 2846     		mov	r0, r5
 376              	.LVL40:
 377 0026 9847     		blx	r3
 378              	.LVL41:
 379              	.L20:
 261:FT_Esd_Widgets/Ft_Esd_RadioButton__Generated.c **** 	}
 262:FT_Esd_Widgets/Ft_Esd_RadioButton__Generated.c **** 	else
 263:FT_Esd_Widgets/Ft_Esd_RadioButton__Generated.c **** 	{
 264:FT_Esd_Widgets/Ft_Esd_RadioButton__Generated.c **** 		right_15 = context->Height(parent);
 265:FT_Esd_Widgets/Ft_Esd_RadioButton__Generated.c **** 	}
 266:FT_Esd_Widgets/Ft_Esd_RadioButton__Generated.c **** 	int left_15 = left_16 + right_15;
 380              		.loc 1 266 0
 381 0028 0644     		add	r6, r6, r0
 382              	.LVL42:
 267:FT_Esd_Widgets/Ft_Esd_RadioButton__Generated.c **** 	int i = context->Font(parent);
 383              		.loc 1 267 0
 384 002a E36B     		ldr	r3, [r4, #60]
 385 002c 2846     		mov	r0, r5
ARM GAS  /var/folders/n8/cvzdcwlj0vl4g_wtyz1ffy300000gn/T//ccDLYRyM.s 			page 12


 386              	.LVL43:
 387 002e 9847     		blx	r3
 388              	.LVL44:
 268:FT_Esd_Widgets/Ft_Esd_RadioButton__Generated.c **** 	ft_uint16_t left_19 = Ft_Esd_GetFontHeight(i);
 389              		.loc 1 268 0
 390 0030 0F4B     		ldr	r3, .L27
 391 0032 33F81070 		ldrh	r7, [r3, r0, lsl #1]
 392              	.LVL45:
 269:FT_Esd_Widgets/Ft_Esd_RadioButton__Generated.c **** 	int left_20 = context->Width(parent);
 393              		.loc 1 269 0
 394 0036 A36A     		ldr	r3, [r4, #40]
 395 0038 2846     		mov	r0, r5
 396              	.LVL46:
 397 003a 9847     		blx	r3
 398              	.LVL47:
 399 003c 8046     		mov	r8, r0
 400              	.LVL48:
 270:FT_Esd_Widgets/Ft_Esd_RadioButton__Generated.c **** 	int right_19 = context->Height(parent);
 401              		.loc 1 270 0
 402 003e E36A     		ldr	r3, [r4, #44]
 403 0040 2846     		mov	r0, r5
 404              	.LVL49:
 405 0042 9847     		blx	r3
 406              	.LVL50:
 271:FT_Esd_Widgets/Ft_Esd_RadioButton__Generated.c **** 	int if_8 = left_20 <= right_19;
 272:FT_Esd_Widgets/Ft_Esd_RadioButton__Generated.c **** 	int right_18;
 273:FT_Esd_Widgets/Ft_Esd_RadioButton__Generated.c **** 	if (if_8)
 407              		.loc 1 273 0
 408 0044 8045     		cmp	r8, r0
 409 0046 0DDD     		ble	.L25
 274:FT_Esd_Widgets/Ft_Esd_RadioButton__Generated.c **** 	{
 275:FT_Esd_Widgets/Ft_Esd_RadioButton__Generated.c **** 		right_18 = context->Width(parent);
 276:FT_Esd_Widgets/Ft_Esd_RadioButton__Generated.c **** 	}
 277:FT_Esd_Widgets/Ft_Esd_RadioButton__Generated.c **** 	else
 278:FT_Esd_Widgets/Ft_Esd_RadioButton__Generated.c **** 	{
 279:FT_Esd_Widgets/Ft_Esd_RadioButton__Generated.c **** 		right_18 = context->Height(parent);
 410              		.loc 1 279 0
 411 0048 E36A     		ldr	r3, [r4, #44]
 412 004a 2846     		mov	r0, r5
 413              	.LVL51:
 414 004c 9847     		blx	r3
 415              	.LVL52:
 416              	.L22:
 280:FT_Esd_Widgets/Ft_Esd_RadioButton__Generated.c **** 	}
 281:FT_Esd_Widgets/Ft_Esd_RadioButton__Generated.c **** 	int left_18 = left_19 + right_18;
 282:FT_Esd_Widgets/Ft_Esd_RadioButton__Generated.c **** 	int right_20 = 4L;
 283:FT_Esd_Widgets/Ft_Esd_RadioButton__Generated.c **** 	int right_17 = left_18 / right_20;
 417              		.loc 1 283 0
 418 004e 3F18     		adds	r7, r7, r0
 419              	.LVL53:
 420 0050 0CD4     		bmi	.L26
 421              	.L23:
 422              	.LVL54:
 284:FT_Esd_Widgets/Ft_Esd_RadioButton__Generated.c **** 	return left_15 + right_17;
 423              		.loc 1 284 0
 424 0052 06EBA707 		add	r7, r6, r7, asr #2
 425              	.LVL55:
ARM GAS  /var/folders/n8/cvzdcwlj0vl4g_wtyz1ffy300000gn/T//ccDLYRyM.s 			page 13


 285:FT_Esd_Widgets/Ft_Esd_RadioButton__Generated.c **** }
 426              		.loc 1 285 0
 427 0056 38B2     		sxth	r0, r7
 428              	.LVL56:
 429 0058 BDE8F081 		pop	{r4, r5, r6, r7, r8, pc}
 430              	.LVL57:
 431              	.L19:
 264:FT_Esd_Widgets/Ft_Esd_RadioButton__Generated.c **** 	}
 432              		.loc 1 264 0
 433 005c E36A     		ldr	r3, [r4, #44]
 434 005e 2846     		mov	r0, r5
 435              	.LVL58:
 436 0060 9847     		blx	r3
 437              	.LVL59:
 438 0062 E1E7     		b	.L20
 439              	.LVL60:
 440              	.L25:
 275:FT_Esd_Widgets/Ft_Esd_RadioButton__Generated.c **** 	}
 441              		.loc 1 275 0
 442 0064 A36A     		ldr	r3, [r4, #40]
 443 0066 2846     		mov	r0, r5
 444              	.LVL61:
 445 0068 9847     		blx	r3
 446              	.LVL62:
 447 006a F0E7     		b	.L22
 448              	.LVL63:
 449              	.L26:
 283:FT_Esd_Widgets/Ft_Esd_RadioButton__Generated.c **** 	return left_15 + right_17;
 450              		.loc 1 283 0
 451 006c 0337     		adds	r7, r7, #3
 452 006e F0E7     		b	.L23
 453              	.L28:
 454              		.align	2
 455              	.L27:
 456 0070 00000000 		.word	Ft_Esd_FontHeight
 457              		.cfi_endproc
 458              	.LFE49:
 460              		.section	.text.Ft_Esd_RadioButton_ESD_Label_Y__Property,"ax",%progbits
 461              		.align	1
 462              		.syntax unified
 463              		.thumb
 464              		.thumb_func
 465              		.fpu fpv5-sp-d16
 467              	Ft_Esd_RadioButton_ESD_Label_Y__Property:
 468              	.LFB50:
 286:FT_Esd_Widgets/Ft_Esd_RadioButton__Generated.c **** 
 287:FT_Esd_Widgets/Ft_Esd_RadioButton__Generated.c **** ft_int16_t Ft_Esd_RadioButton_ESD_Label_Y__Property(void *c)
 288:FT_Esd_Widgets/Ft_Esd_RadioButton__Generated.c **** {
 469              		.loc 1 288 0
 470              		.cfi_startproc
 471              		@ args = 0, pretend = 0, frame = 0
 472              		@ frame_needed = 0, uses_anonymous_args = 0
 473              	.LVL64:
 474 0000 08B5     		push	{r3, lr}
 475              	.LCFI4:
 476              		.cfi_def_cfa_offset 8
 477              		.cfi_offset 3, -8
ARM GAS  /var/folders/n8/cvzdcwlj0vl4g_wtyz1ffy300000gn/T//ccDLYRyM.s 			page 14


 478              		.cfi_offset 14, -4
 479              	.LVL65:
 289:FT_Esd_Widgets/Ft_Esd_RadioButton__Generated.c **** 	Ft_Esd_RadioButton *context = (Ft_Esd_RadioButton *)c;
 290:FT_Esd_Widgets/Ft_Esd_RadioButton__Generated.c **** 	void *parent = context->Parent;
 291:FT_Esd_Widgets/Ft_Esd_RadioButton__Generated.c **** 	return context->Y(parent);
 480              		.loc 1 291 0
 481 0002 436A     		ldr	r3, [r0, #36]
 482 0004 0068     		ldr	r0, [r0]
 483              	.LVL66:
 484 0006 9847     		blx	r3
 485              	.LVL67:
 292:FT_Esd_Widgets/Ft_Esd_RadioButton__Generated.c **** }
 486              		.loc 1 292 0
 487 0008 00B2     		sxth	r0, r0
 488 000a 08BD     		pop	{r3, pc}
 489              		.cfi_endproc
 490              	.LFE50:
 492              		.section	.text.Ft_Esd_RadioButton_ESD_Label_Width__Property,"ax",%progbits
 493              		.align	1
 494              		.syntax unified
 495              		.thumb
 496              		.thumb_func
 497              		.fpu fpv5-sp-d16
 499              	Ft_Esd_RadioButton_ESD_Label_Width__Property:
 500              	.LFB51:
 293:FT_Esd_Widgets/Ft_Esd_RadioButton__Generated.c **** 
 294:FT_Esd_Widgets/Ft_Esd_RadioButton__Generated.c **** ft_int16_t Ft_Esd_RadioButton_ESD_Label_Width__Property(void *c)
 295:FT_Esd_Widgets/Ft_Esd_RadioButton__Generated.c **** {
 501              		.loc 1 295 0
 502              		.cfi_startproc
 503              		@ args = 0, pretend = 0, frame = 0
 504              		@ frame_needed = 0, uses_anonymous_args = 0
 505              	.LVL68:
 506 0000 08B5     		push	{r3, lr}
 507              	.LCFI5:
 508              		.cfi_def_cfa_offset 8
 509              		.cfi_offset 3, -8
 510              		.cfi_offset 14, -4
 511              	.LVL69:
 296:FT_Esd_Widgets/Ft_Esd_RadioButton__Generated.c **** 	Ft_Esd_RadioButton *context = (Ft_Esd_RadioButton *)c;
 297:FT_Esd_Widgets/Ft_Esd_RadioButton__Generated.c **** 	void *parent = context->Parent;
 298:FT_Esd_Widgets/Ft_Esd_RadioButton__Generated.c **** 	return context->Width(parent);
 512              		.loc 1 298 0
 513 0002 836A     		ldr	r3, [r0, #40]
 514 0004 0068     		ldr	r0, [r0]
 515              	.LVL70:
 516 0006 9847     		blx	r3
 517              	.LVL71:
 299:FT_Esd_Widgets/Ft_Esd_RadioButton__Generated.c **** }
 518              		.loc 1 299 0
 519 0008 00B2     		sxth	r0, r0
 520 000a 08BD     		pop	{r3, pc}
 521              		.cfi_endproc
 522              	.LFE51:
 524              		.section	.text.Ft_Esd_RadioButton_ESD_Label_Height__Property,"ax",%progbits
 525              		.align	1
 526              		.syntax unified
ARM GAS  /var/folders/n8/cvzdcwlj0vl4g_wtyz1ffy300000gn/T//ccDLYRyM.s 			page 15


 527              		.thumb
 528              		.thumb_func
 529              		.fpu fpv5-sp-d16
 531              	Ft_Esd_RadioButton_ESD_Label_Height__Property:
 532              	.LFB52:
 300:FT_Esd_Widgets/Ft_Esd_RadioButton__Generated.c **** 
 301:FT_Esd_Widgets/Ft_Esd_RadioButton__Generated.c **** ft_int16_t Ft_Esd_RadioButton_ESD_Label_Height__Property(void *c)
 302:FT_Esd_Widgets/Ft_Esd_RadioButton__Generated.c **** {
 533              		.loc 1 302 0
 534              		.cfi_startproc
 535              		@ args = 0, pretend = 0, frame = 0
 536              		@ frame_needed = 0, uses_anonymous_args = 0
 537              	.LVL72:
 538 0000 08B5     		push	{r3, lr}
 539              	.LCFI6:
 540              		.cfi_def_cfa_offset 8
 541              		.cfi_offset 3, -8
 542              		.cfi_offset 14, -4
 543              	.LVL73:
 303:FT_Esd_Widgets/Ft_Esd_RadioButton__Generated.c **** 	Ft_Esd_RadioButton *context = (Ft_Esd_RadioButton *)c;
 304:FT_Esd_Widgets/Ft_Esd_RadioButton__Generated.c **** 	void *parent = context->Parent;
 305:FT_Esd_Widgets/Ft_Esd_RadioButton__Generated.c **** 	return context->Height(parent);
 544              		.loc 1 305 0
 545 0002 C36A     		ldr	r3, [r0, #44]
 546 0004 0068     		ldr	r0, [r0]
 547              	.LVL74:
 548 0006 9847     		blx	r3
 549              	.LVL75:
 306:FT_Esd_Widgets/Ft_Esd_RadioButton__Generated.c **** }
 550              		.loc 1 306 0
 551 0008 00B2     		sxth	r0, r0
 552 000a 08BD     		pop	{r3, pc}
 553              		.cfi_endproc
 554              	.LFE52:
 556              		.section	.text.Ft_Esd_RadioButton_Theme__Default,"ax",%progbits
 557              		.align	1
 558              		.global	Ft_Esd_RadioButton_Theme__Default
 559              		.syntax unified
 560              		.thumb
 561              		.thumb_func
 562              		.fpu fpv5-sp-d16
 564              	Ft_Esd_RadioButton_Theme__Default:
 565              	.LFB27:
  13:FT_Esd_Widgets/Ft_Esd_RadioButton__Generated.c **** int Ft_Esd_RadioButton_X__Default(void *context) { return 0L; }
 566              		.loc 1 13 0
 567              		.cfi_startproc
 568              		@ args = 0, pretend = 0, frame = 0
 569              		@ frame_needed = 0, uses_anonymous_args = 0
 570              	.LVL76:
 571 0000 08B5     		push	{r3, lr}
 572              	.LCFI7:
 573              		.cfi_def_cfa_offset 8
 574              		.cfi_offset 3, -8
 575              		.cfi_offset 14, -4
  13:FT_Esd_Widgets/Ft_Esd_RadioButton__Generated.c **** int Ft_Esd_RadioButton_X__Default(void *context) { return 0L; }
 576              		.loc 1 13 0
 577 0002 FFF7FEFF 		bl	Ft_Esd_Theme_GetCurrent
ARM GAS  /var/folders/n8/cvzdcwlj0vl4g_wtyz1ffy300000gn/T//ccDLYRyM.s 			page 16


 578              	.LVL77:
 579 0006 08BD     		pop	{r3, pc}
 580              		.cfi_endproc
 581              	.LFE27:
 583              		.section	.text.Ft_Esd_RadioButton_Is_Checked__return,"ax",%progbits
 584              		.align	1
 585              		.syntax unified
 586              		.thumb
 587              		.thumb_func
 588              		.fpu fpv5-sp-d16
 590              	Ft_Esd_RadioButton_Is_Checked__return:
 591              	.LFB44:
 217:FT_Esd_Widgets/Ft_Esd_RadioButton__Generated.c **** 	void *parent = context->Parent;
 592              		.loc 1 217 0
 593              		.cfi_startproc
 594              		@ args = 0, pretend = 0, frame = 0
 595              		@ frame_needed = 0, uses_anonymous_args = 0
 596              	.LVL78:
 597 0000 08B5     		push	{r3, lr}
 598              	.LCFI8:
 599              		.cfi_def_cfa_offset 8
 600              		.cfi_offset 3, -8
 601              		.cfi_offset 14, -4
 602              	.LVL79:
 219:FT_Esd_Widgets/Ft_Esd_RadioButton__Generated.c **** }
 603              		.loc 1 219 0
 604 0002 FFF7FEFF 		bl	Ft_Esd_RadioButton_IsChecked
 605              	.LVL80:
 220:FT_Esd_Widgets/Ft_Esd_RadioButton__Generated.c **** 
 606              		.loc 1 220 0
 607 0006 08BD     		pop	{r3, pc}
 608              		.cfi_endproc
 609              	.LFE44:
 611              		.section	.text.Ft_Esd_RadioButton_Touch_Tag_Tap__Signal,"ax",%progbits
 612              		.align	1
 613              		.syntax unified
 614              		.thumb
 615              		.thumb_func
 616              		.fpu fpv5-sp-d16
 618              	Ft_Esd_RadioButton_Touch_Tag_Tap__Signal:
 619              	.LFB39:
 180:FT_Esd_Widgets/Ft_Esd_RadioButton__Generated.c **** 	Ft_Esd_RadioButton *context = (Ft_Esd_RadioButton *)c;
 620              		.loc 1 180 0
 621              		.cfi_startproc
 622              		@ args = 0, pretend = 0, frame = 0
 623              		@ frame_needed = 0, uses_anonymous_args = 0
 624              	.LVL81:
 625 0000 38B5     		push	{r3, r4, r5, lr}
 626              	.LCFI9:
 627              		.cfi_def_cfa_offset 16
 628              		.cfi_offset 3, -16
 629              		.cfi_offset 4, -12
 630              		.cfi_offset 5, -8
 631              		.cfi_offset 14, -4
 632 0002 0446     		mov	r4, r0
 633              	.LVL82:
 182:FT_Esd_Widgets/Ft_Esd_RadioButton__Generated.c **** 	Ft_Esd_RadioButton_Check_Signal(context);
ARM GAS  /var/folders/n8/cvzdcwlj0vl4g_wtyz1ffy300000gn/T//ccDLYRyM.s 			page 17


 634              		.loc 1 182 0
 635 0004 0568     		ldr	r5, [r0]
 636              	.LVL83:
 183:FT_Esd_Widgets/Ft_Esd_RadioButton__Generated.c **** 	context->Checked(parent);
 637              		.loc 1 183 0
 638 0006 FFF7FEFF 		bl	Ft_Esd_RadioButton_Check_Signal
 639              	.LVL84:
 184:FT_Esd_Widgets/Ft_Esd_RadioButton__Generated.c **** 	ft_bool_t set_variable = Ft_Esd_RadioButton_Is_Checked__return(context);
 640              		.loc 1 184 0
 641 000a 636B     		ldr	r3, [r4, #52]
 642 000c 2846     		mov	r0, r5
 643 000e 9847     		blx	r3
 644              	.LVL85:
 185:FT_Esd_Widgets/Ft_Esd_RadioButton__Generated.c **** 	context->Changed(parent, set_variable);
 645              		.loc 1 185 0
 646 0010 2046     		mov	r0, r4
 647 0012 FFF7FEFF 		bl	Ft_Esd_RadioButton_Is_Checked__return
 648              	.LVL86:
 186:FT_Esd_Widgets/Ft_Esd_RadioButton__Generated.c **** }
 649              		.loc 1 186 0
 650 0016 A36B     		ldr	r3, [r4, #56]
 651 0018 0146     		mov	r1, r0
 652 001a 2846     		mov	r0, r5
 653              	.LVL87:
 654 001c 9847     		blx	r3
 655              	.LVL88:
 187:FT_Esd_Widgets/Ft_Esd_RadioButton__Generated.c **** 
 656              		.loc 1 187 0
 657 001e 38BD     		pop	{r3, r4, r5, pc}
 658              		.cfi_endproc
 659              	.LFE39:
 661              		.section	.text.Ft_Esd_RadioButton__Initializer,"ax",%progbits
 662              		.align	1
 663              		.global	Ft_Esd_RadioButton__Initializer
 664              		.syntax unified
 665              		.thumb
 666              		.thumb_func
 667              		.fpu fpv5-sp-d16
 669              	Ft_Esd_RadioButton__Initializer:
 670              	.LFB37:
  36:FT_Esd_Widgets/Ft_Esd_RadioButton__Generated.c **** 	context->Parent = 0;
 671              		.loc 1 36 0
 672              		.cfi_startproc
 673              		@ args = 0, pretend = 0, frame = 0
 674              		@ frame_needed = 0, uses_anonymous_args = 0
 675              	.LVL89:
 676 0000 10B5     		push	{r4, lr}
 677              	.LCFI10:
 678              		.cfi_def_cfa_offset 8
 679              		.cfi_offset 4, -8
 680              		.cfi_offset 14, -4
 681 0002 0446     		mov	r4, r0
  37:FT_Esd_Widgets/Ft_Esd_RadioButton__Generated.c **** 	Ft_Esd_TouchTag__Initializer(&context->Touch_Tag);
 682              		.loc 1 37 0
 683 0004 0023     		movs	r3, #0
 684 0006 40F8043B 		str	r3, [r0], #4
 685              	.LVL90:
ARM GAS  /var/folders/n8/cvzdcwlj0vl4g_wtyz1ffy300000gn/T//ccDLYRyM.s 			page 18


  38:FT_Esd_Widgets/Ft_Esd_RadioButton__Generated.c **** 	context->Touch_Tag.Parent = context;
 686              		.loc 1 38 0
 687 000a FFF7FEFF 		bl	Ft_Esd_TouchTag__Initializer
 688              	.LVL91:
  39:FT_Esd_Widgets/Ft_Esd_RadioButton__Generated.c **** 	context->Touch_Tag.Tap = Ft_Esd_RadioButton_Touch_Tag_Tap__Signal;
 689              		.loc 1 39 0
 690 000e 6460     		str	r4, [r4, #4]
  40:FT_Esd_Widgets/Ft_Esd_RadioButton__Generated.c **** 	context->Theme = Ft_Esd_RadioButton_Theme__Default;
 691              		.loc 1 40 0
 692 0010 154B     		ldr	r3, .L43
 693 0012 2361     		str	r3, [r4, #16]
  41:FT_Esd_Widgets/Ft_Esd_RadioButton__Generated.c **** 	context->X = Ft_Esd_RadioButton_X__Default;
 694              		.loc 1 41 0
 695 0014 154B     		ldr	r3, .L43+4
 696 0016 E361     		str	r3, [r4, #28]
  42:FT_Esd_Widgets/Ft_Esd_RadioButton__Generated.c **** 	context->Y = Ft_Esd_RadioButton_Y__Default;
 697              		.loc 1 42 0
 698 0018 154B     		ldr	r3, .L43+8
 699 001a 2362     		str	r3, [r4, #32]
  43:FT_Esd_Widgets/Ft_Esd_RadioButton__Generated.c **** 	context->Width = Ft_Esd_RadioButton_Width__Default;
 700              		.loc 1 43 0
 701 001c 154B     		ldr	r3, .L43+12
 702 001e 6362     		str	r3, [r4, #36]
  44:FT_Esd_Widgets/Ft_Esd_RadioButton__Generated.c **** 	context->Height = Ft_Esd_RadioButton_Height__Default;
 703              		.loc 1 44 0
 704 0020 154B     		ldr	r3, .L43+16
 705 0022 A362     		str	r3, [r4, #40]
  45:FT_Esd_Widgets/Ft_Esd_RadioButton__Generated.c **** 	context->RadioGroup = Ft_Esd_RadioButton_RadioGroup__Default;
 706              		.loc 1 45 0
 707 0024 154B     		ldr	r3, .L43+20
 708 0026 E362     		str	r3, [r4, #44]
  46:FT_Esd_Widgets/Ft_Esd_RadioButton__Generated.c **** 	context->Checked = Ft_Esd_Noop;
 709              		.loc 1 46 0
 710 0028 154B     		ldr	r3, .L43+24
 711 002a 2363     		str	r3, [r4, #48]
  47:FT_Esd_Widgets/Ft_Esd_RadioButton__Generated.c **** 	context->Changed = Ft_Esd_RadioButton_Changed__Noop;
 712              		.loc 1 47 0
 713 002c 154B     		ldr	r3, .L43+28
 714 002e 6363     		str	r3, [r4, #52]
  48:FT_Esd_Widgets/Ft_Esd_RadioButton__Generated.c **** 	context->Font = Ft_Esd_RadioButton_Font__Default;
 715              		.loc 1 48 0
 716 0030 154B     		ldr	r3, .L43+32
 717 0032 A363     		str	r3, [r4, #56]
  49:FT_Esd_Widgets/Ft_Esd_RadioButton__Generated.c **** 	context->Text = Ft_Esd_RadioButton_Text__Default;
 718              		.loc 1 49 0
 719 0034 154B     		ldr	r3, .L43+36
 720 0036 E363     		str	r3, [r4, #60]
  50:FT_Esd_Widgets/Ft_Esd_RadioButton__Generated.c **** 	Ft_Esd_Label__Initializer(&context->ESD_Label);
 721              		.loc 1 50 0
 722 0038 154B     		ldr	r3, .L43+40
 723 003a 2364     		str	r3, [r4, #64]
  51:FT_Esd_Widgets/Ft_Esd_RadioButton__Generated.c **** 	context->ESD_Label.Parent = context;
 724              		.loc 1 51 0
 725 003c 04F14400 		add	r0, r4, #68
 726 0040 FFF7FEFF 		bl	Ft_Esd_Label__Initializer
 727              	.LVL92:
  52:FT_Esd_Widgets/Ft_Esd_RadioButton__Generated.c **** 	context->ESD_Label.Theme = Ft_Esd_RadioButton_ESD_Label_Theme__Property;
ARM GAS  /var/folders/n8/cvzdcwlj0vl4g_wtyz1ffy300000gn/T//ccDLYRyM.s 			page 19


 728              		.loc 1 52 0
 729 0044 6464     		str	r4, [r4, #68]
  53:FT_Esd_Widgets/Ft_Esd_RadioButton__Generated.c **** 	context->ESD_Label.Font = Ft_Esd_RadioButton_ESD_Label_Font__Property;
 730              		.loc 1 53 0
 731 0046 134B     		ldr	r3, .L43+44
 732 0048 A364     		str	r3, [r4, #72]
  54:FT_Esd_Widgets/Ft_Esd_RadioButton__Generated.c **** 	context->ESD_Label.Text = Ft_Esd_RadioButton_ESD_Label_Text__Property;
 733              		.loc 1 54 0
 734 004a 134B     		ldr	r3, .L43+48
 735 004c E364     		str	r3, [r4, #76]
  55:FT_Esd_Widgets/Ft_Esd_RadioButton__Generated.c **** 	context->ESD_Label.X = Ft_Esd_RadioButton_ESD_Label_X__Property;
 736              		.loc 1 55 0
 737 004e 134B     		ldr	r3, .L43+52
 738 0050 2365     		str	r3, [r4, #80]
  56:FT_Esd_Widgets/Ft_Esd_RadioButton__Generated.c **** 	context->ESD_Label.Y = Ft_Esd_RadioButton_ESD_Label_Y__Property;
 739              		.loc 1 56 0
 740 0052 134B     		ldr	r3, .L43+56
 741 0054 6365     		str	r3, [r4, #84]
  57:FT_Esd_Widgets/Ft_Esd_RadioButton__Generated.c **** 	context->ESD_Label.Width = Ft_Esd_RadioButton_ESD_Label_Width__Property;
 742              		.loc 1 57 0
 743 0056 134B     		ldr	r3, .L43+60
 744 0058 A365     		str	r3, [r4, #88]
  58:FT_Esd_Widgets/Ft_Esd_RadioButton__Generated.c **** 	context->ESD_Label.Height = Ft_Esd_RadioButton_ESD_Label_Height__Property;
 745              		.loc 1 58 0
 746 005a 134B     		ldr	r3, .L43+64
 747 005c E365     		str	r3, [r4, #92]
  59:FT_Esd_Widgets/Ft_Esd_RadioButton__Generated.c **** 	context->ESD_Label.AlignY = Ft_Esd_RadioButton_ESD_Label_AlignY__Property;
 748              		.loc 1 59 0
 749 005e 134B     		ldr	r3, .L43+68
 750 0060 2366     		str	r3, [r4, #96]
  60:FT_Esd_Widgets/Ft_Esd_RadioButton__Generated.c **** }
 751              		.loc 1 60 0
 752 0062 134B     		ldr	r3, .L43+72
 753 0064 A366     		str	r3, [r4, #104]
  61:FT_Esd_Widgets/Ft_Esd_RadioButton__Generated.c **** 
 754              		.loc 1 61 0
 755 0066 10BD     		pop	{r4, pc}
 756              	.LVL93:
 757              	.L44:
 758              		.align	2
 759              	.L43:
 760 0068 00000000 		.word	Ft_Esd_RadioButton_Touch_Tag_Tap__Signal
 761 006c 00000000 		.word	Ft_Esd_RadioButton_Theme__Default
 762 0070 00000000 		.word	Ft_Esd_RadioButton_X__Default
 763 0074 00000000 		.word	Ft_Esd_RadioButton_Y__Default
 764 0078 00000000 		.word	Ft_Esd_RadioButton_Width__Default
 765 007c 00000000 		.word	Ft_Esd_RadioButton_Height__Default
 766 0080 00000000 		.word	Ft_Esd_RadioButton_RadioGroup__Default
 767 0084 00000000 		.word	Ft_Esd_Noop
 768 0088 00000000 		.word	Ft_Esd_RadioButton_Changed__Noop
 769 008c 00000000 		.word	Ft_Esd_RadioButton_Font__Default
 770 0090 00000000 		.word	Ft_Esd_RadioButton_Text__Default
 771 0094 00000000 		.word	Ft_Esd_RadioButton_ESD_Label_Theme__Property
 772 0098 00000000 		.word	Ft_Esd_RadioButton_ESD_Label_Font__Property
 773 009c 00000000 		.word	Ft_Esd_RadioButton_ESD_Label_Text__Property
 774 00a0 00000000 		.word	Ft_Esd_RadioButton_ESD_Label_X__Property
 775 00a4 00000000 		.word	Ft_Esd_RadioButton_ESD_Label_Y__Property
ARM GAS  /var/folders/n8/cvzdcwlj0vl4g_wtyz1ffy300000gn/T//ccDLYRyM.s 			page 20


 776 00a8 00000000 		.word	Ft_Esd_RadioButton_ESD_Label_Width__Property
 777 00ac 00000000 		.word	Ft_Esd_RadioButton_ESD_Label_Height__Property
 778 00b0 00000000 		.word	Ft_Esd_RadioButton_ESD_Label_AlignY__Property
 779              		.cfi_endproc
 780              	.LFE37:
 782              		.section	.text.Ft_Esd_RadioButton_Render,"ax",%progbits
 783              		.align	1
 784              		.global	Ft_Esd_RadioButton_Render
 785              		.syntax unified
 786              		.thumb
 787              		.thumb_func
 788              		.fpu fpv5-sp-d16
 790              	Ft_Esd_RadioButton_Render:
 791              	.LFB38:
  71:FT_Esd_Widgets/Ft_Esd_RadioButton__Generated.c **** 	void *parent = context->Parent;
 792              		.loc 1 71 0
 793              		.cfi_startproc
 794              		@ args = 0, pretend = 0, frame = 0
 795              		@ frame_needed = 0, uses_anonymous_args = 0
 796              	.LVL94:
 797 0000 2DE9F047 		push	{r4, r5, r6, r7, r8, r9, r10, lr}
 798              	.LCFI11:
 799              		.cfi_def_cfa_offset 32
 800              		.cfi_offset 4, -32
 801              		.cfi_offset 5, -28
 802              		.cfi_offset 6, -24
 803              		.cfi_offset 7, -20
 804              		.cfi_offset 8, -16
 805              		.cfi_offset 9, -12
 806              		.cfi_offset 10, -8
 807              		.cfi_offset 14, -4
 808 0004 0446     		mov	r4, r0
  72:FT_Esd_Widgets/Ft_Esd_RadioButton__Generated.c **** 	ft_uint8_t alpha = 255;
 809              		.loc 1 72 0
 810 0006 0568     		ldr	r5, [r0]
 811              	.LVL95:
 812              	.LBB36:
 813              	.LBB37:
 814              		.file 2 "FT_Esd_Framework/FT_Esd_Dl.h"
   1:FT_Esd_Framework/FT_Esd_Dl.h **** 
   2:FT_Esd_Framework/FT_Esd_Dl.h **** #ifndef FT_ESD_DL_H
   3:FT_Esd_Framework/FT_Esd_Dl.h **** #define FT_ESD_DL_H
   4:FT_Esd_Framework/FT_Esd_Dl.h **** 
   5:FT_Esd_Framework/FT_Esd_Dl.h **** #include "FT_DataTypes.h"
   6:FT_Esd_Framework/FT_Esd_Dl.h **** #include "FT_Platform.h"
   7:FT_Esd_Framework/FT_Esd_Dl.h **** #include "Ft_Esd.h"
   8:FT_Esd_Framework/FT_Esd_Dl.h **** #include "FT_Gpu.h"
   9:FT_Esd_Framework/FT_Esd_Dl.h **** #include "Ft_Esd_BitmapInfo.h"
  10:FT_Esd_Framework/FT_Esd_Dl.h **** 
  11:FT_Esd_Framework/FT_Esd_Dl.h **** ESD_CATEGORY(EsdUtilities, DisplayName = "ESD Utilities")
  12:FT_Esd_Framework/FT_Esd_Dl.h **** ESD_CATEGORY(EveRenderFunctions, DisplayName = "EVE Render Functions")
  13:FT_Esd_Framework/FT_Esd_Dl.h **** 
  14:FT_Esd_Framework/FT_Esd_Dl.h **** ESD_TYPE(Ft_Gpu_Hal_Context_t *, Native = Pointer, Edit = Library)
  15:FT_Esd_Framework/FT_Esd_Dl.h **** 
  16:FT_Esd_Framework/FT_Esd_Dl.h **** // Keep cache of displaylist values that don't often change but are generally set by every widget t
  17:FT_Esd_Framework/FT_Esd_Dl.h **** #define FT_ESD_OPTIMIZE_DISPLAYLIST 1
  18:FT_Esd_Framework/FT_Esd_Dl.h **** #define FT_ESD_STATE_STACK_SIZE 5
ARM GAS  /var/folders/n8/cvzdcwlj0vl4g_wtyz1ffy300000gn/T//ccDLYRyM.s 			page 21


  19:FT_Esd_Framework/FT_Esd_Dl.h **** 
  20:FT_Esd_Framework/FT_Esd_Dl.h **** #define FT_ESD_BITMAPHANDLE_INVALID 255
  21:FT_Esd_Framework/FT_Esd_Dl.h **** 
  22:FT_Esd_Framework/FT_Esd_Dl.h **** //
  23:FT_Esd_Framework/FT_Esd_Dl.h **** // Structs
  24:FT_Esd_Framework/FT_Esd_Dl.h **** //
  25:FT_Esd_Framework/FT_Esd_Dl.h **** #ifdef FT_ESD_OPTIMIZE_DISPLAYLIST
  26:FT_Esd_Framework/FT_Esd_Dl.h **** #define FT_ESD_STATE Ft_Esd_GpuState[Ft_Esd_GpuState_I]
  27:FT_Esd_Framework/FT_Esd_Dl.h **** typedef struct
  28:FT_Esd_Framework/FT_Esd_Dl.h **** {
  29:FT_Esd_Framework/FT_Esd_Dl.h **** 	// Keep to a minimum
  30:FT_Esd_Framework/FT_Esd_Dl.h **** #ifdef FT_81X_ENABLE
  31:FT_Esd_Framework/FT_Esd_Dl.h **** 	ft_uint32_t PaletteSource;
  32:FT_Esd_Framework/FT_Esd_Dl.h **** #endif
  33:FT_Esd_Framework/FT_Esd_Dl.h **** 	ft_uint32_t ColorRGB;
  34:FT_Esd_Framework/FT_Esd_Dl.h **** 	ft_uint8_t ColorA;
  35:FT_Esd_Framework/FT_Esd_Dl.h **** 	ft_uint8_t Handle;         // Current handle
  36:FT_Esd_Framework/FT_Esd_Dl.h **** 	ft_uint8_t Cell;           // Current cell
  37:FT_Esd_Framework/FT_Esd_Dl.h **** 	ft_bool_t BitmapTransform; // BitmapTransform other than default is set
  38:FT_Esd_Framework/FT_Esd_Dl.h **** #ifdef FT_81X_ENABLE
  39:FT_Esd_Framework/FT_Esd_Dl.h **** 	ft_uint8_t VertexFormat;   // Current vertex format
  40:FT_Esd_Framework/FT_Esd_Dl.h **** #endif
  41:FT_Esd_Framework/FT_Esd_Dl.h **** } Ft_Esd_GpuState_T;
  42:FT_Esd_Framework/FT_Esd_Dl.h **** #endif
  43:FT_Esd_Framework/FT_Esd_Dl.h **** 
  44:FT_Esd_Framework/FT_Esd_Dl.h **** //
  45:FT_Esd_Framework/FT_Esd_Dl.h **** // Globals
  46:FT_Esd_Framework/FT_Esd_Dl.h **** //
  47:FT_Esd_Framework/FT_Esd_Dl.h **** extern Ft_Gpu_Hal_Context_t *Ft_Esd_Host;
  48:FT_Esd_Framework/FT_Esd_Dl.h **** extern ft_uint16_t Ft_Esd_FontHeight[32];
  49:FT_Esd_Framework/FT_Esd_Dl.h **** #ifdef FT_ESD_OPTIMIZE_DISPLAYLIST
  50:FT_Esd_Framework/FT_Esd_Dl.h **** extern Ft_Esd_GpuState_T Ft_Esd_GpuState[FT_ESD_STATE_STACK_SIZE];
  51:FT_Esd_Framework/FT_Esd_Dl.h **** extern ft_uint8_t Ft_Esd_GpuState_I;
  52:FT_Esd_Framework/FT_Esd_Dl.h **** extern ft_uint32_t Ft_Esd_CoFgColor;
  53:FT_Esd_Framework/FT_Esd_Dl.h **** extern ft_uint32_t Ft_Esd_CoBgColor;
  54:FT_Esd_Framework/FT_Esd_Dl.h **** #endif
  55:FT_Esd_Framework/FT_Esd_Dl.h **** 
  56:FT_Esd_Framework/FT_Esd_Dl.h **** //Get the height of builtin font
  57:FT_Esd_Framework/FT_Esd_Dl.h **** ESD_FUNCTION(Ft_Esd_GetFontHeight, Type = ft_uint16_t ,DisplayName = "Get Font Height", Category = 
  58:FT_Esd_Framework/FT_Esd_Dl.h **** ESD_PARAMETER(i, Type = int, DisplayName = "Bitmap Handle", Default = 0, Min = 0, Max = 31)
  59:FT_Esd_Framework/FT_Esd_Dl.h **** // inline static ft_uint16_t Ft_Esd_GetFontHeight(int i) { return Ft_Esd_FontHeight[i]; }
  60:FT_Esd_Framework/FT_Esd_Dl.h **** #define Ft_Esd_GetFontHeight(i) (Ft_Esd_FontHeight[i]);
  61:FT_Esd_Framework/FT_Esd_Dl.h **** 
  62:FT_Esd_Framework/FT_Esd_Dl.h **** // Reset any cached state
  63:FT_Esd_Framework/FT_Esd_Dl.h **** void Ft_Esd_ResetGpuState();
  64:FT_Esd_Framework/FT_Esd_Dl.h **** void Ft_Esd_ResetCoState();
  65:FT_Esd_Framework/FT_Esd_Dl.h **** 
  66:FT_Esd_Framework/FT_Esd_Dl.h **** ft_uint32_t Ft_Esd_BitmapHandle_GetTotalUsed();
  67:FT_Esd_Framework/FT_Esd_Dl.h **** ft_uint32_t Ft_Esd_BitmapHandle_GetTotal();
  68:FT_Esd_Framework/FT_Esd_Dl.h **** 
  69:FT_Esd_Framework/FT_Esd_Dl.h **** /// Set current tag. Must be returned to 255 after usage, to ensure next widgets don't draw with in
  70:FT_Esd_Framework/FT_Esd_Dl.h **** ESD_FUNCTION(Ft_Esd_Dl_TAG, Type = ft_void_t, Category = EveRenderFunctions, Inline)
  71:FT_Esd_Framework/FT_Esd_Dl.h **** ESD_PARAMETER(s, Type = ft_uint8_t, DisplayName = "Tag", Default = 255, Min = 0, Max = 255)
  72:FT_Esd_Framework/FT_Esd_Dl.h **** inline static ft_void_t Ft_Esd_Dl_TAG(ft_uint8_t s)
  73:FT_Esd_Framework/FT_Esd_Dl.h **** {
  74:FT_Esd_Framework/FT_Esd_Dl.h **** 	Ft_Gpu_Hal_WrCmd32(Ft_Esd_Host, TAG(s));
  75:FT_Esd_Framework/FT_Esd_Dl.h **** }
ARM GAS  /var/folders/n8/cvzdcwlj0vl4g_wtyz1ffy300000gn/T//ccDLYRyM.s 			page 22


  76:FT_Esd_Framework/FT_Esd_Dl.h **** //Specify color RGB
  77:FT_Esd_Framework/FT_Esd_Dl.h **** ESD_FUNCTION(Ft_Esd_Dl_COLOR_RGB, Type = ft_void_t, Category = EveRenderFunctions, Inline)
  78:FT_Esd_Framework/FT_Esd_Dl.h **** ESD_PARAMETER(c, Type = ft_rgb32_t, DisplayName = "Color")
  79:FT_Esd_Framework/FT_Esd_Dl.h **** inline static ft_void_t Ft_Esd_Dl_COLOR_RGB(ft_rgb32_t c)
  80:FT_Esd_Framework/FT_Esd_Dl.h **** {
  81:FT_Esd_Framework/FT_Esd_Dl.h **** #if FT_ESD_OPTIMIZE_DISPLAYLIST
  82:FT_Esd_Framework/FT_Esd_Dl.h **** 	ft_rgb32_t rgb = c & 0xFFFFFF;
  83:FT_Esd_Framework/FT_Esd_Dl.h **** 	if (rgb != FT_ESD_STATE.ColorRGB)
  84:FT_Esd_Framework/FT_Esd_Dl.h **** 	{
  85:FT_Esd_Framework/FT_Esd_Dl.h **** #endif
  86:FT_Esd_Framework/FT_Esd_Dl.h **** 		Ft_Gpu_Hal_WrCmd32(Ft_Esd_Host, (4UL << 24) | (rgb));
  87:FT_Esd_Framework/FT_Esd_Dl.h **** #if FT_ESD_OPTIMIZE_DISPLAYLIST
  88:FT_Esd_Framework/FT_Esd_Dl.h **** 		FT_ESD_STATE.ColorRGB = rgb;
  89:FT_Esd_Framework/FT_Esd_Dl.h **** 	}
  90:FT_Esd_Framework/FT_Esd_Dl.h **** #endif
  91:FT_Esd_Framework/FT_Esd_Dl.h **** }
  92:FT_Esd_Framework/FT_Esd_Dl.h **** //Specify alpha channel
  93:FT_Esd_Framework/FT_Esd_Dl.h **** ESD_FUNCTION(Ft_Esd_Dl_COLOR_A, Type = ft_void_t, Category = EveRenderFunctions, Inline)
  94:FT_Esd_Framework/FT_Esd_Dl.h **** ESD_PARAMETER(alpha, Type = ft_uint8_t, Default = 255, Min = 0, Max = 255)
  95:FT_Esd_Framework/FT_Esd_Dl.h **** inline static ft_void_t Ft_Esd_Dl_COLOR_A(ft_uint8_t alpha)
  96:FT_Esd_Framework/FT_Esd_Dl.h **** {
  97:FT_Esd_Framework/FT_Esd_Dl.h **** #if FT_ESD_OPTIMIZE_DISPLAYLIST
  98:FT_Esd_Framework/FT_Esd_Dl.h **** 	if (alpha != FT_ESD_STATE.ColorA)
 815              		.loc 2 98 0
 816 0008 764B     		ldr	r3, .L79
 817 000a 1A78     		ldrb	r2, [r3]	@ zero_extendqisi2
 818 000c 764B     		ldr	r3, .L79+4
 819 000e 03EB0213 		add	r3, r3, r2, lsl #4
 820 0012 1B7A     		ldrb	r3, [r3, #8]	@ zero_extendqisi2
 821 0014 FF2B     		cmp	r3, #255
 822 0016 0BD0     		beq	.L46
  99:FT_Esd_Framework/FT_Esd_Dl.h **** 	{
 100:FT_Esd_Framework/FT_Esd_Dl.h **** #endif
 101:FT_Esd_Framework/FT_Esd_Dl.h **** 		Ft_Gpu_Hal_WrCmd32(Ft_Esd_Host, COLOR_A(alpha));
 823              		.loc 2 101 0
 824 0018 7449     		ldr	r1, .L79+8
 825 001a 754B     		ldr	r3, .L79+12
 826 001c 1868     		ldr	r0, [r3]
 827              	.LVL96:
 828 001e FFF7FEFF 		bl	Ft_Gpu_Hal_WrCmd32
 829              	.LVL97:
 102:FT_Esd_Framework/FT_Esd_Dl.h **** #if FT_ESD_OPTIMIZE_DISPLAYLIST
 103:FT_Esd_Framework/FT_Esd_Dl.h **** 		FT_ESD_STATE.ColorA = alpha;
 830              		.loc 2 103 0
 831 0022 704B     		ldr	r3, .L79
 832 0024 1A78     		ldrb	r2, [r3]	@ zero_extendqisi2
 833 0026 704B     		ldr	r3, .L79+4
 834 0028 03EB0213 		add	r3, r3, r2, lsl #4
 835 002c FF22     		movs	r2, #255
 836 002e 1A72     		strb	r2, [r3, #8]
 837              	.L46:
 838              	.LVL98:
 839              	.LBE37:
 840              	.LBE36:
  75:FT_Esd_Widgets/Ft_Esd_RadioButton__Generated.c **** 	Ft_Esd_Dl_TAG(s);
 841              		.loc 1 75 0
 842 0030 04F10408 		add	r8, r4, #4
ARM GAS  /var/folders/n8/cvzdcwlj0vl4g_wtyz1ffy300000gn/T//ccDLYRyM.s 			page 23


 843 0034 4046     		mov	r0, r8
 844 0036 FFF7FEFF 		bl	Ft_Esd_TouchTag_Tag
 845              	.LVL99:
 846              	.LBB38:
 847              	.LBB39:
  74:FT_Esd_Framework/FT_Esd_Dl.h **** }
 848              		.loc 2 74 0
 849 003a 40F04071 		orr	r1, r0, #50331648
 850 003e 6C4B     		ldr	r3, .L79+12
 851 0040 1868     		ldr	r0, [r3]
 852              	.LVL100:
 853 0042 FFF7FEFF 		bl	Ft_Gpu_Hal_WrCmd32
 854              	.LVL101:
 855              	.LBE39:
 856              	.LBE38:
  77:FT_Esd_Widgets/Ft_Esd_RadioButton__Generated.c **** 	ft_rgb32_t color = Ft_Esd_Theme_GetBackColor(theme);
 857              		.loc 1 77 0
 858 0046 E369     		ldr	r3, [r4, #28]
 859 0048 2846     		mov	r0, r5
 860 004a 9847     		blx	r3
 861              	.LVL102:
 862              	.LBB40:
 863              	.LBB41:
 864              		.file 3 "FT_Esd_Widgets/FT_Esd_Theme.h"
   1:FT_Esd_Widgets/FT_Esd_Theme.h **** 
   2:FT_Esd_Widgets/FT_Esd_Theme.h **** #ifndef FT_ESD_THEME_H
   3:FT_Esd_Widgets/FT_Esd_Theme.h **** #define FT_ESD_THEME_H
   4:FT_Esd_Widgets/FT_Esd_Theme.h **** #include "FT_DataTypes.h"
   5:FT_Esd_Widgets/FT_Esd_Theme.h **** #include "Ft_Esd.h"
   6:FT_Esd_Widgets/FT_Esd_Theme.h **** 
   7:FT_Esd_Widgets/FT_Esd_Theme.h **** ESD_CATEGORY(EsdTheme, DisplayName = "ESD Theme")
   8:FT_Esd_Widgets/FT_Esd_Theme.h **** ESD_CATEGORY(EsdTheme_Themes, DisplayName = "Themes", Category = EsdTheme)
   9:FT_Esd_Widgets/FT_Esd_Theme.h **** 
  10:FT_Esd_Widgets/FT_Esd_Theme.h **** typedef unsigned int ft_uint32_t;
  11:FT_Esd_Widgets/FT_Esd_Theme.h **** 
  12:FT_Esd_Widgets/FT_Esd_Theme.h **** typedef struct
  13:FT_Esd_Widgets/FT_Esd_Theme.h **** {
  14:FT_Esd_Widgets/FT_Esd_Theme.h **** 	ft_rgb32_t ClearColor;
  15:FT_Esd_Widgets/FT_Esd_Theme.h **** 	ft_rgb32_t BackColor;
  16:FT_Esd_Widgets/FT_Esd_Theme.h **** 	ft_rgb32_t TextColor;
  17:FT_Esd_Widgets/FT_Esd_Theme.h **** 	ft_rgb32_t ButtonTextColor;
  18:FT_Esd_Widgets/FT_Esd_Theme.h **** 	ft_rgb32_t DefaultColor;
  19:FT_Esd_Widgets/FT_Esd_Theme.h **** 	ft_rgb32_t PrimaryColor;
  20:FT_Esd_Widgets/FT_Esd_Theme.h **** } Ft_Esd_Theme;
  21:FT_Esd_Widgets/FT_Esd_Theme.h **** 
  22:FT_Esd_Widgets/FT_Esd_Theme.h **** ESD_TYPE(Ft_Esd_Theme *, Native = Pointer, Edit = Library)
  23:FT_Esd_Widgets/FT_Esd_Theme.h **** 
  24:FT_Esd_Widgets/FT_Esd_Theme.h **** ESD_RENDER(Ft_Esd_Theme_SetCurrent, DisplayName = "Set Current Theme", Category = EsdTheme, Include
  25:FT_Esd_Widgets/FT_Esd_Theme.h **** ESD_PARAMETER(theme, Type = Ft_Esd_Theme *)
  26:FT_Esd_Widgets/FT_Esd_Theme.h **** void Ft_Esd_Theme_SetCurrent(Ft_Esd_Theme *theme);
  27:FT_Esd_Widgets/FT_Esd_Theme.h **** 
  28:FT_Esd_Widgets/FT_Esd_Theme.h **** ESD_FUNCTION(Ft_Esd_Theme_GetCurrent, DisplayName = "Current Theme", Category = EsdTheme, Type = Ft
  29:FT_Esd_Widgets/FT_Esd_Theme.h **** Ft_Esd_Theme *Ft_Esd_Theme_GetCurrent();
  30:FT_Esd_Widgets/FT_Esd_Theme.h **** 
  31:FT_Esd_Widgets/FT_Esd_Theme.h **** ESD_FUNCTION(Ft_Esd_Theme_GetClearColor, DisplayName = "Get Clear Color", Category = EsdTheme, Type
  32:FT_Esd_Widgets/FT_Esd_Theme.h **** ESD_PARAMETER(theme, Type = Ft_Esd_Theme *, Default = Ft_Esd_Theme_GetCurrent)
  33:FT_Esd_Widgets/FT_Esd_Theme.h **** inline static ft_rgb32_t Ft_Esd_Theme_GetClearColor(Ft_Esd_Theme *theme) { if (!theme) return Ft_Es
ARM GAS  /var/folders/n8/cvzdcwlj0vl4g_wtyz1ffy300000gn/T//ccDLYRyM.s 			page 24


  34:FT_Esd_Widgets/FT_Esd_Theme.h **** 
  35:FT_Esd_Widgets/FT_Esd_Theme.h **** ESD_FUNCTION(Ft_Esd_Theme_GetBackColor, DisplayName = "Get Back Color", Category = EsdTheme, Type =
  36:FT_Esd_Widgets/FT_Esd_Theme.h **** ESD_PARAMETER(theme, Type = Ft_Esd_Theme *, Default = Ft_Esd_Theme_GetCurrent)
  37:FT_Esd_Widgets/FT_Esd_Theme.h **** inline static ft_rgb32_t Ft_Esd_Theme_GetBackColor(Ft_Esd_Theme *theme) { if (!theme) return Ft_Esd
 865              		.loc 3 37 0
 866 004c 0028     		cmp	r0, #0
 867 004e 00F09380 		beq	.L71
 868 0052 D0F80490 		ldr	r9, [r0, #4]
 869              	.LVL103:
 870              	.L48:
 871              	.LBE41:
 872              	.LBE40:
  79:FT_Esd_Widgets/Ft_Esd_RadioButton__Generated.c **** 	int left_2 = context->Width(parent);
 873              		.loc 1 79 0
 874 0056 236A     		ldr	r3, [r4, #32]
 875 0058 2846     		mov	r0, r5
 876 005a 9847     		blx	r3
 877              	.LVL104:
 878 005c 0646     		mov	r6, r0
 879              	.LVL105:
  80:FT_Esd_Widgets/Ft_Esd_RadioButton__Generated.c **** 	int right_1 = context->Height(parent);
 880              		.loc 1 80 0
 881 005e A36A     		ldr	r3, [r4, #40]
 882 0060 2846     		mov	r0, r5
 883              	.LVL106:
 884 0062 9847     		blx	r3
 885              	.LVL107:
 886 0064 0746     		mov	r7, r0
 887              	.LVL108:
  81:FT_Esd_Widgets/Ft_Esd_RadioButton__Generated.c **** 	int if_1 = left_2 <= right_1;
 888              		.loc 1 81 0
 889 0066 E36A     		ldr	r3, [r4, #44]
 890 0068 2846     		mov	r0, r5
 891              	.LVL109:
 892 006a 9847     		blx	r3
 893              	.LVL110:
  84:FT_Esd_Widgets/Ft_Esd_RadioButton__Generated.c **** 	{
 894              		.loc 1 84 0
 895 006c 8742     		cmp	r7, r0
 896 006e 00F38880 		bgt	.L49
  86:FT_Esd_Widgets/Ft_Esd_RadioButton__Generated.c **** 	}
 897              		.loc 1 86 0
 898 0072 A36A     		ldr	r3, [r4, #40]
 899 0074 2846     		mov	r0, r5
 900              	.LVL111:
 901 0076 9847     		blx	r3
 902              	.LVL112:
 903              	.L50:
  93:FT_Esd_Widgets/Ft_Esd_RadioButton__Generated.c **** 	int x = left + right;
 904              		.loc 1 93 0
 905 0078 0346     		mov	r3, r0
 906 007a 0028     		cmp	r0, #0
 907 007c C0F28580 		blt	.L72
 908              	.L51:
 909              	.LVL113:
  94:FT_Esd_Widgets/Ft_Esd_RadioButton__Generated.c **** 	int left_3 = context->Y(parent);
 910              		.loc 1 94 0
ARM GAS  /var/folders/n8/cvzdcwlj0vl4g_wtyz1ffy300000gn/T//ccDLYRyM.s 			page 25


 911 0080 06EB6306 		add	r6, r6, r3, asr #1
 912              	.LVL114:
  95:FT_Esd_Widgets/Ft_Esd_RadioButton__Generated.c **** 	int left_4 = context->Height(parent);
 913              		.loc 1 95 0
 914 0084 636A     		ldr	r3, [r4, #36]
 915              	.LVL115:
 916 0086 2846     		mov	r0, r5
 917              	.LVL116:
 918 0088 9847     		blx	r3
 919              	.LVL117:
 920 008a 0746     		mov	r7, r0
 921              	.LVL118:
  96:FT_Esd_Widgets/Ft_Esd_RadioButton__Generated.c **** 	int right_4 = 2L;
 922              		.loc 1 96 0
 923 008c E36A     		ldr	r3, [r4, #44]
 924 008e 2846     		mov	r0, r5
 925              	.LVL119:
 926 0090 9847     		blx	r3
 927              	.LVL120:
  98:FT_Esd_Widgets/Ft_Esd_RadioButton__Generated.c **** 	int y = left_3 + right_3;
 928              		.loc 1 98 0
 929 0092 0028     		cmp	r0, #0
 930 0094 7BDB     		blt	.L73
 931              	.L52:
 932              	.LVL121:
  99:FT_Esd_Widgets/Ft_Esd_RadioButton__Generated.c **** 	int left_6 = context->Width(parent);
 933              		.loc 1 99 0
 934 0096 07EB6007 		add	r7, r7, r0, asr #1
 935              	.LVL122:
 100:FT_Esd_Widgets/Ft_Esd_RadioButton__Generated.c **** 	int right_5 = context->Height(parent);
 936              		.loc 1 100 0
 937 009a A36A     		ldr	r3, [r4, #40]
 938 009c 2846     		mov	r0, r5
 939              	.LVL123:
 940 009e 9847     		blx	r3
 941              	.LVL124:
 942 00a0 8246     		mov	r10, r0
 943              	.LVL125:
 101:FT_Esd_Widgets/Ft_Esd_RadioButton__Generated.c **** 	int if_2 = left_6 <= right_5;
 944              		.loc 1 101 0
 945 00a2 E36A     		ldr	r3, [r4, #44]
 946 00a4 2846     		mov	r0, r5
 947              	.LVL126:
 948 00a6 9847     		blx	r3
 949              	.LVL127:
 104:FT_Esd_Widgets/Ft_Esd_RadioButton__Generated.c **** 	{
 950              		.loc 1 104 0
 951 00a8 8245     		cmp	r10, r0
 952 00aa 72DC     		bgt	.L53
 106:FT_Esd_Widgets/Ft_Esd_RadioButton__Generated.c **** 	}
 953              		.loc 1 106 0
 954 00ac A36A     		ldr	r3, [r4, #40]
 955 00ae 2846     		mov	r0, r5
 956              	.LVL128:
 957 00b0 9847     		blx	r3
 958              	.LVL129:
 959              	.L54:
ARM GAS  /var/folders/n8/cvzdcwlj0vl4g_wtyz1ffy300000gn/T//ccDLYRyM.s 			page 26


 113:FT_Esd_Widgets/Ft_Esd_RadioButton__Generated.c **** 	Ft_Esd_Elements_CircleSunken(color, x, y, radius);
 960              		.loc 1 113 0
 961 00b2 0346     		mov	r3, r0
 962 00b4 0028     		cmp	r0, #0
 963 00b6 70DB     		blt	.L74
 964              	.L55:
 965              	.LVL130:
 114:FT_Esd_Widgets/Ft_Esd_RadioButton__Generated.c **** 	Ft_Esd_Label_Render(&context->ESD_Label);
 966              		.loc 1 114 0
 967 00b8 43F34F03 		sbfx	r3, r3, #1, #16
 968              	.LVL131:
 969 00bc 3AB2     		sxth	r2, r7
 970 00be 31B2     		sxth	r1, r6
 971 00c0 4846     		mov	r0, r9
 972              	.LVL132:
 973 00c2 FFF7FEFF 		bl	Ft_Esd_Elements_CircleSunken
 974              	.LVL133:
 115:FT_Esd_Widgets/Ft_Esd_RadioButton__Generated.c **** 	ft_bool_t left_7 = Ft_Esd_RadioButton_Is_Checked__return(context);
 975              		.loc 1 115 0
 976 00c6 04F14400 		add	r0, r4, #68
 977 00ca FFF7FEFF 		bl	Ft_Esd_Label_Render
 978              	.LVL134:
 116:FT_Esd_Widgets/Ft_Esd_RadioButton__Generated.c **** 	ft_bool_t right_7 = Ft_Esd_TouchTag_Inside(&context->Touch_Tag);
 979              		.loc 1 116 0
 980 00ce 2046     		mov	r0, r4
 981 00d0 FFF7FEFF 		bl	Ft_Esd_RadioButton_Is_Checked__return
 982              	.LVL135:
 983 00d4 0646     		mov	r6, r0
 984              	.LVL136:
 117:FT_Esd_Widgets/Ft_Esd_RadioButton__Generated.c **** 	int if_3 = left_7 || right_7;
 985              		.loc 1 117 0
 986 00d6 4046     		mov	r0, r8
 987 00d8 FFF7FEFF 		bl	Ft_Esd_TouchTag_Inside
 988              	.LVL137:
 119:FT_Esd_Widgets/Ft_Esd_RadioButton__Generated.c **** 	{
 989              		.loc 1 119 0
 990 00dc 3043     		orrs	r0, r0, r6
 991              	.LVL138:
 992 00de 10F0FF0F 		tst	r0, #255
 993 00e2 79D0     		beq	.L56
 994              	.LBB43:
 121:FT_Esd_Widgets/Ft_Esd_RadioButton__Generated.c **** 		int color_1;
 995              		.loc 1 121 0
 996 00e4 4046     		mov	r0, r8
 997 00e6 FFF7FEFF 		bl	Ft_Esd_TouchTag_Inside
 998              	.LVL139:
 123:FT_Esd_Widgets/Ft_Esd_RadioButton__Generated.c **** 		{
 999              		.loc 1 123 0
 1000 00ea 0028     		cmp	r0, #0
 1001 00ec 5CD0     		beq	.L57
 1002              	.LBB44:
 125:FT_Esd_Widgets/Ft_Esd_RadioButton__Generated.c **** 			color_1 = Ft_Esd_Theme_GetTextColor(theme_1);
 1003              		.loc 1 125 0
 1004 00ee E369     		ldr	r3, [r4, #28]
 1005 00f0 2846     		mov	r0, r5
 1006              	.LVL140:
 1007 00f2 9847     		blx	r3
ARM GAS  /var/folders/n8/cvzdcwlj0vl4g_wtyz1ffy300000gn/T//ccDLYRyM.s 			page 27


 1008              	.LVL141:
 1009              	.LBB45:
 1010              	.LBB46:
  38:FT_Esd_Widgets/FT_Esd_Theme.h **** 
  39:FT_Esd_Widgets/FT_Esd_Theme.h **** ESD_FUNCTION(Ft_Esd_Theme_GetTextColor, DisplayName = "Get Text Color", Category = EsdTheme, Type =
  40:FT_Esd_Widgets/FT_Esd_Theme.h **** ESD_PARAMETER(theme, Type = Ft_Esd_Theme *, Default = Ft_Esd_Theme_GetCurrent)
  41:FT_Esd_Widgets/FT_Esd_Theme.h **** inline static ft_rgb32_t Ft_Esd_Theme_GetTextColor(Ft_Esd_Theme *theme) { if (!theme) return Ft_Esd
 1011              		.loc 3 41 0
 1012 00f4 0028     		cmp	r0, #0
 1013 00f6 52D0     		beq	.L75
 1014 00f8 D0F80880 		ldr	r8, [r0, #8]
 1015              	.LVL142:
 1016              	.L60:
 1017              	.LBE46:
 1018              	.LBE45:
 1019              	.LBE44:
 133:FT_Esd_Widgets/Ft_Esd_RadioButton__Generated.c **** 		int left_10 = context->Width(parent);
 1020              		.loc 1 133 0
 1021 00fc 236A     		ldr	r3, [r4, #32]
 1022 00fe 2846     		mov	r0, r5
 1023 0100 9847     		blx	r3
 1024              	.LVL143:
 1025 0102 0646     		mov	r6, r0
 1026              	.LVL144:
 134:FT_Esd_Widgets/Ft_Esd_RadioButton__Generated.c **** 		int right_9 = context->Height(parent);
 1027              		.loc 1 134 0
 1028 0104 A36A     		ldr	r3, [r4, #40]
 1029 0106 2846     		mov	r0, r5
 1030              	.LVL145:
 1031 0108 9847     		blx	r3
 1032              	.LVL146:
 1033 010a 0746     		mov	r7, r0
 1034              	.LVL147:
 135:FT_Esd_Widgets/Ft_Esd_RadioButton__Generated.c **** 		int if_5 = left_10 <= right_9;
 1035              		.loc 1 135 0
 1036 010c E36A     		ldr	r3, [r4, #44]
 1037 010e 2846     		mov	r0, r5
 1038              	.LVL148:
 1039 0110 9847     		blx	r3
 1040              	.LVL149:
 138:FT_Esd_Widgets/Ft_Esd_RadioButton__Generated.c **** 		{
 1041              		.loc 1 138 0
 1042 0112 8742     		cmp	r7, r0
 1043 0114 54DC     		bgt	.L63
 140:FT_Esd_Widgets/Ft_Esd_RadioButton__Generated.c **** 		}
 1044              		.loc 1 140 0
 1045 0116 A36A     		ldr	r3, [r4, #40]
 1046 0118 2846     		mov	r0, r5
 1047              	.LVL150:
 1048 011a 9847     		blx	r3
 1049              	.LVL151:
 1050              	.L64:
 147:FT_Esd_Widgets/Ft_Esd_RadioButton__Generated.c **** 		int x_1 = left_8 + right_8;
 1051              		.loc 1 147 0
 1052 011c 0346     		mov	r3, r0
 1053 011e 0028     		cmp	r0, #0
 1054 0120 52DB     		blt	.L76
ARM GAS  /var/folders/n8/cvzdcwlj0vl4g_wtyz1ffy300000gn/T//ccDLYRyM.s 			page 28


 1055              	.L65:
 1056              	.LVL152:
 148:FT_Esd_Widgets/Ft_Esd_RadioButton__Generated.c **** 		int left_11 = context->Y(parent);
 1057              		.loc 1 148 0
 1058 0122 06EB6306 		add	r6, r6, r3, asr #1
 1059              	.LVL153:
 149:FT_Esd_Widgets/Ft_Esd_RadioButton__Generated.c **** 		int left_12 = context->Height(parent);
 1060              		.loc 1 149 0
 1061 0126 636A     		ldr	r3, [r4, #36]
 1062              	.LVL154:
 1063 0128 2846     		mov	r0, r5
 1064              	.LVL155:
 1065 012a 9847     		blx	r3
 1066              	.LVL156:
 1067 012c 0746     		mov	r7, r0
 1068              	.LVL157:
 150:FT_Esd_Widgets/Ft_Esd_RadioButton__Generated.c **** 		int right_12 = 2L;
 1069              		.loc 1 150 0
 1070 012e E36A     		ldr	r3, [r4, #44]
 1071 0130 2846     		mov	r0, r5
 1072              	.LVL158:
 1073 0132 9847     		blx	r3
 1074              	.LVL159:
 152:FT_Esd_Widgets/Ft_Esd_RadioButton__Generated.c **** 		int y_1 = left_11 + right_11;
 1075              		.loc 1 152 0
 1076 0134 0028     		cmp	r0, #0
 1077 0136 49DB     		blt	.L77
 1078              	.L66:
 1079              	.LVL160:
 153:FT_Esd_Widgets/Ft_Esd_RadioButton__Generated.c **** 		int left_14 = context->Width(parent);
 1080              		.loc 1 153 0
 1081 0138 07EB6007 		add	r7, r7, r0, asr #1
 1082              	.LVL161:
 154:FT_Esd_Widgets/Ft_Esd_RadioButton__Generated.c **** 		int right_13 = context->Height(parent);
 1083              		.loc 1 154 0
 1084 013c A36A     		ldr	r3, [r4, #40]
 1085 013e 2846     		mov	r0, r5
 1086              	.LVL162:
 1087 0140 9847     		blx	r3
 1088              	.LVL163:
 1089 0142 8146     		mov	r9, r0
 1090              	.LVL164:
 155:FT_Esd_Widgets/Ft_Esd_RadioButton__Generated.c **** 		int if_6 = left_14 <= right_13;
 1091              		.loc 1 155 0
 1092 0144 E36A     		ldr	r3, [r4, #44]
 1093 0146 2846     		mov	r0, r5
 1094              	.LVL165:
 1095 0148 9847     		blx	r3
 1096              	.LVL166:
 158:FT_Esd_Widgets/Ft_Esd_RadioButton__Generated.c **** 		{
 1097              		.loc 1 158 0
 1098 014a 8145     		cmp	r9, r0
 1099 014c 40DC     		bgt	.L67
 160:FT_Esd_Widgets/Ft_Esd_RadioButton__Generated.c **** 		}
 1100              		.loc 1 160 0
 1101 014e A36A     		ldr	r3, [r4, #40]
 1102 0150 2846     		mov	r0, r5
ARM GAS  /var/folders/n8/cvzdcwlj0vl4g_wtyz1ffy300000gn/T//ccDLYRyM.s 			page 29


 1103              	.LVL167:
 1104 0152 9847     		blx	r3
 1105              	.LVL168:
 1106              	.L68:
 167:FT_Esd_Widgets/Ft_Esd_RadioButton__Generated.c **** 		Ft_Esd_Elements_CircleFlat(color_1, x_1, y_1, radius_1);
 1107              		.loc 1 167 0
 1108 0154 274B     		ldr	r3, .L79+16
 1109 0156 83FB0023 		smull	r2, r3, r3, r0
 1110 015a A3EBE073 		sub	r3, r3, r0, asr #31
 1111              	.LVL169:
 168:FT_Esd_Widgets/Ft_Esd_RadioButton__Generated.c **** 		ft_uint8_t s_1 = 255;
 1112              		.loc 1 168 0
 1113 015e 1BB2     		sxth	r3, r3
 1114              	.LVL170:
 1115 0160 3AB2     		sxth	r2, r7
 1116 0162 31B2     		sxth	r1, r6
 1117 0164 4046     		mov	r0, r8
 1118              	.LVL171:
 1119 0166 FFF7FEFF 		bl	Ft_Esd_Elements_CircleFlat
 1120              	.LVL172:
 1121              	.LBB49:
 1122              	.LBB50:
  74:FT_Esd_Framework/FT_Esd_Dl.h **** }
 1123              		.loc 2 74 0
 1124 016a 2349     		ldr	r1, .L79+20
 1125 016c 204B     		ldr	r3, .L79+12
 1126 016e 1868     		ldr	r0, [r3]
 1127 0170 FFF7FEFF 		bl	Ft_Gpu_Hal_WrCmd32
 1128              	.LVL173:
 1129              	.L45:
 1130              	.LBE50:
 1131              	.LBE49:
 1132              	.LBE43:
 177:FT_Esd_Widgets/Ft_Esd_RadioButton__Generated.c **** 
 1133              		.loc 1 177 0
 1134 0174 BDE8F087 		pop	{r4, r5, r6, r7, r8, r9, r10, pc}
 1135              	.LVL174:
 1136              	.L71:
 1137              	.LBB55:
 1138              	.LBB42:
  37:FT_Esd_Widgets/FT_Esd_Theme.h **** 
 1139              		.loc 3 37 0
 1140 0178 FFF7FEFF 		bl	Ft_Esd_Theme_GetCurrent
 1141              	.LVL175:
 1142 017c D0F80490 		ldr	r9, [r0, #4]
 1143 0180 69E7     		b	.L48
 1144              	.LVL176:
 1145              	.L49:
 1146              	.LBE42:
 1147              	.LBE55:
  90:FT_Esd_Widgets/Ft_Esd_RadioButton__Generated.c **** 	}
 1148              		.loc 1 90 0
 1149 0182 E36A     		ldr	r3, [r4, #44]
 1150 0184 2846     		mov	r0, r5
 1151              	.LVL177:
 1152 0186 9847     		blx	r3
 1153              	.LVL178:
ARM GAS  /var/folders/n8/cvzdcwlj0vl4g_wtyz1ffy300000gn/T//ccDLYRyM.s 			page 30


 1154 0188 76E7     		b	.L50
 1155              	.LVL179:
 1156              	.L72:
  93:FT_Esd_Widgets/Ft_Esd_RadioButton__Generated.c **** 	int x = left + right;
 1157              		.loc 1 93 0
 1158 018a 431C     		adds	r3, r0, #1
 1159 018c 78E7     		b	.L51
 1160              	.LVL180:
 1161              	.L73:
  98:FT_Esd_Widgets/Ft_Esd_RadioButton__Generated.c **** 	int y = left_3 + right_3;
 1162              		.loc 1 98 0
 1163 018e 0130     		adds	r0, r0, #1
 1164 0190 81E7     		b	.L52
 1165              	.LVL181:
 1166              	.L53:
 110:FT_Esd_Widgets/Ft_Esd_RadioButton__Generated.c **** 	}
 1167              		.loc 1 110 0
 1168 0192 E36A     		ldr	r3, [r4, #44]
 1169 0194 2846     		mov	r0, r5
 1170              	.LVL182:
 1171 0196 9847     		blx	r3
 1172              	.LVL183:
 1173 0198 8BE7     		b	.L54
 1174              	.LVL184:
 1175              	.L74:
 113:FT_Esd_Widgets/Ft_Esd_RadioButton__Generated.c **** 	Ft_Esd_Elements_CircleSunken(color, x, y, radius);
 1176              		.loc 1 113 0
 1177 019a 431C     		adds	r3, r0, #1
 1178 019c 8CE7     		b	.L55
 1179              	.LVL185:
 1180              	.L75:
 1181              	.LBB56:
 1182              	.LBB51:
 1183              	.LBB48:
 1184              	.LBB47:
 1185              		.loc 3 41 0
 1186 019e FFF7FEFF 		bl	Ft_Esd_Theme_GetCurrent
 1187              	.LVL186:
 1188 01a2 D0F80880 		ldr	r8, [r0, #8]
 1189 01a6 A9E7     		b	.L60
 1190              	.LVL187:
 1191              	.L57:
 1192              	.LBE47:
 1193              	.LBE48:
 1194              	.LBE51:
 1195              	.LBB52:
 130:FT_Esd_Widgets/Ft_Esd_RadioButton__Generated.c **** 			color_1 = Ft_Esd_Theme_GetPrimaryColor(theme_2);
 1196              		.loc 1 130 0
 1197 01a8 E369     		ldr	r3, [r4, #28]
 1198 01aa 2846     		mov	r0, r5
 1199              	.LVL188:
 1200 01ac 9847     		blx	r3
 1201              	.LVL189:
 1202              	.LBB53:
 1203              	.LBB54:
  42:FT_Esd_Widgets/FT_Esd_Theme.h **** 
  43:FT_Esd_Widgets/FT_Esd_Theme.h **** ESD_FUNCTION(Ft_Esd_Theme_GetButtonTextColor, DisplayName = "Get Button Text Color", Category = Esd
ARM GAS  /var/folders/n8/cvzdcwlj0vl4g_wtyz1ffy300000gn/T//ccDLYRyM.s 			page 31


  44:FT_Esd_Widgets/FT_Esd_Theme.h **** ESD_PARAMETER(theme, Type = Ft_Esd_Theme *, Default = Ft_Esd_Theme_GetCurrent)
  45:FT_Esd_Widgets/FT_Esd_Theme.h **** inline static ft_rgb32_t Ft_Esd_Theme_GetButtonTextColor(Ft_Esd_Theme *theme) { if (!theme) return 
  46:FT_Esd_Widgets/FT_Esd_Theme.h **** 
  47:FT_Esd_Widgets/FT_Esd_Theme.h **** ESD_FUNCTION(Ft_Esd_Theme_GetCurrentColor, DisplayName = "Get Default Color", Category = EsdTheme, 
  48:FT_Esd_Widgets/FT_Esd_Theme.h **** ESD_PARAMETER(theme, Type = Ft_Esd_Theme *, Default = Ft_Esd_Theme_GetCurrent)
  49:FT_Esd_Widgets/FT_Esd_Theme.h **** inline static ft_rgb32_t Ft_Esd_Theme_GetCurrentColor(Ft_Esd_Theme *theme) { if (!theme) return Ft_
  50:FT_Esd_Widgets/FT_Esd_Theme.h **** 
  51:FT_Esd_Widgets/FT_Esd_Theme.h **** ESD_FUNCTION(Ft_Esd_Theme_GetPrimaryColor, DisplayName = "Get Primary Color", Category = EsdTheme, 
  52:FT_Esd_Widgets/FT_Esd_Theme.h **** ESD_PARAMETER(theme, Type = Ft_Esd_Theme *, Default = Ft_Esd_Theme_GetCurrent)
  53:FT_Esd_Widgets/FT_Esd_Theme.h **** inline static ft_rgb32_t Ft_Esd_Theme_GetPrimaryColor(Ft_Esd_Theme *theme) { if (!theme) return Ft_
 1204              		.loc 3 53 0
 1205 01ae 10B1     		cbz	r0, .L78
 1206 01b0 D0F81480 		ldr	r8, [r0, #20]
 1207              	.LVL190:
 1208 01b4 A2E7     		b	.L60
 1209              	.LVL191:
 1210              	.L78:
 1211 01b6 FFF7FEFF 		bl	Ft_Esd_Theme_GetCurrent
 1212              	.LVL192:
 1213 01ba D0F81480 		ldr	r8, [r0, #20]
 1214 01be 9DE7     		b	.L60
 1215              	.LVL193:
 1216              	.L63:
 1217              	.LBE54:
 1218              	.LBE53:
 1219              	.LBE52:
 144:FT_Esd_Widgets/Ft_Esd_RadioButton__Generated.c **** 		}
 1220              		.loc 1 144 0
 1221 01c0 E36A     		ldr	r3, [r4, #44]
 1222 01c2 2846     		mov	r0, r5
 1223              	.LVL194:
 1224 01c4 9847     		blx	r3
 1225              	.LVL195:
 1226 01c6 A9E7     		b	.L64
 1227              	.LVL196:
 1228              	.L76:
 147:FT_Esd_Widgets/Ft_Esd_RadioButton__Generated.c **** 		int x_1 = left_8 + right_8;
 1229              		.loc 1 147 0
 1230 01c8 431C     		adds	r3, r0, #1
 1231 01ca AAE7     		b	.L65
 1232              	.LVL197:
 1233              	.L77:
 152:FT_Esd_Widgets/Ft_Esd_RadioButton__Generated.c **** 		int y_1 = left_11 + right_11;
 1234              		.loc 1 152 0
 1235 01cc 0130     		adds	r0, r0, #1
 1236 01ce B3E7     		b	.L66
 1237              	.LVL198:
 1238              	.L67:
 164:FT_Esd_Widgets/Ft_Esd_RadioButton__Generated.c **** 		}
 1239              		.loc 1 164 0
 1240 01d0 E36A     		ldr	r3, [r4, #44]
 1241 01d2 2846     		mov	r0, r5
 1242              	.LVL199:
 1243 01d4 9847     		blx	r3
 1244              	.LVL200:
 1245 01d6 BDE7     		b	.L68
 1246              	.LVL201:
ARM GAS  /var/folders/n8/cvzdcwlj0vl4g_wtyz1ffy300000gn/T//ccDLYRyM.s 			page 32


 1247              	.L56:
 1248              	.LBE56:
 1249              	.LBB57:
 1250              	.LBB58:
 1251              	.LBB59:
  74:FT_Esd_Framework/FT_Esd_Dl.h **** }
 1252              		.loc 2 74 0
 1253 01d8 0749     		ldr	r1, .L79+20
 1254 01da 054B     		ldr	r3, .L79+12
 1255 01dc 1868     		ldr	r0, [r3]
 1256 01de FFF7FEFF 		bl	Ft_Gpu_Hal_WrCmd32
 1257              	.LVL202:
 1258              	.LBE59:
 1259              	.LBE58:
 1260              	.LBE57:
 177:FT_Esd_Widgets/Ft_Esd_RadioButton__Generated.c **** 
 1261              		.loc 1 177 0
 1262 01e2 C7E7     		b	.L45
 1263              	.L80:
 1264              		.align	2
 1265              	.L79:
 1266 01e4 00000000 		.word	Ft_Esd_GpuState_I
 1267 01e8 00000000 		.word	Ft_Esd_GpuState
 1268 01ec FF000010 		.word	268435711
 1269 01f0 00000000 		.word	Ft_Esd_Host
 1270 01f4 56555555 		.word	1431655766
 1271 01f8 FF000003 		.word	50331903
 1272              		.cfi_endproc
 1273              	.LFE38:
 1275              		.section	.text.Ft_Esd_RadioButton_Start,"ax",%progbits
 1276              		.align	1
 1277              		.global	Ft_Esd_RadioButton_Start
 1278              		.syntax unified
 1279              		.thumb
 1280              		.thumb_func
 1281              		.fpu fpv5-sp-d16
 1283              	Ft_Esd_RadioButton_Start:
 1284              	.LFB40:
 190:FT_Esd_Widgets/Ft_Esd_RadioButton__Generated.c **** 	void *parent = context->Parent;
 1285              		.loc 1 190 0
 1286              		.cfi_startproc
 1287              		@ args = 0, pretend = 0, frame = 0
 1288              		@ frame_needed = 0, uses_anonymous_args = 0
 1289              	.LVL203:
 1290 0000 08B5     		push	{r3, lr}
 1291              	.LCFI12:
 1292              		.cfi_def_cfa_offset 8
 1293              		.cfi_offset 3, -8
 1294              		.cfi_offset 14, -4
 1295              	.LVL204:
 192:FT_Esd_Widgets/Ft_Esd_RadioButton__Generated.c **** }
 1296              		.loc 1 192 0
 1297 0002 0430     		adds	r0, r0, #4
 1298              	.LVL205:
 1299 0004 FFF7FEFF 		bl	Ft_Esd_TouchTag_Start
 1300              	.LVL206:
 193:FT_Esd_Widgets/Ft_Esd_RadioButton__Generated.c **** 
ARM GAS  /var/folders/n8/cvzdcwlj0vl4g_wtyz1ffy300000gn/T//ccDLYRyM.s 			page 33


 1301              		.loc 1 193 0
 1302 0008 08BD     		pop	{r3, pc}
 1303              		.cfi_endproc
 1304              	.LFE40:
 1306              		.section	.text.Ft_Esd_RadioButton_Update,"ax",%progbits
 1307              		.align	1
 1308              		.global	Ft_Esd_RadioButton_Update
 1309              		.syntax unified
 1310              		.thumb
 1311              		.thumb_func
 1312              		.fpu fpv5-sp-d16
 1314              	Ft_Esd_RadioButton_Update:
 1315              	.LFB41:
 196:FT_Esd_Widgets/Ft_Esd_RadioButton__Generated.c **** 	void *parent = context->Parent;
 1316              		.loc 1 196 0
 1317              		.cfi_startproc
 1318              		@ args = 0, pretend = 0, frame = 0
 1319              		@ frame_needed = 0, uses_anonymous_args = 0
 1320              	.LVL207:
 1321 0000 08B5     		push	{r3, lr}
 1322              	.LCFI13:
 1323              		.cfi_def_cfa_offset 8
 1324              		.cfi_offset 3, -8
 1325              		.cfi_offset 14, -4
 1326              	.LVL208:
 198:FT_Esd_Widgets/Ft_Esd_RadioButton__Generated.c **** }
 1327              		.loc 1 198 0
 1328 0002 0430     		adds	r0, r0, #4
 1329              	.LVL209:
 1330 0004 FFF7FEFF 		bl	Ft_Esd_TouchTag_Update
 1331              	.LVL210:
 199:FT_Esd_Widgets/Ft_Esd_RadioButton__Generated.c **** 
 1332              		.loc 1 199 0
 1333 0008 08BD     		pop	{r3, pc}
 1334              		.cfi_endproc
 1335              	.LFE41:
 1337              		.section	.text.Ft_Esd_RadioButton_End,"ax",%progbits
 1338              		.align	1
 1339              		.global	Ft_Esd_RadioButton_End
 1340              		.syntax unified
 1341              		.thumb
 1342              		.thumb_func
 1343              		.fpu fpv5-sp-d16
 1345              	Ft_Esd_RadioButton_End:
 1346              	.LFB42:
 202:FT_Esd_Widgets/Ft_Esd_RadioButton__Generated.c **** 	void *parent = context->Parent;
 1347              		.loc 1 202 0
 1348              		.cfi_startproc
 1349              		@ args = 0, pretend = 0, frame = 0
 1350              		@ frame_needed = 0, uses_anonymous_args = 0
 1351              	.LVL211:
 1352 0000 08B5     		push	{r3, lr}
 1353              	.LCFI14:
 1354              		.cfi_def_cfa_offset 8
 1355              		.cfi_offset 3, -8
 1356              		.cfi_offset 14, -4
 1357              	.LVL212:
ARM GAS  /var/folders/n8/cvzdcwlj0vl4g_wtyz1ffy300000gn/T//ccDLYRyM.s 			page 34


 204:FT_Esd_Widgets/Ft_Esd_RadioButton__Generated.c **** }
 1358              		.loc 1 204 0
 1359 0002 0430     		adds	r0, r0, #4
 1360              	.LVL213:
 1361 0004 FFF7FEFF 		bl	Ft_Esd_TouchTag_End
 1362              	.LVL214:
 205:FT_Esd_Widgets/Ft_Esd_RadioButton__Generated.c **** 
 1363              		.loc 1 205 0
 1364 0008 08BD     		pop	{r3, pc}
 1365              		.cfi_endproc
 1366              	.LFE42:
 1368              		.section	.text.Ft_Esd_RadioButton_Check,"ax",%progbits
 1369              		.align	1
 1370              		.global	Ft_Esd_RadioButton_Check
 1371              		.syntax unified
 1372              		.thumb
 1373              		.thumb_func
 1374              		.fpu fpv5-sp-d16
 1376              	Ft_Esd_RadioButton_Check:
 1377              	.LFB43:
 208:FT_Esd_Widgets/Ft_Esd_RadioButton__Generated.c **** 	void *parent = context->Parent;
 1378              		.loc 1 208 0
 1379              		.cfi_startproc
 1380              		@ args = 0, pretend = 0, frame = 0
 1381              		@ frame_needed = 0, uses_anonymous_args = 0
 1382              	.LVL215:
 1383 0000 38B5     		push	{r3, r4, r5, lr}
 1384              	.LCFI15:
 1385              		.cfi_def_cfa_offset 16
 1386              		.cfi_offset 3, -16
 1387              		.cfi_offset 4, -12
 1388              		.cfi_offset 5, -8
 1389              		.cfi_offset 14, -4
 1390 0002 0446     		mov	r4, r0
 209:FT_Esd_Widgets/Ft_Esd_RadioButton__Generated.c **** 	Ft_Esd_RadioButton_Check_Signal(context);
 1391              		.loc 1 209 0
 1392 0004 0568     		ldr	r5, [r0]
 1393              	.LVL216:
 210:FT_Esd_Widgets/Ft_Esd_RadioButton__Generated.c **** 	context->Checked(parent);
 1394              		.loc 1 210 0
 1395 0006 FFF7FEFF 		bl	Ft_Esd_RadioButton_Check_Signal
 1396              	.LVL217:
 211:FT_Esd_Widgets/Ft_Esd_RadioButton__Generated.c **** 	ft_bool_t set_variable_1 = Ft_Esd_RadioButton_Is_Checked__return(context);
 1397              		.loc 1 211 0
 1398 000a 636B     		ldr	r3, [r4, #52]
 1399 000c 2846     		mov	r0, r5
 1400 000e 9847     		blx	r3
 1401              	.LVL218:
 212:FT_Esd_Widgets/Ft_Esd_RadioButton__Generated.c **** 	context->Changed(parent, set_variable_1);
 1402              		.loc 1 212 0
 1403 0010 2046     		mov	r0, r4
 1404 0012 FFF7FEFF 		bl	Ft_Esd_RadioButton_Is_Checked__return
 1405              	.LVL219:
 213:FT_Esd_Widgets/Ft_Esd_RadioButton__Generated.c **** }
 1406              		.loc 1 213 0
 1407 0016 A36B     		ldr	r3, [r4, #56]
 1408 0018 0146     		mov	r1, r0
ARM GAS  /var/folders/n8/cvzdcwlj0vl4g_wtyz1ffy300000gn/T//ccDLYRyM.s 			page 35


 1409 001a 2846     		mov	r0, r5
 1410              	.LVL220:
 1411 001c 9847     		blx	r3
 1412              	.LVL221:
 214:FT_Esd_Widgets/Ft_Esd_RadioButton__Generated.c **** 
 1413              		.loc 1 214 0
 1414 001e 38BD     		pop	{r3, r4, r5, pc}
 1415              		.cfi_endproc
 1416              	.LFE43:
 1418              		.section	.text.Ft_Esd_RadioButton_Value,"ax",%progbits
 1419              		.align	1
 1420              		.global	Ft_Esd_RadioButton_Value
 1421              		.syntax unified
 1422              		.thumb
 1423              		.thumb_func
 1424              		.fpu fpv5-sp-d16
 1426              	Ft_Esd_RadioButton_Value:
 1427              	.LFB45:
 223:FT_Esd_Widgets/Ft_Esd_RadioButton__Generated.c **** 	void *parent = context->Parent;
 1428              		.loc 1 223 0
 1429              		.cfi_startproc
 1430              		@ args = 0, pretend = 0, frame = 0
 1431              		@ frame_needed = 0, uses_anonymous_args = 0
 1432              	.LVL222:
 1433 0000 08B5     		push	{r3, lr}
 1434              	.LCFI16:
 1435              		.cfi_def_cfa_offset 8
 1436              		.cfi_offset 3, -8
 1437              		.cfi_offset 14, -4
 1438              	.LVL223:
 225:FT_Esd_Widgets/Ft_Esd_RadioButton__Generated.c **** }
 1439              		.loc 1 225 0
 1440 0002 FFF7FEFF 		bl	Ft_Esd_RadioButton_Is_Checked__return
 1441              	.LVL224:
 226:FT_Esd_Widgets/Ft_Esd_RadioButton__Generated.c **** 
 1442              		.loc 1 226 0
 1443 0006 08BD     		pop	{r3, pc}
 1444              		.cfi_endproc
 1445              	.LFE45:
 1447              		.section	.rodata.Ft_Esd_RadioButton_Text__Default.str1.4,"aMS",%progbits,1
 1448              		.align	2
 1449              	.LC0:
 1450 0000 4F707469 		.ascii	"Option\000"
 1450      6F6E00
 1451              		.text
 1452              	.Letext0:
 1453              		.file 4 "FT_Eve_Hal/FT_DataTypes.h"
 1454              		.file 5 "/usr/local/Cellar/arm-none-eabi-gcc/20180627/arm-none-eabi/include/sys/lock.h"
 1455              		.file 6 "/usr/local/Cellar/arm-none-eabi-gcc/20180627/arm-none-eabi/include/sys/_types.h"
 1456              		.file 7 "/usr/local/Cellar/arm-none-eabi-gcc/20180627/lib/gcc/arm-none-eabi/7.3.1/include/stddef.h
 1457              		.file 8 "/usr/local/Cellar/arm-none-eabi-gcc/20180627/arm-none-eabi/include/sys/unistd.h"
 1458              		.file 9 "/usr/local/Cellar/arm-none-eabi-gcc/20180627/arm-none-eabi/include/sys/reent.h"
 1459              		.file 10 "/usr/local/Cellar/arm-none-eabi-gcc/20180627/arm-none-eabi/include/stdlib.h"
 1460              		.file 11 "FT_Eve_Hal/FT_Gpu_Hal.h"
 1461              		.file 12 "FT_Esd_Framework/Ft_Esd.h"
 1462              		.file 13 "FT_Esd_Widgets/Ft_Esd_DefaultTheme.h"
 1463              		.file 14 "FT_Esd_Widgets/Ft_Esd_Label.h"
ARM GAS  /var/folders/n8/cvzdcwlj0vl4g_wtyz1ffy300000gn/T//ccDLYRyM.s 			page 36


 1464              		.file 15 "FT_Esd_Widgets/Ft_Esd_RadioGroup.h"
 1465              		.file 16 "FT_Esd_Framework/Ft_Esd_TouchTag.h"
 1466              		.file 17 "FT_Esd_Widgets/Ft_Esd_RadioButton.h"
ARM GAS  /var/folders/n8/cvzdcwlj0vl4g_wtyz1ffy300000gn/T//ccDLYRyM.s 			page 37

