ARM GAS  /var/folders/n8/cvzdcwlj0vl4g_wtyz1ffy300000gn/T//ccO4hAVf.s 			page 1


   1              		.cpu cortex-m7
   2              		.eabi_attribute 27, 1
   3              		.eabi_attribute 28, 1
   4              		.eabi_attribute 20, 1
   5              		.eabi_attribute 21, 1
   6              		.eabi_attribute 23, 3
   7              		.eabi_attribute 24, 1
   8              		.eabi_attribute 25, 1
   9              		.eabi_attribute 26, 1
  10              		.eabi_attribute 30, 1
  11              		.eabi_attribute 34, 1
  12              		.eabi_attribute 18, 4
  13              		.file	"Ft_Esd_Clock__Generated.c"
  14              		.text
  15              	.Ltext0:
  16              		.cfi_sections	.debug_frame
  17              		.section	.text.Ft_Esd_Clock_X__Default,"ax",%progbits
  18              		.align	1
  19              		.global	Ft_Esd_Clock_X__Default
  20              		.syntax unified
  21              		.thumb
  22              		.thumb_func
  23              		.fpu fpv5-sp-d16
  25              	Ft_Esd_Clock_X__Default:
  26              	.LFB24:
  27              		.file 1 "FT_Esd_Widgets/Ft_Esd_Clock__Generated.c"
   1:FT_Esd_Widgets/Ft_Esd_Clock__Generated.c **** /*
   2:FT_Esd_Widgets/Ft_Esd_Clock__Generated.c **** This file is automatically generated
   3:FT_Esd_Widgets/Ft_Esd_Clock__Generated.c **** Ft_Esd_Clock
   4:FT_Esd_Widgets/Ft_Esd_Clock__Generated.c **** C Source
   5:FT_Esd_Widgets/Ft_Esd_Clock__Generated.c **** */
   6:FT_Esd_Widgets/Ft_Esd_Clock__Generated.c **** 
   7:FT_Esd_Widgets/Ft_Esd_Clock__Generated.c **** #include "Ft_Esd_Clock.h"
   8:FT_Esd_Widgets/Ft_Esd_Clock__Generated.c **** 
   9:FT_Esd_Widgets/Ft_Esd_Clock__Generated.c **** #include "FT_Esd_CoPro_Cmds.h"
  10:FT_Esd_Widgets/Ft_Esd_Clock__Generated.c **** #include "FT_Esd_Dl.h"
  11:FT_Esd_Widgets/Ft_Esd_Clock__Generated.c **** #include "FT_Gpu.h"
  12:FT_Esd_Widgets/Ft_Esd_Clock__Generated.c **** 
  13:FT_Esd_Widgets/Ft_Esd_Clock__Generated.c **** extern void Ft_Esd_Noop(void *context);
  14:FT_Esd_Widgets/Ft_Esd_Clock__Generated.c **** Ft_Esd_Theme * Ft_Esd_Clock_Theme__Default(void *context) { return Ft_Esd_Theme_GetCurrent(); }
  15:FT_Esd_Widgets/Ft_Esd_Clock__Generated.c **** ft_int16_t Ft_Esd_Clock_X__Default(void *context) { return 0; }
  28              		.loc 1 15 0
  29              		.cfi_startproc
  30              		@ args = 0, pretend = 0, frame = 0
  31              		@ frame_needed = 0, uses_anonymous_args = 0
  32              		@ link register save eliminated.
  33              	.LVL0:
  34              		.loc 1 15 0
  35 0000 0020     		movs	r0, #0
  36              	.LVL1:
  37 0002 7047     		bx	lr
  38              		.cfi_endproc
  39              	.LFE24:
  41              		.section	.text.Ft_Esd_Clock_Y__Default,"ax",%progbits
  42              		.align	1
  43              		.global	Ft_Esd_Clock_Y__Default
  44              		.syntax unified
ARM GAS  /var/folders/n8/cvzdcwlj0vl4g_wtyz1ffy300000gn/T//ccO4hAVf.s 			page 2


  45              		.thumb
  46              		.thumb_func
  47              		.fpu fpv5-sp-d16
  49              	Ft_Esd_Clock_Y__Default:
  50              	.LFB25:
  16:FT_Esd_Widgets/Ft_Esd_Clock__Generated.c **** ft_int16_t Ft_Esd_Clock_Y__Default(void *context) { return 0; }
  51              		.loc 1 16 0
  52              		.cfi_startproc
  53              		@ args = 0, pretend = 0, frame = 0
  54              		@ frame_needed = 0, uses_anonymous_args = 0
  55              		@ link register save eliminated.
  56              	.LVL2:
  57              		.loc 1 16 0
  58 0000 0020     		movs	r0, #0
  59              	.LVL3:
  60 0002 7047     		bx	lr
  61              		.cfi_endproc
  62              	.LFE25:
  64              		.section	.text.Ft_Esd_Clock_Width__Default,"ax",%progbits
  65              		.align	1
  66              		.global	Ft_Esd_Clock_Width__Default
  67              		.syntax unified
  68              		.thumb
  69              		.thumb_func
  70              		.fpu fpv5-sp-d16
  72              	Ft_Esd_Clock_Width__Default:
  73              	.LFB26:
  17:FT_Esd_Widgets/Ft_Esd_Clock__Generated.c **** ft_int16_t Ft_Esd_Clock_Width__Default(void *context) { return 144; }
  74              		.loc 1 17 0
  75              		.cfi_startproc
  76              		@ args = 0, pretend = 0, frame = 0
  77              		@ frame_needed = 0, uses_anonymous_args = 0
  78              		@ link register save eliminated.
  79              	.LVL4:
  80              		.loc 1 17 0
  81 0000 9020     		movs	r0, #144
  82              	.LVL5:
  83 0002 7047     		bx	lr
  84              		.cfi_endproc
  85              	.LFE26:
  87              		.section	.text.Ft_Esd_Clock_Height__Default,"ax",%progbits
  88              		.align	1
  89              		.global	Ft_Esd_Clock_Height__Default
  90              		.syntax unified
  91              		.thumb
  92              		.thumb_func
  93              		.fpu fpv5-sp-d16
  95              	Ft_Esd_Clock_Height__Default:
  96              	.LFB27:
  18:FT_Esd_Widgets/Ft_Esd_Clock__Generated.c **** ft_int16_t Ft_Esd_Clock_Height__Default(void *context) { return 144; }
  97              		.loc 1 18 0
  98              		.cfi_startproc
  99              		@ args = 0, pretend = 0, frame = 0
 100              		@ frame_needed = 0, uses_anonymous_args = 0
 101              		@ link register save eliminated.
 102              	.LVL6:
 103              		.loc 1 18 0
ARM GAS  /var/folders/n8/cvzdcwlj0vl4g_wtyz1ffy300000gn/T//ccO4hAVf.s 			page 3


 104 0000 9020     		movs	r0, #144
 105              	.LVL7:
 106 0002 7047     		bx	lr
 107              		.cfi_endproc
 108              	.LFE27:
 110              		.section	.text.Ft_Esd_Clock_Alpha__Default,"ax",%progbits
 111              		.align	1
 112              		.global	Ft_Esd_Clock_Alpha__Default
 113              		.syntax unified
 114              		.thumb
 115              		.thumb_func
 116              		.fpu fpv5-sp-d16
 118              	Ft_Esd_Clock_Alpha__Default:
 119              	.LFB28:
  19:FT_Esd_Widgets/Ft_Esd_Clock__Generated.c **** uint8_t Ft_Esd_Clock_Alpha__Default(void *context) { return 255; }
 120              		.loc 1 19 0
 121              		.cfi_startproc
 122              		@ args = 0, pretend = 0, frame = 0
 123              		@ frame_needed = 0, uses_anonymous_args = 0
 124              		@ link register save eliminated.
 125              	.LVL8:
 126              		.loc 1 19 0
 127 0000 FF20     		movs	r0, #255
 128              	.LVL9:
 129 0002 7047     		bx	lr
 130              		.cfi_endproc
 131              	.LFE28:
 133              		.section	.text.Ft_Esd_Clock_H__Default,"ax",%progbits
 134              		.align	1
 135              		.global	Ft_Esd_Clock_H__Default
 136              		.syntax unified
 137              		.thumb
 138              		.thumb_func
 139              		.fpu fpv5-sp-d16
 141              	Ft_Esd_Clock_H__Default:
 142              	.LFB29:
  20:FT_Esd_Widgets/Ft_Esd_Clock__Generated.c **** ft_uint16_t Ft_Esd_Clock_H__Default(void *context) { return 0U; }
 143              		.loc 1 20 0
 144              		.cfi_startproc
 145              		@ args = 0, pretend = 0, frame = 0
 146              		@ frame_needed = 0, uses_anonymous_args = 0
 147              		@ link register save eliminated.
 148              	.LVL10:
 149              		.loc 1 20 0
 150 0000 0020     		movs	r0, #0
 151              	.LVL11:
 152 0002 7047     		bx	lr
 153              		.cfi_endproc
 154              	.LFE29:
 156              		.section	.text.Ft_Esd_Clock_M__Default,"ax",%progbits
 157              		.align	1
 158              		.global	Ft_Esd_Clock_M__Default
 159              		.syntax unified
 160              		.thumb
 161              		.thumb_func
 162              		.fpu fpv5-sp-d16
 164              	Ft_Esd_Clock_M__Default:
ARM GAS  /var/folders/n8/cvzdcwlj0vl4g_wtyz1ffy300000gn/T//ccO4hAVf.s 			page 4


 165              	.LFB30:
  21:FT_Esd_Widgets/Ft_Esd_Clock__Generated.c **** ft_uint16_t Ft_Esd_Clock_M__Default(void *context) { return 0U; }
 166              		.loc 1 21 0
 167              		.cfi_startproc
 168              		@ args = 0, pretend = 0, frame = 0
 169              		@ frame_needed = 0, uses_anonymous_args = 0
 170              		@ link register save eliminated.
 171              	.LVL12:
 172              		.loc 1 21 0
 173 0000 0020     		movs	r0, #0
 174              	.LVL13:
 175 0002 7047     		bx	lr
 176              		.cfi_endproc
 177              	.LFE30:
 179              		.section	.text.Ft_Esd_Clock_S__Default,"ax",%progbits
 180              		.align	1
 181              		.global	Ft_Esd_Clock_S__Default
 182              		.syntax unified
 183              		.thumb
 184              		.thumb_func
 185              		.fpu fpv5-sp-d16
 187              	Ft_Esd_Clock_S__Default:
 188              	.LFB31:
  22:FT_Esd_Widgets/Ft_Esd_Clock__Generated.c **** ft_uint16_t Ft_Esd_Clock_S__Default(void *context) { return 0U; }
 189              		.loc 1 22 0
 190              		.cfi_startproc
 191              		@ args = 0, pretend = 0, frame = 0
 192              		@ frame_needed = 0, uses_anonymous_args = 0
 193              		@ link register save eliminated.
 194              	.LVL14:
 195              		.loc 1 22 0
 196 0000 0020     		movs	r0, #0
 197              	.LVL15:
 198 0002 7047     		bx	lr
 199              		.cfi_endproc
 200              	.LFE31:
 202              		.section	.text.Ft_Esd_Clock_Ms__Default,"ax",%progbits
 203              		.align	1
 204              		.global	Ft_Esd_Clock_Ms__Default
 205              		.syntax unified
 206              		.thumb
 207              		.thumb_func
 208              		.fpu fpv5-sp-d16
 210              	Ft_Esd_Clock_Ms__Default:
 211              	.LFB32:
  23:FT_Esd_Widgets/Ft_Esd_Clock__Generated.c **** ft_uint32_t Ft_Esd_Clock_Ms__Default(void *context) { return 0UL; }
 212              		.loc 1 23 0
 213              		.cfi_startproc
 214              		@ args = 0, pretend = 0, frame = 0
 215              		@ frame_needed = 0, uses_anonymous_args = 0
 216              		@ link register save eliminated.
 217              	.LVL16:
 218              		.loc 1 23 0
 219 0000 0020     		movs	r0, #0
 220              	.LVL17:
 221 0002 7047     		bx	lr
 222              		.cfi_endproc
ARM GAS  /var/folders/n8/cvzdcwlj0vl4g_wtyz1ffy300000gn/T//ccO4hAVf.s 			page 5


 223              	.LFE32:
 225              		.section	.text.Ft_Esd_Clock_Interactive__Default,"ax",%progbits
 226              		.align	1
 227              		.global	Ft_Esd_Clock_Interactive__Default
 228              		.syntax unified
 229              		.thumb
 230              		.thumb_func
 231              		.fpu fpv5-sp-d16
 233              	Ft_Esd_Clock_Interactive__Default:
 234              	.LFB33:
  24:FT_Esd_Widgets/Ft_Esd_Clock__Generated.c **** ft_bool_t Ft_Esd_Clock_Interactive__Default(void *context) { return 0; }
 235              		.loc 1 24 0
 236              		.cfi_startproc
 237              		@ args = 0, pretend = 0, frame = 0
 238              		@ frame_needed = 0, uses_anonymous_args = 0
 239              		@ link register save eliminated.
 240              	.LVL18:
 241              		.loc 1 24 0
 242 0000 0020     		movs	r0, #0
 243              	.LVL19:
 244 0002 7047     		bx	lr
 245              		.cfi_endproc
 246              	.LFE33:
 248              		.section	.text.Ft_Esd_Clock_Ft_Esd_PosSizeToRadius_X__Property,"ax",%progbits
 249              		.align	1
 250              		.syntax unified
 251              		.thumb
 252              		.thumb_func
 253              		.fpu fpv5-sp-d16
 255              	Ft_Esd_Clock_Ft_Esd_PosSizeToRadius_X__Property:
 256              	.LFB36:
  25:FT_Esd_Widgets/Ft_Esd_Clock__Generated.c **** 
  26:FT_Esd_Widgets/Ft_Esd_Clock__Generated.c **** Ft_Esd_Theme * Ft_Esd_Theme_GetCurrent();
  27:FT_Esd_Widgets/Ft_Esd_Clock__Generated.c **** Ft_Gpu_Hal_Context_t * Ft_Esd_GetHost();
  28:FT_Esd_Widgets/Ft_Esd_Clock__Generated.c **** static ft_int16_t Ft_Esd_Clock_Ft_Esd_PosSizeToRadius_X__Property(void *context);
  29:FT_Esd_Widgets/Ft_Esd_Clock__Generated.c **** static ft_int16_t Ft_Esd_Clock_Ft_Esd_PosSizeToRadius_Y__Property(void *context);
  30:FT_Esd_Widgets/Ft_Esd_Clock__Generated.c **** static ft_int16_t Ft_Esd_Clock_Ft_Esd_PosSizeToRadius_Width__Property(void *context);
  31:FT_Esd_Widgets/Ft_Esd_Clock__Generated.c **** static ft_int16_t Ft_Esd_Clock_Ft_Esd_PosSizeToRadius_Height__Property(void *context);
  32:FT_Esd_Widgets/Ft_Esd_Clock__Generated.c **** 
  33:FT_Esd_Widgets/Ft_Esd_Clock__Generated.c **** 
  34:FT_Esd_Widgets/Ft_Esd_Clock__Generated.c **** void Ft_Esd_Clock__Initializer(Ft_Esd_Clock *context)
  35:FT_Esd_Widgets/Ft_Esd_Clock__Generated.c **** {
  36:FT_Esd_Widgets/Ft_Esd_Clock__Generated.c **** 	context->Parent = 0;
  37:FT_Esd_Widgets/Ft_Esd_Clock__Generated.c **** 	context->Theme = Ft_Esd_Clock_Theme__Default;
  38:FT_Esd_Widgets/Ft_Esd_Clock__Generated.c **** 	context->X = Ft_Esd_Clock_X__Default;
  39:FT_Esd_Widgets/Ft_Esd_Clock__Generated.c **** 	context->Y = Ft_Esd_Clock_Y__Default;
  40:FT_Esd_Widgets/Ft_Esd_Clock__Generated.c **** 	Ft_Esd_PosSizeToRadius__Initializer(&context->Ft_Esd_PosSizeToRadius);
  41:FT_Esd_Widgets/Ft_Esd_Clock__Generated.c **** 	context->Ft_Esd_PosSizeToRadius.Parent = context;
  42:FT_Esd_Widgets/Ft_Esd_Clock__Generated.c **** 	context->Ft_Esd_PosSizeToRadius.X = Ft_Esd_Clock_Ft_Esd_PosSizeToRadius_X__Property;
  43:FT_Esd_Widgets/Ft_Esd_Clock__Generated.c **** 	context->Ft_Esd_PosSizeToRadius.Y = Ft_Esd_Clock_Ft_Esd_PosSizeToRadius_Y__Property;
  44:FT_Esd_Widgets/Ft_Esd_Clock__Generated.c **** 	context->Ft_Esd_PosSizeToRadius.Width = Ft_Esd_Clock_Ft_Esd_PosSizeToRadius_Width__Property;
  45:FT_Esd_Widgets/Ft_Esd_Clock__Generated.c **** 	context->Ft_Esd_PosSizeToRadius.Height = Ft_Esd_Clock_Ft_Esd_PosSizeToRadius_Height__Property;
  46:FT_Esd_Widgets/Ft_Esd_Clock__Generated.c **** 	context->Width = Ft_Esd_Clock_Width__Default;
  47:FT_Esd_Widgets/Ft_Esd_Clock__Generated.c **** 	context->Height = Ft_Esd_Clock_Height__Default;
  48:FT_Esd_Widgets/Ft_Esd_Clock__Generated.c **** 	context->Alpha = Ft_Esd_Clock_Alpha__Default;
  49:FT_Esd_Widgets/Ft_Esd_Clock__Generated.c **** 	context->H = Ft_Esd_Clock_H__Default;
  50:FT_Esd_Widgets/Ft_Esd_Clock__Generated.c **** 	context->M = Ft_Esd_Clock_M__Default;
ARM GAS  /var/folders/n8/cvzdcwlj0vl4g_wtyz1ffy300000gn/T//ccO4hAVf.s 			page 6


  51:FT_Esd_Widgets/Ft_Esd_Clock__Generated.c **** 	context->S = Ft_Esd_Clock_S__Default;
  52:FT_Esd_Widgets/Ft_Esd_Clock__Generated.c **** 	context->Ms = Ft_Esd_Clock_Ms__Default;
  53:FT_Esd_Widgets/Ft_Esd_Clock__Generated.c **** 	Ft_Esd_TouchTag__Initializer(&context->Touch_Tag);
  54:FT_Esd_Widgets/Ft_Esd_Clock__Generated.c **** 	context->Touch_Tag.Parent = context;
  55:FT_Esd_Widgets/Ft_Esd_Clock__Generated.c **** 	context->Interactive = Ft_Esd_Clock_Interactive__Default;
  56:FT_Esd_Widgets/Ft_Esd_Clock__Generated.c **** }
  57:FT_Esd_Widgets/Ft_Esd_Clock__Generated.c **** 
  58:FT_Esd_Widgets/Ft_Esd_Clock__Generated.c **** ft_void_t Ft_Gpu_CoCmd_BgColor(Ft_Gpu_Hal_Context_t *, ft_rgb32_t);
  59:FT_Esd_Widgets/Ft_Esd_Clock__Generated.c **** ft_void_t Ft_Gpu_CoCmd_Clock(Ft_Gpu_Hal_Context_t *, ft_int16_t, ft_int16_t, ft_int16_t, ft_uint16_
  60:FT_Esd_Widgets/Ft_Esd_Clock__Generated.c **** 
  61:FT_Esd_Widgets/Ft_Esd_Clock__Generated.c **** void Ft_Esd_Clock_Render(Ft_Esd_Clock *context)
  62:FT_Esd_Widgets/Ft_Esd_Clock__Generated.c **** {
  63:FT_Esd_Widgets/Ft_Esd_Clock__Generated.c **** 	void *parent = context->Parent;
  64:FT_Esd_Widgets/Ft_Esd_Clock__Generated.c **** 	uint8_t alpha = context->Alpha(parent);
  65:FT_Esd_Widgets/Ft_Esd_Clock__Generated.c **** 	Ft_Esd_Dl_COLOR_A(alpha);
  66:FT_Esd_Widgets/Ft_Esd_Clock__Generated.c **** 	Ft_Gpu_Hal_Context_t * phost = Ft_Esd_GetHost();
  67:FT_Esd_Widgets/Ft_Esd_Clock__Generated.c **** 	Ft_Esd_Theme * theme = context->Theme(parent);
  68:FT_Esd_Widgets/Ft_Esd_Clock__Generated.c **** 	ft_rgb32_t c = Ft_Esd_Theme_GetBackColor(theme);
  69:FT_Esd_Widgets/Ft_Esd_Clock__Generated.c **** 	Ft_Gpu_CoCmd_BgColor(phost, c);
  70:FT_Esd_Widgets/Ft_Esd_Clock__Generated.c **** 	ft_bool_t if_1 = Ft_Esd_TouchTag_Touching(&context->Touch_Tag);
  71:FT_Esd_Widgets/Ft_Esd_Clock__Generated.c **** 	ft_uint32_t c_1;
  72:FT_Esd_Widgets/Ft_Esd_Clock__Generated.c **** 	if (if_1)
  73:FT_Esd_Widgets/Ft_Esd_Clock__Generated.c **** 	{
  74:FT_Esd_Widgets/Ft_Esd_Clock__Generated.c **** 		Ft_Esd_Theme * theme_1 = context->Theme(parent);
  75:FT_Esd_Widgets/Ft_Esd_Clock__Generated.c **** 		c_1 = Ft_Esd_Theme_GetPrimaryColor(theme_1);
  76:FT_Esd_Widgets/Ft_Esd_Clock__Generated.c **** 	}
  77:FT_Esd_Widgets/Ft_Esd_Clock__Generated.c **** 	else
  78:FT_Esd_Widgets/Ft_Esd_Clock__Generated.c **** 	{
  79:FT_Esd_Widgets/Ft_Esd_Clock__Generated.c **** 		Ft_Esd_Theme * theme_2 = context->Theme(parent);
  80:FT_Esd_Widgets/Ft_Esd_Clock__Generated.c **** 		c_1 = Ft_Esd_Theme_GetTextColor(theme_2);
  81:FT_Esd_Widgets/Ft_Esd_Clock__Generated.c **** 	}
  82:FT_Esd_Widgets/Ft_Esd_Clock__Generated.c **** 	Ft_Esd_Dl_COLOR_RGB(c_1);
  83:FT_Esd_Widgets/Ft_Esd_Clock__Generated.c **** 	ft_uint8_t s = Ft_Esd_TouchTag_Tag(&context->Touch_Tag);
  84:FT_Esd_Widgets/Ft_Esd_Clock__Generated.c **** 	Ft_Esd_Dl_TAG(s);
  85:FT_Esd_Widgets/Ft_Esd_Clock__Generated.c **** 	Ft_Gpu_Hal_Context_t * phost_1 = Ft_Esd_GetHost();
  86:FT_Esd_Widgets/Ft_Esd_Clock__Generated.c **** 	ft_int16_t x = Ft_Esd_PosSizeToRadius_CenterX(&context->Ft_Esd_PosSizeToRadius);
  87:FT_Esd_Widgets/Ft_Esd_Clock__Generated.c **** 	ft_int16_t y = Ft_Esd_PosSizeToRadius_CenterY(&context->Ft_Esd_PosSizeToRadius);
  88:FT_Esd_Widgets/Ft_Esd_Clock__Generated.c **** 	ft_int16_t r = Ft_Esd_PosSizeToRadius_Radius(&context->Ft_Esd_PosSizeToRadius);
  89:FT_Esd_Widgets/Ft_Esd_Clock__Generated.c **** 	ft_uint16_t options = 0;
  90:FT_Esd_Widgets/Ft_Esd_Clock__Generated.c **** 	ft_uint16_t height = context->H(parent);
  91:FT_Esd_Widgets/Ft_Esd_Clock__Generated.c **** 	ft_uint16_t m = context->M(parent);
  92:FT_Esd_Widgets/Ft_Esd_Clock__Generated.c **** 	ft_uint16_t left = context->S(parent);
  93:FT_Esd_Widgets/Ft_Esd_Clock__Generated.c **** 	ft_uint32_t left_1 = context->Ms(parent);
  94:FT_Esd_Widgets/Ft_Esd_Clock__Generated.c **** 	ft_uint32_t right_1 = 1000UL;
  95:FT_Esd_Widgets/Ft_Esd_Clock__Generated.c **** 	ft_uint32_t right = left_1 / right_1;
  96:FT_Esd_Widgets/Ft_Esd_Clock__Generated.c **** 	ft_uint32_t s_1 = left + right;
  97:FT_Esd_Widgets/Ft_Esd_Clock__Generated.c **** 	ft_uint32_t left_2 = context->Ms(parent);
  98:FT_Esd_Widgets/Ft_Esd_Clock__Generated.c **** 	ft_uint32_t right_2 = 1000UL;
  99:FT_Esd_Widgets/Ft_Esd_Clock__Generated.c **** 	ft_uint32_t ms = left_2 % right_2;
 100:FT_Esd_Widgets/Ft_Esd_Clock__Generated.c **** 	Ft_Gpu_CoCmd_Clock(phost_1, x, y, r, options, height, m, s_1, ms);
 101:FT_Esd_Widgets/Ft_Esd_Clock__Generated.c **** 	ft_uint8_t s_2 = 255;
 102:FT_Esd_Widgets/Ft_Esd_Clock__Generated.c **** 	Ft_Esd_Dl_TAG(s_2);
 103:FT_Esd_Widgets/Ft_Esd_Clock__Generated.c **** }
 104:FT_Esd_Widgets/Ft_Esd_Clock__Generated.c **** 
 105:FT_Esd_Widgets/Ft_Esd_Clock__Generated.c **** ft_int16_t Ft_Esd_Clock_Ft_Esd_PosSizeToRadius_X__Property(void *c)
 106:FT_Esd_Widgets/Ft_Esd_Clock__Generated.c **** {
 257              		.loc 1 106 0
ARM GAS  /var/folders/n8/cvzdcwlj0vl4g_wtyz1ffy300000gn/T//ccO4hAVf.s 			page 7


 258              		.cfi_startproc
 259              		@ args = 0, pretend = 0, frame = 0
 260              		@ frame_needed = 0, uses_anonymous_args = 0
 261              	.LVL20:
 262 0000 08B5     		push	{r3, lr}
 263              	.LCFI0:
 264              		.cfi_def_cfa_offset 8
 265              		.cfi_offset 3, -8
 266              		.cfi_offset 14, -4
 267              	.LVL21:
 107:FT_Esd_Widgets/Ft_Esd_Clock__Generated.c **** 	Ft_Esd_Clock *context = (Ft_Esd_Clock *)c;
 108:FT_Esd_Widgets/Ft_Esd_Clock__Generated.c **** 	void *parent = context->Parent;
 109:FT_Esd_Widgets/Ft_Esd_Clock__Generated.c **** 	return context->X(parent);
 268              		.loc 1 109 0
 269 0002 8368     		ldr	r3, [r0, #8]
 270 0004 0068     		ldr	r0, [r0]
 271              	.LVL22:
 272 0006 9847     		blx	r3
 273              	.LVL23:
 110:FT_Esd_Widgets/Ft_Esd_Clock__Generated.c **** }
 274              		.loc 1 110 0
 275 0008 08BD     		pop	{r3, pc}
 276              		.cfi_endproc
 277              	.LFE36:
 279              		.section	.text.Ft_Esd_Clock_Ft_Esd_PosSizeToRadius_Y__Property,"ax",%progbits
 280              		.align	1
 281              		.syntax unified
 282              		.thumb
 283              		.thumb_func
 284              		.fpu fpv5-sp-d16
 286              	Ft_Esd_Clock_Ft_Esd_PosSizeToRadius_Y__Property:
 287              	.LFB37:
 111:FT_Esd_Widgets/Ft_Esd_Clock__Generated.c **** 
 112:FT_Esd_Widgets/Ft_Esd_Clock__Generated.c **** ft_int16_t Ft_Esd_Clock_Ft_Esd_PosSizeToRadius_Y__Property(void *c)
 113:FT_Esd_Widgets/Ft_Esd_Clock__Generated.c **** {
 288              		.loc 1 113 0
 289              		.cfi_startproc
 290              		@ args = 0, pretend = 0, frame = 0
 291              		@ frame_needed = 0, uses_anonymous_args = 0
 292              	.LVL24:
 293 0000 08B5     		push	{r3, lr}
 294              	.LCFI1:
 295              		.cfi_def_cfa_offset 8
 296              		.cfi_offset 3, -8
 297              		.cfi_offset 14, -4
 298              	.LVL25:
 114:FT_Esd_Widgets/Ft_Esd_Clock__Generated.c **** 	Ft_Esd_Clock *context = (Ft_Esd_Clock *)c;
 115:FT_Esd_Widgets/Ft_Esd_Clock__Generated.c **** 	void *parent = context->Parent;
 116:FT_Esd_Widgets/Ft_Esd_Clock__Generated.c **** 	return context->Y(parent);
 299              		.loc 1 116 0
 300 0002 C368     		ldr	r3, [r0, #12]
 301 0004 0068     		ldr	r0, [r0]
 302              	.LVL26:
 303 0006 9847     		blx	r3
 304              	.LVL27:
 117:FT_Esd_Widgets/Ft_Esd_Clock__Generated.c **** }
 305              		.loc 1 117 0
ARM GAS  /var/folders/n8/cvzdcwlj0vl4g_wtyz1ffy300000gn/T//ccO4hAVf.s 			page 8


 306 0008 08BD     		pop	{r3, pc}
 307              		.cfi_endproc
 308              	.LFE37:
 310              		.section	.text.Ft_Esd_Clock_Ft_Esd_PosSizeToRadius_Width__Property,"ax",%progbits
 311              		.align	1
 312              		.syntax unified
 313              		.thumb
 314              		.thumb_func
 315              		.fpu fpv5-sp-d16
 317              	Ft_Esd_Clock_Ft_Esd_PosSizeToRadius_Width__Property:
 318              	.LFB38:
 118:FT_Esd_Widgets/Ft_Esd_Clock__Generated.c **** 
 119:FT_Esd_Widgets/Ft_Esd_Clock__Generated.c **** ft_int16_t Ft_Esd_Clock_Ft_Esd_PosSizeToRadius_Width__Property(void *c)
 120:FT_Esd_Widgets/Ft_Esd_Clock__Generated.c **** {
 319              		.loc 1 120 0
 320              		.cfi_startproc
 321              		@ args = 0, pretend = 0, frame = 0
 322              		@ frame_needed = 0, uses_anonymous_args = 0
 323              	.LVL28:
 324 0000 08B5     		push	{r3, lr}
 325              	.LCFI2:
 326              		.cfi_def_cfa_offset 8
 327              		.cfi_offset 3, -8
 328              		.cfi_offset 14, -4
 329              	.LVL29:
 121:FT_Esd_Widgets/Ft_Esd_Clock__Generated.c **** 	Ft_Esd_Clock *context = (Ft_Esd_Clock *)c;
 122:FT_Esd_Widgets/Ft_Esd_Clock__Generated.c **** 	void *parent = context->Parent;
 123:FT_Esd_Widgets/Ft_Esd_Clock__Generated.c **** 	return context->Width(parent);
 330              		.loc 1 123 0
 331 0002 436A     		ldr	r3, [r0, #36]
 332 0004 0068     		ldr	r0, [r0]
 333              	.LVL30:
 334 0006 9847     		blx	r3
 335              	.LVL31:
 124:FT_Esd_Widgets/Ft_Esd_Clock__Generated.c **** }
 336              		.loc 1 124 0
 337 0008 08BD     		pop	{r3, pc}
 338              		.cfi_endproc
 339              	.LFE38:
 341              		.section	.text.Ft_Esd_Clock_Ft_Esd_PosSizeToRadius_Height__Property,"ax",%progbits
 342              		.align	1
 343              		.syntax unified
 344              		.thumb
 345              		.thumb_func
 346              		.fpu fpv5-sp-d16
 348              	Ft_Esd_Clock_Ft_Esd_PosSizeToRadius_Height__Property:
 349              	.LFB39:
 125:FT_Esd_Widgets/Ft_Esd_Clock__Generated.c **** 
 126:FT_Esd_Widgets/Ft_Esd_Clock__Generated.c **** ft_int16_t Ft_Esd_Clock_Ft_Esd_PosSizeToRadius_Height__Property(void *c)
 127:FT_Esd_Widgets/Ft_Esd_Clock__Generated.c **** {
 350              		.loc 1 127 0
 351              		.cfi_startproc
 352              		@ args = 0, pretend = 0, frame = 0
 353              		@ frame_needed = 0, uses_anonymous_args = 0
 354              	.LVL32:
 355 0000 08B5     		push	{r3, lr}
 356              	.LCFI3:
ARM GAS  /var/folders/n8/cvzdcwlj0vl4g_wtyz1ffy300000gn/T//ccO4hAVf.s 			page 9


 357              		.cfi_def_cfa_offset 8
 358              		.cfi_offset 3, -8
 359              		.cfi_offset 14, -4
 360              	.LVL33:
 128:FT_Esd_Widgets/Ft_Esd_Clock__Generated.c **** 	Ft_Esd_Clock *context = (Ft_Esd_Clock *)c;
 129:FT_Esd_Widgets/Ft_Esd_Clock__Generated.c **** 	void *parent = context->Parent;
 130:FT_Esd_Widgets/Ft_Esd_Clock__Generated.c **** 	return context->Height(parent);
 361              		.loc 1 130 0
 362 0002 836A     		ldr	r3, [r0, #40]
 363 0004 0068     		ldr	r0, [r0]
 364              	.LVL34:
 365 0006 9847     		blx	r3
 366              	.LVL35:
 131:FT_Esd_Widgets/Ft_Esd_Clock__Generated.c **** }
 367              		.loc 1 131 0
 368 0008 08BD     		pop	{r3, pc}
 369              		.cfi_endproc
 370              	.LFE39:
 372              		.section	.text.Ft_Esd_Clock_Theme__Default,"ax",%progbits
 373              		.align	1
 374              		.global	Ft_Esd_Clock_Theme__Default
 375              		.syntax unified
 376              		.thumb
 377              		.thumb_func
 378              		.fpu fpv5-sp-d16
 380              	Ft_Esd_Clock_Theme__Default:
 381              	.LFB23:
  14:FT_Esd_Widgets/Ft_Esd_Clock__Generated.c **** ft_int16_t Ft_Esd_Clock_X__Default(void *context) { return 0; }
 382              		.loc 1 14 0
 383              		.cfi_startproc
 384              		@ args = 0, pretend = 0, frame = 0
 385              		@ frame_needed = 0, uses_anonymous_args = 0
 386              	.LVL36:
 387 0000 08B5     		push	{r3, lr}
 388              	.LCFI4:
 389              		.cfi_def_cfa_offset 8
 390              		.cfi_offset 3, -8
 391              		.cfi_offset 14, -4
  14:FT_Esd_Widgets/Ft_Esd_Clock__Generated.c **** ft_int16_t Ft_Esd_Clock_X__Default(void *context) { return 0; }
 392              		.loc 1 14 0
 393 0002 FFF7FEFF 		bl	Ft_Esd_Theme_GetCurrent
 394              	.LVL37:
 395 0006 08BD     		pop	{r3, pc}
 396              		.cfi_endproc
 397              	.LFE23:
 399              		.section	.text.Ft_Esd_Clock__Initializer,"ax",%progbits
 400              		.align	1
 401              		.global	Ft_Esd_Clock__Initializer
 402              		.syntax unified
 403              		.thumb
 404              		.thumb_func
 405              		.fpu fpv5-sp-d16
 407              	Ft_Esd_Clock__Initializer:
 408              	.LFB34:
  35:FT_Esd_Widgets/Ft_Esd_Clock__Generated.c **** 	context->Parent = 0;
 409              		.loc 1 35 0
 410              		.cfi_startproc
ARM GAS  /var/folders/n8/cvzdcwlj0vl4g_wtyz1ffy300000gn/T//ccO4hAVf.s 			page 10


 411              		@ args = 0, pretend = 0, frame = 0
 412              		@ frame_needed = 0, uses_anonymous_args = 0
 413              	.LVL38:
 414 0000 10B5     		push	{r4, lr}
 415              	.LCFI5:
 416              		.cfi_def_cfa_offset 8
 417              		.cfi_offset 4, -8
 418              		.cfi_offset 14, -4
 419 0002 0446     		mov	r4, r0
  36:FT_Esd_Widgets/Ft_Esd_Clock__Generated.c **** 	context->Theme = Ft_Esd_Clock_Theme__Default;
 420              		.loc 1 36 0
 421 0004 0023     		movs	r3, #0
 422 0006 0360     		str	r3, [r0]
  37:FT_Esd_Widgets/Ft_Esd_Clock__Generated.c **** 	context->X = Ft_Esd_Clock_X__Default;
 423              		.loc 1 37 0
 424 0008 134B     		ldr	r3, .L23
 425 000a 4360     		str	r3, [r0, #4]
  38:FT_Esd_Widgets/Ft_Esd_Clock__Generated.c **** 	context->Y = Ft_Esd_Clock_Y__Default;
 426              		.loc 1 38 0
 427 000c 134B     		ldr	r3, .L23+4
 428 000e 8360     		str	r3, [r0, #8]
  39:FT_Esd_Widgets/Ft_Esd_Clock__Generated.c **** 	Ft_Esd_PosSizeToRadius__Initializer(&context->Ft_Esd_PosSizeToRadius);
 429              		.loc 1 39 0
 430 0010 134B     		ldr	r3, .L23+8
 431 0012 C360     		str	r3, [r0, #12]
  40:FT_Esd_Widgets/Ft_Esd_Clock__Generated.c **** 	context->Ft_Esd_PosSizeToRadius.Parent = context;
 432              		.loc 1 40 0
 433 0014 1030     		adds	r0, r0, #16
 434              	.LVL39:
 435 0016 FFF7FEFF 		bl	Ft_Esd_PosSizeToRadius__Initializer
 436              	.LVL40:
  41:FT_Esd_Widgets/Ft_Esd_Clock__Generated.c **** 	context->Ft_Esd_PosSizeToRadius.X = Ft_Esd_Clock_Ft_Esd_PosSizeToRadius_X__Property;
 437              		.loc 1 41 0
 438 001a 2461     		str	r4, [r4, #16]
  42:FT_Esd_Widgets/Ft_Esd_Clock__Generated.c **** 	context->Ft_Esd_PosSizeToRadius.Y = Ft_Esd_Clock_Ft_Esd_PosSizeToRadius_Y__Property;
 439              		.loc 1 42 0
 440 001c 114B     		ldr	r3, .L23+12
 441 001e 6361     		str	r3, [r4, #20]
  43:FT_Esd_Widgets/Ft_Esd_Clock__Generated.c **** 	context->Ft_Esd_PosSizeToRadius.Width = Ft_Esd_Clock_Ft_Esd_PosSizeToRadius_Width__Property;
 442              		.loc 1 43 0
 443 0020 114B     		ldr	r3, .L23+16
 444 0022 A361     		str	r3, [r4, #24]
  44:FT_Esd_Widgets/Ft_Esd_Clock__Generated.c **** 	context->Ft_Esd_PosSizeToRadius.Height = Ft_Esd_Clock_Ft_Esd_PosSizeToRadius_Height__Property;
 445              		.loc 1 44 0
 446 0024 114B     		ldr	r3, .L23+20
 447 0026 E361     		str	r3, [r4, #28]
  45:FT_Esd_Widgets/Ft_Esd_Clock__Generated.c **** 	context->Width = Ft_Esd_Clock_Width__Default;
 448              		.loc 1 45 0
 449 0028 114B     		ldr	r3, .L23+24
 450 002a 2362     		str	r3, [r4, #32]
  46:FT_Esd_Widgets/Ft_Esd_Clock__Generated.c **** 	context->Height = Ft_Esd_Clock_Height__Default;
 451              		.loc 1 46 0
 452 002c 114B     		ldr	r3, .L23+28
 453 002e 6362     		str	r3, [r4, #36]
  47:FT_Esd_Widgets/Ft_Esd_Clock__Generated.c **** 	context->Alpha = Ft_Esd_Clock_Alpha__Default;
 454              		.loc 1 47 0
 455 0030 114B     		ldr	r3, .L23+32
ARM GAS  /var/folders/n8/cvzdcwlj0vl4g_wtyz1ffy300000gn/T//ccO4hAVf.s 			page 11


 456 0032 A362     		str	r3, [r4, #40]
  48:FT_Esd_Widgets/Ft_Esd_Clock__Generated.c **** 	context->H = Ft_Esd_Clock_H__Default;
 457              		.loc 1 48 0
 458 0034 114B     		ldr	r3, .L23+36
 459 0036 E362     		str	r3, [r4, #44]
  49:FT_Esd_Widgets/Ft_Esd_Clock__Generated.c **** 	context->M = Ft_Esd_Clock_M__Default;
 460              		.loc 1 49 0
 461 0038 114B     		ldr	r3, .L23+40
 462 003a 2363     		str	r3, [r4, #48]
  50:FT_Esd_Widgets/Ft_Esd_Clock__Generated.c **** 	context->S = Ft_Esd_Clock_S__Default;
 463              		.loc 1 50 0
 464 003c 114B     		ldr	r3, .L23+44
 465 003e 6363     		str	r3, [r4, #52]
  51:FT_Esd_Widgets/Ft_Esd_Clock__Generated.c **** 	context->Ms = Ft_Esd_Clock_Ms__Default;
 466              		.loc 1 51 0
 467 0040 114B     		ldr	r3, .L23+48
 468 0042 A363     		str	r3, [r4, #56]
  52:FT_Esd_Widgets/Ft_Esd_Clock__Generated.c **** 	Ft_Esd_TouchTag__Initializer(&context->Touch_Tag);
 469              		.loc 1 52 0
 470 0044 114B     		ldr	r3, .L23+52
 471 0046 E363     		str	r3, [r4, #60]
  53:FT_Esd_Widgets/Ft_Esd_Clock__Generated.c **** 	context->Touch_Tag.Parent = context;
 472              		.loc 1 53 0
 473 0048 04F14000 		add	r0, r4, #64
 474 004c FFF7FEFF 		bl	Ft_Esd_TouchTag__Initializer
 475              	.LVL41:
  54:FT_Esd_Widgets/Ft_Esd_Clock__Generated.c **** 	context->Interactive = Ft_Esd_Clock_Interactive__Default;
 476              		.loc 1 54 0
 477 0050 2464     		str	r4, [r4, #64]
  55:FT_Esd_Widgets/Ft_Esd_Clock__Generated.c **** }
 478              		.loc 1 55 0
 479 0052 0F4B     		ldr	r3, .L23+56
 480 0054 A365     		str	r3, [r4, #88]
  56:FT_Esd_Widgets/Ft_Esd_Clock__Generated.c **** 
 481              		.loc 1 56 0
 482 0056 10BD     		pop	{r4, pc}
 483              	.LVL42:
 484              	.L24:
 485              		.align	2
 486              	.L23:
 487 0058 00000000 		.word	Ft_Esd_Clock_Theme__Default
 488 005c 00000000 		.word	Ft_Esd_Clock_X__Default
 489 0060 00000000 		.word	Ft_Esd_Clock_Y__Default
 490 0064 00000000 		.word	Ft_Esd_Clock_Ft_Esd_PosSizeToRadius_X__Property
 491 0068 00000000 		.word	Ft_Esd_Clock_Ft_Esd_PosSizeToRadius_Y__Property
 492 006c 00000000 		.word	Ft_Esd_Clock_Ft_Esd_PosSizeToRadius_Width__Property
 493 0070 00000000 		.word	Ft_Esd_Clock_Ft_Esd_PosSizeToRadius_Height__Property
 494 0074 00000000 		.word	Ft_Esd_Clock_Width__Default
 495 0078 00000000 		.word	Ft_Esd_Clock_Height__Default
 496 007c 00000000 		.word	Ft_Esd_Clock_Alpha__Default
 497 0080 00000000 		.word	Ft_Esd_Clock_H__Default
 498 0084 00000000 		.word	Ft_Esd_Clock_M__Default
 499 0088 00000000 		.word	Ft_Esd_Clock_S__Default
 500 008c 00000000 		.word	Ft_Esd_Clock_Ms__Default
 501 0090 00000000 		.word	Ft_Esd_Clock_Interactive__Default
 502              		.cfi_endproc
 503              	.LFE34:
ARM GAS  /var/folders/n8/cvzdcwlj0vl4g_wtyz1ffy300000gn/T//ccO4hAVf.s 			page 12


 505              		.section	.text.Ft_Esd_Clock_Render,"ax",%progbits
 506              		.align	1
 507              		.global	Ft_Esd_Clock_Render
 508              		.syntax unified
 509              		.thumb
 510              		.thumb_func
 511              		.fpu fpv5-sp-d16
 513              	Ft_Esd_Clock_Render:
 514              	.LFB35:
  62:FT_Esd_Widgets/Ft_Esd_Clock__Generated.c **** 	void *parent = context->Parent;
 515              		.loc 1 62 0
 516              		.cfi_startproc
 517              		@ args = 0, pretend = 0, frame = 16
 518              		@ frame_needed = 0, uses_anonymous_args = 0
 519              	.LVL43:
 520 0000 2DE9F04F 		push	{r4, r5, r6, r7, r8, r9, r10, fp, lr}
 521              	.LCFI6:
 522              		.cfi_def_cfa_offset 36
 523              		.cfi_offset 4, -36
 524              		.cfi_offset 5, -32
 525              		.cfi_offset 6, -28
 526              		.cfi_offset 7, -24
 527              		.cfi_offset 8, -20
 528              		.cfi_offset 9, -16
 529              		.cfi_offset 10, -12
 530              		.cfi_offset 11, -8
 531              		.cfi_offset 14, -4
 532 0004 8BB0     		sub	sp, sp, #44
 533              	.LCFI7:
 534              		.cfi_def_cfa_offset 80
 535 0006 0446     		mov	r4, r0
  63:FT_Esd_Widgets/Ft_Esd_Clock__Generated.c **** 	uint8_t alpha = context->Alpha(parent);
 536              		.loc 1 63 0
 537 0008 0668     		ldr	r6, [r0]
 538              	.LVL44:
  64:FT_Esd_Widgets/Ft_Esd_Clock__Generated.c **** 	Ft_Esd_Dl_COLOR_A(alpha);
 539              		.loc 1 64 0
 540 000a C36A     		ldr	r3, [r0, #44]
 541 000c 3046     		mov	r0, r6
 542              	.LVL45:
 543 000e 9847     		blx	r3
 544              	.LVL46:
 545              	.LBB30:
 546              	.LBB31:
 547              		.file 2 "FT_Esd_Framework/FT_Esd_Dl.h"
   1:FT_Esd_Framework/FT_Esd_Dl.h **** 
   2:FT_Esd_Framework/FT_Esd_Dl.h **** #ifndef FT_ESD_DL_H
   3:FT_Esd_Framework/FT_Esd_Dl.h **** #define FT_ESD_DL_H
   4:FT_Esd_Framework/FT_Esd_Dl.h **** 
   5:FT_Esd_Framework/FT_Esd_Dl.h **** #include "FT_DataTypes.h"
   6:FT_Esd_Framework/FT_Esd_Dl.h **** #include "FT_Platform.h"
   7:FT_Esd_Framework/FT_Esd_Dl.h **** #include "Ft_Esd.h"
   8:FT_Esd_Framework/FT_Esd_Dl.h **** #include "FT_Gpu.h"
   9:FT_Esd_Framework/FT_Esd_Dl.h **** #include "Ft_Esd_BitmapInfo.h"
  10:FT_Esd_Framework/FT_Esd_Dl.h **** 
  11:FT_Esd_Framework/FT_Esd_Dl.h **** ESD_CATEGORY(EsdUtilities, DisplayName = "ESD Utilities")
  12:FT_Esd_Framework/FT_Esd_Dl.h **** ESD_CATEGORY(EveRenderFunctions, DisplayName = "EVE Render Functions")
ARM GAS  /var/folders/n8/cvzdcwlj0vl4g_wtyz1ffy300000gn/T//ccO4hAVf.s 			page 13


  13:FT_Esd_Framework/FT_Esd_Dl.h **** 
  14:FT_Esd_Framework/FT_Esd_Dl.h **** ESD_TYPE(Ft_Gpu_Hal_Context_t *, Native = Pointer, Edit = Library)
  15:FT_Esd_Framework/FT_Esd_Dl.h **** 
  16:FT_Esd_Framework/FT_Esd_Dl.h **** // Keep cache of displaylist values that don't often change but are generally set by every widget t
  17:FT_Esd_Framework/FT_Esd_Dl.h **** #define FT_ESD_OPTIMIZE_DISPLAYLIST 1
  18:FT_Esd_Framework/FT_Esd_Dl.h **** #define FT_ESD_STATE_STACK_SIZE 5
  19:FT_Esd_Framework/FT_Esd_Dl.h **** 
  20:FT_Esd_Framework/FT_Esd_Dl.h **** #define FT_ESD_BITMAPHANDLE_INVALID 255
  21:FT_Esd_Framework/FT_Esd_Dl.h **** 
  22:FT_Esd_Framework/FT_Esd_Dl.h **** //
  23:FT_Esd_Framework/FT_Esd_Dl.h **** // Structs
  24:FT_Esd_Framework/FT_Esd_Dl.h **** //
  25:FT_Esd_Framework/FT_Esd_Dl.h **** #ifdef FT_ESD_OPTIMIZE_DISPLAYLIST
  26:FT_Esd_Framework/FT_Esd_Dl.h **** #define FT_ESD_STATE Ft_Esd_GpuState[Ft_Esd_GpuState_I]
  27:FT_Esd_Framework/FT_Esd_Dl.h **** typedef struct
  28:FT_Esd_Framework/FT_Esd_Dl.h **** {
  29:FT_Esd_Framework/FT_Esd_Dl.h **** 	// Keep to a minimum
  30:FT_Esd_Framework/FT_Esd_Dl.h **** #ifdef FT_81X_ENABLE
  31:FT_Esd_Framework/FT_Esd_Dl.h **** 	ft_uint32_t PaletteSource;
  32:FT_Esd_Framework/FT_Esd_Dl.h **** #endif
  33:FT_Esd_Framework/FT_Esd_Dl.h **** 	ft_uint32_t ColorRGB;
  34:FT_Esd_Framework/FT_Esd_Dl.h **** 	ft_uint8_t ColorA;
  35:FT_Esd_Framework/FT_Esd_Dl.h **** 	ft_uint8_t Handle;         // Current handle
  36:FT_Esd_Framework/FT_Esd_Dl.h **** 	ft_uint8_t Cell;           // Current cell
  37:FT_Esd_Framework/FT_Esd_Dl.h **** 	ft_bool_t BitmapTransform; // BitmapTransform other than default is set
  38:FT_Esd_Framework/FT_Esd_Dl.h **** #ifdef FT_81X_ENABLE
  39:FT_Esd_Framework/FT_Esd_Dl.h **** 	ft_uint8_t VertexFormat;   // Current vertex format
  40:FT_Esd_Framework/FT_Esd_Dl.h **** #endif
  41:FT_Esd_Framework/FT_Esd_Dl.h **** } Ft_Esd_GpuState_T;
  42:FT_Esd_Framework/FT_Esd_Dl.h **** #endif
  43:FT_Esd_Framework/FT_Esd_Dl.h **** 
  44:FT_Esd_Framework/FT_Esd_Dl.h **** //
  45:FT_Esd_Framework/FT_Esd_Dl.h **** // Globals
  46:FT_Esd_Framework/FT_Esd_Dl.h **** //
  47:FT_Esd_Framework/FT_Esd_Dl.h **** extern Ft_Gpu_Hal_Context_t *Ft_Esd_Host;
  48:FT_Esd_Framework/FT_Esd_Dl.h **** extern ft_uint16_t Ft_Esd_FontHeight[32];
  49:FT_Esd_Framework/FT_Esd_Dl.h **** #ifdef FT_ESD_OPTIMIZE_DISPLAYLIST
  50:FT_Esd_Framework/FT_Esd_Dl.h **** extern Ft_Esd_GpuState_T Ft_Esd_GpuState[FT_ESD_STATE_STACK_SIZE];
  51:FT_Esd_Framework/FT_Esd_Dl.h **** extern ft_uint8_t Ft_Esd_GpuState_I;
  52:FT_Esd_Framework/FT_Esd_Dl.h **** extern ft_uint32_t Ft_Esd_CoFgColor;
  53:FT_Esd_Framework/FT_Esd_Dl.h **** extern ft_uint32_t Ft_Esd_CoBgColor;
  54:FT_Esd_Framework/FT_Esd_Dl.h **** #endif
  55:FT_Esd_Framework/FT_Esd_Dl.h **** 
  56:FT_Esd_Framework/FT_Esd_Dl.h **** //Get the height of builtin font
  57:FT_Esd_Framework/FT_Esd_Dl.h **** ESD_FUNCTION(Ft_Esd_GetFontHeight, Type = ft_uint16_t ,DisplayName = "Get Font Height", Category = 
  58:FT_Esd_Framework/FT_Esd_Dl.h **** ESD_PARAMETER(i, Type = int, DisplayName = "Bitmap Handle", Default = 0, Min = 0, Max = 31)
  59:FT_Esd_Framework/FT_Esd_Dl.h **** // inline static ft_uint16_t Ft_Esd_GetFontHeight(int i) { return Ft_Esd_FontHeight[i]; }
  60:FT_Esd_Framework/FT_Esd_Dl.h **** #define Ft_Esd_GetFontHeight(i) (Ft_Esd_FontHeight[i]);
  61:FT_Esd_Framework/FT_Esd_Dl.h **** 
  62:FT_Esd_Framework/FT_Esd_Dl.h **** // Reset any cached state
  63:FT_Esd_Framework/FT_Esd_Dl.h **** void Ft_Esd_ResetGpuState();
  64:FT_Esd_Framework/FT_Esd_Dl.h **** void Ft_Esd_ResetCoState();
  65:FT_Esd_Framework/FT_Esd_Dl.h **** 
  66:FT_Esd_Framework/FT_Esd_Dl.h **** ft_uint32_t Ft_Esd_BitmapHandle_GetTotalUsed();
  67:FT_Esd_Framework/FT_Esd_Dl.h **** ft_uint32_t Ft_Esd_BitmapHandle_GetTotal();
  68:FT_Esd_Framework/FT_Esd_Dl.h **** 
  69:FT_Esd_Framework/FT_Esd_Dl.h **** /// Set current tag. Must be returned to 255 after usage, to ensure next widgets don't draw with in
ARM GAS  /var/folders/n8/cvzdcwlj0vl4g_wtyz1ffy300000gn/T//ccO4hAVf.s 			page 14


  70:FT_Esd_Framework/FT_Esd_Dl.h **** ESD_FUNCTION(Ft_Esd_Dl_TAG, Type = ft_void_t, Category = EveRenderFunctions, Inline)
  71:FT_Esd_Framework/FT_Esd_Dl.h **** ESD_PARAMETER(s, Type = ft_uint8_t, DisplayName = "Tag", Default = 255, Min = 0, Max = 255)
  72:FT_Esd_Framework/FT_Esd_Dl.h **** inline static ft_void_t Ft_Esd_Dl_TAG(ft_uint8_t s)
  73:FT_Esd_Framework/FT_Esd_Dl.h **** {
  74:FT_Esd_Framework/FT_Esd_Dl.h **** 	Ft_Gpu_Hal_WrCmd32(Ft_Esd_Host, TAG(s));
  75:FT_Esd_Framework/FT_Esd_Dl.h **** }
  76:FT_Esd_Framework/FT_Esd_Dl.h **** //Specify color RGB
  77:FT_Esd_Framework/FT_Esd_Dl.h **** ESD_FUNCTION(Ft_Esd_Dl_COLOR_RGB, Type = ft_void_t, Category = EveRenderFunctions, Inline)
  78:FT_Esd_Framework/FT_Esd_Dl.h **** ESD_PARAMETER(c, Type = ft_rgb32_t, DisplayName = "Color")
  79:FT_Esd_Framework/FT_Esd_Dl.h **** inline static ft_void_t Ft_Esd_Dl_COLOR_RGB(ft_rgb32_t c)
  80:FT_Esd_Framework/FT_Esd_Dl.h **** {
  81:FT_Esd_Framework/FT_Esd_Dl.h **** #if FT_ESD_OPTIMIZE_DISPLAYLIST
  82:FT_Esd_Framework/FT_Esd_Dl.h **** 	ft_rgb32_t rgb = c & 0xFFFFFF;
  83:FT_Esd_Framework/FT_Esd_Dl.h **** 	if (rgb != FT_ESD_STATE.ColorRGB)
  84:FT_Esd_Framework/FT_Esd_Dl.h **** 	{
  85:FT_Esd_Framework/FT_Esd_Dl.h **** #endif
  86:FT_Esd_Framework/FT_Esd_Dl.h **** 		Ft_Gpu_Hal_WrCmd32(Ft_Esd_Host, (4UL << 24) | (rgb));
  87:FT_Esd_Framework/FT_Esd_Dl.h **** #if FT_ESD_OPTIMIZE_DISPLAYLIST
  88:FT_Esd_Framework/FT_Esd_Dl.h **** 		FT_ESD_STATE.ColorRGB = rgb;
  89:FT_Esd_Framework/FT_Esd_Dl.h **** 	}
  90:FT_Esd_Framework/FT_Esd_Dl.h **** #endif
  91:FT_Esd_Framework/FT_Esd_Dl.h **** }
  92:FT_Esd_Framework/FT_Esd_Dl.h **** //Specify alpha channel
  93:FT_Esd_Framework/FT_Esd_Dl.h **** ESD_FUNCTION(Ft_Esd_Dl_COLOR_A, Type = ft_void_t, Category = EveRenderFunctions, Inline)
  94:FT_Esd_Framework/FT_Esd_Dl.h **** ESD_PARAMETER(alpha, Type = ft_uint8_t, Default = 255, Min = 0, Max = 255)
  95:FT_Esd_Framework/FT_Esd_Dl.h **** inline static ft_void_t Ft_Esd_Dl_COLOR_A(ft_uint8_t alpha)
  96:FT_Esd_Framework/FT_Esd_Dl.h **** {
  97:FT_Esd_Framework/FT_Esd_Dl.h **** #if FT_ESD_OPTIMIZE_DISPLAYLIST
  98:FT_Esd_Framework/FT_Esd_Dl.h **** 	if (alpha != FT_ESD_STATE.ColorA)
 548              		.loc 2 98 0
 549 0010 524B     		ldr	r3, .L38
 550 0012 1A78     		ldrb	r2, [r3]	@ zero_extendqisi2
 551 0014 524B     		ldr	r3, .L38+4
 552 0016 03EB0213 		add	r3, r3, r2, lsl #4
 553 001a 1B7A     		ldrb	r3, [r3, #8]	@ zero_extendqisi2
 554 001c 9842     		cmp	r0, r3
 555 001e 0CD0     		beq	.L26
 556 0020 0546     		mov	r5, r0
  99:FT_Esd_Framework/FT_Esd_Dl.h **** 	{
 100:FT_Esd_Framework/FT_Esd_Dl.h **** #endif
 101:FT_Esd_Framework/FT_Esd_Dl.h **** 		Ft_Gpu_Hal_WrCmd32(Ft_Esd_Host, COLOR_A(alpha));
 557              		.loc 2 101 0
 558 0022 40F08051 		orr	r1, r0, #268435456
 559 0026 4F4B     		ldr	r3, .L38+8
 560 0028 1868     		ldr	r0, [r3]
 561              	.LVL47:
 562 002a FFF7FEFF 		bl	Ft_Gpu_Hal_WrCmd32
 563              	.LVL48:
 102:FT_Esd_Framework/FT_Esd_Dl.h **** #if FT_ESD_OPTIMIZE_DISPLAYLIST
 103:FT_Esd_Framework/FT_Esd_Dl.h **** 		FT_ESD_STATE.ColorA = alpha;
 564              		.loc 2 103 0
 565 002e 4B4B     		ldr	r3, .L38
 566 0030 1A78     		ldrb	r2, [r3]	@ zero_extendqisi2
 567 0032 4B4B     		ldr	r3, .L38+4
 568 0034 03EB0213 		add	r3, r3, r2, lsl #4
 569 0038 1D72     		strb	r5, [r3, #8]
 570              	.L26:
ARM GAS  /var/folders/n8/cvzdcwlj0vl4g_wtyz1ffy300000gn/T//ccO4hAVf.s 			page 15


 571              	.LBE31:
 572              	.LBE30:
  66:FT_Esd_Widgets/Ft_Esd_Clock__Generated.c **** 	Ft_Esd_Theme * theme = context->Theme(parent);
 573              		.loc 1 66 0
 574 003a FFF7FEFF 		bl	Ft_Esd_GetHost
 575              	.LVL49:
 576 003e 0546     		mov	r5, r0
 577              	.LVL50:
  67:FT_Esd_Widgets/Ft_Esd_Clock__Generated.c **** 	ft_rgb32_t c = Ft_Esd_Theme_GetBackColor(theme);
 578              		.loc 1 67 0
 579 0040 6368     		ldr	r3, [r4, #4]
 580 0042 3046     		mov	r0, r6
 581              	.LVL51:
 582 0044 9847     		blx	r3
 583              	.LVL52:
 584              	.LBB32:
 585              	.LBB33:
 586              		.file 3 "FT_Esd_Widgets/FT_Esd_Theme.h"
   1:FT_Esd_Widgets/FT_Esd_Theme.h **** 
   2:FT_Esd_Widgets/FT_Esd_Theme.h **** #ifndef FT_ESD_THEME_H
   3:FT_Esd_Widgets/FT_Esd_Theme.h **** #define FT_ESD_THEME_H
   4:FT_Esd_Widgets/FT_Esd_Theme.h **** #include "FT_DataTypes.h"
   5:FT_Esd_Widgets/FT_Esd_Theme.h **** #include "Ft_Esd.h"
   6:FT_Esd_Widgets/FT_Esd_Theme.h **** 
   7:FT_Esd_Widgets/FT_Esd_Theme.h **** ESD_CATEGORY(EsdTheme, DisplayName = "ESD Theme")
   8:FT_Esd_Widgets/FT_Esd_Theme.h **** ESD_CATEGORY(EsdTheme_Themes, DisplayName = "Themes", Category = EsdTheme)
   9:FT_Esd_Widgets/FT_Esd_Theme.h **** 
  10:FT_Esd_Widgets/FT_Esd_Theme.h **** typedef unsigned int ft_uint32_t;
  11:FT_Esd_Widgets/FT_Esd_Theme.h **** 
  12:FT_Esd_Widgets/FT_Esd_Theme.h **** typedef struct
  13:FT_Esd_Widgets/FT_Esd_Theme.h **** {
  14:FT_Esd_Widgets/FT_Esd_Theme.h **** 	ft_rgb32_t ClearColor;
  15:FT_Esd_Widgets/FT_Esd_Theme.h **** 	ft_rgb32_t BackColor;
  16:FT_Esd_Widgets/FT_Esd_Theme.h **** 	ft_rgb32_t TextColor;
  17:FT_Esd_Widgets/FT_Esd_Theme.h **** 	ft_rgb32_t ButtonTextColor;
  18:FT_Esd_Widgets/FT_Esd_Theme.h **** 	ft_rgb32_t DefaultColor;
  19:FT_Esd_Widgets/FT_Esd_Theme.h **** 	ft_rgb32_t PrimaryColor;
  20:FT_Esd_Widgets/FT_Esd_Theme.h **** } Ft_Esd_Theme;
  21:FT_Esd_Widgets/FT_Esd_Theme.h **** 
  22:FT_Esd_Widgets/FT_Esd_Theme.h **** ESD_TYPE(Ft_Esd_Theme *, Native = Pointer, Edit = Library)
  23:FT_Esd_Widgets/FT_Esd_Theme.h **** 
  24:FT_Esd_Widgets/FT_Esd_Theme.h **** ESD_RENDER(Ft_Esd_Theme_SetCurrent, DisplayName = "Set Current Theme", Category = EsdTheme, Include
  25:FT_Esd_Widgets/FT_Esd_Theme.h **** ESD_PARAMETER(theme, Type = Ft_Esd_Theme *)
  26:FT_Esd_Widgets/FT_Esd_Theme.h **** void Ft_Esd_Theme_SetCurrent(Ft_Esd_Theme *theme);
  27:FT_Esd_Widgets/FT_Esd_Theme.h **** 
  28:FT_Esd_Widgets/FT_Esd_Theme.h **** ESD_FUNCTION(Ft_Esd_Theme_GetCurrent, DisplayName = "Current Theme", Category = EsdTheme, Type = Ft
  29:FT_Esd_Widgets/FT_Esd_Theme.h **** Ft_Esd_Theme *Ft_Esd_Theme_GetCurrent();
  30:FT_Esd_Widgets/FT_Esd_Theme.h **** 
  31:FT_Esd_Widgets/FT_Esd_Theme.h **** ESD_FUNCTION(Ft_Esd_Theme_GetClearColor, DisplayName = "Get Clear Color", Category = EsdTheme, Type
  32:FT_Esd_Widgets/FT_Esd_Theme.h **** ESD_PARAMETER(theme, Type = Ft_Esd_Theme *, Default = Ft_Esd_Theme_GetCurrent)
  33:FT_Esd_Widgets/FT_Esd_Theme.h **** inline static ft_rgb32_t Ft_Esd_Theme_GetClearColor(Ft_Esd_Theme *theme) { if (!theme) return Ft_Es
  34:FT_Esd_Widgets/FT_Esd_Theme.h **** 
  35:FT_Esd_Widgets/FT_Esd_Theme.h **** ESD_FUNCTION(Ft_Esd_Theme_GetBackColor, DisplayName = "Get Back Color", Category = EsdTheme, Type =
  36:FT_Esd_Widgets/FT_Esd_Theme.h **** ESD_PARAMETER(theme, Type = Ft_Esd_Theme *, Default = Ft_Esd_Theme_GetCurrent)
  37:FT_Esd_Widgets/FT_Esd_Theme.h **** inline static ft_rgb32_t Ft_Esd_Theme_GetBackColor(Ft_Esd_Theme *theme) { if (!theme) return Ft_Esd
 587              		.loc 3 37 0
 588 0046 78B1     		cbz	r0, .L35
ARM GAS  /var/folders/n8/cvzdcwlj0vl4g_wtyz1ffy300000gn/T//ccO4hAVf.s 			page 16


 589 0048 4168     		ldr	r1, [r0, #4]
 590              	.LVL53:
 591              	.L28:
 592              	.LBE33:
 593              	.LBE32:
  69:FT_Esd_Widgets/Ft_Esd_Clock__Generated.c **** 	ft_bool_t if_1 = Ft_Esd_TouchTag_Touching(&context->Touch_Tag);
 594              		.loc 1 69 0
 595 004a 2846     		mov	r0, r5
 596 004c FFF7FEFF 		bl	Ft_Gpu_CoCmd_BgColor
 597              	.LVL54:
  70:FT_Esd_Widgets/Ft_Esd_Clock__Generated.c **** 	ft_uint32_t c_1;
 598              		.loc 1 70 0
 599 0050 04F14007 		add	r7, r4, #64
 600 0054 3846     		mov	r0, r7
 601 0056 FFF7FEFF 		bl	Ft_Esd_TouchTag_Touching
 602              	.LVL55:
  72:FT_Esd_Widgets/Ft_Esd_Clock__Generated.c **** 	{
 603              		.loc 1 72 0
 604 005a 68B1     		cbz	r0, .L29
 605              	.LBB35:
  74:FT_Esd_Widgets/Ft_Esd_Clock__Generated.c **** 		c_1 = Ft_Esd_Theme_GetPrimaryColor(theme_1);
 606              		.loc 1 74 0
 607 005c 6368     		ldr	r3, [r4, #4]
 608 005e 3046     		mov	r0, r6
 609              	.LVL56:
 610 0060 9847     		blx	r3
 611              	.LVL57:
 612              	.LBB36:
 613              	.LBB37:
  38:FT_Esd_Widgets/FT_Esd_Theme.h **** 
  39:FT_Esd_Widgets/FT_Esd_Theme.h **** ESD_FUNCTION(Ft_Esd_Theme_GetTextColor, DisplayName = "Get Text Color", Category = EsdTheme, Type =
  40:FT_Esd_Widgets/FT_Esd_Theme.h **** ESD_PARAMETER(theme, Type = Ft_Esd_Theme *, Default = Ft_Esd_Theme_GetCurrent)
  41:FT_Esd_Widgets/FT_Esd_Theme.h **** inline static ft_rgb32_t Ft_Esd_Theme_GetTextColor(Ft_Esd_Theme *theme) { if (!theme) return Ft_Esd
  42:FT_Esd_Widgets/FT_Esd_Theme.h **** 
  43:FT_Esd_Widgets/FT_Esd_Theme.h **** ESD_FUNCTION(Ft_Esd_Theme_GetButtonTextColor, DisplayName = "Get Button Text Color", Category = Esd
  44:FT_Esd_Widgets/FT_Esd_Theme.h **** ESD_PARAMETER(theme, Type = Ft_Esd_Theme *, Default = Ft_Esd_Theme_GetCurrent)
  45:FT_Esd_Widgets/FT_Esd_Theme.h **** inline static ft_rgb32_t Ft_Esd_Theme_GetButtonTextColor(Ft_Esd_Theme *theme) { if (!theme) return 
  46:FT_Esd_Widgets/FT_Esd_Theme.h **** 
  47:FT_Esd_Widgets/FT_Esd_Theme.h **** ESD_FUNCTION(Ft_Esd_Theme_GetCurrentColor, DisplayName = "Get Default Color", Category = EsdTheme, 
  48:FT_Esd_Widgets/FT_Esd_Theme.h **** ESD_PARAMETER(theme, Type = Ft_Esd_Theme *, Default = Ft_Esd_Theme_GetCurrent)
  49:FT_Esd_Widgets/FT_Esd_Theme.h **** inline static ft_rgb32_t Ft_Esd_Theme_GetCurrentColor(Ft_Esd_Theme *theme) { if (!theme) return Ft_
  50:FT_Esd_Widgets/FT_Esd_Theme.h **** 
  51:FT_Esd_Widgets/FT_Esd_Theme.h **** ESD_FUNCTION(Ft_Esd_Theme_GetPrimaryColor, DisplayName = "Get Primary Color", Category = EsdTheme, 
  52:FT_Esd_Widgets/FT_Esd_Theme.h **** ESD_PARAMETER(theme, Type = Ft_Esd_Theme *, Default = Ft_Esd_Theme_GetCurrent)
  53:FT_Esd_Widgets/FT_Esd_Theme.h **** inline static ft_rgb32_t Ft_Esd_Theme_GetPrimaryColor(Ft_Esd_Theme *theme) { if (!theme) return Ft_
 614              		.loc 3 53 0
 615 0062 28B1     		cbz	r0, .L36
 616 0064 4569     		ldr	r5, [r0, #20]
 617              	.LVL58:
 618 0066 0DE0     		b	.L31
 619              	.LVL59:
 620              	.L35:
 621              	.LBE37:
 622              	.LBE36:
 623              	.LBE35:
 624              	.LBB40:
 625              	.LBB34:
ARM GAS  /var/folders/n8/cvzdcwlj0vl4g_wtyz1ffy300000gn/T//ccO4hAVf.s 			page 17


  37:FT_Esd_Widgets/FT_Esd_Theme.h **** 
 626              		.loc 3 37 0
 627 0068 FFF7FEFF 		bl	Ft_Esd_Theme_GetCurrent
 628              	.LVL60:
 629 006c 4168     		ldr	r1, [r0, #4]
 630 006e ECE7     		b	.L28
 631              	.LVL61:
 632              	.L36:
 633              	.LBE34:
 634              	.LBE40:
 635              	.LBB41:
 636              	.LBB39:
 637              	.LBB38:
 638              		.loc 3 53 0
 639 0070 FFF7FEFF 		bl	Ft_Esd_Theme_GetCurrent
 640              	.LVL62:
 641 0074 4569     		ldr	r5, [r0, #20]
 642              	.LVL63:
 643 0076 05E0     		b	.L31
 644              	.LVL64:
 645              	.L29:
 646              	.LBE38:
 647              	.LBE39:
 648              	.LBE41:
 649              	.LBB42:
  79:FT_Esd_Widgets/Ft_Esd_Clock__Generated.c **** 		c_1 = Ft_Esd_Theme_GetTextColor(theme_2);
 650              		.loc 1 79 0
 651 0078 6368     		ldr	r3, [r4, #4]
 652 007a 3046     		mov	r0, r6
 653              	.LVL65:
 654 007c 9847     		blx	r3
 655              	.LVL66:
 656              	.LBB43:
 657              	.LBB44:
  41:FT_Esd_Widgets/FT_Esd_Theme.h **** 
 658              		.loc 3 41 0
 659 007e 0028     		cmp	r0, #0
 660 0080 68D0     		beq	.L37
 661 0082 8568     		ldr	r5, [r0, #8]
 662              	.LVL67:
 663              	.L31:
 664              	.LBE44:
 665              	.LBE43:
 666              	.LBE42:
 667              	.LBB47:
 668              	.LBB48:
  82:FT_Esd_Framework/FT_Esd_Dl.h **** 	if (rgb != FT_ESD_STATE.ColorRGB)
 669              		.loc 2 82 0
 670 0084 25F07F45 		bic	r5, r5, #-16777216
 671              	.LVL68:
  83:FT_Esd_Framework/FT_Esd_Dl.h **** 	{
 672              		.loc 2 83 0
 673 0088 344B     		ldr	r3, .L38
 674 008a 1A78     		ldrb	r2, [r3]	@ zero_extendqisi2
 675 008c 344B     		ldr	r3, .L38+4
 676 008e 03EB0213 		add	r3, r3, r2, lsl #4
 677 0092 5B68     		ldr	r3, [r3, #4]
ARM GAS  /var/folders/n8/cvzdcwlj0vl4g_wtyz1ffy300000gn/T//ccO4hAVf.s 			page 18


 678 0094 9D42     		cmp	r5, r3
 679 0096 0BD0     		beq	.L33
  86:FT_Esd_Framework/FT_Esd_Dl.h **** #if FT_ESD_OPTIMIZE_DISPLAYLIST
 680              		.loc 2 86 0
 681 0098 45F08061 		orr	r1, r5, #67108864
 682 009c 314B     		ldr	r3, .L38+8
 683 009e 1868     		ldr	r0, [r3]
 684 00a0 FFF7FEFF 		bl	Ft_Gpu_Hal_WrCmd32
 685              	.LVL69:
  88:FT_Esd_Framework/FT_Esd_Dl.h **** 	}
 686              		.loc 2 88 0
 687 00a4 2D4B     		ldr	r3, .L38
 688 00a6 1A78     		ldrb	r2, [r3]	@ zero_extendqisi2
 689 00a8 2D4B     		ldr	r3, .L38+4
 690 00aa 03EB0213 		add	r3, r3, r2, lsl #4
 691 00ae 5D60     		str	r5, [r3, #4]
 692              	.L33:
 693              	.LVL70:
 694              	.LBE48:
 695              	.LBE47:
  83:FT_Esd_Widgets/Ft_Esd_Clock__Generated.c **** 	Ft_Esd_Dl_TAG(s);
 696              		.loc 1 83 0
 697 00b0 3846     		mov	r0, r7
 698 00b2 FFF7FEFF 		bl	Ft_Esd_TouchTag_Tag
 699              	.LVL71:
 700              	.LBB49:
 701              	.LBB50:
  74:FT_Esd_Framework/FT_Esd_Dl.h **** }
 702              		.loc 2 74 0
 703 00b6 DFF8AC80 		ldr	r8, .L38+8
 704 00ba 40F04071 		orr	r1, r0, #50331648
 705 00be D8F80000 		ldr	r0, [r8]
 706              	.LVL72:
 707 00c2 FFF7FEFF 		bl	Ft_Gpu_Hal_WrCmd32
 708              	.LVL73:
 709              	.LBE50:
 710              	.LBE49:
  85:FT_Esd_Widgets/Ft_Esd_Clock__Generated.c **** 	ft_int16_t x = Ft_Esd_PosSizeToRadius_CenterX(&context->Ft_Esd_PosSizeToRadius);
 711              		.loc 1 85 0
 712 00c6 FFF7FEFF 		bl	Ft_Esd_GetHost
 713              	.LVL74:
 714 00ca 8146     		mov	r9, r0
 715              	.LVL75:
  86:FT_Esd_Widgets/Ft_Esd_Clock__Generated.c **** 	ft_int16_t y = Ft_Esd_PosSizeToRadius_CenterY(&context->Ft_Esd_PosSizeToRadius);
 716              		.loc 1 86 0
 717 00cc 04F11005 		add	r5, r4, #16
 718 00d0 2846     		mov	r0, r5
 719              	.LVL76:
 720 00d2 FFF7FEFF 		bl	Ft_Esd_PosSizeToRadius_CenterX
 721              	.LVL77:
 722 00d6 0790     		str	r0, [sp, #28]
 723              	.LVL78:
  87:FT_Esd_Widgets/Ft_Esd_Clock__Generated.c **** 	ft_int16_t r = Ft_Esd_PosSizeToRadius_Radius(&context->Ft_Esd_PosSizeToRadius);
 724              		.loc 1 87 0
 725 00d8 2846     		mov	r0, r5
 726 00da FFF7FEFF 		bl	Ft_Esd_PosSizeToRadius_CenterY
 727              	.LVL79:
ARM GAS  /var/folders/n8/cvzdcwlj0vl4g_wtyz1ffy300000gn/T//ccO4hAVf.s 			page 19


 728 00de 0890     		str	r0, [sp, #32]
 729              	.LVL80:
  88:FT_Esd_Widgets/Ft_Esd_Clock__Generated.c **** 	ft_uint16_t options = 0;
 730              		.loc 1 88 0
 731 00e0 2846     		mov	r0, r5
 732 00e2 FFF7FEFF 		bl	Ft_Esd_PosSizeToRadius_Radius
 733              	.LVL81:
 734 00e6 0990     		str	r0, [sp, #36]
 735              	.LVL82:
  90:FT_Esd_Widgets/Ft_Esd_Clock__Generated.c **** 	ft_uint16_t m = context->M(parent);
 736              		.loc 1 90 0
 737 00e8 236B     		ldr	r3, [r4, #48]
 738 00ea 3046     		mov	r0, r6
 739 00ec 9847     		blx	r3
 740              	.LVL83:
 741 00ee 8246     		mov	r10, r0
 742              	.LVL84:
  91:FT_Esd_Widgets/Ft_Esd_Clock__Generated.c **** 	ft_uint16_t left = context->S(parent);
 743              		.loc 1 91 0
 744 00f0 636B     		ldr	r3, [r4, #52]
 745 00f2 3046     		mov	r0, r6
 746 00f4 9847     		blx	r3
 747              	.LVL85:
 748 00f6 8346     		mov	fp, r0
 749              	.LVL86:
  92:FT_Esd_Widgets/Ft_Esd_Clock__Generated.c **** 	ft_uint32_t left_1 = context->Ms(parent);
 750              		.loc 1 92 0
 751 00f8 A36B     		ldr	r3, [r4, #56]
 752 00fa 3046     		mov	r0, r6
 753 00fc 9847     		blx	r3
 754              	.LVL87:
 755 00fe 0746     		mov	r7, r0
 756              	.LVL88:
  93:FT_Esd_Widgets/Ft_Esd_Clock__Generated.c **** 	ft_uint32_t right_1 = 1000UL;
 757              		.loc 1 93 0
 758 0100 E36B     		ldr	r3, [r4, #60]
 759 0102 3046     		mov	r0, r6
 760 0104 9847     		blx	r3
 761              	.LVL89:
  95:FT_Esd_Widgets/Ft_Esd_Clock__Generated.c **** 	ft_uint32_t s_1 = left + right;
 762              		.loc 1 95 0
 763 0106 184D     		ldr	r5, .L38+12
 764 0108 A5FB00C0 		umull	ip, r0, r5, r0
 765              	.LVL90:
  96:FT_Esd_Widgets/Ft_Esd_Clock__Generated.c **** 	ft_uint32_t left_2 = context->Ms(parent);
 766              		.loc 1 96 0
 767 010c 07EB9017 		add	r7, r7, r0, lsr #6
 768              	.LVL91:
  97:FT_Esd_Widgets/Ft_Esd_Clock__Generated.c **** 	ft_uint32_t right_2 = 1000UL;
 769              		.loc 1 97 0
 770 0110 E36B     		ldr	r3, [r4, #60]
 771 0112 3046     		mov	r0, r6
 772              	.LVL92:
 773 0114 9847     		blx	r3
 774              	.LVL93:
  99:FT_Esd_Widgets/Ft_Esd_Clock__Generated.c **** 	Ft_Gpu_CoCmd_Clock(phost_1, x, y, r, options, height, m, s_1, ms);
 775              		.loc 1 99 0
ARM GAS  /var/folders/n8/cvzdcwlj0vl4g_wtyz1ffy300000gn/T//ccO4hAVf.s 			page 20


 776 0116 A5FB0045 		umull	r4, r5, r5, r0
 777              	.LVL94:
 778 011a AD09     		lsrs	r5, r5, #6
 779 011c 4FF47A73 		mov	r3, #1000
 780 0120 03FB1505 		mls	r5, r3, r5, r0
 781              	.LVL95:
 100:FT_Esd_Widgets/Ft_Esd_Clock__Generated.c **** 	ft_uint8_t s_2 = 255;
 782              		.loc 1 100 0
 783 0124 ADB2     		uxth	r5, r5
 784              	.LVL96:
 785 0126 0495     		str	r5, [sp, #16]
 786 0128 BFB2     		uxth	r7, r7
 787              	.LVL97:
 788 012a 0397     		str	r7, [sp, #12]
 789 012c CDF808B0 		str	fp, [sp, #8]
 790 0130 CDF804A0 		str	r10, [sp, #4]
 791 0134 0023     		movs	r3, #0
 792              	.LVL98:
 793 0136 0093     		str	r3, [sp]
 794 0138 099B     		ldr	r3, [sp, #36]
 795 013a 089A     		ldr	r2, [sp, #32]
 796 013c 0799     		ldr	r1, [sp, #28]
 797 013e 4846     		mov	r0, r9
 798              	.LVL99:
 799 0140 FFF7FEFF 		bl	Ft_Gpu_CoCmd_Clock
 800              	.LVL100:
 801              	.LBB51:
 802              	.LBB52:
  74:FT_Esd_Framework/FT_Esd_Dl.h **** }
 803              		.loc 2 74 0
 804 0144 0949     		ldr	r1, .L38+16
 805 0146 D8F80000 		ldr	r0, [r8]
 806 014a FFF7FEFF 		bl	Ft_Gpu_Hal_WrCmd32
 807              	.LVL101:
 808              	.LBE52:
 809              	.LBE51:
 103:FT_Esd_Widgets/Ft_Esd_Clock__Generated.c **** 
 810              		.loc 1 103 0
 811 014e 0BB0     		add	sp, sp, #44
 812              	.LCFI8:
 813              		.cfi_remember_state
 814              		.cfi_def_cfa_offset 36
 815              		@ sp needed
 816 0150 BDE8F08F 		pop	{r4, r5, r6, r7, r8, r9, r10, fp, pc}
 817              	.LVL102:
 818              	.L37:
 819              	.LCFI9:
 820              		.cfi_restore_state
 821              	.LBB53:
 822              	.LBB46:
 823              	.LBB45:
  41:FT_Esd_Widgets/FT_Esd_Theme.h **** 
 824              		.loc 3 41 0
 825 0154 FFF7FEFF 		bl	Ft_Esd_Theme_GetCurrent
 826              	.LVL103:
 827 0158 8568     		ldr	r5, [r0, #8]
 828              	.LVL104:
ARM GAS  /var/folders/n8/cvzdcwlj0vl4g_wtyz1ffy300000gn/T//ccO4hAVf.s 			page 21


 829 015a 93E7     		b	.L31
 830              	.L39:
 831              		.align	2
 832              	.L38:
 833 015c 00000000 		.word	Ft_Esd_GpuState_I
 834 0160 00000000 		.word	Ft_Esd_GpuState
 835 0164 00000000 		.word	Ft_Esd_Host
 836 0168 D34D6210 		.word	274877907
 837 016c FF000003 		.word	50331903
 838              	.LBE45:
 839              	.LBE46:
 840              	.LBE53:
 841              		.cfi_endproc
 842              	.LFE35:
 844              		.section	.text.Ft_Esd_Clock_Start,"ax",%progbits
 845              		.align	1
 846              		.global	Ft_Esd_Clock_Start
 847              		.syntax unified
 848              		.thumb
 849              		.thumb_func
 850              		.fpu fpv5-sp-d16
 852              	Ft_Esd_Clock_Start:
 853              	.LFB40:
 132:FT_Esd_Widgets/Ft_Esd_Clock__Generated.c **** 
 133:FT_Esd_Widgets/Ft_Esd_Clock__Generated.c **** void Ft_Esd_Clock_Start(Ft_Esd_Clock *context)
 134:FT_Esd_Widgets/Ft_Esd_Clock__Generated.c **** {
 854              		.loc 1 134 0
 855              		.cfi_startproc
 856              		@ args = 0, pretend = 0, frame = 0
 857              		@ frame_needed = 0, uses_anonymous_args = 0
 858              	.LVL105:
 859 0000 08B5     		push	{r3, lr}
 860              	.LCFI10:
 861              		.cfi_def_cfa_offset 8
 862              		.cfi_offset 3, -8
 863              		.cfi_offset 14, -4
 864              	.LVL106:
 135:FT_Esd_Widgets/Ft_Esd_Clock__Generated.c **** 	void *parent = context->Parent;
 136:FT_Esd_Widgets/Ft_Esd_Clock__Generated.c **** 	Ft_Esd_TouchTag_Start(&context->Touch_Tag);
 865              		.loc 1 136 0
 866 0002 4030     		adds	r0, r0, #64
 867              	.LVL107:
 868 0004 FFF7FEFF 		bl	Ft_Esd_TouchTag_Start
 869              	.LVL108:
 137:FT_Esd_Widgets/Ft_Esd_Clock__Generated.c **** }
 870              		.loc 1 137 0
 871 0008 08BD     		pop	{r3, pc}
 872              		.cfi_endproc
 873              	.LFE40:
 875              		.section	.text.Ft_Esd_Clock_Update,"ax",%progbits
 876              		.align	1
 877              		.global	Ft_Esd_Clock_Update
 878              		.syntax unified
 879              		.thumb
 880              		.thumb_func
 881              		.fpu fpv5-sp-d16
 883              	Ft_Esd_Clock_Update:
ARM GAS  /var/folders/n8/cvzdcwlj0vl4g_wtyz1ffy300000gn/T//ccO4hAVf.s 			page 22


 884              	.LFB41:
 138:FT_Esd_Widgets/Ft_Esd_Clock__Generated.c **** 
 139:FT_Esd_Widgets/Ft_Esd_Clock__Generated.c **** void Ft_Esd_Clock_Update(Ft_Esd_Clock *context)
 140:FT_Esd_Widgets/Ft_Esd_Clock__Generated.c **** {
 885              		.loc 1 140 0
 886              		.cfi_startproc
 887              		@ args = 0, pretend = 0, frame = 0
 888              		@ frame_needed = 0, uses_anonymous_args = 0
 889              	.LVL109:
 890 0000 10B5     		push	{r4, lr}
 891              	.LCFI11:
 892              		.cfi_def_cfa_offset 8
 893              		.cfi_offset 4, -8
 894              		.cfi_offset 14, -4
 895 0002 0446     		mov	r4, r0
 896              	.LVL110:
 141:FT_Esd_Widgets/Ft_Esd_Clock__Generated.c **** 	void *parent = context->Parent;
 142:FT_Esd_Widgets/Ft_Esd_Clock__Generated.c **** 	ft_bool_t if_2 = context->Interactive(parent);
 897              		.loc 1 142 0
 898 0004 836D     		ldr	r3, [r0, #88]
 899 0006 0068     		ldr	r0, [r0]
 900              	.LVL111:
 901 0008 9847     		blx	r3
 902              	.LVL112:
 143:FT_Esd_Widgets/Ft_Esd_Clock__Generated.c **** 	if (if_2)
 903              		.loc 1 143 0
 904 000a 00B9     		cbnz	r0, .L45
 905              	.LVL113:
 906              	.L42:
 144:FT_Esd_Widgets/Ft_Esd_Clock__Generated.c **** 	{
 145:FT_Esd_Widgets/Ft_Esd_Clock__Generated.c **** 		Ft_Esd_TouchTag_Update(&context->Touch_Tag);
 146:FT_Esd_Widgets/Ft_Esd_Clock__Generated.c **** 	}
 147:FT_Esd_Widgets/Ft_Esd_Clock__Generated.c **** 	else
 148:FT_Esd_Widgets/Ft_Esd_Clock__Generated.c **** 	{
 149:FT_Esd_Widgets/Ft_Esd_Clock__Generated.c **** 	}
 150:FT_Esd_Widgets/Ft_Esd_Clock__Generated.c **** }
 907              		.loc 1 150 0
 908 000c 10BD     		pop	{r4, pc}
 909              	.LVL114:
 910              	.L45:
 145:FT_Esd_Widgets/Ft_Esd_Clock__Generated.c **** 	}
 911              		.loc 1 145 0
 912 000e 04F14000 		add	r0, r4, #64
 913              	.LVL115:
 914 0012 FFF7FEFF 		bl	Ft_Esd_TouchTag_Update
 915              	.LVL116:
 916              		.loc 1 150 0
 917 0016 F9E7     		b	.L42
 918              		.cfi_endproc
 919              	.LFE41:
 921              		.section	.text.Ft_Esd_Clock_End,"ax",%progbits
 922              		.align	1
 923              		.global	Ft_Esd_Clock_End
 924              		.syntax unified
 925              		.thumb
 926              		.thumb_func
 927              		.fpu fpv5-sp-d16
ARM GAS  /var/folders/n8/cvzdcwlj0vl4g_wtyz1ffy300000gn/T//ccO4hAVf.s 			page 23


 929              	Ft_Esd_Clock_End:
 930              	.LFB42:
 151:FT_Esd_Widgets/Ft_Esd_Clock__Generated.c **** 
 152:FT_Esd_Widgets/Ft_Esd_Clock__Generated.c **** void Ft_Esd_Clock_End(Ft_Esd_Clock *context)
 153:FT_Esd_Widgets/Ft_Esd_Clock__Generated.c **** {
 931              		.loc 1 153 0
 932              		.cfi_startproc
 933              		@ args = 0, pretend = 0, frame = 0
 934              		@ frame_needed = 0, uses_anonymous_args = 0
 935              	.LVL117:
 936 0000 08B5     		push	{r3, lr}
 937              	.LCFI12:
 938              		.cfi_def_cfa_offset 8
 939              		.cfi_offset 3, -8
 940              		.cfi_offset 14, -4
 941              	.LVL118:
 154:FT_Esd_Widgets/Ft_Esd_Clock__Generated.c **** 	void *parent = context->Parent;
 155:FT_Esd_Widgets/Ft_Esd_Clock__Generated.c **** 	Ft_Esd_TouchTag_End(&context->Touch_Tag);
 942              		.loc 1 155 0
 943 0002 4030     		adds	r0, r0, #64
 944              	.LVL119:
 945 0004 FFF7FEFF 		bl	Ft_Esd_TouchTag_End
 946              	.LVL120:
 156:FT_Esd_Widgets/Ft_Esd_Clock__Generated.c **** }
 947              		.loc 1 156 0
 948 0008 08BD     		pop	{r3, pc}
 949              		.cfi_endproc
 950              	.LFE42:
 952              		.text
 953              	.Letext0:
 954              		.file 4 "FT_Eve_Hal/FT_DataTypes.h"
 955              		.file 5 "/usr/local/Cellar/arm-none-eabi-gcc/20180627/arm-none-eabi/include/machine/_default_types
 956              		.file 6 "/usr/local/Cellar/arm-none-eabi-gcc/20180627/arm-none-eabi/include/sys/lock.h"
 957              		.file 7 "/usr/local/Cellar/arm-none-eabi-gcc/20180627/arm-none-eabi/include/sys/_types.h"
 958              		.file 8 "/usr/local/Cellar/arm-none-eabi-gcc/20180627/lib/gcc/arm-none-eabi/7.3.1/include/stddef.h
 959              		.file 9 "/usr/local/Cellar/arm-none-eabi-gcc/20180627/arm-none-eabi/include/sys/_stdint.h"
 960              		.file 10 "/usr/local/Cellar/arm-none-eabi-gcc/20180627/arm-none-eabi/include/sys/unistd.h"
 961              		.file 11 "/usr/local/Cellar/arm-none-eabi-gcc/20180627/arm-none-eabi/include/sys/reent.h"
 962              		.file 12 "/usr/local/Cellar/arm-none-eabi-gcc/20180627/arm-none-eabi/include/stdlib.h"
 963              		.file 13 "FT_Eve_Hal/FT_Gpu_Hal.h"
 964              		.file 14 "FT_Esd_Framework/Ft_Esd.h"
 965              		.file 15 "FT_Esd_Widgets/Ft_Esd_DefaultTheme.h"
 966              		.file 16 "FT_Esd_Widgets/Ft_Esd_PosSizeToRadius.h"
 967              		.file 17 "FT_Esd_Framework/Ft_Esd_TouchTag.h"
 968              		.file 18 "FT_Esd_Widgets/Ft_Esd_Clock.h"
 969              		.file 19 "FT_Esd_Framework/FT_Esd_CoPro_Cmds.h"
ARM GAS  /var/folders/n8/cvzdcwlj0vl4g_wtyz1ffy300000gn/T//ccO4hAVf.s 			page 24

