ARM GAS  /var/folders/n8/cvzdcwlj0vl4g_wtyz1ffy300000gn/T//ccxfh6s7.s 			page 1


   1              		.cpu cortex-m7
   2              		.eabi_attribute 27, 1
   3              		.eabi_attribute 28, 1
   4              		.eabi_attribute 20, 1
   5              		.eabi_attribute 21, 1
   6              		.eabi_attribute 23, 3
   7              		.eabi_attribute 24, 1
   8              		.eabi_attribute 25, 1
   9              		.eabi_attribute 26, 1
  10              		.eabi_attribute 30, 1
  11              		.eabi_attribute 34, 1
  12              		.eabi_attribute 18, 4
  13              		.file	"Ft_Esd_PosSizeToRadius__Generated.c"
  14              		.text
  15              	.Ltext0:
  16              		.cfi_sections	.debug_frame
  17              		.section	.text.Ft_Esd_PosSizeToRadius_X__Default,"ax",%progbits
  18              		.align	1
  19              		.global	Ft_Esd_PosSizeToRadius_X__Default
  20              		.syntax unified
  21              		.thumb
  22              		.thumb_func
  23              		.fpu fpv5-sp-d16
  25              	Ft_Esd_PosSizeToRadius_X__Default:
  26              	.LFB3:
  27              		.file 1 "FT_Esd_Widgets/Ft_Esd_PosSizeToRadius__Generated.c"
   1:FT_Esd_Widgets/Ft_Esd_PosSizeToRadius__Generated.c **** /*
   2:FT_Esd_Widgets/Ft_Esd_PosSizeToRadius__Generated.c **** This file is automatically generated
   3:FT_Esd_Widgets/Ft_Esd_PosSizeToRadius__Generated.c **** Ft_Esd_PosSizeToRadius
   4:FT_Esd_Widgets/Ft_Esd_PosSizeToRadius__Generated.c **** C Source
   5:FT_Esd_Widgets/Ft_Esd_PosSizeToRadius__Generated.c **** */
   6:FT_Esd_Widgets/Ft_Esd_PosSizeToRadius__Generated.c **** 
   7:FT_Esd_Widgets/Ft_Esd_PosSizeToRadius__Generated.c **** #include "Ft_Esd_PosSizeToRadius.h"
   8:FT_Esd_Widgets/Ft_Esd_PosSizeToRadius__Generated.c **** 
   9:FT_Esd_Widgets/Ft_Esd_PosSizeToRadius__Generated.c **** extern void Ft_Esd_Noop(void *context);
  10:FT_Esd_Widgets/Ft_Esd_PosSizeToRadius__Generated.c **** ft_int16_t Ft_Esd_PosSizeToRadius_X__Default(void *context) { return 0; }
  28              		.loc 1 10 0
  29              		.cfi_startproc
  30              		@ args = 0, pretend = 0, frame = 0
  31              		@ frame_needed = 0, uses_anonymous_args = 0
  32              		@ link register save eliminated.
  33              	.LVL0:
  34              		.loc 1 10 0
  35 0000 0020     		movs	r0, #0
  36              	.LVL1:
  37 0002 7047     		bx	lr
  38              		.cfi_endproc
  39              	.LFE3:
  41              		.section	.text.Ft_Esd_PosSizeToRadius_Y__Default,"ax",%progbits
  42              		.align	1
  43              		.global	Ft_Esd_PosSizeToRadius_Y__Default
  44              		.syntax unified
  45              		.thumb
  46              		.thumb_func
  47              		.fpu fpv5-sp-d16
  49              	Ft_Esd_PosSizeToRadius_Y__Default:
  50              	.LFB4:
ARM GAS  /var/folders/n8/cvzdcwlj0vl4g_wtyz1ffy300000gn/T//ccxfh6s7.s 			page 2


  11:FT_Esd_Widgets/Ft_Esd_PosSizeToRadius__Generated.c **** ft_int16_t Ft_Esd_PosSizeToRadius_Y__Default(void *context) { return 0; }
  51              		.loc 1 11 0
  52              		.cfi_startproc
  53              		@ args = 0, pretend = 0, frame = 0
  54              		@ frame_needed = 0, uses_anonymous_args = 0
  55              		@ link register save eliminated.
  56              	.LVL2:
  57              		.loc 1 11 0
  58 0000 0020     		movs	r0, #0
  59              	.LVL3:
  60 0002 7047     		bx	lr
  61              		.cfi_endproc
  62              	.LFE4:
  64              		.section	.text.Ft_Esd_PosSizeToRadius_Width__Default,"ax",%progbits
  65              		.align	1
  66              		.global	Ft_Esd_PosSizeToRadius_Width__Default
  67              		.syntax unified
  68              		.thumb
  69              		.thumb_func
  70              		.fpu fpv5-sp-d16
  72              	Ft_Esd_PosSizeToRadius_Width__Default:
  73              	.LFB5:
  12:FT_Esd_Widgets/Ft_Esd_PosSizeToRadius__Generated.c **** ft_int16_t Ft_Esd_PosSizeToRadius_Width__Default(void *context) { return 0; }
  74              		.loc 1 12 0
  75              		.cfi_startproc
  76              		@ args = 0, pretend = 0, frame = 0
  77              		@ frame_needed = 0, uses_anonymous_args = 0
  78              		@ link register save eliminated.
  79              	.LVL4:
  80              		.loc 1 12 0
  81 0000 0020     		movs	r0, #0
  82              	.LVL5:
  83 0002 7047     		bx	lr
  84              		.cfi_endproc
  85              	.LFE5:
  87              		.section	.text.Ft_Esd_PosSizeToRadius_Height__Default,"ax",%progbits
  88              		.align	1
  89              		.global	Ft_Esd_PosSizeToRadius_Height__Default
  90              		.syntax unified
  91              		.thumb
  92              		.thumb_func
  93              		.fpu fpv5-sp-d16
  95              	Ft_Esd_PosSizeToRadius_Height__Default:
  96              	.LFB6:
  13:FT_Esd_Widgets/Ft_Esd_PosSizeToRadius__Generated.c **** ft_int16_t Ft_Esd_PosSizeToRadius_Height__Default(void *context) { return 0; }
  97              		.loc 1 13 0
  98              		.cfi_startproc
  99              		@ args = 0, pretend = 0, frame = 0
 100              		@ frame_needed = 0, uses_anonymous_args = 0
 101              		@ link register save eliminated.
 102              	.LVL6:
 103              		.loc 1 13 0
 104 0000 0020     		movs	r0, #0
 105              	.LVL7:
 106 0002 7047     		bx	lr
 107              		.cfi_endproc
 108              	.LFE6:
ARM GAS  /var/folders/n8/cvzdcwlj0vl4g_wtyz1ffy300000gn/T//ccxfh6s7.s 			page 3


 110              		.section	.text.Ft_Esd_PosSizeToRadius__Initializer,"ax",%progbits
 111              		.align	1
 112              		.global	Ft_Esd_PosSizeToRadius__Initializer
 113              		.syntax unified
 114              		.thumb
 115              		.thumb_func
 116              		.fpu fpv5-sp-d16
 118              	Ft_Esd_PosSizeToRadius__Initializer:
 119              	.LFB7:
  14:FT_Esd_Widgets/Ft_Esd_PosSizeToRadius__Generated.c **** 
  15:FT_Esd_Widgets/Ft_Esd_PosSizeToRadius__Generated.c **** 
  16:FT_Esd_Widgets/Ft_Esd_PosSizeToRadius__Generated.c **** 
  17:FT_Esd_Widgets/Ft_Esd_PosSizeToRadius__Generated.c **** void Ft_Esd_PosSizeToRadius__Initializer(Ft_Esd_PosSizeToRadius *context)
  18:FT_Esd_Widgets/Ft_Esd_PosSizeToRadius__Generated.c **** {
 120              		.loc 1 18 0
 121              		.cfi_startproc
 122              		@ args = 0, pretend = 0, frame = 0
 123              		@ frame_needed = 0, uses_anonymous_args = 0
 124              		@ link register save eliminated.
 125              	.LVL8:
  19:FT_Esd_Widgets/Ft_Esd_PosSizeToRadius__Generated.c **** 	context->Parent = 0;
 126              		.loc 1 19 0
 127 0000 0023     		movs	r3, #0
 128 0002 0360     		str	r3, [r0]
  20:FT_Esd_Widgets/Ft_Esd_PosSizeToRadius__Generated.c **** 	context->X = Ft_Esd_PosSizeToRadius_X__Default;
 129              		.loc 1 20 0
 130 0004 044B     		ldr	r3, .L6
 131 0006 4360     		str	r3, [r0, #4]
  21:FT_Esd_Widgets/Ft_Esd_PosSizeToRadius__Generated.c **** 	context->Y = Ft_Esd_PosSizeToRadius_Y__Default;
 132              		.loc 1 21 0
 133 0008 044B     		ldr	r3, .L6+4
 134 000a 8360     		str	r3, [r0, #8]
  22:FT_Esd_Widgets/Ft_Esd_PosSizeToRadius__Generated.c **** 	context->Width = Ft_Esd_PosSizeToRadius_Width__Default;
 135              		.loc 1 22 0
 136 000c 044B     		ldr	r3, .L6+8
 137 000e C360     		str	r3, [r0, #12]
  23:FT_Esd_Widgets/Ft_Esd_PosSizeToRadius__Generated.c **** 	context->Height = Ft_Esd_PosSizeToRadius_Height__Default;
 138              		.loc 1 23 0
 139 0010 044B     		ldr	r3, .L6+12
 140 0012 0361     		str	r3, [r0, #16]
  24:FT_Esd_Widgets/Ft_Esd_PosSizeToRadius__Generated.c **** }
 141              		.loc 1 24 0
 142 0014 7047     		bx	lr
 143              	.L7:
 144 0016 00BF     		.align	2
 145              	.L6:
 146 0018 00000000 		.word	Ft_Esd_PosSizeToRadius_X__Default
 147 001c 00000000 		.word	Ft_Esd_PosSizeToRadius_Y__Default
 148 0020 00000000 		.word	Ft_Esd_PosSizeToRadius_Width__Default
 149 0024 00000000 		.word	Ft_Esd_PosSizeToRadius_Height__Default
 150              		.cfi_endproc
 151              	.LFE7:
 153              		.section	.text.Ft_Esd_PosSizeToRadius_Radius,"ax",%progbits
 154              		.align	1
 155              		.global	Ft_Esd_PosSizeToRadius_Radius
 156              		.syntax unified
 157              		.thumb
ARM GAS  /var/folders/n8/cvzdcwlj0vl4g_wtyz1ffy300000gn/T//ccxfh6s7.s 			page 4


 158              		.thumb_func
 159              		.fpu fpv5-sp-d16
 161              	Ft_Esd_PosSizeToRadius_Radius:
 162              	.LFB8:
  25:FT_Esd_Widgets/Ft_Esd_PosSizeToRadius__Generated.c **** 
  26:FT_Esd_Widgets/Ft_Esd_PosSizeToRadius__Generated.c **** ft_int16_t Ft_Esd_PosSizeToRadius_Radius(Ft_Esd_PosSizeToRadius *context)
  27:FT_Esd_Widgets/Ft_Esd_PosSizeToRadius__Generated.c **** {
 163              		.loc 1 27 0
 164              		.cfi_startproc
 165              		@ args = 0, pretend = 0, frame = 0
 166              		@ frame_needed = 0, uses_anonymous_args = 0
 167              	.LVL9:
 168 0000 70B5     		push	{r4, r5, r6, lr}
 169              	.LCFI0:
 170              		.cfi_def_cfa_offset 16
 171              		.cfi_offset 4, -16
 172              		.cfi_offset 5, -12
 173              		.cfi_offset 6, -8
 174              		.cfi_offset 14, -4
 175 0002 0446     		mov	r4, r0
  28:FT_Esd_Widgets/Ft_Esd_PosSizeToRadius__Generated.c **** 	void *parent = context->Parent;
 176              		.loc 1 28 0
 177 0004 0668     		ldr	r6, [r0]
 178              	.LVL10:
  29:FT_Esd_Widgets/Ft_Esd_PosSizeToRadius__Generated.c **** 	ft_int16_t left_1 = context->Width(parent);
 179              		.loc 1 29 0
 180 0006 C368     		ldr	r3, [r0, #12]
 181 0008 3046     		mov	r0, r6
 182              	.LVL11:
 183 000a 9847     		blx	r3
 184              	.LVL12:
  30:FT_Esd_Widgets/Ft_Esd_PosSizeToRadius__Generated.c **** 	ft_int16_t right = 2;
  31:FT_Esd_Widgets/Ft_Esd_PosSizeToRadius__Generated.c **** 	ft_int16_t left = left_1 / right;
 185              		.loc 1 31 0
 186 000c 0346     		mov	r3, r0
 187 000e 0028     		cmp	r0, #0
 188 0010 14DB     		blt	.L16
 189              	.L9:
 190 0012 43F34F05 		sbfx	r5, r3, #1, #16
 191              	.LVL13:
  32:FT_Esd_Widgets/Ft_Esd_PosSizeToRadius__Generated.c **** 	ft_int16_t left_2 = context->Height(parent);
 192              		.loc 1 32 0
 193 0016 2369     		ldr	r3, [r4, #16]
 194 0018 3046     		mov	r0, r6
 195              	.LVL14:
 196 001a 9847     		blx	r3
 197              	.LVL15:
  33:FT_Esd_Widgets/Ft_Esd_PosSizeToRadius__Generated.c **** 	ft_int16_t right_2 = 2;
  34:FT_Esd_Widgets/Ft_Esd_PosSizeToRadius__Generated.c **** 	ft_int16_t right_1 = left_2 / right_2;
 198              		.loc 1 34 0
 199 001c 0346     		mov	r3, r0
 200 001e 0028     		cmp	r0, #0
 201 0020 0EDB     		blt	.L17
 202              	.L10:
 203 0022 43F34F03 		sbfx	r3, r3, #1, #16
 204              	.LVL16:
  35:FT_Esd_Widgets/Ft_Esd_PosSizeToRadius__Generated.c **** 	int if_1 = left > right_1;
ARM GAS  /var/folders/n8/cvzdcwlj0vl4g_wtyz1ffy300000gn/T//ccxfh6s7.s 			page 5


  36:FT_Esd_Widgets/Ft_Esd_PosSizeToRadius__Generated.c **** 	if (if_1)
 205              		.loc 1 36 0
 206 0026 9D42     		cmp	r5, r3
 207 0028 0CDC     		bgt	.L18
 208              	.LBB2:
  37:FT_Esd_Widgets/Ft_Esd_PosSizeToRadius__Generated.c **** 	{
  38:FT_Esd_Widgets/Ft_Esd_PosSizeToRadius__Generated.c **** 		ft_int16_t left_3 = context->Height(parent);
  39:FT_Esd_Widgets/Ft_Esd_PosSizeToRadius__Generated.c **** 		ft_int16_t right_3 = 2;
  40:FT_Esd_Widgets/Ft_Esd_PosSizeToRadius__Generated.c **** 		return left_3 / right_3;
  41:FT_Esd_Widgets/Ft_Esd_PosSizeToRadius__Generated.c **** 	}
  42:FT_Esd_Widgets/Ft_Esd_PosSizeToRadius__Generated.c **** 	else
  43:FT_Esd_Widgets/Ft_Esd_PosSizeToRadius__Generated.c **** 	{
  44:FT_Esd_Widgets/Ft_Esd_PosSizeToRadius__Generated.c **** 		ft_int16_t left_4 = context->Width(parent);
 209              		.loc 1 44 0
 210 002a E368     		ldr	r3, [r4, #12]
 211              	.LVL17:
 212 002c 3046     		mov	r0, r6
 213              	.LVL18:
 214 002e 9847     		blx	r3
 215              	.LVL19:
  45:FT_Esd_Widgets/Ft_Esd_PosSizeToRadius__Generated.c **** 		ft_int16_t right_4 = 2;
  46:FT_Esd_Widgets/Ft_Esd_PosSizeToRadius__Generated.c **** 		return left_4 / right_4;
 216              		.loc 1 46 0
 217 0030 0346     		mov	r3, r0
 218 0032 0028     		cmp	r0, #0
 219 0034 11DB     		blt	.L19
 220              	.L14:
 221 0036 43F34F00 		sbfx	r0, r3, #1, #16
 222              	.LVL20:
 223              	.L13:
 224              	.LBE2:
  47:FT_Esd_Widgets/Ft_Esd_PosSizeToRadius__Generated.c **** 	}
  48:FT_Esd_Widgets/Ft_Esd_PosSizeToRadius__Generated.c **** }
 225              		.loc 1 48 0
 226 003a 70BD     		pop	{r4, r5, r6, pc}
 227              	.LVL21:
 228              	.L16:
  31:FT_Esd_Widgets/Ft_Esd_PosSizeToRadius__Generated.c **** 	ft_int16_t left_2 = context->Height(parent);
 229              		.loc 1 31 0
 230 003c 431C     		adds	r3, r0, #1
 231 003e E8E7     		b	.L9
 232              	.LVL22:
 233              	.L17:
  34:FT_Esd_Widgets/Ft_Esd_PosSizeToRadius__Generated.c **** 	int if_1 = left > right_1;
 234              		.loc 1 34 0
 235 0040 431C     		adds	r3, r0, #1
 236 0042 EEE7     		b	.L10
 237              	.LVL23:
 238              	.L18:
 239              	.LBB3:
  38:FT_Esd_Widgets/Ft_Esd_PosSizeToRadius__Generated.c **** 		ft_int16_t right_3 = 2;
 240              		.loc 1 38 0
 241 0044 2369     		ldr	r3, [r4, #16]
 242              	.LVL24:
 243 0046 3046     		mov	r0, r6
 244              	.LVL25:
 245 0048 9847     		blx	r3
ARM GAS  /var/folders/n8/cvzdcwlj0vl4g_wtyz1ffy300000gn/T//ccxfh6s7.s 			page 6


 246              	.LVL26:
  40:FT_Esd_Widgets/Ft_Esd_PosSizeToRadius__Generated.c **** 	}
 247              		.loc 1 40 0
 248 004a 0346     		mov	r3, r0
 249 004c 0028     		cmp	r0, #0
 250 004e 02DB     		blt	.L20
 251              	.L12:
 252 0050 43F34F00 		sbfx	r0, r3, #1, #16
 253              	.LVL27:
 254 0054 F1E7     		b	.L13
 255              	.LVL28:
 256              	.L20:
 257 0056 431C     		adds	r3, r0, #1
 258 0058 FAE7     		b	.L12
 259              	.LVL29:
 260              	.L19:
 261              	.LBE3:
 262              	.LBB4:
  46:FT_Esd_Widgets/Ft_Esd_PosSizeToRadius__Generated.c **** 	}
 263              		.loc 1 46 0
 264 005a 431C     		adds	r3, r0, #1
 265 005c EBE7     		b	.L14
 266              	.LBE4:
 267              		.cfi_endproc
 268              	.LFE8:
 270              		.section	.text.Ft_Esd_PosSizeToRadius_CenterX,"ax",%progbits
 271              		.align	1
 272              		.global	Ft_Esd_PosSizeToRadius_CenterX
 273              		.syntax unified
 274              		.thumb
 275              		.thumb_func
 276              		.fpu fpv5-sp-d16
 278              	Ft_Esd_PosSizeToRadius_CenterX:
 279              	.LFB9:
  49:FT_Esd_Widgets/Ft_Esd_PosSizeToRadius__Generated.c **** 
  50:FT_Esd_Widgets/Ft_Esd_PosSizeToRadius__Generated.c **** ft_int16_t Ft_Esd_PosSizeToRadius_CenterX(Ft_Esd_PosSizeToRadius *context)
  51:FT_Esd_Widgets/Ft_Esd_PosSizeToRadius__Generated.c **** {
 280              		.loc 1 51 0
 281              		.cfi_startproc
 282              		@ args = 0, pretend = 0, frame = 0
 283              		@ frame_needed = 0, uses_anonymous_args = 0
 284              	.LVL30:
 285 0000 70B5     		push	{r4, r5, r6, lr}
 286              	.LCFI1:
 287              		.cfi_def_cfa_offset 16
 288              		.cfi_offset 4, -16
 289              		.cfi_offset 5, -12
 290              		.cfi_offset 6, -8
 291              		.cfi_offset 14, -4
 292 0002 0546     		mov	r5, r0
  52:FT_Esd_Widgets/Ft_Esd_PosSizeToRadius__Generated.c **** 	void *parent = context->Parent;
 293              		.loc 1 52 0
 294 0004 0668     		ldr	r6, [r0]
 295              	.LVL31:
  53:FT_Esd_Widgets/Ft_Esd_PosSizeToRadius__Generated.c **** 	ft_int16_t left_5 = context->X(parent);
 296              		.loc 1 53 0
 297 0006 4368     		ldr	r3, [r0, #4]
ARM GAS  /var/folders/n8/cvzdcwlj0vl4g_wtyz1ffy300000gn/T//ccxfh6s7.s 			page 7


 298 0008 3046     		mov	r0, r6
 299              	.LVL32:
 300 000a 9847     		blx	r3
 301              	.LVL33:
 302 000c 0446     		mov	r4, r0
 303              	.LVL34:
  54:FT_Esd_Widgets/Ft_Esd_PosSizeToRadius__Generated.c **** 	ft_int16_t left_6 = context->Width(parent);
 304              		.loc 1 54 0
 305 000e EB68     		ldr	r3, [r5, #12]
 306 0010 3046     		mov	r0, r6
 307 0012 9847     		blx	r3
 308              	.LVL35:
  55:FT_Esd_Widgets/Ft_Esd_PosSizeToRadius__Generated.c **** 	ft_int16_t right_6 = 2;
  56:FT_Esd_Widgets/Ft_Esd_PosSizeToRadius__Generated.c **** 	ft_int16_t right_5 = left_6 / right_6;
 309              		.loc 1 56 0
 310 0014 0346     		mov	r3, r0
 311 0016 0028     		cmp	r0, #0
 312 0018 03DB     		blt	.L24
 313              	.L22:
 314              	.LVL36:
  57:FT_Esd_Widgets/Ft_Esd_PosSizeToRadius__Generated.c **** 	return left_5 + right_5;
 315              		.loc 1 57 0
 316 001a 04EB6300 		add	r0, r4, r3, asr #1
 317              	.LVL37:
  58:FT_Esd_Widgets/Ft_Esd_PosSizeToRadius__Generated.c **** }
 318              		.loc 1 58 0
 319 001e 00B2     		sxth	r0, r0
 320 0020 70BD     		pop	{r4, r5, r6, pc}
 321              	.LVL38:
 322              	.L24:
  56:FT_Esd_Widgets/Ft_Esd_PosSizeToRadius__Generated.c **** 	return left_5 + right_5;
 323              		.loc 1 56 0
 324 0022 431C     		adds	r3, r0, #1
 325 0024 F9E7     		b	.L22
 326              		.cfi_endproc
 327              	.LFE9:
 329              		.section	.text.Ft_Esd_PosSizeToRadius_CenterY,"ax",%progbits
 330              		.align	1
 331              		.global	Ft_Esd_PosSizeToRadius_CenterY
 332              		.syntax unified
 333              		.thumb
 334              		.thumb_func
 335              		.fpu fpv5-sp-d16
 337              	Ft_Esd_PosSizeToRadius_CenterY:
 338              	.LFB10:
  59:FT_Esd_Widgets/Ft_Esd_PosSizeToRadius__Generated.c **** 
  60:FT_Esd_Widgets/Ft_Esd_PosSizeToRadius__Generated.c **** ft_int16_t Ft_Esd_PosSizeToRadius_CenterY(Ft_Esd_PosSizeToRadius *context)
  61:FT_Esd_Widgets/Ft_Esd_PosSizeToRadius__Generated.c **** {
 339              		.loc 1 61 0
 340              		.cfi_startproc
 341              		@ args = 0, pretend = 0, frame = 0
 342              		@ frame_needed = 0, uses_anonymous_args = 0
 343              	.LVL39:
 344 0000 70B5     		push	{r4, r5, r6, lr}
 345              	.LCFI2:
 346              		.cfi_def_cfa_offset 16
 347              		.cfi_offset 4, -16
ARM GAS  /var/folders/n8/cvzdcwlj0vl4g_wtyz1ffy300000gn/T//ccxfh6s7.s 			page 8


 348              		.cfi_offset 5, -12
 349              		.cfi_offset 6, -8
 350              		.cfi_offset 14, -4
 351 0002 0546     		mov	r5, r0
  62:FT_Esd_Widgets/Ft_Esd_PosSizeToRadius__Generated.c **** 	void *parent = context->Parent;
 352              		.loc 1 62 0
 353 0004 0668     		ldr	r6, [r0]
 354              	.LVL40:
  63:FT_Esd_Widgets/Ft_Esd_PosSizeToRadius__Generated.c **** 	ft_int16_t left_7 = context->Y(parent);
 355              		.loc 1 63 0
 356 0006 8368     		ldr	r3, [r0, #8]
 357 0008 3046     		mov	r0, r6
 358              	.LVL41:
 359 000a 9847     		blx	r3
 360              	.LVL42:
 361 000c 0446     		mov	r4, r0
 362              	.LVL43:
  64:FT_Esd_Widgets/Ft_Esd_PosSizeToRadius__Generated.c **** 	ft_int16_t left_8 = context->Height(parent);
 363              		.loc 1 64 0
 364 000e 2B69     		ldr	r3, [r5, #16]
 365 0010 3046     		mov	r0, r6
 366 0012 9847     		blx	r3
 367              	.LVL44:
  65:FT_Esd_Widgets/Ft_Esd_PosSizeToRadius__Generated.c **** 	ft_int16_t right_8 = 2;
  66:FT_Esd_Widgets/Ft_Esd_PosSizeToRadius__Generated.c **** 	ft_int16_t right_7 = left_8 / right_8;
 368              		.loc 1 66 0
 369 0014 0346     		mov	r3, r0
 370 0016 0028     		cmp	r0, #0
 371 0018 03DB     		blt	.L28
 372              	.L26:
 373              	.LVL45:
  67:FT_Esd_Widgets/Ft_Esd_PosSizeToRadius__Generated.c **** 	return left_7 + right_7;
 374              		.loc 1 67 0
 375 001a 04EB6300 		add	r0, r4, r3, asr #1
 376              	.LVL46:
  68:FT_Esd_Widgets/Ft_Esd_PosSizeToRadius__Generated.c **** }
 377              		.loc 1 68 0
 378 001e 00B2     		sxth	r0, r0
 379 0020 70BD     		pop	{r4, r5, r6, pc}
 380              	.LVL47:
 381              	.L28:
  66:FT_Esd_Widgets/Ft_Esd_PosSizeToRadius__Generated.c **** 	return left_7 + right_7;
 382              		.loc 1 66 0
 383 0022 431C     		adds	r3, r0, #1
 384 0024 F9E7     		b	.L26
 385              		.cfi_endproc
 386              	.LFE10:
 388              		.text
 389              	.Letext0:
 390              		.file 2 "FT_Eve_Hal/FT_DataTypes.h"
 391              		.file 3 "/usr/local/Cellar/arm-none-eabi-gcc/20180627/arm-none-eabi/include/sys/lock.h"
 392              		.file 4 "/usr/local/Cellar/arm-none-eabi-gcc/20180627/arm-none-eabi/include/sys/_types.h"
 393              		.file 5 "/usr/local/Cellar/arm-none-eabi-gcc/20180627/lib/gcc/arm-none-eabi/7.3.1/include/stddef.h
 394              		.file 6 "/usr/local/Cellar/arm-none-eabi-gcc/20180627/arm-none-eabi/include/sys/unistd.h"
 395              		.file 7 "/usr/local/Cellar/arm-none-eabi-gcc/20180627/arm-none-eabi/include/sys/reent.h"
 396              		.file 8 "/usr/local/Cellar/arm-none-eabi-gcc/20180627/arm-none-eabi/include/stdlib.h"
 397              		.file 9 "FT_Esd_Widgets/Ft_Esd_PosSizeToRadius.h"
ARM GAS  /var/folders/n8/cvzdcwlj0vl4g_wtyz1ffy300000gn/T//ccxfh6s7.s 			page 9


ARM GAS  /var/folders/n8/cvzdcwlj0vl4g_wtyz1ffy300000gn/T//ccxfh6s7.s 			page 10

