ARM GAS  /var/folders/n8/cvzdcwlj0vl4g_wtyz1ffy300000gn/T//cc48gXeA.s 			page 1


   1              		.cpu cortex-m7
   2              		.eabi_attribute 27, 1
   3              		.eabi_attribute 28, 1
   4              		.eabi_attribute 20, 1
   5              		.eabi_attribute 21, 1
   6              		.eabi_attribute 23, 3
   7              		.eabi_attribute 24, 1
   8              		.eabi_attribute 25, 1
   9              		.eabi_attribute 26, 1
  10              		.eabi_attribute 30, 1
  11              		.eabi_attribute 34, 1
  12              		.eabi_attribute 18, 4
  13              		.file	"Ft_Esd_SpinBox__Generated.c"
  14              		.text
  15              	.Ltext0:
  16              		.cfi_sections	.debug_frame
  17              		.section	.text.Ft_Esd_SpinBox_X__Default,"ax",%progbits
  18              		.align	1
  19              		.global	Ft_Esd_SpinBox_X__Default
  20              		.syntax unified
  21              		.thumb
  22              		.thumb_func
  23              		.fpu fpv5-sp-d16
  25              	Ft_Esd_SpinBox_X__Default:
  26              	.LFB31:
  27              		.file 1 "FT_Esd_Widgets/Ft_Esd_SpinBox__Generated.c"
   1:FT_Esd_Widgets/Ft_Esd_SpinBox__Generated.c **** /*
   2:FT_Esd_Widgets/Ft_Esd_SpinBox__Generated.c **** This file is automatically generated
   3:FT_Esd_Widgets/Ft_Esd_SpinBox__Generated.c **** Ft_Esd_SpinBox
   4:FT_Esd_Widgets/Ft_Esd_SpinBox__Generated.c **** C Source
   5:FT_Esd_Widgets/Ft_Esd_SpinBox__Generated.c **** */
   6:FT_Esd_Widgets/Ft_Esd_SpinBox__Generated.c **** 
   7:FT_Esd_Widgets/Ft_Esd_SpinBox__Generated.c **** #include "Ft_Esd_SpinBox.h"
   8:FT_Esd_Widgets/Ft_Esd_SpinBox__Generated.c **** 
   9:FT_Esd_Widgets/Ft_Esd_SpinBox__Generated.c **** #include "FT_Esd_CoPro_Cmds.h"
  10:FT_Esd_Widgets/Ft_Esd_SpinBox__Generated.c **** #include "FT_Esd_Dl.h"
  11:FT_Esd_Widgets/Ft_Esd_SpinBox__Generated.c **** #include "Ft_Esd_Elements.h"
  12:FT_Esd_Widgets/Ft_Esd_SpinBox__Generated.c **** 
  13:FT_Esd_Widgets/Ft_Esd_SpinBox__Generated.c **** extern void Ft_Esd_Noop(void *context);
  14:FT_Esd_Widgets/Ft_Esd_SpinBox__Generated.c **** Ft_Esd_Theme * Ft_Esd_SpinBox_Theme__Default(void *context) { return Ft_Esd_Theme_GetCurrent(); }
  15:FT_Esd_Widgets/Ft_Esd_SpinBox__Generated.c **** ft_int16_t Ft_Esd_SpinBox_X__Default(void *context) { return 50; }
  28              		.loc 1 15 0
  29              		.cfi_startproc
  30              		@ args = 0, pretend = 0, frame = 0
  31              		@ frame_needed = 0, uses_anonymous_args = 0
  32              		@ link register save eliminated.
  33              	.LVL0:
  34              		.loc 1 15 0
  35 0000 3220     		movs	r0, #50
  36              	.LVL1:
  37 0002 7047     		bx	lr
  38              		.cfi_endproc
  39              	.LFE31:
  41              		.section	.text.Ft_Esd_SpinBox_Y__Default,"ax",%progbits
  42              		.align	1
  43              		.global	Ft_Esd_SpinBox_Y__Default
  44              		.syntax unified
ARM GAS  /var/folders/n8/cvzdcwlj0vl4g_wtyz1ffy300000gn/T//cc48gXeA.s 			page 2


  45              		.thumb
  46              		.thumb_func
  47              		.fpu fpv5-sp-d16
  49              	Ft_Esd_SpinBox_Y__Default:
  50              	.LFB32:
  16:FT_Esd_Widgets/Ft_Esd_SpinBox__Generated.c **** ft_int16_t Ft_Esd_SpinBox_Y__Default(void *context) { return 50; }
  51              		.loc 1 16 0
  52              		.cfi_startproc
  53              		@ args = 0, pretend = 0, frame = 0
  54              		@ frame_needed = 0, uses_anonymous_args = 0
  55              		@ link register save eliminated.
  56              	.LVL2:
  57              		.loc 1 16 0
  58 0000 3220     		movs	r0, #50
  59              	.LVL3:
  60 0002 7047     		bx	lr
  61              		.cfi_endproc
  62              	.LFE32:
  64              		.section	.text.Ft_Esd_SpinBox_Width__Default,"ax",%progbits
  65              		.align	1
  66              		.global	Ft_Esd_SpinBox_Width__Default
  67              		.syntax unified
  68              		.thumb
  69              		.thumb_func
  70              		.fpu fpv5-sp-d16
  72              	Ft_Esd_SpinBox_Width__Default:
  73              	.LFB33:
  17:FT_Esd_Widgets/Ft_Esd_SpinBox__Generated.c **** ft_int16_t Ft_Esd_SpinBox_Width__Default(void *context) { return 240; }
  74              		.loc 1 17 0
  75              		.cfi_startproc
  76              		@ args = 0, pretend = 0, frame = 0
  77              		@ frame_needed = 0, uses_anonymous_args = 0
  78              		@ link register save eliminated.
  79              	.LVL4:
  80              		.loc 1 17 0
  81 0000 F020     		movs	r0, #240
  82              	.LVL5:
  83 0002 7047     		bx	lr
  84              		.cfi_endproc
  85              	.LFE33:
  87              		.section	.text.Ft_Esd_SpinBox_Height__Default,"ax",%progbits
  88              		.align	1
  89              		.global	Ft_Esd_SpinBox_Height__Default
  90              		.syntax unified
  91              		.thumb
  92              		.thumb_func
  93              		.fpu fpv5-sp-d16
  95              	Ft_Esd_SpinBox_Height__Default:
  96              	.LFB34:
  18:FT_Esd_Widgets/Ft_Esd_SpinBox__Generated.c **** ft_int16_t Ft_Esd_SpinBox_Height__Default(void *context) { return 72; }
  97              		.loc 1 18 0
  98              		.cfi_startproc
  99              		@ args = 0, pretend = 0, frame = 0
 100              		@ frame_needed = 0, uses_anonymous_args = 0
 101              		@ link register save eliminated.
 102              	.LVL6:
 103              		.loc 1 18 0
ARM GAS  /var/folders/n8/cvzdcwlj0vl4g_wtyz1ffy300000gn/T//cc48gXeA.s 			page 3


 104 0000 4820     		movs	r0, #72
 105              	.LVL7:
 106 0002 7047     		bx	lr
 107              		.cfi_endproc
 108              	.LFE34:
 110              		.section	.text.Ft_Esd_SpinBox_Step__Default,"ax",%progbits
 111              		.align	1
 112              		.global	Ft_Esd_SpinBox_Step__Default
 113              		.syntax unified
 114              		.thumb
 115              		.thumb_func
 116              		.fpu fpv5-sp-d16
 118              	Ft_Esd_SpinBox_Step__Default:
 119              	.LFB35:
  19:FT_Esd_Widgets/Ft_Esd_SpinBox__Generated.c **** int Ft_Esd_SpinBox_Step__Default(void *context) { return 1L; }
 120              		.loc 1 19 0
 121              		.cfi_startproc
 122              		@ args = 0, pretend = 0, frame = 0
 123              		@ frame_needed = 0, uses_anonymous_args = 0
 124              		@ link register save eliminated.
 125              	.LVL8:
 126              		.loc 1 19 0
 127 0000 0120     		movs	r0, #1
 128              	.LVL9:
 129 0002 7047     		bx	lr
 130              		.cfi_endproc
 131              	.LFE35:
 133              		.section	.text.Ft_Esd_SpinBox_Changed__Noop,"ax",%progbits
 134              		.align	1
 135              		.global	Ft_Esd_SpinBox_Changed__Noop
 136              		.syntax unified
 137              		.thumb
 138              		.thumb_func
 139              		.fpu fpv5-sp-d16
 141              	Ft_Esd_SpinBox_Changed__Noop:
 142              	.LFB36:
  20:FT_Esd_Widgets/Ft_Esd_SpinBox__Generated.c **** void Ft_Esd_SpinBox_Changed__Noop(void *context, int value) { }
 143              		.loc 1 20 0
 144              		.cfi_startproc
 145              		@ args = 0, pretend = 0, frame = 0
 146              		@ frame_needed = 0, uses_anonymous_args = 0
 147              		@ link register save eliminated.
 148              	.LVL10:
 149              		.loc 1 20 0
 150 0000 7047     		bx	lr
 151              		.cfi_endproc
 152              	.LFE36:
 154              		.section	.text.Ft_Esd_SpinBox_LayoutSplit_Numerator__Property,"ax",%progbits
 155              		.align	1
 156              		.syntax unified
 157              		.thumb
 158              		.thumb_func
 159              		.fpu fpv5-sp-d16
 161              	Ft_Esd_SpinBox_LayoutSplit_Numerator__Property:
 162              	.LFB37:
  21:FT_Esd_Widgets/Ft_Esd_SpinBox__Generated.c **** 
  22:FT_Esd_Widgets/Ft_Esd_SpinBox__Generated.c **** Ft_Esd_Theme * Ft_Esd_Theme_GetCurrent();
ARM GAS  /var/folders/n8/cvzdcwlj0vl4g_wtyz1ffy300000gn/T//cc48gXeA.s 			page 4


  23:FT_Esd_Widgets/Ft_Esd_SpinBox__Generated.c **** Ft_Gpu_Hal_Context_t * Ft_Esd_GetHost();
  24:FT_Esd_Widgets/Ft_Esd_SpinBox__Generated.c **** static int Ft_Esd_SpinBox_LayoutSplit_Pos__Property(void *context);
  25:FT_Esd_Widgets/Ft_Esd_SpinBox__Generated.c **** static int Ft_Esd_SpinBox_LayoutSplit_Length__Property(void *context);
  26:FT_Esd_Widgets/Ft_Esd_SpinBox__Generated.c **** static int Ft_Esd_SpinBox_LayoutSplit_Numerator__Property(void *context) { return 64L; }
 163              		.loc 1 26 0
 164              		.cfi_startproc
 165              		@ args = 0, pretend = 0, frame = 0
 166              		@ frame_needed = 0, uses_anonymous_args = 0
 167              		@ link register save eliminated.
 168              	.LVL11:
 169              		.loc 1 26 0
 170 0000 4020     		movs	r0, #64
 171              	.LVL12:
 172 0002 7047     		bx	lr
 173              		.cfi_endproc
 174              	.LFE37:
 176              		.section	.text.Ft_Esd_SpinBox_LayoutSplit_Denominator__Property,"ax",%progbits
 177              		.align	1
 178              		.syntax unified
 179              		.thumb
 180              		.thumb_func
 181              		.fpu fpv5-sp-d16
 183              	Ft_Esd_SpinBox_LayoutSplit_Denominator__Property:
 184              	.LFB38:
  27:FT_Esd_Widgets/Ft_Esd_SpinBox__Generated.c **** static int Ft_Esd_SpinBox_LayoutSplit_Denominator__Property(void *context) { return 128L; }
 185              		.loc 1 27 0
 186              		.cfi_startproc
 187              		@ args = 0, pretend = 0, frame = 0
 188              		@ frame_needed = 0, uses_anonymous_args = 0
 189              		@ link register save eliminated.
 190              	.LVL13:
 191              		.loc 1 27 0
 192 0000 8020     		movs	r0, #128
 193              	.LVL14:
 194 0002 7047     		bx	lr
 195              		.cfi_endproc
 196              	.LFE38:
 198              		.section	.text.Ft_Esd_SpinBox_LayoutSplit_Margin__Property,"ax",%progbits
 199              		.align	1
 200              		.syntax unified
 201              		.thumb
 202              		.thumb_func
 203              		.fpu fpv5-sp-d16
 205              	Ft_Esd_SpinBox_LayoutSplit_Margin__Property:
 206              	.LFB39:
  28:FT_Esd_Widgets/Ft_Esd_SpinBox__Generated.c **** static int Ft_Esd_SpinBox_LayoutSplit_Margin__Property(void *context) { return 2L; }
 207              		.loc 1 28 0
 208              		.cfi_startproc
 209              		@ args = 0, pretend = 0, frame = 0
 210              		@ frame_needed = 0, uses_anonymous_args = 0
 211              		@ link register save eliminated.
 212              	.LVL15:
 213              		.loc 1 28 0
 214 0000 0220     		movs	r0, #2
 215              	.LVL16:
 216 0002 7047     		bx	lr
 217              		.cfi_endproc
ARM GAS  /var/folders/n8/cvzdcwlj0vl4g_wtyz1ffy300000gn/T//cc48gXeA.s 			page 5


 218              	.LFE39:
 220              		.section	.text.Ft_Esd_SpinBox_LayoutMargin_Margin__Property,"ax",%progbits
 221              		.align	1
 222              		.syntax unified
 223              		.thumb
 224              		.thumb_func
 225              		.fpu fpv5-sp-d16
 227              	Ft_Esd_SpinBox_LayoutMargin_Margin__Property:
 228              	.LFB40:
  29:FT_Esd_Widgets/Ft_Esd_SpinBox__Generated.c **** static int Ft_Esd_SpinBox_LayoutMargin_X__Property(void *context);
  30:FT_Esd_Widgets/Ft_Esd_SpinBox__Generated.c **** static int Ft_Esd_SpinBox_LayoutMargin_Y__Property(void *context);
  31:FT_Esd_Widgets/Ft_Esd_SpinBox__Generated.c **** static int Ft_Esd_SpinBox_LayoutMargin_Width__Property(void *context);
  32:FT_Esd_Widgets/Ft_Esd_SpinBox__Generated.c **** static int Ft_Esd_SpinBox_LayoutMargin_Height__Property(void *context);
  33:FT_Esd_Widgets/Ft_Esd_SpinBox__Generated.c **** static int Ft_Esd_SpinBox_LayoutMargin_Margin__Property(void *context) { return 3L; }
 229              		.loc 1 33 0
 230              		.cfi_startproc
 231              		@ args = 0, pretend = 0, frame = 0
 232              		@ frame_needed = 0, uses_anonymous_args = 0
 233              		@ link register save eliminated.
 234              	.LVL17:
 235              		.loc 1 33 0
 236 0000 0320     		movs	r0, #3
 237              	.LVL18:
 238 0002 7047     		bx	lr
 239              		.cfi_endproc
 240              	.LFE40:
 242              		.section	.text.Ft_Esd_SpinBox_LayoutSplit_1_Numerator__Property,"ax",%progbits
 243              		.align	1
 244              		.syntax unified
 245              		.thumb
 246              		.thumb_func
 247              		.fpu fpv5-sp-d16
 249              	Ft_Esd_SpinBox_LayoutSplit_1_Numerator__Property:
 250              	.LFB41:
  34:FT_Esd_Widgets/Ft_Esd_SpinBox__Generated.c **** static int Ft_Esd_SpinBox_LayoutSplit_1_Pos__Property(void *context);
  35:FT_Esd_Widgets/Ft_Esd_SpinBox__Generated.c **** static int Ft_Esd_SpinBox_LayoutSplit_1_Length__Property(void *context);
  36:FT_Esd_Widgets/Ft_Esd_SpinBox__Generated.c **** static int Ft_Esd_SpinBox_LayoutSplit_1_Numerator__Property(void *context) { return 6L; }
 251              		.loc 1 36 0
 252              		.cfi_startproc
 253              		@ args = 0, pretend = 0, frame = 0
 254              		@ frame_needed = 0, uses_anonymous_args = 0
 255              		@ link register save eliminated.
 256              	.LVL19:
 257              		.loc 1 36 0
 258 0000 0620     		movs	r0, #6
 259              	.LVL20:
 260 0002 7047     		bx	lr
 261              		.cfi_endproc
 262              	.LFE41:
 264              		.section	.text.Ft_Esd_SpinBox_LayoutSplit_1_Denominator__Property,"ax",%progbits
 265              		.align	1
 266              		.syntax unified
 267              		.thumb
 268              		.thumb_func
 269              		.fpu fpv5-sp-d16
 271              	Ft_Esd_SpinBox_LayoutSplit_1_Denominator__Property:
 272              	.LFB42:
ARM GAS  /var/folders/n8/cvzdcwlj0vl4g_wtyz1ffy300000gn/T//cc48gXeA.s 			page 6


  37:FT_Esd_Widgets/Ft_Esd_SpinBox__Generated.c **** static int Ft_Esd_SpinBox_LayoutSplit_1_Denominator__Property(void *context) { return 7L; }
 273              		.loc 1 37 0
 274              		.cfi_startproc
 275              		@ args = 0, pretend = 0, frame = 0
 276              		@ frame_needed = 0, uses_anonymous_args = 0
 277              		@ link register save eliminated.
 278              	.LVL21:
 279              		.loc 1 37 0
 280 0000 0720     		movs	r0, #7
 281              	.LVL22:
 282 0002 7047     		bx	lr
 283              		.cfi_endproc
 284              	.LFE42:
 286              		.section	.text.Ft_Esd_SpinBox_LayoutSplit_1_Margin__Property,"ax",%progbits
 287              		.align	1
 288              		.syntax unified
 289              		.thumb
 290              		.thumb_func
 291              		.fpu fpv5-sp-d16
 293              	Ft_Esd_SpinBox_LayoutSplit_1_Margin__Property:
 294              	.LFB43:
  38:FT_Esd_Widgets/Ft_Esd_SpinBox__Generated.c **** static int Ft_Esd_SpinBox_LayoutSplit_1_Margin__Property(void *context) { return 2L; }
 295              		.loc 1 38 0
 296              		.cfi_startproc
 297              		@ args = 0, pretend = 0, frame = 0
 298              		@ frame_needed = 0, uses_anonymous_args = 0
 299              		@ link register save eliminated.
 300              	.LVL23:
 301              		.loc 1 38 0
 302 0000 0220     		movs	r0, #2
 303              	.LVL24:
 304 0002 7047     		bx	lr
 305              		.cfi_endproc
 306              	.LFE43:
 308              		.section	.text.Ft_Esd_SpinBox_Push_Up_Font__Property,"ax",%progbits
 309              		.align	1
 310              		.syntax unified
 311              		.thumb
 312              		.thumb_func
 313              		.fpu fpv5-sp-d16
 315              	Ft_Esd_SpinBox_Push_Up_Font__Property:
 316              	.LFB44:
  39:FT_Esd_Widgets/Ft_Esd_SpinBox__Generated.c **** static ft_int16_t Ft_Esd_SpinBox_Push_Up_X__Property(void *context);
  40:FT_Esd_Widgets/Ft_Esd_SpinBox__Generated.c **** static ft_int16_t Ft_Esd_SpinBox_Push_Up_Y__Property(void *context);
  41:FT_Esd_Widgets/Ft_Esd_SpinBox__Generated.c **** static ft_int16_t Ft_Esd_SpinBox_Push_Up_Width__Property(void *context);
  42:FT_Esd_Widgets/Ft_Esd_SpinBox__Generated.c **** static ft_int16_t Ft_Esd_SpinBox_Push_Up_Height__Property(void *context);
  43:FT_Esd_Widgets/Ft_Esd_SpinBox__Generated.c **** static ft_int16_t Ft_Esd_SpinBox_Push_Up_Font__Property(void *context) { return 18; }
 317              		.loc 1 43 0
 318              		.cfi_startproc
 319              		@ args = 0, pretend = 0, frame = 0
 320              		@ frame_needed = 0, uses_anonymous_args = 0
 321              		@ link register save eliminated.
 322              	.LVL25:
 323              		.loc 1 43 0
 324 0000 1220     		movs	r0, #18
 325              	.LVL26:
 326 0002 7047     		bx	lr
ARM GAS  /var/folders/n8/cvzdcwlj0vl4g_wtyz1ffy300000gn/T//cc48gXeA.s 			page 7


 327              		.cfi_endproc
 328              	.LFE44:
 330              		.section	.text.Ft_Esd_SpinBox_Push_Down_Font__Property,"ax",%progbits
 331              		.align	1
 332              		.syntax unified
 333              		.thumb
 334              		.thumb_func
 335              		.fpu fpv5-sp-d16
 337              	Ft_Esd_SpinBox_Push_Down_Font__Property:
 338              	.LFB45:
  44:FT_Esd_Widgets/Ft_Esd_SpinBox__Generated.c **** static const char * Ft_Esd_SpinBox_Push_Up_Text__Property(void *context);
  45:FT_Esd_Widgets/Ft_Esd_SpinBox__Generated.c **** static ft_int16_t Ft_Esd_SpinBox_Push_Down_X__Property(void *context);
  46:FT_Esd_Widgets/Ft_Esd_SpinBox__Generated.c **** static ft_int16_t Ft_Esd_SpinBox_Push_Down_Y__Property(void *context);
  47:FT_Esd_Widgets/Ft_Esd_SpinBox__Generated.c **** static ft_int16_t Ft_Esd_SpinBox_Push_Down_Width__Property(void *context);
  48:FT_Esd_Widgets/Ft_Esd_SpinBox__Generated.c **** static ft_int16_t Ft_Esd_SpinBox_Push_Down_Height__Property(void *context);
  49:FT_Esd_Widgets/Ft_Esd_SpinBox__Generated.c **** static ft_int16_t Ft_Esd_SpinBox_Push_Down_Font__Property(void *context) { return 18; }
 339              		.loc 1 49 0
 340              		.cfi_startproc
 341              		@ args = 0, pretend = 0, frame = 0
 342              		@ frame_needed = 0, uses_anonymous_args = 0
 343              		@ link register save eliminated.
 344              	.LVL27:
 345              		.loc 1 49 0
 346 0000 1220     		movs	r0, #18
 347              	.LVL28:
 348 0002 7047     		bx	lr
 349              		.cfi_endproc
 350              	.LFE45:
 352              		.section	.text.Ft_Esd_SpinBox_LayoutMargin_X__Property,"ax",%progbits
 353              		.align	1
 354              		.syntax unified
 355              		.thumb
 356              		.thumb_func
 357              		.fpu fpv5-sp-d16
 359              	Ft_Esd_SpinBox_LayoutMargin_X__Property:
 360              	.LFB53:
  50:FT_Esd_Widgets/Ft_Esd_SpinBox__Generated.c **** static const char * Ft_Esd_SpinBox_Push_Down_Text__Property(void *context);
  51:FT_Esd_Widgets/Ft_Esd_SpinBox__Generated.c **** 
  52:FT_Esd_Widgets/Ft_Esd_SpinBox__Generated.c **** static void Ft_Esd_SpinBox_Push_Up_Down__Signal(void *context);
  53:FT_Esd_Widgets/Ft_Esd_SpinBox__Generated.c **** static void Ft_Esd_SpinBox_Push_Down_Down__Signal(void *context);
  54:FT_Esd_Widgets/Ft_Esd_SpinBox__Generated.c **** 
  55:FT_Esd_Widgets/Ft_Esd_SpinBox__Generated.c **** void Ft_Esd_SpinBox__Initializer(Ft_Esd_SpinBox *context)
  56:FT_Esd_Widgets/Ft_Esd_SpinBox__Generated.c **** {
  57:FT_Esd_Widgets/Ft_Esd_SpinBox__Generated.c **** 	context->Parent = 0;
  58:FT_Esd_Widgets/Ft_Esd_SpinBox__Generated.c **** 	context->Theme = Ft_Esd_SpinBox_Theme__Default;
  59:FT_Esd_Widgets/Ft_Esd_SpinBox__Generated.c **** 	Ft_Esd_TouchTag__Initializer(&context->Touch_Tag);
  60:FT_Esd_Widgets/Ft_Esd_SpinBox__Generated.c **** 	context->Touch_Tag.Parent = context;
  61:FT_Esd_Widgets/Ft_Esd_SpinBox__Generated.c **** 	context->X = Ft_Esd_SpinBox_X__Default;
  62:FT_Esd_Widgets/Ft_Esd_SpinBox__Generated.c **** 	context->Y = Ft_Esd_SpinBox_Y__Default;
  63:FT_Esd_Widgets/Ft_Esd_SpinBox__Generated.c **** 	context->Width = Ft_Esd_SpinBox_Width__Default;
  64:FT_Esd_Widgets/Ft_Esd_SpinBox__Generated.c **** 	context->Height = Ft_Esd_SpinBox_Height__Default;
  65:FT_Esd_Widgets/Ft_Esd_SpinBox__Generated.c **** 	context->Step = Ft_Esd_SpinBox_Step__Default;
  66:FT_Esd_Widgets/Ft_Esd_SpinBox__Generated.c **** 	context->Increased = Ft_Esd_Noop;
  67:FT_Esd_Widgets/Ft_Esd_SpinBox__Generated.c **** 	context->Value = 0L;
  68:FT_Esd_Widgets/Ft_Esd_SpinBox__Generated.c **** 	context->Changed = Ft_Esd_SpinBox_Changed__Noop;
  69:FT_Esd_Widgets/Ft_Esd_SpinBox__Generated.c **** 	LayoutSplit__Initializer(&context->LayoutSplit);
  70:FT_Esd_Widgets/Ft_Esd_SpinBox__Generated.c **** 	context->LayoutSplit.Parent = context;
ARM GAS  /var/folders/n8/cvzdcwlj0vl4g_wtyz1ffy300000gn/T//cc48gXeA.s 			page 8


  71:FT_Esd_Widgets/Ft_Esd_SpinBox__Generated.c **** 	context->LayoutSplit.Pos = Ft_Esd_SpinBox_LayoutSplit_Pos__Property;
  72:FT_Esd_Widgets/Ft_Esd_SpinBox__Generated.c **** 	context->LayoutSplit.Length = Ft_Esd_SpinBox_LayoutSplit_Length__Property;
  73:FT_Esd_Widgets/Ft_Esd_SpinBox__Generated.c **** 	context->LayoutSplit.Numerator = Ft_Esd_SpinBox_LayoutSplit_Numerator__Property;
  74:FT_Esd_Widgets/Ft_Esd_SpinBox__Generated.c **** 	context->LayoutSplit.Denominator = Ft_Esd_SpinBox_LayoutSplit_Denominator__Property;
  75:FT_Esd_Widgets/Ft_Esd_SpinBox__Generated.c **** 	context->LayoutSplit.Margin = Ft_Esd_SpinBox_LayoutSplit_Margin__Property;
  76:FT_Esd_Widgets/Ft_Esd_SpinBox__Generated.c **** 	context->Decreased = Ft_Esd_Noop;
  77:FT_Esd_Widgets/Ft_Esd_SpinBox__Generated.c **** 	LayoutMargin__Initializer(&context->LayoutMargin);
  78:FT_Esd_Widgets/Ft_Esd_SpinBox__Generated.c **** 	context->LayoutMargin.Parent = context;
  79:FT_Esd_Widgets/Ft_Esd_SpinBox__Generated.c **** 	context->LayoutMargin.X = Ft_Esd_SpinBox_LayoutMargin_X__Property;
  80:FT_Esd_Widgets/Ft_Esd_SpinBox__Generated.c **** 	context->LayoutMargin.Y = Ft_Esd_SpinBox_LayoutMargin_Y__Property;
  81:FT_Esd_Widgets/Ft_Esd_SpinBox__Generated.c **** 	context->LayoutMargin.Width = Ft_Esd_SpinBox_LayoutMargin_Width__Property;
  82:FT_Esd_Widgets/Ft_Esd_SpinBox__Generated.c **** 	context->LayoutMargin.Height = Ft_Esd_SpinBox_LayoutMargin_Height__Property;
  83:FT_Esd_Widgets/Ft_Esd_SpinBox__Generated.c **** 	context->LayoutMargin.Margin = Ft_Esd_SpinBox_LayoutMargin_Margin__Property;
  84:FT_Esd_Widgets/Ft_Esd_SpinBox__Generated.c **** 	LayoutSplit__Initializer(&context->LayoutSplit_1);
  85:FT_Esd_Widgets/Ft_Esd_SpinBox__Generated.c **** 	context->LayoutSplit_1.Parent = context;
  86:FT_Esd_Widgets/Ft_Esd_SpinBox__Generated.c **** 	context->LayoutSplit_1.Pos = Ft_Esd_SpinBox_LayoutSplit_1_Pos__Property;
  87:FT_Esd_Widgets/Ft_Esd_SpinBox__Generated.c **** 	context->LayoutSplit_1.Length = Ft_Esd_SpinBox_LayoutSplit_1_Length__Property;
  88:FT_Esd_Widgets/Ft_Esd_SpinBox__Generated.c **** 	context->LayoutSplit_1.Numerator = Ft_Esd_SpinBox_LayoutSplit_1_Numerator__Property;
  89:FT_Esd_Widgets/Ft_Esd_SpinBox__Generated.c **** 	context->LayoutSplit_1.Denominator = Ft_Esd_SpinBox_LayoutSplit_1_Denominator__Property;
  90:FT_Esd_Widgets/Ft_Esd_SpinBox__Generated.c **** 	context->LayoutSplit_1.Margin = Ft_Esd_SpinBox_LayoutSplit_1_Margin__Property;
  91:FT_Esd_Widgets/Ft_Esd_SpinBox__Generated.c **** 	context->SideButtons = 0;
  92:FT_Esd_Widgets/Ft_Esd_SpinBox__Generated.c **** 	Ft_Esd_PushButton__Initializer(&context->Push_Up);
  93:FT_Esd_Widgets/Ft_Esd_SpinBox__Generated.c **** 	context->Push_Up.Parent = context;
  94:FT_Esd_Widgets/Ft_Esd_SpinBox__Generated.c **** 	context->Push_Up.X = Ft_Esd_SpinBox_Push_Up_X__Property;
  95:FT_Esd_Widgets/Ft_Esd_SpinBox__Generated.c **** 	context->Push_Up.Y = Ft_Esd_SpinBox_Push_Up_Y__Property;
  96:FT_Esd_Widgets/Ft_Esd_SpinBox__Generated.c **** 	context->Push_Up.Width = Ft_Esd_SpinBox_Push_Up_Width__Property;
  97:FT_Esd_Widgets/Ft_Esd_SpinBox__Generated.c **** 	context->Push_Up.Height = Ft_Esd_SpinBox_Push_Up_Height__Property;
  98:FT_Esd_Widgets/Ft_Esd_SpinBox__Generated.c **** 	context->Push_Up.Font = Ft_Esd_SpinBox_Push_Up_Font__Property;
  99:FT_Esd_Widgets/Ft_Esd_SpinBox__Generated.c **** 	context->Push_Up.Text = Ft_Esd_SpinBox_Push_Up_Text__Property;
 100:FT_Esd_Widgets/Ft_Esd_SpinBox__Generated.c **** 	context->Push_Up.Down = Ft_Esd_SpinBox_Push_Up_Down__Signal;
 101:FT_Esd_Widgets/Ft_Esd_SpinBox__Generated.c **** 	Ft_Esd_PushButton__Initializer(&context->Push_Down);
 102:FT_Esd_Widgets/Ft_Esd_SpinBox__Generated.c **** 	context->Push_Down.Parent = context;
 103:FT_Esd_Widgets/Ft_Esd_SpinBox__Generated.c **** 	context->Push_Down.X = Ft_Esd_SpinBox_Push_Down_X__Property;
 104:FT_Esd_Widgets/Ft_Esd_SpinBox__Generated.c **** 	context->Push_Down.Y = Ft_Esd_SpinBox_Push_Down_Y__Property;
 105:FT_Esd_Widgets/Ft_Esd_SpinBox__Generated.c **** 	context->Push_Down.Width = Ft_Esd_SpinBox_Push_Down_Width__Property;
 106:FT_Esd_Widgets/Ft_Esd_SpinBox__Generated.c **** 	context->Push_Down.Height = Ft_Esd_SpinBox_Push_Down_Height__Property;
 107:FT_Esd_Widgets/Ft_Esd_SpinBox__Generated.c **** 	context->Push_Down.Font = Ft_Esd_SpinBox_Push_Down_Font__Property;
 108:FT_Esd_Widgets/Ft_Esd_SpinBox__Generated.c **** 	context->Push_Down.Text = Ft_Esd_SpinBox_Push_Down_Text__Property;
 109:FT_Esd_Widgets/Ft_Esd_SpinBox__Generated.c **** 	context->Push_Down.Down = Ft_Esd_SpinBox_Push_Down_Down__Signal;
 110:FT_Esd_Widgets/Ft_Esd_SpinBox__Generated.c **** }
 111:FT_Esd_Widgets/Ft_Esd_SpinBox__Generated.c **** 
 112:FT_Esd_Widgets/Ft_Esd_SpinBox__Generated.c **** void Ft_Esd_Elements_Panel(Ft_Esd_Theme *, ft_int16_t, ft_int16_t, ft_int16_t, ft_int16_t, ft_int16
 113:FT_Esd_Widgets/Ft_Esd_SpinBox__Generated.c **** ft_void_t Ft_Gpu_CoCmd_Number(Ft_Gpu_Hal_Context_t *, ft_int16_t, ft_int16_t, ft_int16_t, ft_uint16
 114:FT_Esd_Widgets/Ft_Esd_SpinBox__Generated.c **** 
 115:FT_Esd_Widgets/Ft_Esd_SpinBox__Generated.c **** void Ft_Esd_SpinBox_Start(Ft_Esd_SpinBox *context)
 116:FT_Esd_Widgets/Ft_Esd_SpinBox__Generated.c **** {
 117:FT_Esd_Widgets/Ft_Esd_SpinBox__Generated.c **** 	void *parent = context->Parent;
 118:FT_Esd_Widgets/Ft_Esd_SpinBox__Generated.c **** 	Ft_Esd_TouchTag_Start(&context->Touch_Tag);
 119:FT_Esd_Widgets/Ft_Esd_SpinBox__Generated.c **** 	Ft_Esd_PushButton_Start(&context->Push_Up);
 120:FT_Esd_Widgets/Ft_Esd_SpinBox__Generated.c **** 	Ft_Esd_PushButton_Start(&context->Push_Down);
 121:FT_Esd_Widgets/Ft_Esd_SpinBox__Generated.c **** }
 122:FT_Esd_Widgets/Ft_Esd_SpinBox__Generated.c **** 
 123:FT_Esd_Widgets/Ft_Esd_SpinBox__Generated.c **** void Ft_Esd_SpinBox_Render(Ft_Esd_SpinBox *context)
 124:FT_Esd_Widgets/Ft_Esd_SpinBox__Generated.c **** {
 125:FT_Esd_Widgets/Ft_Esd_SpinBox__Generated.c **** 	void *parent = context->Parent;
 126:FT_Esd_Widgets/Ft_Esd_SpinBox__Generated.c **** 	ft_uint8_t s = Ft_Esd_TouchTag_Tag(&context->Touch_Tag);
 127:FT_Esd_Widgets/Ft_Esd_SpinBox__Generated.c **** 	Ft_Esd_Dl_TAG(s);
ARM GAS  /var/folders/n8/cvzdcwlj0vl4g_wtyz1ffy300000gn/T//cc48gXeA.s 			page 9


 128:FT_Esd_Widgets/Ft_Esd_SpinBox__Generated.c **** 	ft_uint8_t alpha = 255;
 129:FT_Esd_Widgets/Ft_Esd_SpinBox__Generated.c **** 	Ft_Esd_Dl_COLOR_A(alpha);
 130:FT_Esd_Widgets/Ft_Esd_SpinBox__Generated.c **** 	Ft_Esd_Theme * theme = context->Theme(parent);
 131:FT_Esd_Widgets/Ft_Esd_SpinBox__Generated.c **** 	ft_int16_t x = context->X(parent);
 132:FT_Esd_Widgets/Ft_Esd_SpinBox__Generated.c **** 	ft_int16_t y = context->Y(parent);
 133:FT_Esd_Widgets/Ft_Esd_SpinBox__Generated.c **** 	ft_int16_t width = context->Width(parent);
 134:FT_Esd_Widgets/Ft_Esd_SpinBox__Generated.c **** 	ft_int16_t height = context->Height(parent);
 135:FT_Esd_Widgets/Ft_Esd_SpinBox__Generated.c **** 	ft_int16_t radius = 4;
 136:FT_Esd_Widgets/Ft_Esd_SpinBox__Generated.c **** 	ft_bool_t raised = 0;
 137:FT_Esd_Widgets/Ft_Esd_SpinBox__Generated.c **** 	Ft_Esd_Elements_Panel(theme, x, y, width, height, radius, raised);
 138:FT_Esd_Widgets/Ft_Esd_SpinBox__Generated.c **** 	ft_bool_t if_1 = Ft_Esd_TouchTag_Touching(&context->Touch_Tag);
 139:FT_Esd_Widgets/Ft_Esd_SpinBox__Generated.c **** 	ft_rgb32_t c;
 140:FT_Esd_Widgets/Ft_Esd_SpinBox__Generated.c **** 	if (if_1)
 141:FT_Esd_Widgets/Ft_Esd_SpinBox__Generated.c **** 	{
 142:FT_Esd_Widgets/Ft_Esd_SpinBox__Generated.c **** 		Ft_Esd_Theme * theme_1 = context->Theme(parent);
 143:FT_Esd_Widgets/Ft_Esd_SpinBox__Generated.c **** 		c = Ft_Esd_Theme_GetPrimaryColor(theme_1);
 144:FT_Esd_Widgets/Ft_Esd_SpinBox__Generated.c **** 	}
 145:FT_Esd_Widgets/Ft_Esd_SpinBox__Generated.c **** 	else
 146:FT_Esd_Widgets/Ft_Esd_SpinBox__Generated.c **** 	{
 147:FT_Esd_Widgets/Ft_Esd_SpinBox__Generated.c **** 		Ft_Esd_Theme * theme_2 = context->Theme(parent);
 148:FT_Esd_Widgets/Ft_Esd_SpinBox__Generated.c **** 		c = Ft_Esd_Theme_GetTextColor(theme_2);
 149:FT_Esd_Widgets/Ft_Esd_SpinBox__Generated.c **** 	}
 150:FT_Esd_Widgets/Ft_Esd_SpinBox__Generated.c **** 	Ft_Esd_Dl_COLOR_RGB(c);
 151:FT_Esd_Widgets/Ft_Esd_SpinBox__Generated.c **** 	Ft_Gpu_Hal_Context_t * phost = Ft_Esd_GetHost();
 152:FT_Esd_Widgets/Ft_Esd_SpinBox__Generated.c **** 	int left_1 = LayoutSplit_FirstLength(&context->LayoutSplit_1);
 153:FT_Esd_Widgets/Ft_Esd_SpinBox__Generated.c **** 	int right = LayoutSplit_FirstPos(&context->LayoutSplit_1);
 154:FT_Esd_Widgets/Ft_Esd_SpinBox__Generated.c **** 	int left = left_1 + right;
 155:FT_Esd_Widgets/Ft_Esd_SpinBox__Generated.c **** 	int right_1 = 8L;
 156:FT_Esd_Widgets/Ft_Esd_SpinBox__Generated.c **** 	int x_1 = left - right_1;
 157:FT_Esd_Widgets/Ft_Esd_SpinBox__Generated.c **** 	ft_int16_t left_2 = context->Y(parent);
 158:FT_Esd_Widgets/Ft_Esd_SpinBox__Generated.c **** 	ft_int16_t left_3 = context->Height(parent);
 159:FT_Esd_Widgets/Ft_Esd_SpinBox__Generated.c **** 	int right_3 = 2L;
 160:FT_Esd_Widgets/Ft_Esd_SpinBox__Generated.c **** 	int right_2 = left_3 / right_3;
 161:FT_Esd_Widgets/Ft_Esd_SpinBox__Generated.c **** 	int y_1 = left_2 + right_2;
 162:FT_Esd_Widgets/Ft_Esd_SpinBox__Generated.c **** 	ft_int16_t font = 31;
 163:FT_Esd_Widgets/Ft_Esd_SpinBox__Generated.c **** 	ft_uint16_t left_5 = OPT_CENTERY;
 164:FT_Esd_Widgets/Ft_Esd_SpinBox__Generated.c **** 	ft_uint16_t right_4 = OPT_RIGHTX;
 165:FT_Esd_Widgets/Ft_Esd_SpinBox__Generated.c **** 	ft_uint16_t left_4 = left_5 | right_4;
 166:FT_Esd_Widgets/Ft_Esd_SpinBox__Generated.c **** 	ft_uint16_t right_5 = OPT_SIGNED;
 167:FT_Esd_Widgets/Ft_Esd_SpinBox__Generated.c **** 	ft_uint16_t options = left_4 | right_5;
 168:FT_Esd_Widgets/Ft_Esd_SpinBox__Generated.c **** 	int n = context->Value;
 169:FT_Esd_Widgets/Ft_Esd_SpinBox__Generated.c **** 	Ft_Gpu_CoCmd_Number(phost, x_1, y_1, font, options, n);
 170:FT_Esd_Widgets/Ft_Esd_SpinBox__Generated.c **** 	Ft_Esd_PushButton_Render(&context->Push_Up);
 171:FT_Esd_Widgets/Ft_Esd_SpinBox__Generated.c **** 	Ft_Esd_PushButton_Render(&context->Push_Down);
 172:FT_Esd_Widgets/Ft_Esd_SpinBox__Generated.c **** }
 173:FT_Esd_Widgets/Ft_Esd_SpinBox__Generated.c **** 
 174:FT_Esd_Widgets/Ft_Esd_SpinBox__Generated.c **** void Ft_Esd_SpinBox_Update(Ft_Esd_SpinBox *context)
 175:FT_Esd_Widgets/Ft_Esd_SpinBox__Generated.c **** {
 176:FT_Esd_Widgets/Ft_Esd_SpinBox__Generated.c **** 	void *parent = context->Parent;
 177:FT_Esd_Widgets/Ft_Esd_SpinBox__Generated.c **** 	Ft_Esd_TouchTag_Update(&context->Touch_Tag);
 178:FT_Esd_Widgets/Ft_Esd_SpinBox__Generated.c **** 	Ft_Esd_PushButton_Update(&context->Push_Up);
 179:FT_Esd_Widgets/Ft_Esd_SpinBox__Generated.c **** 	Ft_Esd_PushButton_Update(&context->Push_Down);
 180:FT_Esd_Widgets/Ft_Esd_SpinBox__Generated.c **** }
 181:FT_Esd_Widgets/Ft_Esd_SpinBox__Generated.c **** 
 182:FT_Esd_Widgets/Ft_Esd_SpinBox__Generated.c **** void Ft_Esd_SpinBox_End(Ft_Esd_SpinBox *context)
 183:FT_Esd_Widgets/Ft_Esd_SpinBox__Generated.c **** {
 184:FT_Esd_Widgets/Ft_Esd_SpinBox__Generated.c **** 	void *parent = context->Parent;
ARM GAS  /var/folders/n8/cvzdcwlj0vl4g_wtyz1ffy300000gn/T//cc48gXeA.s 			page 10


 185:FT_Esd_Widgets/Ft_Esd_SpinBox__Generated.c **** 	Ft_Esd_TouchTag_End(&context->Touch_Tag);
 186:FT_Esd_Widgets/Ft_Esd_SpinBox__Generated.c **** 	Ft_Esd_PushButton_End(&context->Push_Up);
 187:FT_Esd_Widgets/Ft_Esd_SpinBox__Generated.c **** 	Ft_Esd_PushButton_End(&context->Push_Down);
 188:FT_Esd_Widgets/Ft_Esd_SpinBox__Generated.c **** }
 189:FT_Esd_Widgets/Ft_Esd_SpinBox__Generated.c **** 
 190:FT_Esd_Widgets/Ft_Esd_SpinBox__Generated.c **** int Ft_Esd_SpinBox_LayoutSplit_Pos__Property(void *c)
 191:FT_Esd_Widgets/Ft_Esd_SpinBox__Generated.c **** {
 192:FT_Esd_Widgets/Ft_Esd_SpinBox__Generated.c **** 	Ft_Esd_SpinBox *context = (Ft_Esd_SpinBox *)c;
 193:FT_Esd_Widgets/Ft_Esd_SpinBox__Generated.c **** 	void *parent = context->Parent;
 194:FT_Esd_Widgets/Ft_Esd_SpinBox__Generated.c **** 	return LayoutMargin_OutY(&context->LayoutMargin);
 195:FT_Esd_Widgets/Ft_Esd_SpinBox__Generated.c **** }
 196:FT_Esd_Widgets/Ft_Esd_SpinBox__Generated.c **** 
 197:FT_Esd_Widgets/Ft_Esd_SpinBox__Generated.c **** int Ft_Esd_SpinBox_LayoutSplit_Length__Property(void *c)
 198:FT_Esd_Widgets/Ft_Esd_SpinBox__Generated.c **** {
 199:FT_Esd_Widgets/Ft_Esd_SpinBox__Generated.c **** 	Ft_Esd_SpinBox *context = (Ft_Esd_SpinBox *)c;
 200:FT_Esd_Widgets/Ft_Esd_SpinBox__Generated.c **** 	void *parent = context->Parent;
 201:FT_Esd_Widgets/Ft_Esd_SpinBox__Generated.c **** 	return LayoutMargin_OutHeight(&context->LayoutMargin);
 202:FT_Esd_Widgets/Ft_Esd_SpinBox__Generated.c **** }
 203:FT_Esd_Widgets/Ft_Esd_SpinBox__Generated.c **** 
 204:FT_Esd_Widgets/Ft_Esd_SpinBox__Generated.c **** int Ft_Esd_SpinBox_LayoutMargin_X__Property(void *c)
 205:FT_Esd_Widgets/Ft_Esd_SpinBox__Generated.c **** {
 361              		.loc 1 205 0
 362              		.cfi_startproc
 363              		@ args = 0, pretend = 0, frame = 0
 364              		@ frame_needed = 0, uses_anonymous_args = 0
 365              	.LVL29:
 366 0000 08B5     		push	{r3, lr}
 367              	.LCFI0:
 368              		.cfi_def_cfa_offset 8
 369              		.cfi_offset 3, -8
 370              		.cfi_offset 14, -4
 371              	.LVL30:
 206:FT_Esd_Widgets/Ft_Esd_SpinBox__Generated.c **** 	Ft_Esd_SpinBox *context = (Ft_Esd_SpinBox *)c;
 207:FT_Esd_Widgets/Ft_Esd_SpinBox__Generated.c **** 	void *parent = context->Parent;
 208:FT_Esd_Widgets/Ft_Esd_SpinBox__Generated.c **** 	return context->X(parent);
 372              		.loc 1 208 0
 373 0002 036A     		ldr	r3, [r0, #32]
 374 0004 0068     		ldr	r0, [r0]
 375              	.LVL31:
 376 0006 9847     		blx	r3
 377              	.LVL32:
 209:FT_Esd_Widgets/Ft_Esd_SpinBox__Generated.c **** }
 378              		.loc 1 209 0
 379 0008 08BD     		pop	{r3, pc}
 380              		.cfi_endproc
 381              	.LFE53:
 383              		.section	.text.Ft_Esd_SpinBox_LayoutMargin_Y__Property,"ax",%progbits
 384              		.align	1
 385              		.syntax unified
 386              		.thumb
 387              		.thumb_func
 388              		.fpu fpv5-sp-d16
 390              	Ft_Esd_SpinBox_LayoutMargin_Y__Property:
 391              	.LFB54:
 210:FT_Esd_Widgets/Ft_Esd_SpinBox__Generated.c **** 
 211:FT_Esd_Widgets/Ft_Esd_SpinBox__Generated.c **** int Ft_Esd_SpinBox_LayoutMargin_Y__Property(void *c)
 212:FT_Esd_Widgets/Ft_Esd_SpinBox__Generated.c **** {
ARM GAS  /var/folders/n8/cvzdcwlj0vl4g_wtyz1ffy300000gn/T//cc48gXeA.s 			page 11


 392              		.loc 1 212 0
 393              		.cfi_startproc
 394              		@ args = 0, pretend = 0, frame = 0
 395              		@ frame_needed = 0, uses_anonymous_args = 0
 396              	.LVL33:
 397 0000 08B5     		push	{r3, lr}
 398              	.LCFI1:
 399              		.cfi_def_cfa_offset 8
 400              		.cfi_offset 3, -8
 401              		.cfi_offset 14, -4
 402              	.LVL34:
 213:FT_Esd_Widgets/Ft_Esd_SpinBox__Generated.c **** 	Ft_Esd_SpinBox *context = (Ft_Esd_SpinBox *)c;
 214:FT_Esd_Widgets/Ft_Esd_SpinBox__Generated.c **** 	void *parent = context->Parent;
 215:FT_Esd_Widgets/Ft_Esd_SpinBox__Generated.c **** 	return context->Y(parent);
 403              		.loc 1 215 0
 404 0002 436A     		ldr	r3, [r0, #36]
 405 0004 0068     		ldr	r0, [r0]
 406              	.LVL35:
 407 0006 9847     		blx	r3
 408              	.LVL36:
 216:FT_Esd_Widgets/Ft_Esd_SpinBox__Generated.c **** }
 409              		.loc 1 216 0
 410 0008 08BD     		pop	{r3, pc}
 411              		.cfi_endproc
 412              	.LFE54:
 414              		.section	.text.Ft_Esd_SpinBox_LayoutMargin_Width__Property,"ax",%progbits
 415              		.align	1
 416              		.syntax unified
 417              		.thumb
 418              		.thumb_func
 419              		.fpu fpv5-sp-d16
 421              	Ft_Esd_SpinBox_LayoutMargin_Width__Property:
 422              	.LFB55:
 217:FT_Esd_Widgets/Ft_Esd_SpinBox__Generated.c **** 
 218:FT_Esd_Widgets/Ft_Esd_SpinBox__Generated.c **** int Ft_Esd_SpinBox_LayoutMargin_Width__Property(void *c)
 219:FT_Esd_Widgets/Ft_Esd_SpinBox__Generated.c **** {
 423              		.loc 1 219 0
 424              		.cfi_startproc
 425              		@ args = 0, pretend = 0, frame = 0
 426              		@ frame_needed = 0, uses_anonymous_args = 0
 427              	.LVL37:
 428 0000 08B5     		push	{r3, lr}
 429              	.LCFI2:
 430              		.cfi_def_cfa_offset 8
 431              		.cfi_offset 3, -8
 432              		.cfi_offset 14, -4
 433              	.LVL38:
 220:FT_Esd_Widgets/Ft_Esd_SpinBox__Generated.c **** 	Ft_Esd_SpinBox *context = (Ft_Esd_SpinBox *)c;
 221:FT_Esd_Widgets/Ft_Esd_SpinBox__Generated.c **** 	void *parent = context->Parent;
 222:FT_Esd_Widgets/Ft_Esd_SpinBox__Generated.c **** 	ft_int16_t left_6 = context->Width(parent);
 434              		.loc 1 222 0
 435 0002 836A     		ldr	r3, [r0, #40]
 436 0004 0068     		ldr	r0, [r0]
 437              	.LVL39:
 438 0006 9847     		blx	r3
 439              	.LVL40:
 223:FT_Esd_Widgets/Ft_Esd_SpinBox__Generated.c **** 	ft_int16_t right_6 = 1;
ARM GAS  /var/folders/n8/cvzdcwlj0vl4g_wtyz1ffy300000gn/T//cc48gXeA.s 			page 12


 224:FT_Esd_Widgets/Ft_Esd_SpinBox__Generated.c **** 	return left_6 - right_6;
 225:FT_Esd_Widgets/Ft_Esd_SpinBox__Generated.c **** }
 440              		.loc 1 225 0
 441 0008 0138     		subs	r0, r0, #1
 442              	.LVL41:
 443 000a 08BD     		pop	{r3, pc}
 444              		.cfi_endproc
 445              	.LFE55:
 447              		.section	.text.Ft_Esd_SpinBox_LayoutMargin_Height__Property,"ax",%progbits
 448              		.align	1
 449              		.syntax unified
 450              		.thumb
 451              		.thumb_func
 452              		.fpu fpv5-sp-d16
 454              	Ft_Esd_SpinBox_LayoutMargin_Height__Property:
 455              	.LFB56:
 226:FT_Esd_Widgets/Ft_Esd_SpinBox__Generated.c **** 
 227:FT_Esd_Widgets/Ft_Esd_SpinBox__Generated.c **** int Ft_Esd_SpinBox_LayoutMargin_Height__Property(void *c)
 228:FT_Esd_Widgets/Ft_Esd_SpinBox__Generated.c **** {
 456              		.loc 1 228 0
 457              		.cfi_startproc
 458              		@ args = 0, pretend = 0, frame = 0
 459              		@ frame_needed = 0, uses_anonymous_args = 0
 460              	.LVL42:
 461 0000 08B5     		push	{r3, lr}
 462              	.LCFI3:
 463              		.cfi_def_cfa_offset 8
 464              		.cfi_offset 3, -8
 465              		.cfi_offset 14, -4
 466              	.LVL43:
 229:FT_Esd_Widgets/Ft_Esd_SpinBox__Generated.c **** 	Ft_Esd_SpinBox *context = (Ft_Esd_SpinBox *)c;
 230:FT_Esd_Widgets/Ft_Esd_SpinBox__Generated.c **** 	void *parent = context->Parent;
 231:FT_Esd_Widgets/Ft_Esd_SpinBox__Generated.c **** 	ft_int16_t left_7 = context->Height(parent);
 467              		.loc 1 231 0
 468 0002 C36A     		ldr	r3, [r0, #44]
 469 0004 0068     		ldr	r0, [r0]
 470              	.LVL44:
 471 0006 9847     		blx	r3
 472              	.LVL45:
 232:FT_Esd_Widgets/Ft_Esd_SpinBox__Generated.c **** 	ft_int16_t right_7 = 1;
 233:FT_Esd_Widgets/Ft_Esd_SpinBox__Generated.c **** 	return left_7 - right_7;
 234:FT_Esd_Widgets/Ft_Esd_SpinBox__Generated.c **** }
 473              		.loc 1 234 0
 474 0008 0138     		subs	r0, r0, #1
 475              	.LVL46:
 476 000a 08BD     		pop	{r3, pc}
 477              		.cfi_endproc
 478              	.LFE56:
 480              		.section	.text.Ft_Esd_SpinBox_Push_Up_Text__Property,"ax",%progbits
 481              		.align	1
 482              		.syntax unified
 483              		.thumb
 484              		.thumb_func
 485              		.fpu fpv5-sp-d16
 487              	Ft_Esd_SpinBox_Push_Up_Text__Property:
 488              	.LFB65:
 235:FT_Esd_Widgets/Ft_Esd_SpinBox__Generated.c **** 
ARM GAS  /var/folders/n8/cvzdcwlj0vl4g_wtyz1ffy300000gn/T//cc48gXeA.s 			page 13


 236:FT_Esd_Widgets/Ft_Esd_SpinBox__Generated.c **** void Ft_Esd_SpinBox_Increase(Ft_Esd_SpinBox *context)
 237:FT_Esd_Widgets/Ft_Esd_SpinBox__Generated.c **** {
 238:FT_Esd_Widgets/Ft_Esd_SpinBox__Generated.c **** 	void *parent = context->Parent;
 239:FT_Esd_Widgets/Ft_Esd_SpinBox__Generated.c **** 	int left_8 = context->Value;
 240:FT_Esd_Widgets/Ft_Esd_SpinBox__Generated.c **** 	int right_8 = context->Step(parent);
 241:FT_Esd_Widgets/Ft_Esd_SpinBox__Generated.c **** 	int increase_value = left_8 + right_8;
 242:FT_Esd_Widgets/Ft_Esd_SpinBox__Generated.c **** 	context->Value = increase_value;
 243:FT_Esd_Widgets/Ft_Esd_SpinBox__Generated.c **** 	context->Changed(parent, increase_value);
 244:FT_Esd_Widgets/Ft_Esd_SpinBox__Generated.c **** 	context->Increased(parent);
 245:FT_Esd_Widgets/Ft_Esd_SpinBox__Generated.c **** }
 246:FT_Esd_Widgets/Ft_Esd_SpinBox__Generated.c **** 
 247:FT_Esd_Widgets/Ft_Esd_SpinBox__Generated.c **** int Ft_Esd_SpinBox_LayoutSplit_1_Pos__Property(void *c)
 248:FT_Esd_Widgets/Ft_Esd_SpinBox__Generated.c **** {
 249:FT_Esd_Widgets/Ft_Esd_SpinBox__Generated.c **** 	Ft_Esd_SpinBox *context = (Ft_Esd_SpinBox *)c;
 250:FT_Esd_Widgets/Ft_Esd_SpinBox__Generated.c **** 	void *parent = context->Parent;
 251:FT_Esd_Widgets/Ft_Esd_SpinBox__Generated.c **** 	return LayoutMargin_OutX(&context->LayoutMargin);
 252:FT_Esd_Widgets/Ft_Esd_SpinBox__Generated.c **** }
 253:FT_Esd_Widgets/Ft_Esd_SpinBox__Generated.c **** 
 254:FT_Esd_Widgets/Ft_Esd_SpinBox__Generated.c **** int Ft_Esd_SpinBox_LayoutSplit_1_Length__Property(void *c)
 255:FT_Esd_Widgets/Ft_Esd_SpinBox__Generated.c **** {
 256:FT_Esd_Widgets/Ft_Esd_SpinBox__Generated.c **** 	Ft_Esd_SpinBox *context = (Ft_Esd_SpinBox *)c;
 257:FT_Esd_Widgets/Ft_Esd_SpinBox__Generated.c **** 	void *parent = context->Parent;
 258:FT_Esd_Widgets/Ft_Esd_SpinBox__Generated.c **** 	return LayoutMargin_OutWidth(&context->LayoutMargin);
 259:FT_Esd_Widgets/Ft_Esd_SpinBox__Generated.c **** }
 260:FT_Esd_Widgets/Ft_Esd_SpinBox__Generated.c **** 
 261:FT_Esd_Widgets/Ft_Esd_SpinBox__Generated.c **** void Ft_Esd_SpinBox_Decrease(Ft_Esd_SpinBox *context)
 262:FT_Esd_Widgets/Ft_Esd_SpinBox__Generated.c **** {
 263:FT_Esd_Widgets/Ft_Esd_SpinBox__Generated.c **** 	void *parent = context->Parent;
 264:FT_Esd_Widgets/Ft_Esd_SpinBox__Generated.c **** 	int left_9 = context->Value;
 265:FT_Esd_Widgets/Ft_Esd_SpinBox__Generated.c **** 	int right_9 = context->Step(parent);
 266:FT_Esd_Widgets/Ft_Esd_SpinBox__Generated.c **** 	int decrease_value = left_9 - right_9;
 267:FT_Esd_Widgets/Ft_Esd_SpinBox__Generated.c **** 	context->Value = decrease_value;
 268:FT_Esd_Widgets/Ft_Esd_SpinBox__Generated.c **** 	context->Changed(parent, decrease_value);
 269:FT_Esd_Widgets/Ft_Esd_SpinBox__Generated.c **** 	context->Decreased(parent);
 270:FT_Esd_Widgets/Ft_Esd_SpinBox__Generated.c **** }
 271:FT_Esd_Widgets/Ft_Esd_SpinBox__Generated.c **** 
 272:FT_Esd_Widgets/Ft_Esd_SpinBox__Generated.c **** ft_int16_t Ft_Esd_SpinBox_Push_Up_X__Property(void *c)
 273:FT_Esd_Widgets/Ft_Esd_SpinBox__Generated.c **** {
 274:FT_Esd_Widgets/Ft_Esd_SpinBox__Generated.c **** 	Ft_Esd_SpinBox *context = (Ft_Esd_SpinBox *)c;
 275:FT_Esd_Widgets/Ft_Esd_SpinBox__Generated.c **** 	void *parent = context->Parent;
 276:FT_Esd_Widgets/Ft_Esd_SpinBox__Generated.c **** 	return LayoutSplit_SecondPos(&context->LayoutSplit_1);
 277:FT_Esd_Widgets/Ft_Esd_SpinBox__Generated.c **** }
 278:FT_Esd_Widgets/Ft_Esd_SpinBox__Generated.c **** 
 279:FT_Esd_Widgets/Ft_Esd_SpinBox__Generated.c **** ft_int16_t Ft_Esd_SpinBox_Push_Up_Y__Property(void *c)
 280:FT_Esd_Widgets/Ft_Esd_SpinBox__Generated.c **** {
 281:FT_Esd_Widgets/Ft_Esd_SpinBox__Generated.c **** 	Ft_Esd_SpinBox *context = (Ft_Esd_SpinBox *)c;
 282:FT_Esd_Widgets/Ft_Esd_SpinBox__Generated.c **** 	void *parent = context->Parent;
 283:FT_Esd_Widgets/Ft_Esd_SpinBox__Generated.c **** 	return LayoutSplit_FirstPos(&context->LayoutSplit);
 284:FT_Esd_Widgets/Ft_Esd_SpinBox__Generated.c **** }
 285:FT_Esd_Widgets/Ft_Esd_SpinBox__Generated.c **** 
 286:FT_Esd_Widgets/Ft_Esd_SpinBox__Generated.c **** ft_int16_t Ft_Esd_SpinBox_Push_Up_Width__Property(void *c)
 287:FT_Esd_Widgets/Ft_Esd_SpinBox__Generated.c **** {
 288:FT_Esd_Widgets/Ft_Esd_SpinBox__Generated.c **** 	Ft_Esd_SpinBox *context = (Ft_Esd_SpinBox *)c;
 289:FT_Esd_Widgets/Ft_Esd_SpinBox__Generated.c **** 	void *parent = context->Parent;
 290:FT_Esd_Widgets/Ft_Esd_SpinBox__Generated.c **** 	return LayoutSplit_SecondLength(&context->LayoutSplit_1);
 291:FT_Esd_Widgets/Ft_Esd_SpinBox__Generated.c **** }
 292:FT_Esd_Widgets/Ft_Esd_SpinBox__Generated.c **** 
ARM GAS  /var/folders/n8/cvzdcwlj0vl4g_wtyz1ffy300000gn/T//cc48gXeA.s 			page 14


 293:FT_Esd_Widgets/Ft_Esd_SpinBox__Generated.c **** ft_int16_t Ft_Esd_SpinBox_Push_Up_Height__Property(void *c)
 294:FT_Esd_Widgets/Ft_Esd_SpinBox__Generated.c **** {
 295:FT_Esd_Widgets/Ft_Esd_SpinBox__Generated.c **** 	Ft_Esd_SpinBox *context = (Ft_Esd_SpinBox *)c;
 296:FT_Esd_Widgets/Ft_Esd_SpinBox__Generated.c **** 	void *parent = context->Parent;
 297:FT_Esd_Widgets/Ft_Esd_SpinBox__Generated.c **** 	ft_bool_t if_2 = context->SideButtons;
 298:FT_Esd_Widgets/Ft_Esd_SpinBox__Generated.c **** 	if (if_2)
 299:FT_Esd_Widgets/Ft_Esd_SpinBox__Generated.c **** 	{
 300:FT_Esd_Widgets/Ft_Esd_SpinBox__Generated.c **** 		int left_10 = LayoutMargin_OutHeight(&context->LayoutMargin);
 301:FT_Esd_Widgets/Ft_Esd_SpinBox__Generated.c **** 		int right_10 = 1L;
 302:FT_Esd_Widgets/Ft_Esd_SpinBox__Generated.c **** 		return left_10 + right_10;
 303:FT_Esd_Widgets/Ft_Esd_SpinBox__Generated.c **** 	}
 304:FT_Esd_Widgets/Ft_Esd_SpinBox__Generated.c **** 	else
 305:FT_Esd_Widgets/Ft_Esd_SpinBox__Generated.c **** 	{
 306:FT_Esd_Widgets/Ft_Esd_SpinBox__Generated.c **** 		return LayoutSplit_FirstLength(&context->LayoutSplit);
 307:FT_Esd_Widgets/Ft_Esd_SpinBox__Generated.c **** 	}
 308:FT_Esd_Widgets/Ft_Esd_SpinBox__Generated.c **** }
 309:FT_Esd_Widgets/Ft_Esd_SpinBox__Generated.c **** 
 310:FT_Esd_Widgets/Ft_Esd_SpinBox__Generated.c **** const char * Ft_Esd_SpinBox_Push_Up_Text__Property(void *c)
 311:FT_Esd_Widgets/Ft_Esd_SpinBox__Generated.c **** {
 489              		.loc 1 311 0
 490              		.cfi_startproc
 491              		@ args = 0, pretend = 0, frame = 0
 492              		@ frame_needed = 0, uses_anonymous_args = 0
 493              		@ link register save eliminated.
 494              	.LVL47:
 312:FT_Esd_Widgets/Ft_Esd_SpinBox__Generated.c **** 	Ft_Esd_SpinBox *context = (Ft_Esd_SpinBox *)c;
 313:FT_Esd_Widgets/Ft_Esd_SpinBox__Generated.c **** 	void *parent = context->Parent;
 314:FT_Esd_Widgets/Ft_Esd_SpinBox__Generated.c **** 	return Ft_Esd_Char_UpTriangle();
 315:FT_Esd_Widgets/Ft_Esd_SpinBox__Generated.c **** }
 495              		.loc 1 315 0
 496 0000 0048     		ldr	r0, .L25
 497              	.LVL48:
 498 0002 7047     		bx	lr
 499              	.L26:
 500              		.align	2
 501              	.L25:
 502 0004 00000000 		.word	.LC0
 503              		.cfi_endproc
 504              	.LFE65:
 506              		.section	.text.Ft_Esd_SpinBox_Push_Up_Down__Signal,"ax",%progbits
 507              		.align	1
 508              		.syntax unified
 509              		.thumb
 510              		.thumb_func
 511              		.fpu fpv5-sp-d16
 513              	Ft_Esd_SpinBox_Push_Up_Down__Signal:
 514              	.LFB66:
 316:FT_Esd_Widgets/Ft_Esd_SpinBox__Generated.c **** 
 317:FT_Esd_Widgets/Ft_Esd_SpinBox__Generated.c **** void Ft_Esd_SpinBox_Push_Up_Down__Signal(void *c)
 318:FT_Esd_Widgets/Ft_Esd_SpinBox__Generated.c **** {
 515              		.loc 1 318 0
 516              		.cfi_startproc
 517              		@ args = 0, pretend = 0, frame = 0
 518              		@ frame_needed = 0, uses_anonymous_args = 0
 519              	.LVL49:
 520 0000 70B5     		push	{r4, r5, r6, lr}
 521              	.LCFI4:
ARM GAS  /var/folders/n8/cvzdcwlj0vl4g_wtyz1ffy300000gn/T//cc48gXeA.s 			page 15


 522              		.cfi_def_cfa_offset 16
 523              		.cfi_offset 4, -16
 524              		.cfi_offset 5, -12
 525              		.cfi_offset 6, -8
 526              		.cfi_offset 14, -4
 527 0002 0446     		mov	r4, r0
 528              	.LVL50:
 319:FT_Esd_Widgets/Ft_Esd_SpinBox__Generated.c **** 	Ft_Esd_SpinBox *context = (Ft_Esd_SpinBox *)c;
 320:FT_Esd_Widgets/Ft_Esd_SpinBox__Generated.c **** 	void *parent = context->Parent;
 529              		.loc 1 320 0
 530 0004 0668     		ldr	r6, [r0]
 531              	.LVL51:
 321:FT_Esd_Widgets/Ft_Esd_SpinBox__Generated.c **** 	int left_11 = context->Value;
 532              		.loc 1 321 0
 533 0006 856B     		ldr	r5, [r0, #56]
 534              	.LVL52:
 322:FT_Esd_Widgets/Ft_Esd_SpinBox__Generated.c **** 	int right_11 = context->Step(parent);
 535              		.loc 1 322 0
 536 0008 036B     		ldr	r3, [r0, #48]
 537 000a 3046     		mov	r0, r6
 538              	.LVL53:
 539 000c 9847     		blx	r3
 540              	.LVL54:
 323:FT_Esd_Widgets/Ft_Esd_SpinBox__Generated.c **** 	int increase_value_1 = left_11 + right_11;
 541              		.loc 1 323 0
 542 000e 2918     		adds	r1, r5, r0
 543              	.LVL55:
 324:FT_Esd_Widgets/Ft_Esd_SpinBox__Generated.c **** 	context->Value = increase_value_1;
 544              		.loc 1 324 0
 545 0010 A163     		str	r1, [r4, #56]
 325:FT_Esd_Widgets/Ft_Esd_SpinBox__Generated.c **** 	context->Changed(parent, increase_value_1);
 546              		.loc 1 325 0
 547 0012 E36B     		ldr	r3, [r4, #60]
 548 0014 3046     		mov	r0, r6
 549              	.LVL56:
 550 0016 9847     		blx	r3
 551              	.LVL57:
 326:FT_Esd_Widgets/Ft_Esd_SpinBox__Generated.c **** 	context->Increased(parent);
 552              		.loc 1 326 0
 553 0018 636B     		ldr	r3, [r4, #52]
 554 001a 3046     		mov	r0, r6
 555 001c 9847     		blx	r3
 556              	.LVL58:
 327:FT_Esd_Widgets/Ft_Esd_SpinBox__Generated.c **** }
 557              		.loc 1 327 0
 558 001e 70BD     		pop	{r4, r5, r6, pc}
 559              		.cfi_endproc
 560              	.LFE66:
 562              		.section	.text.Ft_Esd_SpinBox_Push_Down_Text__Property,"ax",%progbits
 563              		.align	1
 564              		.syntax unified
 565              		.thumb
 566              		.thumb_func
 567              		.fpu fpv5-sp-d16
 569              	Ft_Esd_SpinBox_Push_Down_Text__Property:
 570              	.LFB71:
 328:FT_Esd_Widgets/Ft_Esd_SpinBox__Generated.c **** 
ARM GAS  /var/folders/n8/cvzdcwlj0vl4g_wtyz1ffy300000gn/T//cc48gXeA.s 			page 16


 329:FT_Esd_Widgets/Ft_Esd_SpinBox__Generated.c **** ft_int16_t Ft_Esd_SpinBox_Push_Down_X__Property(void *c)
 330:FT_Esd_Widgets/Ft_Esd_SpinBox__Generated.c **** {
 331:FT_Esd_Widgets/Ft_Esd_SpinBox__Generated.c **** 	Ft_Esd_SpinBox *context = (Ft_Esd_SpinBox *)c;
 332:FT_Esd_Widgets/Ft_Esd_SpinBox__Generated.c **** 	void *parent = context->Parent;
 333:FT_Esd_Widgets/Ft_Esd_SpinBox__Generated.c **** 	ft_bool_t if_3 = context->SideButtons;
 334:FT_Esd_Widgets/Ft_Esd_SpinBox__Generated.c **** 	if (if_3)
 335:FT_Esd_Widgets/Ft_Esd_SpinBox__Generated.c **** 	{
 336:FT_Esd_Widgets/Ft_Esd_SpinBox__Generated.c **** 		return LayoutMargin_OutX(&context->LayoutMargin);
 337:FT_Esd_Widgets/Ft_Esd_SpinBox__Generated.c **** 	}
 338:FT_Esd_Widgets/Ft_Esd_SpinBox__Generated.c **** 	else
 339:FT_Esd_Widgets/Ft_Esd_SpinBox__Generated.c **** 	{
 340:FT_Esd_Widgets/Ft_Esd_SpinBox__Generated.c **** 		return LayoutSplit_SecondPos(&context->LayoutSplit_1);
 341:FT_Esd_Widgets/Ft_Esd_SpinBox__Generated.c **** 	}
 342:FT_Esd_Widgets/Ft_Esd_SpinBox__Generated.c **** }
 343:FT_Esd_Widgets/Ft_Esd_SpinBox__Generated.c **** 
 344:FT_Esd_Widgets/Ft_Esd_SpinBox__Generated.c **** ft_int16_t Ft_Esd_SpinBox_Push_Down_Y__Property(void *c)
 345:FT_Esd_Widgets/Ft_Esd_SpinBox__Generated.c **** {
 346:FT_Esd_Widgets/Ft_Esd_SpinBox__Generated.c **** 	Ft_Esd_SpinBox *context = (Ft_Esd_SpinBox *)c;
 347:FT_Esd_Widgets/Ft_Esd_SpinBox__Generated.c **** 	void *parent = context->Parent;
 348:FT_Esd_Widgets/Ft_Esd_SpinBox__Generated.c **** 	ft_bool_t if_4 = context->SideButtons;
 349:FT_Esd_Widgets/Ft_Esd_SpinBox__Generated.c **** 	if (if_4)
 350:FT_Esd_Widgets/Ft_Esd_SpinBox__Generated.c **** 	{
 351:FT_Esd_Widgets/Ft_Esd_SpinBox__Generated.c **** 		return LayoutSplit_FirstPos(&context->LayoutSplit);
 352:FT_Esd_Widgets/Ft_Esd_SpinBox__Generated.c **** 	}
 353:FT_Esd_Widgets/Ft_Esd_SpinBox__Generated.c **** 	else
 354:FT_Esd_Widgets/Ft_Esd_SpinBox__Generated.c **** 	{
 355:FT_Esd_Widgets/Ft_Esd_SpinBox__Generated.c **** 		return LayoutSplit_SecondPos(&context->LayoutSplit);
 356:FT_Esd_Widgets/Ft_Esd_SpinBox__Generated.c **** 	}
 357:FT_Esd_Widgets/Ft_Esd_SpinBox__Generated.c **** }
 358:FT_Esd_Widgets/Ft_Esd_SpinBox__Generated.c **** 
 359:FT_Esd_Widgets/Ft_Esd_SpinBox__Generated.c **** ft_int16_t Ft_Esd_SpinBox_Push_Down_Width__Property(void *c)
 360:FT_Esd_Widgets/Ft_Esd_SpinBox__Generated.c **** {
 361:FT_Esd_Widgets/Ft_Esd_SpinBox__Generated.c **** 	Ft_Esd_SpinBox *context = (Ft_Esd_SpinBox *)c;
 362:FT_Esd_Widgets/Ft_Esd_SpinBox__Generated.c **** 	void *parent = context->Parent;
 363:FT_Esd_Widgets/Ft_Esd_SpinBox__Generated.c **** 	return LayoutSplit_SecondLength(&context->LayoutSplit_1);
 364:FT_Esd_Widgets/Ft_Esd_SpinBox__Generated.c **** }
 365:FT_Esd_Widgets/Ft_Esd_SpinBox__Generated.c **** 
 366:FT_Esd_Widgets/Ft_Esd_SpinBox__Generated.c **** ft_int16_t Ft_Esd_SpinBox_Push_Down_Height__Property(void *c)
 367:FT_Esd_Widgets/Ft_Esd_SpinBox__Generated.c **** {
 368:FT_Esd_Widgets/Ft_Esd_SpinBox__Generated.c **** 	Ft_Esd_SpinBox *context = (Ft_Esd_SpinBox *)c;
 369:FT_Esd_Widgets/Ft_Esd_SpinBox__Generated.c **** 	void *parent = context->Parent;
 370:FT_Esd_Widgets/Ft_Esd_SpinBox__Generated.c **** 	ft_bool_t if_5 = context->SideButtons;
 371:FT_Esd_Widgets/Ft_Esd_SpinBox__Generated.c **** 	if (if_5)
 372:FT_Esd_Widgets/Ft_Esd_SpinBox__Generated.c **** 	{
 373:FT_Esd_Widgets/Ft_Esd_SpinBox__Generated.c **** 		int left_12 = LayoutMargin_OutHeight(&context->LayoutMargin);
 374:FT_Esd_Widgets/Ft_Esd_SpinBox__Generated.c **** 		int right_12 = 1L;
 375:FT_Esd_Widgets/Ft_Esd_SpinBox__Generated.c **** 		return left_12 + right_12;
 376:FT_Esd_Widgets/Ft_Esd_SpinBox__Generated.c **** 	}
 377:FT_Esd_Widgets/Ft_Esd_SpinBox__Generated.c **** 	else
 378:FT_Esd_Widgets/Ft_Esd_SpinBox__Generated.c **** 	{
 379:FT_Esd_Widgets/Ft_Esd_SpinBox__Generated.c **** 		return LayoutSplit_SecondLength(&context->LayoutSplit);
 380:FT_Esd_Widgets/Ft_Esd_SpinBox__Generated.c **** 	}
 381:FT_Esd_Widgets/Ft_Esd_SpinBox__Generated.c **** }
 382:FT_Esd_Widgets/Ft_Esd_SpinBox__Generated.c **** 
 383:FT_Esd_Widgets/Ft_Esd_SpinBox__Generated.c **** const char * Ft_Esd_SpinBox_Push_Down_Text__Property(void *c)
 384:FT_Esd_Widgets/Ft_Esd_SpinBox__Generated.c **** {
 571              		.loc 1 384 0
ARM GAS  /var/folders/n8/cvzdcwlj0vl4g_wtyz1ffy300000gn/T//cc48gXeA.s 			page 17


 572              		.cfi_startproc
 573              		@ args = 0, pretend = 0, frame = 0
 574              		@ frame_needed = 0, uses_anonymous_args = 0
 575              		@ link register save eliminated.
 576              	.LVL59:
 385:FT_Esd_Widgets/Ft_Esd_SpinBox__Generated.c **** 	Ft_Esd_SpinBox *context = (Ft_Esd_SpinBox *)c;
 386:FT_Esd_Widgets/Ft_Esd_SpinBox__Generated.c **** 	void *parent = context->Parent;
 387:FT_Esd_Widgets/Ft_Esd_SpinBox__Generated.c **** 	return Ft_Esd_Char_DownTriangle();
 388:FT_Esd_Widgets/Ft_Esd_SpinBox__Generated.c **** }
 577              		.loc 1 388 0
 578 0000 0048     		ldr	r0, .L30
 579              	.LVL60:
 580 0002 7047     		bx	lr
 581              	.L31:
 582              		.align	2
 583              	.L30:
 584 0004 00000000 		.word	.LC1
 585              		.cfi_endproc
 586              	.LFE71:
 588              		.section	.text.Ft_Esd_SpinBox_Push_Down_Down__Signal,"ax",%progbits
 589              		.align	1
 590              		.syntax unified
 591              		.thumb
 592              		.thumb_func
 593              		.fpu fpv5-sp-d16
 595              	Ft_Esd_SpinBox_Push_Down_Down__Signal:
 596              	.LFB72:
 389:FT_Esd_Widgets/Ft_Esd_SpinBox__Generated.c **** 
 390:FT_Esd_Widgets/Ft_Esd_SpinBox__Generated.c **** void Ft_Esd_SpinBox_Push_Down_Down__Signal(void *c)
 391:FT_Esd_Widgets/Ft_Esd_SpinBox__Generated.c **** {
 597              		.loc 1 391 0
 598              		.cfi_startproc
 599              		@ args = 0, pretend = 0, frame = 0
 600              		@ frame_needed = 0, uses_anonymous_args = 0
 601              	.LVL61:
 602 0000 70B5     		push	{r4, r5, r6, lr}
 603              	.LCFI5:
 604              		.cfi_def_cfa_offset 16
 605              		.cfi_offset 4, -16
 606              		.cfi_offset 5, -12
 607              		.cfi_offset 6, -8
 608              		.cfi_offset 14, -4
 609 0002 0446     		mov	r4, r0
 610              	.LVL62:
 392:FT_Esd_Widgets/Ft_Esd_SpinBox__Generated.c **** 	Ft_Esd_SpinBox *context = (Ft_Esd_SpinBox *)c;
 393:FT_Esd_Widgets/Ft_Esd_SpinBox__Generated.c **** 	void *parent = context->Parent;
 611              		.loc 1 393 0
 612 0004 0668     		ldr	r6, [r0]
 613              	.LVL63:
 394:FT_Esd_Widgets/Ft_Esd_SpinBox__Generated.c **** 	int left_13 = context->Value;
 614              		.loc 1 394 0
 615 0006 856B     		ldr	r5, [r0, #56]
 616              	.LVL64:
 395:FT_Esd_Widgets/Ft_Esd_SpinBox__Generated.c **** 	int right_13 = context->Step(parent);
 617              		.loc 1 395 0
 618 0008 036B     		ldr	r3, [r0, #48]
 619 000a 3046     		mov	r0, r6
ARM GAS  /var/folders/n8/cvzdcwlj0vl4g_wtyz1ffy300000gn/T//cc48gXeA.s 			page 18


 620              	.LVL65:
 621 000c 9847     		blx	r3
 622              	.LVL66:
 396:FT_Esd_Widgets/Ft_Esd_SpinBox__Generated.c **** 	int decrease_value_1 = left_13 - right_13;
 623              		.loc 1 396 0
 624 000e 291A     		subs	r1, r5, r0
 625              	.LVL67:
 397:FT_Esd_Widgets/Ft_Esd_SpinBox__Generated.c **** 	context->Value = decrease_value_1;
 626              		.loc 1 397 0
 627 0010 A163     		str	r1, [r4, #56]
 398:FT_Esd_Widgets/Ft_Esd_SpinBox__Generated.c **** 	context->Changed(parent, decrease_value_1);
 628              		.loc 1 398 0
 629 0012 E36B     		ldr	r3, [r4, #60]
 630 0014 3046     		mov	r0, r6
 631              	.LVL68:
 632 0016 9847     		blx	r3
 633              	.LVL69:
 399:FT_Esd_Widgets/Ft_Esd_SpinBox__Generated.c **** 	context->Decreased(parent);
 634              		.loc 1 399 0
 635 0018 A36D     		ldr	r3, [r4, #88]
 636 001a 3046     		mov	r0, r6
 637 001c 9847     		blx	r3
 638              	.LVL70:
 400:FT_Esd_Widgets/Ft_Esd_SpinBox__Generated.c **** }
 639              		.loc 1 400 0
 640 001e 70BD     		pop	{r4, r5, r6, pc}
 641              		.cfi_endproc
 642              	.LFE72:
 644              		.section	.text.Ft_Esd_SpinBox_Theme__Default,"ax",%progbits
 645              		.align	1
 646              		.global	Ft_Esd_SpinBox_Theme__Default
 647              		.syntax unified
 648              		.thumb
 649              		.thumb_func
 650              		.fpu fpv5-sp-d16
 652              	Ft_Esd_SpinBox_Theme__Default:
 653              	.LFB30:
  14:FT_Esd_Widgets/Ft_Esd_SpinBox__Generated.c **** ft_int16_t Ft_Esd_SpinBox_X__Default(void *context) { return 50; }
 654              		.loc 1 14 0
 655              		.cfi_startproc
 656              		@ args = 0, pretend = 0, frame = 0
 657              		@ frame_needed = 0, uses_anonymous_args = 0
 658              	.LVL71:
 659 0000 08B5     		push	{r3, lr}
 660              	.LCFI6:
 661              		.cfi_def_cfa_offset 8
 662              		.cfi_offset 3, -8
 663              		.cfi_offset 14, -4
  14:FT_Esd_Widgets/Ft_Esd_SpinBox__Generated.c **** ft_int16_t Ft_Esd_SpinBox_X__Default(void *context) { return 50; }
 664              		.loc 1 14 0
 665 0002 FFF7FEFF 		bl	Ft_Esd_Theme_GetCurrent
 666              	.LVL72:
 667 0006 08BD     		pop	{r3, pc}
 668              		.cfi_endproc
 669              	.LFE30:
 671              		.section	.text.Ft_Esd_SpinBox_LayoutSplit_Length__Property,"ax",%progbits
 672              		.align	1
ARM GAS  /var/folders/n8/cvzdcwlj0vl4g_wtyz1ffy300000gn/T//cc48gXeA.s 			page 19


 673              		.syntax unified
 674              		.thumb
 675              		.thumb_func
 676              		.fpu fpv5-sp-d16
 678              	Ft_Esd_SpinBox_LayoutSplit_Length__Property:
 679              	.LFB52:
 198:FT_Esd_Widgets/Ft_Esd_SpinBox__Generated.c **** 	Ft_Esd_SpinBox *context = (Ft_Esd_SpinBox *)c;
 680              		.loc 1 198 0
 681              		.cfi_startproc
 682              		@ args = 0, pretend = 0, frame = 0
 683              		@ frame_needed = 0, uses_anonymous_args = 0
 684              	.LVL73:
 685 0000 08B5     		push	{r3, lr}
 686              	.LCFI7:
 687              		.cfi_def_cfa_offset 8
 688              		.cfi_offset 3, -8
 689              		.cfi_offset 14, -4
 690              	.LVL74:
 201:FT_Esd_Widgets/Ft_Esd_SpinBox__Generated.c **** }
 691              		.loc 1 201 0
 692 0002 5C30     		adds	r0, r0, #92
 693              	.LVL75:
 694 0004 FFF7FEFF 		bl	LayoutMargin_OutHeight
 695              	.LVL76:
 202:FT_Esd_Widgets/Ft_Esd_SpinBox__Generated.c **** 
 696              		.loc 1 202 0
 697 0008 08BD     		pop	{r3, pc}
 698              		.cfi_endproc
 699              	.LFE52:
 701              		.section	.text.Ft_Esd_SpinBox_Push_Down_Height__Property,"ax",%progbits
 702              		.align	1
 703              		.syntax unified
 704              		.thumb
 705              		.thumb_func
 706              		.fpu fpv5-sp-d16
 708              	Ft_Esd_SpinBox_Push_Down_Height__Property:
 709              	.LFB70:
 367:FT_Esd_Widgets/Ft_Esd_SpinBox__Generated.c **** 	Ft_Esd_SpinBox *context = (Ft_Esd_SpinBox *)c;
 710              		.loc 1 367 0
 711              		.cfi_startproc
 712              		@ args = 0, pretend = 0, frame = 0
 713              		@ frame_needed = 0, uses_anonymous_args = 0
 714              	.LVL77:
 715 0000 08B5     		push	{r3, lr}
 716              	.LCFI8:
 717              		.cfi_def_cfa_offset 8
 718              		.cfi_offset 3, -8
 719              		.cfi_offset 14, -4
 720              	.LVL78:
 370:FT_Esd_Widgets/Ft_Esd_SpinBox__Generated.c **** 	if (if_5)
 721              		.loc 1 370 0
 722 0002 90F88C30 		ldrb	r3, [r0, #140]	@ zero_extendqisi2
 723              	.LVL79:
 371:FT_Esd_Widgets/Ft_Esd_SpinBox__Generated.c **** 	{
 724              		.loc 1 371 0
 725 0006 23B9     		cbnz	r3, .L42
 379:FT_Esd_Widgets/Ft_Esd_SpinBox__Generated.c **** 	}
ARM GAS  /var/folders/n8/cvzdcwlj0vl4g_wtyz1ffy300000gn/T//cc48gXeA.s 			page 20


 726              		.loc 1 379 0
 727 0008 4030     		adds	r0, r0, #64
 728              	.LVL80:
 729 000a FFF7FEFF 		bl	LayoutSplit_SecondLength
 730              	.LVL81:
 731 000e 00B2     		sxth	r0, r0
 732              	.L40:
 381:FT_Esd_Widgets/Ft_Esd_SpinBox__Generated.c **** 
 733              		.loc 1 381 0
 734 0010 08BD     		pop	{r3, pc}
 735              	.LVL82:
 736              	.L42:
 737              	.LBB14:
 373:FT_Esd_Widgets/Ft_Esd_SpinBox__Generated.c **** 		int right_12 = 1L;
 738              		.loc 1 373 0
 739 0012 5C30     		adds	r0, r0, #92
 740              	.LVL83:
 741 0014 FFF7FEFF 		bl	LayoutMargin_OutHeight
 742              	.LVL84:
 375:FT_Esd_Widgets/Ft_Esd_SpinBox__Generated.c **** 	}
 743              		.loc 1 375 0
 744 0018 0130     		adds	r0, r0, #1
 745              	.LVL85:
 746 001a 00B2     		sxth	r0, r0
 747              	.LVL86:
 748 001c F8E7     		b	.L40
 749              	.LBE14:
 750              		.cfi_endproc
 751              	.LFE70:
 753              		.section	.text.Ft_Esd_SpinBox_Push_Down_Width__Property,"ax",%progbits
 754              		.align	1
 755              		.syntax unified
 756              		.thumb
 757              		.thumb_func
 758              		.fpu fpv5-sp-d16
 760              	Ft_Esd_SpinBox_Push_Down_Width__Property:
 761              	.LFB69:
 360:FT_Esd_Widgets/Ft_Esd_SpinBox__Generated.c **** 	Ft_Esd_SpinBox *context = (Ft_Esd_SpinBox *)c;
 762              		.loc 1 360 0
 763              		.cfi_startproc
 764              		@ args = 0, pretend = 0, frame = 0
 765              		@ frame_needed = 0, uses_anonymous_args = 0
 766              	.LVL87:
 767 0000 08B5     		push	{r3, lr}
 768              	.LCFI9:
 769              		.cfi_def_cfa_offset 8
 770              		.cfi_offset 3, -8
 771              		.cfi_offset 14, -4
 772              	.LVL88:
 363:FT_Esd_Widgets/Ft_Esd_SpinBox__Generated.c **** }
 773              		.loc 1 363 0
 774 0002 7430     		adds	r0, r0, #116
 775              	.LVL89:
 776 0004 FFF7FEFF 		bl	LayoutSplit_SecondLength
 777              	.LVL90:
 364:FT_Esd_Widgets/Ft_Esd_SpinBox__Generated.c **** 
 778              		.loc 1 364 0
ARM GAS  /var/folders/n8/cvzdcwlj0vl4g_wtyz1ffy300000gn/T//cc48gXeA.s 			page 21


 779 0008 00B2     		sxth	r0, r0
 780 000a 08BD     		pop	{r3, pc}
 781              		.cfi_endproc
 782              	.LFE69:
 784              		.section	.text.Ft_Esd_SpinBox_Push_Up_Width__Property,"ax",%progbits
 785              		.align	1
 786              		.syntax unified
 787              		.thumb
 788              		.thumb_func
 789              		.fpu fpv5-sp-d16
 791              	Ft_Esd_SpinBox_Push_Up_Width__Property:
 792              	.LFB63:
 287:FT_Esd_Widgets/Ft_Esd_SpinBox__Generated.c **** 	Ft_Esd_SpinBox *context = (Ft_Esd_SpinBox *)c;
 793              		.loc 1 287 0
 794              		.cfi_startproc
 795              		@ args = 0, pretend = 0, frame = 0
 796              		@ frame_needed = 0, uses_anonymous_args = 0
 797              	.LVL91:
 798 0000 08B5     		push	{r3, lr}
 799              	.LCFI10:
 800              		.cfi_def_cfa_offset 8
 801              		.cfi_offset 3, -8
 802              		.cfi_offset 14, -4
 803              	.LVL92:
 290:FT_Esd_Widgets/Ft_Esd_SpinBox__Generated.c **** }
 804              		.loc 1 290 0
 805 0002 7430     		adds	r0, r0, #116
 806              	.LVL93:
 807 0004 FFF7FEFF 		bl	LayoutSplit_SecondLength
 808              	.LVL94:
 291:FT_Esd_Widgets/Ft_Esd_SpinBox__Generated.c **** 
 809              		.loc 1 291 0
 810 0008 00B2     		sxth	r0, r0
 811 000a 08BD     		pop	{r3, pc}
 812              		.cfi_endproc
 813              	.LFE63:
 815              		.section	.text.Ft_Esd_SpinBox_Push_Up_Y__Property,"ax",%progbits
 816              		.align	1
 817              		.syntax unified
 818              		.thumb
 819              		.thumb_func
 820              		.fpu fpv5-sp-d16
 822              	Ft_Esd_SpinBox_Push_Up_Y__Property:
 823              	.LFB62:
 280:FT_Esd_Widgets/Ft_Esd_SpinBox__Generated.c **** 	Ft_Esd_SpinBox *context = (Ft_Esd_SpinBox *)c;
 824              		.loc 1 280 0
 825              		.cfi_startproc
 826              		@ args = 0, pretend = 0, frame = 0
 827              		@ frame_needed = 0, uses_anonymous_args = 0
 828              	.LVL95:
 829 0000 08B5     		push	{r3, lr}
 830              	.LCFI11:
 831              		.cfi_def_cfa_offset 8
 832              		.cfi_offset 3, -8
 833              		.cfi_offset 14, -4
 834              	.LVL96:
 283:FT_Esd_Widgets/Ft_Esd_SpinBox__Generated.c **** }
ARM GAS  /var/folders/n8/cvzdcwlj0vl4g_wtyz1ffy300000gn/T//cc48gXeA.s 			page 22


 835              		.loc 1 283 0
 836 0002 4030     		adds	r0, r0, #64
 837              	.LVL97:
 838 0004 FFF7FEFF 		bl	LayoutSplit_FirstPos
 839              	.LVL98:
 284:FT_Esd_Widgets/Ft_Esd_SpinBox__Generated.c **** 
 840              		.loc 1 284 0
 841 0008 00B2     		sxth	r0, r0
 842 000a 08BD     		pop	{r3, pc}
 843              		.cfi_endproc
 844              	.LFE62:
 846              		.section	.text.Ft_Esd_SpinBox_Push_Down_Y__Property,"ax",%progbits
 847              		.align	1
 848              		.syntax unified
 849              		.thumb
 850              		.thumb_func
 851              		.fpu fpv5-sp-d16
 853              	Ft_Esd_SpinBox_Push_Down_Y__Property:
 854              	.LFB68:
 345:FT_Esd_Widgets/Ft_Esd_SpinBox__Generated.c **** 	Ft_Esd_SpinBox *context = (Ft_Esd_SpinBox *)c;
 855              		.loc 1 345 0
 856              		.cfi_startproc
 857              		@ args = 0, pretend = 0, frame = 0
 858              		@ frame_needed = 0, uses_anonymous_args = 0
 859              	.LVL99:
 860 0000 08B5     		push	{r3, lr}
 861              	.LCFI12:
 862              		.cfi_def_cfa_offset 8
 863              		.cfi_offset 3, -8
 864              		.cfi_offset 14, -4
 865              	.LVL100:
 348:FT_Esd_Widgets/Ft_Esd_SpinBox__Generated.c **** 	if (if_4)
 866              		.loc 1 348 0
 867 0002 90F88C30 		ldrb	r3, [r0, #140]	@ zero_extendqisi2
 868              	.LVL101:
 349:FT_Esd_Widgets/Ft_Esd_SpinBox__Generated.c **** 	{
 869              		.loc 1 349 0
 870 0006 23B9     		cbnz	r3, .L53
 355:FT_Esd_Widgets/Ft_Esd_SpinBox__Generated.c **** 	}
 871              		.loc 1 355 0
 872 0008 4030     		adds	r0, r0, #64
 873              	.LVL102:
 874 000a FFF7FEFF 		bl	LayoutSplit_SecondPos
 875              	.LVL103:
 876 000e 00B2     		sxth	r0, r0
 877              	.L51:
 357:FT_Esd_Widgets/Ft_Esd_SpinBox__Generated.c **** 
 878              		.loc 1 357 0
 879 0010 08BD     		pop	{r3, pc}
 880              	.LVL104:
 881              	.L53:
 351:FT_Esd_Widgets/Ft_Esd_SpinBox__Generated.c **** 	}
 882              		.loc 1 351 0
 883 0012 4030     		adds	r0, r0, #64
 884              	.LVL105:
 885 0014 FFF7FEFF 		bl	LayoutSplit_FirstPos
 886              	.LVL106:
ARM GAS  /var/folders/n8/cvzdcwlj0vl4g_wtyz1ffy300000gn/T//cc48gXeA.s 			page 23


 887 0018 00B2     		sxth	r0, r0
 888 001a F9E7     		b	.L51
 889              		.cfi_endproc
 890              	.LFE68:
 892              		.section	.text.Ft_Esd_SpinBox_Push_Up_X__Property,"ax",%progbits
 893              		.align	1
 894              		.syntax unified
 895              		.thumb
 896              		.thumb_func
 897              		.fpu fpv5-sp-d16
 899              	Ft_Esd_SpinBox_Push_Up_X__Property:
 900              	.LFB61:
 273:FT_Esd_Widgets/Ft_Esd_SpinBox__Generated.c **** 	Ft_Esd_SpinBox *context = (Ft_Esd_SpinBox *)c;
 901              		.loc 1 273 0
 902              		.cfi_startproc
 903              		@ args = 0, pretend = 0, frame = 0
 904              		@ frame_needed = 0, uses_anonymous_args = 0
 905              	.LVL107:
 906 0000 08B5     		push	{r3, lr}
 907              	.LCFI13:
 908              		.cfi_def_cfa_offset 8
 909              		.cfi_offset 3, -8
 910              		.cfi_offset 14, -4
 911              	.LVL108:
 276:FT_Esd_Widgets/Ft_Esd_SpinBox__Generated.c **** }
 912              		.loc 1 276 0
 913 0002 7430     		adds	r0, r0, #116
 914              	.LVL109:
 915 0004 FFF7FEFF 		bl	LayoutSplit_SecondPos
 916              	.LVL110:
 277:FT_Esd_Widgets/Ft_Esd_SpinBox__Generated.c **** 
 917              		.loc 1 277 0
 918 0008 00B2     		sxth	r0, r0
 919 000a 08BD     		pop	{r3, pc}
 920              		.cfi_endproc
 921              	.LFE61:
 923              		.section	.text.Ft_Esd_SpinBox_Push_Down_X__Property,"ax",%progbits
 924              		.align	1
 925              		.syntax unified
 926              		.thumb
 927              		.thumb_func
 928              		.fpu fpv5-sp-d16
 930              	Ft_Esd_SpinBox_Push_Down_X__Property:
 931              	.LFB67:
 330:FT_Esd_Widgets/Ft_Esd_SpinBox__Generated.c **** 	Ft_Esd_SpinBox *context = (Ft_Esd_SpinBox *)c;
 932              		.loc 1 330 0
 933              		.cfi_startproc
 934              		@ args = 0, pretend = 0, frame = 0
 935              		@ frame_needed = 0, uses_anonymous_args = 0
 936              	.LVL111:
 937 0000 08B5     		push	{r3, lr}
 938              	.LCFI14:
 939              		.cfi_def_cfa_offset 8
 940              		.cfi_offset 3, -8
 941              		.cfi_offset 14, -4
 942              	.LVL112:
 333:FT_Esd_Widgets/Ft_Esd_SpinBox__Generated.c **** 	if (if_3)
ARM GAS  /var/folders/n8/cvzdcwlj0vl4g_wtyz1ffy300000gn/T//cc48gXeA.s 			page 24


 943              		.loc 1 333 0
 944 0002 90F88C30 		ldrb	r3, [r0, #140]	@ zero_extendqisi2
 945              	.LVL113:
 334:FT_Esd_Widgets/Ft_Esd_SpinBox__Generated.c **** 	{
 946              		.loc 1 334 0
 947 0006 23B9     		cbnz	r3, .L60
 340:FT_Esd_Widgets/Ft_Esd_SpinBox__Generated.c **** 	}
 948              		.loc 1 340 0
 949 0008 7430     		adds	r0, r0, #116
 950              	.LVL114:
 951 000a FFF7FEFF 		bl	LayoutSplit_SecondPos
 952              	.LVL115:
 953 000e 00B2     		sxth	r0, r0
 954              	.L58:
 342:FT_Esd_Widgets/Ft_Esd_SpinBox__Generated.c **** 
 955              		.loc 1 342 0
 956 0010 08BD     		pop	{r3, pc}
 957              	.LVL116:
 958              	.L60:
 336:FT_Esd_Widgets/Ft_Esd_SpinBox__Generated.c **** 	}
 959              		.loc 1 336 0
 960 0012 5C30     		adds	r0, r0, #92
 961              	.LVL117:
 962 0014 FFF7FEFF 		bl	LayoutMargin_OutX
 963              	.LVL118:
 964 0018 00B2     		sxth	r0, r0
 965 001a F9E7     		b	.L58
 966              		.cfi_endproc
 967              	.LFE67:
 969              		.section	.text.Ft_Esd_SpinBox_LayoutSplit_1_Pos__Property,"ax",%progbits
 970              		.align	1
 971              		.syntax unified
 972              		.thumb
 973              		.thumb_func
 974              		.fpu fpv5-sp-d16
 976              	Ft_Esd_SpinBox_LayoutSplit_1_Pos__Property:
 977              	.LFB58:
 248:FT_Esd_Widgets/Ft_Esd_SpinBox__Generated.c **** 	Ft_Esd_SpinBox *context = (Ft_Esd_SpinBox *)c;
 978              		.loc 1 248 0
 979              		.cfi_startproc
 980              		@ args = 0, pretend = 0, frame = 0
 981              		@ frame_needed = 0, uses_anonymous_args = 0
 982              	.LVL119:
 983 0000 08B5     		push	{r3, lr}
 984              	.LCFI15:
 985              		.cfi_def_cfa_offset 8
 986              		.cfi_offset 3, -8
 987              		.cfi_offset 14, -4
 988              	.LVL120:
 251:FT_Esd_Widgets/Ft_Esd_SpinBox__Generated.c **** }
 989              		.loc 1 251 0
 990 0002 5C30     		adds	r0, r0, #92
 991              	.LVL121:
 992 0004 FFF7FEFF 		bl	LayoutMargin_OutX
 993              	.LVL122:
 252:FT_Esd_Widgets/Ft_Esd_SpinBox__Generated.c **** 
 994              		.loc 1 252 0
ARM GAS  /var/folders/n8/cvzdcwlj0vl4g_wtyz1ffy300000gn/T//cc48gXeA.s 			page 25


 995 0008 08BD     		pop	{r3, pc}
 996              		.cfi_endproc
 997              	.LFE58:
 999              		.section	.text.Ft_Esd_SpinBox_Push_Up_Height__Property,"ax",%progbits
 1000              		.align	1
 1001              		.syntax unified
 1002              		.thumb
 1003              		.thumb_func
 1004              		.fpu fpv5-sp-d16
 1006              	Ft_Esd_SpinBox_Push_Up_Height__Property:
 1007              	.LFB64:
 294:FT_Esd_Widgets/Ft_Esd_SpinBox__Generated.c **** 	Ft_Esd_SpinBox *context = (Ft_Esd_SpinBox *)c;
 1008              		.loc 1 294 0
 1009              		.cfi_startproc
 1010              		@ args = 0, pretend = 0, frame = 0
 1011              		@ frame_needed = 0, uses_anonymous_args = 0
 1012              	.LVL123:
 1013 0000 08B5     		push	{r3, lr}
 1014              	.LCFI16:
 1015              		.cfi_def_cfa_offset 8
 1016              		.cfi_offset 3, -8
 1017              		.cfi_offset 14, -4
 1018              	.LVL124:
 297:FT_Esd_Widgets/Ft_Esd_SpinBox__Generated.c **** 	if (if_2)
 1019              		.loc 1 297 0
 1020 0002 90F88C30 		ldrb	r3, [r0, #140]	@ zero_extendqisi2
 1021              	.LVL125:
 298:FT_Esd_Widgets/Ft_Esd_SpinBox__Generated.c **** 	{
 1022              		.loc 1 298 0
 1023 0006 23B9     		cbnz	r3, .L67
 306:FT_Esd_Widgets/Ft_Esd_SpinBox__Generated.c **** 	}
 1024              		.loc 1 306 0
 1025 0008 4030     		adds	r0, r0, #64
 1026              	.LVL126:
 1027 000a FFF7FEFF 		bl	LayoutSplit_FirstLength
 1028              	.LVL127:
 1029 000e 00B2     		sxth	r0, r0
 1030              	.L65:
 308:FT_Esd_Widgets/Ft_Esd_SpinBox__Generated.c **** 
 1031              		.loc 1 308 0
 1032 0010 08BD     		pop	{r3, pc}
 1033              	.LVL128:
 1034              	.L67:
 1035              	.LBB15:
 300:FT_Esd_Widgets/Ft_Esd_SpinBox__Generated.c **** 		int right_10 = 1L;
 1036              		.loc 1 300 0
 1037 0012 5C30     		adds	r0, r0, #92
 1038              	.LVL129:
 1039 0014 FFF7FEFF 		bl	LayoutMargin_OutHeight
 1040              	.LVL130:
 302:FT_Esd_Widgets/Ft_Esd_SpinBox__Generated.c **** 	}
 1041              		.loc 1 302 0
 1042 0018 0130     		adds	r0, r0, #1
 1043              	.LVL131:
 1044 001a 00B2     		sxth	r0, r0
 1045              	.LVL132:
 1046 001c F8E7     		b	.L65
ARM GAS  /var/folders/n8/cvzdcwlj0vl4g_wtyz1ffy300000gn/T//cc48gXeA.s 			page 26


 1047              	.LBE15:
 1048              		.cfi_endproc
 1049              	.LFE64:
 1051              		.section	.text.Ft_Esd_SpinBox_LayoutSplit_1_Length__Property,"ax",%progbits
 1052              		.align	1
 1053              		.syntax unified
 1054              		.thumb
 1055              		.thumb_func
 1056              		.fpu fpv5-sp-d16
 1058              	Ft_Esd_SpinBox_LayoutSplit_1_Length__Property:
 1059              	.LFB59:
 255:FT_Esd_Widgets/Ft_Esd_SpinBox__Generated.c **** 	Ft_Esd_SpinBox *context = (Ft_Esd_SpinBox *)c;
 1060              		.loc 1 255 0
 1061              		.cfi_startproc
 1062              		@ args = 0, pretend = 0, frame = 0
 1063              		@ frame_needed = 0, uses_anonymous_args = 0
 1064              	.LVL133:
 1065 0000 08B5     		push	{r3, lr}
 1066              	.LCFI17:
 1067              		.cfi_def_cfa_offset 8
 1068              		.cfi_offset 3, -8
 1069              		.cfi_offset 14, -4
 1070              	.LVL134:
 258:FT_Esd_Widgets/Ft_Esd_SpinBox__Generated.c **** }
 1071              		.loc 1 258 0
 1072 0002 5C30     		adds	r0, r0, #92
 1073              	.LVL135:
 1074 0004 FFF7FEFF 		bl	LayoutMargin_OutWidth
 1075              	.LVL136:
 259:FT_Esd_Widgets/Ft_Esd_SpinBox__Generated.c **** 
 1076              		.loc 1 259 0
 1077 0008 08BD     		pop	{r3, pc}
 1078              		.cfi_endproc
 1079              	.LFE59:
 1081              		.section	.text.Ft_Esd_SpinBox_LayoutSplit_Pos__Property,"ax",%progbits
 1082              		.align	1
 1083              		.syntax unified
 1084              		.thumb
 1085              		.thumb_func
 1086              		.fpu fpv5-sp-d16
 1088              	Ft_Esd_SpinBox_LayoutSplit_Pos__Property:
 1089              	.LFB51:
 191:FT_Esd_Widgets/Ft_Esd_SpinBox__Generated.c **** 	Ft_Esd_SpinBox *context = (Ft_Esd_SpinBox *)c;
 1090              		.loc 1 191 0
 1091              		.cfi_startproc
 1092              		@ args = 0, pretend = 0, frame = 0
 1093              		@ frame_needed = 0, uses_anonymous_args = 0
 1094              	.LVL137:
 1095 0000 08B5     		push	{r3, lr}
 1096              	.LCFI18:
 1097              		.cfi_def_cfa_offset 8
 1098              		.cfi_offset 3, -8
 1099              		.cfi_offset 14, -4
 1100              	.LVL138:
 194:FT_Esd_Widgets/Ft_Esd_SpinBox__Generated.c **** }
 1101              		.loc 1 194 0
 1102 0002 5C30     		adds	r0, r0, #92
ARM GAS  /var/folders/n8/cvzdcwlj0vl4g_wtyz1ffy300000gn/T//cc48gXeA.s 			page 27


 1103              	.LVL139:
 1104 0004 FFF7FEFF 		bl	LayoutMargin_OutY
 1105              	.LVL140:
 195:FT_Esd_Widgets/Ft_Esd_SpinBox__Generated.c **** 
 1106              		.loc 1 195 0
 1107 0008 08BD     		pop	{r3, pc}
 1108              		.cfi_endproc
 1109              	.LFE51:
 1111              		.section	.text.Ft_Esd_SpinBox__Initializer,"ax",%progbits
 1112              		.align	1
 1113              		.global	Ft_Esd_SpinBox__Initializer
 1114              		.syntax unified
 1115              		.thumb
 1116              		.thumb_func
 1117              		.fpu fpv5-sp-d16
 1119              	Ft_Esd_SpinBox__Initializer:
 1120              	.LFB46:
  56:FT_Esd_Widgets/Ft_Esd_SpinBox__Generated.c **** 	context->Parent = 0;
 1121              		.loc 1 56 0
 1122              		.cfi_startproc
 1123              		@ args = 0, pretend = 0, frame = 0
 1124              		@ frame_needed = 0, uses_anonymous_args = 0
 1125              	.LVL141:
 1126 0000 70B5     		push	{r4, r5, r6, lr}
 1127              	.LCFI19:
 1128              		.cfi_def_cfa_offset 16
 1129              		.cfi_offset 4, -16
 1130              		.cfi_offset 5, -12
 1131              		.cfi_offset 6, -8
 1132              		.cfi_offset 14, -4
 1133 0002 0446     		mov	r4, r0
  57:FT_Esd_Widgets/Ft_Esd_SpinBox__Generated.c **** 	context->Theme = Ft_Esd_SpinBox_Theme__Default;
 1134              		.loc 1 57 0
 1135 0004 0025     		movs	r5, #0
 1136 0006 0560     		str	r5, [r0]
  58:FT_Esd_Widgets/Ft_Esd_SpinBox__Generated.c **** 	Ft_Esd_TouchTag__Initializer(&context->Touch_Tag);
 1137              		.loc 1 58 0
 1138 0008 3F4B     		ldr	r3, .L74
 1139 000a 4360     		str	r3, [r0, #4]
  59:FT_Esd_Widgets/Ft_Esd_SpinBox__Generated.c **** 	context->Touch_Tag.Parent = context;
 1140              		.loc 1 59 0
 1141 000c 0830     		adds	r0, r0, #8
 1142              	.LVL142:
 1143 000e FFF7FEFF 		bl	Ft_Esd_TouchTag__Initializer
 1144              	.LVL143:
  60:FT_Esd_Widgets/Ft_Esd_SpinBox__Generated.c **** 	context->X = Ft_Esd_SpinBox_X__Default;
 1145              		.loc 1 60 0
 1146 0012 A460     		str	r4, [r4, #8]
  61:FT_Esd_Widgets/Ft_Esd_SpinBox__Generated.c **** 	context->Y = Ft_Esd_SpinBox_Y__Default;
 1147              		.loc 1 61 0
 1148 0014 3D4B     		ldr	r3, .L74+4
 1149 0016 2362     		str	r3, [r4, #32]
  62:FT_Esd_Widgets/Ft_Esd_SpinBox__Generated.c **** 	context->Width = Ft_Esd_SpinBox_Width__Default;
 1150              		.loc 1 62 0
 1151 0018 3D4B     		ldr	r3, .L74+8
 1152 001a 6362     		str	r3, [r4, #36]
  63:FT_Esd_Widgets/Ft_Esd_SpinBox__Generated.c **** 	context->Height = Ft_Esd_SpinBox_Height__Default;
ARM GAS  /var/folders/n8/cvzdcwlj0vl4g_wtyz1ffy300000gn/T//cc48gXeA.s 			page 28


 1153              		.loc 1 63 0
 1154 001c 3D4B     		ldr	r3, .L74+12
 1155 001e A362     		str	r3, [r4, #40]
  64:FT_Esd_Widgets/Ft_Esd_SpinBox__Generated.c **** 	context->Step = Ft_Esd_SpinBox_Step__Default;
 1156              		.loc 1 64 0
 1157 0020 3D4B     		ldr	r3, .L74+16
 1158 0022 E362     		str	r3, [r4, #44]
  65:FT_Esd_Widgets/Ft_Esd_SpinBox__Generated.c **** 	context->Increased = Ft_Esd_Noop;
 1159              		.loc 1 65 0
 1160 0024 3D4B     		ldr	r3, .L74+20
 1161 0026 2363     		str	r3, [r4, #48]
  66:FT_Esd_Widgets/Ft_Esd_SpinBox__Generated.c **** 	context->Value = 0L;
 1162              		.loc 1 66 0
 1163 0028 3D4E     		ldr	r6, .L74+24
 1164 002a 6663     		str	r6, [r4, #52]
  67:FT_Esd_Widgets/Ft_Esd_SpinBox__Generated.c **** 	context->Changed = Ft_Esd_SpinBox_Changed__Noop;
 1165              		.loc 1 67 0
 1166 002c A563     		str	r5, [r4, #56]
  68:FT_Esd_Widgets/Ft_Esd_SpinBox__Generated.c **** 	LayoutSplit__Initializer(&context->LayoutSplit);
 1167              		.loc 1 68 0
 1168 002e 3D4B     		ldr	r3, .L74+28
 1169 0030 E363     		str	r3, [r4, #60]
  69:FT_Esd_Widgets/Ft_Esd_SpinBox__Generated.c **** 	context->LayoutSplit.Parent = context;
 1170              		.loc 1 69 0
 1171 0032 04F14000 		add	r0, r4, #64
 1172 0036 FFF7FEFF 		bl	LayoutSplit__Initializer
 1173              	.LVL144:
  70:FT_Esd_Widgets/Ft_Esd_SpinBox__Generated.c **** 	context->LayoutSplit.Pos = Ft_Esd_SpinBox_LayoutSplit_Pos__Property;
 1174              		.loc 1 70 0
 1175 003a 2464     		str	r4, [r4, #64]
  71:FT_Esd_Widgets/Ft_Esd_SpinBox__Generated.c **** 	context->LayoutSplit.Length = Ft_Esd_SpinBox_LayoutSplit_Length__Property;
 1176              		.loc 1 71 0
 1177 003c 3A4B     		ldr	r3, .L74+32
 1178 003e 6364     		str	r3, [r4, #68]
  72:FT_Esd_Widgets/Ft_Esd_SpinBox__Generated.c **** 	context->LayoutSplit.Numerator = Ft_Esd_SpinBox_LayoutSplit_Numerator__Property;
 1179              		.loc 1 72 0
 1180 0040 3A4B     		ldr	r3, .L74+36
 1181 0042 A364     		str	r3, [r4, #72]
  73:FT_Esd_Widgets/Ft_Esd_SpinBox__Generated.c **** 	context->LayoutSplit.Denominator = Ft_Esd_SpinBox_LayoutSplit_Denominator__Property;
 1182              		.loc 1 73 0
 1183 0044 3A4B     		ldr	r3, .L74+40
 1184 0046 E364     		str	r3, [r4, #76]
  74:FT_Esd_Widgets/Ft_Esd_SpinBox__Generated.c **** 	context->LayoutSplit.Margin = Ft_Esd_SpinBox_LayoutSplit_Margin__Property;
 1185              		.loc 1 74 0
 1186 0048 3A4B     		ldr	r3, .L74+44
 1187 004a 2365     		str	r3, [r4, #80]
  75:FT_Esd_Widgets/Ft_Esd_SpinBox__Generated.c **** 	context->Decreased = Ft_Esd_Noop;
 1188              		.loc 1 75 0
 1189 004c 3A4B     		ldr	r3, .L74+48
 1190 004e 6365     		str	r3, [r4, #84]
  76:FT_Esd_Widgets/Ft_Esd_SpinBox__Generated.c **** 	LayoutMargin__Initializer(&context->LayoutMargin);
 1191              		.loc 1 76 0
 1192 0050 A665     		str	r6, [r4, #88]
  77:FT_Esd_Widgets/Ft_Esd_SpinBox__Generated.c **** 	context->LayoutMargin.Parent = context;
 1193              		.loc 1 77 0
 1194 0052 04F15C00 		add	r0, r4, #92
 1195 0056 FFF7FEFF 		bl	LayoutMargin__Initializer
ARM GAS  /var/folders/n8/cvzdcwlj0vl4g_wtyz1ffy300000gn/T//cc48gXeA.s 			page 29


 1196              	.LVL145:
  78:FT_Esd_Widgets/Ft_Esd_SpinBox__Generated.c **** 	context->LayoutMargin.X = Ft_Esd_SpinBox_LayoutMargin_X__Property;
 1197              		.loc 1 78 0
 1198 005a E465     		str	r4, [r4, #92]
  79:FT_Esd_Widgets/Ft_Esd_SpinBox__Generated.c **** 	context->LayoutMargin.Y = Ft_Esd_SpinBox_LayoutMargin_Y__Property;
 1199              		.loc 1 79 0
 1200 005c 374B     		ldr	r3, .L74+52
 1201 005e 2366     		str	r3, [r4, #96]
  80:FT_Esd_Widgets/Ft_Esd_SpinBox__Generated.c **** 	context->LayoutMargin.Width = Ft_Esd_SpinBox_LayoutMargin_Width__Property;
 1202              		.loc 1 80 0
 1203 0060 374B     		ldr	r3, .L74+56
 1204 0062 6366     		str	r3, [r4, #100]
  81:FT_Esd_Widgets/Ft_Esd_SpinBox__Generated.c **** 	context->LayoutMargin.Height = Ft_Esd_SpinBox_LayoutMargin_Height__Property;
 1205              		.loc 1 81 0
 1206 0064 374B     		ldr	r3, .L74+60
 1207 0066 A366     		str	r3, [r4, #104]
  82:FT_Esd_Widgets/Ft_Esd_SpinBox__Generated.c **** 	context->LayoutMargin.Margin = Ft_Esd_SpinBox_LayoutMargin_Margin__Property;
 1208              		.loc 1 82 0
 1209 0068 374B     		ldr	r3, .L74+64
 1210 006a E366     		str	r3, [r4, #108]
  83:FT_Esd_Widgets/Ft_Esd_SpinBox__Generated.c **** 	LayoutSplit__Initializer(&context->LayoutSplit_1);
 1211              		.loc 1 83 0
 1212 006c 374B     		ldr	r3, .L74+68
 1213 006e 2367     		str	r3, [r4, #112]
  84:FT_Esd_Widgets/Ft_Esd_SpinBox__Generated.c **** 	context->LayoutSplit_1.Parent = context;
 1214              		.loc 1 84 0
 1215 0070 04F17400 		add	r0, r4, #116
 1216 0074 FFF7FEFF 		bl	LayoutSplit__Initializer
 1217              	.LVL146:
  85:FT_Esd_Widgets/Ft_Esd_SpinBox__Generated.c **** 	context->LayoutSplit_1.Pos = Ft_Esd_SpinBox_LayoutSplit_1_Pos__Property;
 1218              		.loc 1 85 0
 1219 0078 6467     		str	r4, [r4, #116]
  86:FT_Esd_Widgets/Ft_Esd_SpinBox__Generated.c **** 	context->LayoutSplit_1.Length = Ft_Esd_SpinBox_LayoutSplit_1_Length__Property;
 1220              		.loc 1 86 0
 1221 007a 354B     		ldr	r3, .L74+72
 1222 007c A367     		str	r3, [r4, #120]
  87:FT_Esd_Widgets/Ft_Esd_SpinBox__Generated.c **** 	context->LayoutSplit_1.Numerator = Ft_Esd_SpinBox_LayoutSplit_1_Numerator__Property;
 1223              		.loc 1 87 0
 1224 007e 354B     		ldr	r3, .L74+76
 1225 0080 E367     		str	r3, [r4, #124]
  88:FT_Esd_Widgets/Ft_Esd_SpinBox__Generated.c **** 	context->LayoutSplit_1.Denominator = Ft_Esd_SpinBox_LayoutSplit_1_Denominator__Property;
 1226              		.loc 1 88 0
 1227 0082 354B     		ldr	r3, .L74+80
 1228 0084 C4F88030 		str	r3, [r4, #128]
  89:FT_Esd_Widgets/Ft_Esd_SpinBox__Generated.c **** 	context->LayoutSplit_1.Margin = Ft_Esd_SpinBox_LayoutSplit_1_Margin__Property;
 1229              		.loc 1 89 0
 1230 0088 344B     		ldr	r3, .L74+84
 1231 008a C4F88430 		str	r3, [r4, #132]
  90:FT_Esd_Widgets/Ft_Esd_SpinBox__Generated.c **** 	context->SideButtons = 0;
 1232              		.loc 1 90 0
 1233 008e 344B     		ldr	r3, .L74+88
 1234 0090 C4F88830 		str	r3, [r4, #136]
  91:FT_Esd_Widgets/Ft_Esd_SpinBox__Generated.c **** 	Ft_Esd_PushButton__Initializer(&context->Push_Up);
 1235              		.loc 1 91 0
 1236 0094 84F88C50 		strb	r5, [r4, #140]
  92:FT_Esd_Widgets/Ft_Esd_SpinBox__Generated.c **** 	context->Push_Up.Parent = context;
 1237              		.loc 1 92 0
ARM GAS  /var/folders/n8/cvzdcwlj0vl4g_wtyz1ffy300000gn/T//cc48gXeA.s 			page 30


 1238 0098 04F19000 		add	r0, r4, #144
 1239 009c FFF7FEFF 		bl	Ft_Esd_PushButton__Initializer
 1240              	.LVL147:
  93:FT_Esd_Widgets/Ft_Esd_SpinBox__Generated.c **** 	context->Push_Up.X = Ft_Esd_SpinBox_Push_Up_X__Property;
 1241              		.loc 1 93 0
 1242 00a0 C4F89040 		str	r4, [r4, #144]
  94:FT_Esd_Widgets/Ft_Esd_SpinBox__Generated.c **** 	context->Push_Up.Y = Ft_Esd_SpinBox_Push_Up_Y__Property;
 1243              		.loc 1 94 0
 1244 00a4 2F4B     		ldr	r3, .L74+92
 1245 00a6 C4F89830 		str	r3, [r4, #152]
  95:FT_Esd_Widgets/Ft_Esd_SpinBox__Generated.c **** 	context->Push_Up.Width = Ft_Esd_SpinBox_Push_Up_Width__Property;
 1246              		.loc 1 95 0
 1247 00aa 2F4B     		ldr	r3, .L74+96
 1248 00ac C4F89C30 		str	r3, [r4, #156]
  96:FT_Esd_Widgets/Ft_Esd_SpinBox__Generated.c **** 	context->Push_Up.Height = Ft_Esd_SpinBox_Push_Up_Height__Property;
 1249              		.loc 1 96 0
 1250 00b0 2E4B     		ldr	r3, .L74+100
 1251 00b2 C4F8A030 		str	r3, [r4, #160]
  97:FT_Esd_Widgets/Ft_Esd_SpinBox__Generated.c **** 	context->Push_Up.Font = Ft_Esd_SpinBox_Push_Up_Font__Property;
 1252              		.loc 1 97 0
 1253 00b6 2E4B     		ldr	r3, .L74+104
 1254 00b8 C4F8A430 		str	r3, [r4, #164]
  98:FT_Esd_Widgets/Ft_Esd_SpinBox__Generated.c **** 	context->Push_Up.Text = Ft_Esd_SpinBox_Push_Up_Text__Property;
 1255              		.loc 1 98 0
 1256 00bc 2D4B     		ldr	r3, .L74+108
 1257 00be C4F8A830 		str	r3, [r4, #168]
  99:FT_Esd_Widgets/Ft_Esd_SpinBox__Generated.c **** 	context->Push_Up.Down = Ft_Esd_SpinBox_Push_Up_Down__Signal;
 1258              		.loc 1 99 0
 1259 00c2 2D4B     		ldr	r3, .L74+112
 1260 00c4 C4F8AC30 		str	r3, [r4, #172]
 100:FT_Esd_Widgets/Ft_Esd_SpinBox__Generated.c **** 	Ft_Esd_PushButton__Initializer(&context->Push_Down);
 1261              		.loc 1 100 0
 1262 00c8 2C4B     		ldr	r3, .L74+116
 1263 00ca C4F8B030 		str	r3, [r4, #176]
 101:FT_Esd_Widgets/Ft_Esd_SpinBox__Generated.c **** 	context->Push_Down.Parent = context;
 1264              		.loc 1 101 0
 1265 00ce 04F1D800 		add	r0, r4, #216
 1266 00d2 FFF7FEFF 		bl	Ft_Esd_PushButton__Initializer
 1267              	.LVL148:
 102:FT_Esd_Widgets/Ft_Esd_SpinBox__Generated.c **** 	context->Push_Down.X = Ft_Esd_SpinBox_Push_Down_X__Property;
 1268              		.loc 1 102 0
 1269 00d6 C4F8D840 		str	r4, [r4, #216]
 103:FT_Esd_Widgets/Ft_Esd_SpinBox__Generated.c **** 	context->Push_Down.Y = Ft_Esd_SpinBox_Push_Down_Y__Property;
 1270              		.loc 1 103 0
 1271 00da 294B     		ldr	r3, .L74+120
 1272 00dc C4F8E030 		str	r3, [r4, #224]
 104:FT_Esd_Widgets/Ft_Esd_SpinBox__Generated.c **** 	context->Push_Down.Width = Ft_Esd_SpinBox_Push_Down_Width__Property;
 1273              		.loc 1 104 0
 1274 00e0 284B     		ldr	r3, .L74+124
 1275 00e2 C4F8E430 		str	r3, [r4, #228]
 105:FT_Esd_Widgets/Ft_Esd_SpinBox__Generated.c **** 	context->Push_Down.Height = Ft_Esd_SpinBox_Push_Down_Height__Property;
 1276              		.loc 1 105 0
 1277 00e6 284B     		ldr	r3, .L74+128
 1278 00e8 C4F8E830 		str	r3, [r4, #232]
 106:FT_Esd_Widgets/Ft_Esd_SpinBox__Generated.c **** 	context->Push_Down.Font = Ft_Esd_SpinBox_Push_Down_Font__Property;
 1279              		.loc 1 106 0
 1280 00ec 274B     		ldr	r3, .L74+132
ARM GAS  /var/folders/n8/cvzdcwlj0vl4g_wtyz1ffy300000gn/T//cc48gXeA.s 			page 31


 1281 00ee C4F8EC30 		str	r3, [r4, #236]
 107:FT_Esd_Widgets/Ft_Esd_SpinBox__Generated.c **** 	context->Push_Down.Text = Ft_Esd_SpinBox_Push_Down_Text__Property;
 1282              		.loc 1 107 0
 1283 00f2 274B     		ldr	r3, .L74+136
 1284 00f4 C4F8F030 		str	r3, [r4, #240]
 108:FT_Esd_Widgets/Ft_Esd_SpinBox__Generated.c **** 	context->Push_Down.Down = Ft_Esd_SpinBox_Push_Down_Down__Signal;
 1285              		.loc 1 108 0
 1286 00f8 264B     		ldr	r3, .L74+140
 1287 00fa C4F8F430 		str	r3, [r4, #244]
 109:FT_Esd_Widgets/Ft_Esd_SpinBox__Generated.c **** }
 1288              		.loc 1 109 0
 1289 00fe 264B     		ldr	r3, .L74+144
 1290 0100 C4F8F830 		str	r3, [r4, #248]
 110:FT_Esd_Widgets/Ft_Esd_SpinBox__Generated.c **** 
 1291              		.loc 1 110 0
 1292 0104 70BD     		pop	{r4, r5, r6, pc}
 1293              	.LVL149:
 1294              	.L75:
 1295 0106 00BF     		.align	2
 1296              	.L74:
 1297 0108 00000000 		.word	Ft_Esd_SpinBox_Theme__Default
 1298 010c 00000000 		.word	Ft_Esd_SpinBox_X__Default
 1299 0110 00000000 		.word	Ft_Esd_SpinBox_Y__Default
 1300 0114 00000000 		.word	Ft_Esd_SpinBox_Width__Default
 1301 0118 00000000 		.word	Ft_Esd_SpinBox_Height__Default
 1302 011c 00000000 		.word	Ft_Esd_SpinBox_Step__Default
 1303 0120 00000000 		.word	Ft_Esd_Noop
 1304 0124 00000000 		.word	Ft_Esd_SpinBox_Changed__Noop
 1305 0128 00000000 		.word	Ft_Esd_SpinBox_LayoutSplit_Pos__Property
 1306 012c 00000000 		.word	Ft_Esd_SpinBox_LayoutSplit_Length__Property
 1307 0130 00000000 		.word	Ft_Esd_SpinBox_LayoutSplit_Numerator__Property
 1308 0134 00000000 		.word	Ft_Esd_SpinBox_LayoutSplit_Denominator__Property
 1309 0138 00000000 		.word	Ft_Esd_SpinBox_LayoutSplit_Margin__Property
 1310 013c 00000000 		.word	Ft_Esd_SpinBox_LayoutMargin_X__Property
 1311 0140 00000000 		.word	Ft_Esd_SpinBox_LayoutMargin_Y__Property
 1312 0144 00000000 		.word	Ft_Esd_SpinBox_LayoutMargin_Width__Property
 1313 0148 00000000 		.word	Ft_Esd_SpinBox_LayoutMargin_Height__Property
 1314 014c 00000000 		.word	Ft_Esd_SpinBox_LayoutMargin_Margin__Property
 1315 0150 00000000 		.word	Ft_Esd_SpinBox_LayoutSplit_1_Pos__Property
 1316 0154 00000000 		.word	Ft_Esd_SpinBox_LayoutSplit_1_Length__Property
 1317 0158 00000000 		.word	Ft_Esd_SpinBox_LayoutSplit_1_Numerator__Property
 1318 015c 00000000 		.word	Ft_Esd_SpinBox_LayoutSplit_1_Denominator__Property
 1319 0160 00000000 		.word	Ft_Esd_SpinBox_LayoutSplit_1_Margin__Property
 1320 0164 00000000 		.word	Ft_Esd_SpinBox_Push_Up_X__Property
 1321 0168 00000000 		.word	Ft_Esd_SpinBox_Push_Up_Y__Property
 1322 016c 00000000 		.word	Ft_Esd_SpinBox_Push_Up_Width__Property
 1323 0170 00000000 		.word	Ft_Esd_SpinBox_Push_Up_Height__Property
 1324 0174 00000000 		.word	Ft_Esd_SpinBox_Push_Up_Font__Property
 1325 0178 00000000 		.word	Ft_Esd_SpinBox_Push_Up_Text__Property
 1326 017c 00000000 		.word	Ft_Esd_SpinBox_Push_Up_Down__Signal
 1327 0180 00000000 		.word	Ft_Esd_SpinBox_Push_Down_X__Property
 1328 0184 00000000 		.word	Ft_Esd_SpinBox_Push_Down_Y__Property
 1329 0188 00000000 		.word	Ft_Esd_SpinBox_Push_Down_Width__Property
 1330 018c 00000000 		.word	Ft_Esd_SpinBox_Push_Down_Height__Property
 1331 0190 00000000 		.word	Ft_Esd_SpinBox_Push_Down_Font__Property
 1332 0194 00000000 		.word	Ft_Esd_SpinBox_Push_Down_Text__Property
 1333 0198 00000000 		.word	Ft_Esd_SpinBox_Push_Down_Down__Signal
ARM GAS  /var/folders/n8/cvzdcwlj0vl4g_wtyz1ffy300000gn/T//cc48gXeA.s 			page 32


 1334              		.cfi_endproc
 1335              	.LFE46:
 1337              		.section	.text.Ft_Esd_SpinBox_Start,"ax",%progbits
 1338              		.align	1
 1339              		.global	Ft_Esd_SpinBox_Start
 1340              		.syntax unified
 1341              		.thumb
 1342              		.thumb_func
 1343              		.fpu fpv5-sp-d16
 1345              	Ft_Esd_SpinBox_Start:
 1346              	.LFB47:
 116:FT_Esd_Widgets/Ft_Esd_SpinBox__Generated.c **** 	void *parent = context->Parent;
 1347              		.loc 1 116 0
 1348              		.cfi_startproc
 1349              		@ args = 0, pretend = 0, frame = 0
 1350              		@ frame_needed = 0, uses_anonymous_args = 0
 1351              	.LVL150:
 1352 0000 10B5     		push	{r4, lr}
 1353              	.LCFI20:
 1354              		.cfi_def_cfa_offset 8
 1355              		.cfi_offset 4, -8
 1356              		.cfi_offset 14, -4
 1357 0002 0446     		mov	r4, r0
 1358              	.LVL151:
 118:FT_Esd_Widgets/Ft_Esd_SpinBox__Generated.c **** 	Ft_Esd_PushButton_Start(&context->Push_Up);
 1359              		.loc 1 118 0
 1360 0004 0830     		adds	r0, r0, #8
 1361              	.LVL152:
 1362 0006 FFF7FEFF 		bl	Ft_Esd_TouchTag_Start
 1363              	.LVL153:
 119:FT_Esd_Widgets/Ft_Esd_SpinBox__Generated.c **** 	Ft_Esd_PushButton_Start(&context->Push_Down);
 1364              		.loc 1 119 0
 1365 000a 04F19000 		add	r0, r4, #144
 1366 000e FFF7FEFF 		bl	Ft_Esd_PushButton_Start
 1367              	.LVL154:
 120:FT_Esd_Widgets/Ft_Esd_SpinBox__Generated.c **** }
 1368              		.loc 1 120 0
 1369 0012 04F1D800 		add	r0, r4, #216
 1370 0016 FFF7FEFF 		bl	Ft_Esd_PushButton_Start
 1371              	.LVL155:
 121:FT_Esd_Widgets/Ft_Esd_SpinBox__Generated.c **** 
 1372              		.loc 1 121 0
 1373 001a 10BD     		pop	{r4, pc}
 1374              		.cfi_endproc
 1375              	.LFE47:
 1377              		.section	.text.Ft_Esd_SpinBox_Render,"ax",%progbits
 1378              		.align	1
 1379              		.global	Ft_Esd_SpinBox_Render
 1380              		.syntax unified
 1381              		.thumb
 1382              		.thumb_func
 1383              		.fpu fpv5-sp-d16
 1385              	Ft_Esd_SpinBox_Render:
 1386              	.LFB48:
 124:FT_Esd_Widgets/Ft_Esd_SpinBox__Generated.c **** 	void *parent = context->Parent;
 1387              		.loc 1 124 0
 1388              		.cfi_startproc
ARM GAS  /var/folders/n8/cvzdcwlj0vl4g_wtyz1ffy300000gn/T//cc48gXeA.s 			page 33


 1389              		@ args = 0, pretend = 0, frame = 0
 1390              		@ frame_needed = 0, uses_anonymous_args = 0
 1391              	.LVL156:
 1392 0000 2DE9F047 		push	{r4, r5, r6, r7, r8, r9, r10, lr}
 1393              	.LCFI21:
 1394              		.cfi_def_cfa_offset 32
 1395              		.cfi_offset 4, -32
 1396              		.cfi_offset 5, -28
 1397              		.cfi_offset 6, -24
 1398              		.cfi_offset 7, -20
 1399              		.cfi_offset 8, -16
 1400              		.cfi_offset 9, -12
 1401              		.cfi_offset 10, -8
 1402              		.cfi_offset 14, -4
 1403 0004 84B0     		sub	sp, sp, #16
 1404              	.LCFI22:
 1405              		.cfi_def_cfa_offset 48
 1406 0006 0446     		mov	r4, r0
 125:FT_Esd_Widgets/Ft_Esd_SpinBox__Generated.c **** 	ft_uint8_t s = Ft_Esd_TouchTag_Tag(&context->Touch_Tag);
 1407              		.loc 1 125 0
 1408 0008 0646     		mov	r6, r0
 1409 000a 56F8085B 		ldr	r5, [r6], #8
 1410              	.LVL157:
 126:FT_Esd_Widgets/Ft_Esd_SpinBox__Generated.c **** 	Ft_Esd_Dl_TAG(s);
 1411              		.loc 1 126 0
 1412 000e 3046     		mov	r0, r6
 1413              	.LVL158:
 1414 0010 FFF7FEFF 		bl	Ft_Esd_TouchTag_Tag
 1415              	.LVL159:
 1416              	.LBB28:
 1417              	.LBB29:
 1418              		.file 2 "FT_Esd_Framework/FT_Esd_Dl.h"
   1:FT_Esd_Framework/FT_Esd_Dl.h **** 
   2:FT_Esd_Framework/FT_Esd_Dl.h **** #ifndef FT_ESD_DL_H
   3:FT_Esd_Framework/FT_Esd_Dl.h **** #define FT_ESD_DL_H
   4:FT_Esd_Framework/FT_Esd_Dl.h **** 
   5:FT_Esd_Framework/FT_Esd_Dl.h **** #include "FT_DataTypes.h"
   6:FT_Esd_Framework/FT_Esd_Dl.h **** #include "FT_Platform.h"
   7:FT_Esd_Framework/FT_Esd_Dl.h **** #include "Ft_Esd.h"
   8:FT_Esd_Framework/FT_Esd_Dl.h **** #include "FT_Gpu.h"
   9:FT_Esd_Framework/FT_Esd_Dl.h **** #include "Ft_Esd_BitmapInfo.h"
  10:FT_Esd_Framework/FT_Esd_Dl.h **** 
  11:FT_Esd_Framework/FT_Esd_Dl.h **** ESD_CATEGORY(EsdUtilities, DisplayName = "ESD Utilities")
  12:FT_Esd_Framework/FT_Esd_Dl.h **** ESD_CATEGORY(EveRenderFunctions, DisplayName = "EVE Render Functions")
  13:FT_Esd_Framework/FT_Esd_Dl.h **** 
  14:FT_Esd_Framework/FT_Esd_Dl.h **** ESD_TYPE(Ft_Gpu_Hal_Context_t *, Native = Pointer, Edit = Library)
  15:FT_Esd_Framework/FT_Esd_Dl.h **** 
  16:FT_Esd_Framework/FT_Esd_Dl.h **** // Keep cache of displaylist values that don't often change but are generally set by every widget t
  17:FT_Esd_Framework/FT_Esd_Dl.h **** #define FT_ESD_OPTIMIZE_DISPLAYLIST 1
  18:FT_Esd_Framework/FT_Esd_Dl.h **** #define FT_ESD_STATE_STACK_SIZE 5
  19:FT_Esd_Framework/FT_Esd_Dl.h **** 
  20:FT_Esd_Framework/FT_Esd_Dl.h **** #define FT_ESD_BITMAPHANDLE_INVALID 255
  21:FT_Esd_Framework/FT_Esd_Dl.h **** 
  22:FT_Esd_Framework/FT_Esd_Dl.h **** //
  23:FT_Esd_Framework/FT_Esd_Dl.h **** // Structs
  24:FT_Esd_Framework/FT_Esd_Dl.h **** //
  25:FT_Esd_Framework/FT_Esd_Dl.h **** #ifdef FT_ESD_OPTIMIZE_DISPLAYLIST
ARM GAS  /var/folders/n8/cvzdcwlj0vl4g_wtyz1ffy300000gn/T//cc48gXeA.s 			page 34


  26:FT_Esd_Framework/FT_Esd_Dl.h **** #define FT_ESD_STATE Ft_Esd_GpuState[Ft_Esd_GpuState_I]
  27:FT_Esd_Framework/FT_Esd_Dl.h **** typedef struct
  28:FT_Esd_Framework/FT_Esd_Dl.h **** {
  29:FT_Esd_Framework/FT_Esd_Dl.h **** 	// Keep to a minimum
  30:FT_Esd_Framework/FT_Esd_Dl.h **** #ifdef FT_81X_ENABLE
  31:FT_Esd_Framework/FT_Esd_Dl.h **** 	ft_uint32_t PaletteSource;
  32:FT_Esd_Framework/FT_Esd_Dl.h **** #endif
  33:FT_Esd_Framework/FT_Esd_Dl.h **** 	ft_uint32_t ColorRGB;
  34:FT_Esd_Framework/FT_Esd_Dl.h **** 	ft_uint8_t ColorA;
  35:FT_Esd_Framework/FT_Esd_Dl.h **** 	ft_uint8_t Handle;         // Current handle
  36:FT_Esd_Framework/FT_Esd_Dl.h **** 	ft_uint8_t Cell;           // Current cell
  37:FT_Esd_Framework/FT_Esd_Dl.h **** 	ft_bool_t BitmapTransform; // BitmapTransform other than default is set
  38:FT_Esd_Framework/FT_Esd_Dl.h **** #ifdef FT_81X_ENABLE
  39:FT_Esd_Framework/FT_Esd_Dl.h **** 	ft_uint8_t VertexFormat;   // Current vertex format
  40:FT_Esd_Framework/FT_Esd_Dl.h **** #endif
  41:FT_Esd_Framework/FT_Esd_Dl.h **** } Ft_Esd_GpuState_T;
  42:FT_Esd_Framework/FT_Esd_Dl.h **** #endif
  43:FT_Esd_Framework/FT_Esd_Dl.h **** 
  44:FT_Esd_Framework/FT_Esd_Dl.h **** //
  45:FT_Esd_Framework/FT_Esd_Dl.h **** // Globals
  46:FT_Esd_Framework/FT_Esd_Dl.h **** //
  47:FT_Esd_Framework/FT_Esd_Dl.h **** extern Ft_Gpu_Hal_Context_t *Ft_Esd_Host;
  48:FT_Esd_Framework/FT_Esd_Dl.h **** extern ft_uint16_t Ft_Esd_FontHeight[32];
  49:FT_Esd_Framework/FT_Esd_Dl.h **** #ifdef FT_ESD_OPTIMIZE_DISPLAYLIST
  50:FT_Esd_Framework/FT_Esd_Dl.h **** extern Ft_Esd_GpuState_T Ft_Esd_GpuState[FT_ESD_STATE_STACK_SIZE];
  51:FT_Esd_Framework/FT_Esd_Dl.h **** extern ft_uint8_t Ft_Esd_GpuState_I;
  52:FT_Esd_Framework/FT_Esd_Dl.h **** extern ft_uint32_t Ft_Esd_CoFgColor;
  53:FT_Esd_Framework/FT_Esd_Dl.h **** extern ft_uint32_t Ft_Esd_CoBgColor;
  54:FT_Esd_Framework/FT_Esd_Dl.h **** #endif
  55:FT_Esd_Framework/FT_Esd_Dl.h **** 
  56:FT_Esd_Framework/FT_Esd_Dl.h **** //Get the height of builtin font
  57:FT_Esd_Framework/FT_Esd_Dl.h **** ESD_FUNCTION(Ft_Esd_GetFontHeight, Type = ft_uint16_t ,DisplayName = "Get Font Height", Category = 
  58:FT_Esd_Framework/FT_Esd_Dl.h **** ESD_PARAMETER(i, Type = int, DisplayName = "Bitmap Handle", Default = 0, Min = 0, Max = 31)
  59:FT_Esd_Framework/FT_Esd_Dl.h **** // inline static ft_uint16_t Ft_Esd_GetFontHeight(int i) { return Ft_Esd_FontHeight[i]; }
  60:FT_Esd_Framework/FT_Esd_Dl.h **** #define Ft_Esd_GetFontHeight(i) (Ft_Esd_FontHeight[i]);
  61:FT_Esd_Framework/FT_Esd_Dl.h **** 
  62:FT_Esd_Framework/FT_Esd_Dl.h **** // Reset any cached state
  63:FT_Esd_Framework/FT_Esd_Dl.h **** void Ft_Esd_ResetGpuState();
  64:FT_Esd_Framework/FT_Esd_Dl.h **** void Ft_Esd_ResetCoState();
  65:FT_Esd_Framework/FT_Esd_Dl.h **** 
  66:FT_Esd_Framework/FT_Esd_Dl.h **** ft_uint32_t Ft_Esd_BitmapHandle_GetTotalUsed();
  67:FT_Esd_Framework/FT_Esd_Dl.h **** ft_uint32_t Ft_Esd_BitmapHandle_GetTotal();
  68:FT_Esd_Framework/FT_Esd_Dl.h **** 
  69:FT_Esd_Framework/FT_Esd_Dl.h **** /// Set current tag. Must be returned to 255 after usage, to ensure next widgets don't draw with in
  70:FT_Esd_Framework/FT_Esd_Dl.h **** ESD_FUNCTION(Ft_Esd_Dl_TAG, Type = ft_void_t, Category = EveRenderFunctions, Inline)
  71:FT_Esd_Framework/FT_Esd_Dl.h **** ESD_PARAMETER(s, Type = ft_uint8_t, DisplayName = "Tag", Default = 255, Min = 0, Max = 255)
  72:FT_Esd_Framework/FT_Esd_Dl.h **** inline static ft_void_t Ft_Esd_Dl_TAG(ft_uint8_t s)
  73:FT_Esd_Framework/FT_Esd_Dl.h **** {
  74:FT_Esd_Framework/FT_Esd_Dl.h **** 	Ft_Gpu_Hal_WrCmd32(Ft_Esd_Host, TAG(s));
 1419              		.loc 2 74 0
 1420 0014 40F04071 		orr	r1, r0, #50331648
 1421 0018 4A4B     		ldr	r3, .L90
 1422 001a 1868     		ldr	r0, [r3]
 1423              	.LVL160:
 1424 001c FFF7FEFF 		bl	Ft_Gpu_Hal_WrCmd32
 1425              	.LVL161:
 1426              	.LBE29:
ARM GAS  /var/folders/n8/cvzdcwlj0vl4g_wtyz1ffy300000gn/T//cc48gXeA.s 			page 35


 1427              	.LBE28:
 1428              	.LBB30:
 1429              	.LBB31:
  75:FT_Esd_Framework/FT_Esd_Dl.h **** }
  76:FT_Esd_Framework/FT_Esd_Dl.h **** //Specify color RGB
  77:FT_Esd_Framework/FT_Esd_Dl.h **** ESD_FUNCTION(Ft_Esd_Dl_COLOR_RGB, Type = ft_void_t, Category = EveRenderFunctions, Inline)
  78:FT_Esd_Framework/FT_Esd_Dl.h **** ESD_PARAMETER(c, Type = ft_rgb32_t, DisplayName = "Color")
  79:FT_Esd_Framework/FT_Esd_Dl.h **** inline static ft_void_t Ft_Esd_Dl_COLOR_RGB(ft_rgb32_t c)
  80:FT_Esd_Framework/FT_Esd_Dl.h **** {
  81:FT_Esd_Framework/FT_Esd_Dl.h **** #if FT_ESD_OPTIMIZE_DISPLAYLIST
  82:FT_Esd_Framework/FT_Esd_Dl.h **** 	ft_rgb32_t rgb = c & 0xFFFFFF;
  83:FT_Esd_Framework/FT_Esd_Dl.h **** 	if (rgb != FT_ESD_STATE.ColorRGB)
  84:FT_Esd_Framework/FT_Esd_Dl.h **** 	{
  85:FT_Esd_Framework/FT_Esd_Dl.h **** #endif
  86:FT_Esd_Framework/FT_Esd_Dl.h **** 		Ft_Gpu_Hal_WrCmd32(Ft_Esd_Host, (4UL << 24) | (rgb));
  87:FT_Esd_Framework/FT_Esd_Dl.h **** #if FT_ESD_OPTIMIZE_DISPLAYLIST
  88:FT_Esd_Framework/FT_Esd_Dl.h **** 		FT_ESD_STATE.ColorRGB = rgb;
  89:FT_Esd_Framework/FT_Esd_Dl.h **** 	}
  90:FT_Esd_Framework/FT_Esd_Dl.h **** #endif
  91:FT_Esd_Framework/FT_Esd_Dl.h **** }
  92:FT_Esd_Framework/FT_Esd_Dl.h **** //Specify alpha channel
  93:FT_Esd_Framework/FT_Esd_Dl.h **** ESD_FUNCTION(Ft_Esd_Dl_COLOR_A, Type = ft_void_t, Category = EveRenderFunctions, Inline)
  94:FT_Esd_Framework/FT_Esd_Dl.h **** ESD_PARAMETER(alpha, Type = ft_uint8_t, Default = 255, Min = 0, Max = 255)
  95:FT_Esd_Framework/FT_Esd_Dl.h **** inline static ft_void_t Ft_Esd_Dl_COLOR_A(ft_uint8_t alpha)
  96:FT_Esd_Framework/FT_Esd_Dl.h **** {
  97:FT_Esd_Framework/FT_Esd_Dl.h **** #if FT_ESD_OPTIMIZE_DISPLAYLIST
  98:FT_Esd_Framework/FT_Esd_Dl.h **** 	if (alpha != FT_ESD_STATE.ColorA)
 1430              		.loc 2 98 0
 1431 0020 494B     		ldr	r3, .L90+4
 1432 0022 1A78     		ldrb	r2, [r3]	@ zero_extendqisi2
 1433 0024 494B     		ldr	r3, .L90+8
 1434 0026 03EB0213 		add	r3, r3, r2, lsl #4
 1435 002a 1B7A     		ldrb	r3, [r3, #8]	@ zero_extendqisi2
 1436 002c FF2B     		cmp	r3, #255
 1437 002e 0BD0     		beq	.L79
  99:FT_Esd_Framework/FT_Esd_Dl.h **** 	{
 100:FT_Esd_Framework/FT_Esd_Dl.h **** #endif
 101:FT_Esd_Framework/FT_Esd_Dl.h **** 		Ft_Gpu_Hal_WrCmd32(Ft_Esd_Host, COLOR_A(alpha));
 1438              		.loc 2 101 0
 1439 0030 4749     		ldr	r1, .L90+12
 1440 0032 444B     		ldr	r3, .L90
 1441 0034 1868     		ldr	r0, [r3]
 1442 0036 FFF7FEFF 		bl	Ft_Gpu_Hal_WrCmd32
 1443              	.LVL162:
 102:FT_Esd_Framework/FT_Esd_Dl.h **** #if FT_ESD_OPTIMIZE_DISPLAYLIST
 103:FT_Esd_Framework/FT_Esd_Dl.h **** 		FT_ESD_STATE.ColorA = alpha;
 1444              		.loc 2 103 0
 1445 003a 434B     		ldr	r3, .L90+4
 1446 003c 1A78     		ldrb	r2, [r3]	@ zero_extendqisi2
 1447 003e 434B     		ldr	r3, .L90+8
 1448 0040 03EB0213 		add	r3, r3, r2, lsl #4
 1449 0044 FF22     		movs	r2, #255
 1450 0046 1A72     		strb	r2, [r3, #8]
 1451              	.L79:
 1452              	.LVL163:
 1453              	.LBE31:
 1454              	.LBE30:
ARM GAS  /var/folders/n8/cvzdcwlj0vl4g_wtyz1ffy300000gn/T//cc48gXeA.s 			page 36


 130:FT_Esd_Widgets/Ft_Esd_SpinBox__Generated.c **** 	ft_int16_t x = context->X(parent);
 1455              		.loc 1 130 0
 1456 0048 6368     		ldr	r3, [r4, #4]
 1457 004a 2846     		mov	r0, r5
 1458 004c 9847     		blx	r3
 1459              	.LVL164:
 1460 004e 0746     		mov	r7, r0
 1461              	.LVL165:
 131:FT_Esd_Widgets/Ft_Esd_SpinBox__Generated.c **** 	ft_int16_t y = context->Y(parent);
 1462              		.loc 1 131 0
 1463 0050 236A     		ldr	r3, [r4, #32]
 1464 0052 2846     		mov	r0, r5
 1465              	.LVL166:
 1466 0054 9847     		blx	r3
 1467              	.LVL167:
 1468 0056 8046     		mov	r8, r0
 1469              	.LVL168:
 132:FT_Esd_Widgets/Ft_Esd_SpinBox__Generated.c **** 	ft_int16_t width = context->Width(parent);
 1470              		.loc 1 132 0
 1471 0058 636A     		ldr	r3, [r4, #36]
 1472 005a 2846     		mov	r0, r5
 1473 005c 9847     		blx	r3
 1474              	.LVL169:
 1475 005e 8146     		mov	r9, r0
 1476              	.LVL170:
 133:FT_Esd_Widgets/Ft_Esd_SpinBox__Generated.c **** 	ft_int16_t height = context->Height(parent);
 1477              		.loc 1 133 0
 1478 0060 A36A     		ldr	r3, [r4, #40]
 1479 0062 2846     		mov	r0, r5
 1480 0064 9847     		blx	r3
 1481              	.LVL171:
 1482 0066 8246     		mov	r10, r0
 1483              	.LVL172:
 134:FT_Esd_Widgets/Ft_Esd_SpinBox__Generated.c **** 	ft_int16_t radius = 4;
 1484              		.loc 1 134 0
 1485 0068 E36A     		ldr	r3, [r4, #44]
 1486 006a 2846     		mov	r0, r5
 1487 006c 9847     		blx	r3
 1488              	.LVL173:
 137:FT_Esd_Widgets/Ft_Esd_SpinBox__Generated.c **** 	ft_bool_t if_1 = Ft_Esd_TouchTag_Touching(&context->Touch_Tag);
 1489              		.loc 1 137 0
 1490 006e 0023     		movs	r3, #0
 1491 0070 0293     		str	r3, [sp, #8]
 1492 0072 0423     		movs	r3, #4
 1493 0074 0193     		str	r3, [sp, #4]
 1494 0076 0090     		str	r0, [sp]
 1495 0078 5346     		mov	r3, r10
 1496 007a 4A46     		mov	r2, r9
 1497 007c 4146     		mov	r1, r8
 1498 007e 3846     		mov	r0, r7
 1499              	.LVL174:
 1500 0080 FFF7FEFF 		bl	Ft_Esd_Elements_Panel
 1501              	.LVL175:
 138:FT_Esd_Widgets/Ft_Esd_SpinBox__Generated.c **** 	ft_rgb32_t c;
 1502              		.loc 1 138 0
 1503 0084 3046     		mov	r0, r6
 1504 0086 FFF7FEFF 		bl	Ft_Esd_TouchTag_Touching
ARM GAS  /var/folders/n8/cvzdcwlj0vl4g_wtyz1ffy300000gn/T//cc48gXeA.s 			page 37


 1505              	.LVL176:
 140:FT_Esd_Widgets/Ft_Esd_SpinBox__Generated.c **** 	{
 1506              		.loc 1 140 0
 1507 008a 48B1     		cbz	r0, .L80
 1508              	.LBB32:
 142:FT_Esd_Widgets/Ft_Esd_SpinBox__Generated.c **** 		c = Ft_Esd_Theme_GetPrimaryColor(theme_1);
 1509              		.loc 1 142 0
 1510 008c 6368     		ldr	r3, [r4, #4]
 1511 008e 2846     		mov	r0, r5
 1512              	.LVL177:
 1513 0090 9847     		blx	r3
 1514              	.LVL178:
 1515              	.LBB33:
 1516              	.LBB34:
 1517              		.file 3 "FT_Esd_Widgets/FT_Esd_Theme.h"
   1:FT_Esd_Widgets/FT_Esd_Theme.h **** 
   2:FT_Esd_Widgets/FT_Esd_Theme.h **** #ifndef FT_ESD_THEME_H
   3:FT_Esd_Widgets/FT_Esd_Theme.h **** #define FT_ESD_THEME_H
   4:FT_Esd_Widgets/FT_Esd_Theme.h **** #include "FT_DataTypes.h"
   5:FT_Esd_Widgets/FT_Esd_Theme.h **** #include "Ft_Esd.h"
   6:FT_Esd_Widgets/FT_Esd_Theme.h **** 
   7:FT_Esd_Widgets/FT_Esd_Theme.h **** ESD_CATEGORY(EsdTheme, DisplayName = "ESD Theme")
   8:FT_Esd_Widgets/FT_Esd_Theme.h **** ESD_CATEGORY(EsdTheme_Themes, DisplayName = "Themes", Category = EsdTheme)
   9:FT_Esd_Widgets/FT_Esd_Theme.h **** 
  10:FT_Esd_Widgets/FT_Esd_Theme.h **** typedef unsigned int ft_uint32_t;
  11:FT_Esd_Widgets/FT_Esd_Theme.h **** 
  12:FT_Esd_Widgets/FT_Esd_Theme.h **** typedef struct
  13:FT_Esd_Widgets/FT_Esd_Theme.h **** {
  14:FT_Esd_Widgets/FT_Esd_Theme.h **** 	ft_rgb32_t ClearColor;
  15:FT_Esd_Widgets/FT_Esd_Theme.h **** 	ft_rgb32_t BackColor;
  16:FT_Esd_Widgets/FT_Esd_Theme.h **** 	ft_rgb32_t TextColor;
  17:FT_Esd_Widgets/FT_Esd_Theme.h **** 	ft_rgb32_t ButtonTextColor;
  18:FT_Esd_Widgets/FT_Esd_Theme.h **** 	ft_rgb32_t DefaultColor;
  19:FT_Esd_Widgets/FT_Esd_Theme.h **** 	ft_rgb32_t PrimaryColor;
  20:FT_Esd_Widgets/FT_Esd_Theme.h **** } Ft_Esd_Theme;
  21:FT_Esd_Widgets/FT_Esd_Theme.h **** 
  22:FT_Esd_Widgets/FT_Esd_Theme.h **** ESD_TYPE(Ft_Esd_Theme *, Native = Pointer, Edit = Library)
  23:FT_Esd_Widgets/FT_Esd_Theme.h **** 
  24:FT_Esd_Widgets/FT_Esd_Theme.h **** ESD_RENDER(Ft_Esd_Theme_SetCurrent, DisplayName = "Set Current Theme", Category = EsdTheme, Include
  25:FT_Esd_Widgets/FT_Esd_Theme.h **** ESD_PARAMETER(theme, Type = Ft_Esd_Theme *)
  26:FT_Esd_Widgets/FT_Esd_Theme.h **** void Ft_Esd_Theme_SetCurrent(Ft_Esd_Theme *theme);
  27:FT_Esd_Widgets/FT_Esd_Theme.h **** 
  28:FT_Esd_Widgets/FT_Esd_Theme.h **** ESD_FUNCTION(Ft_Esd_Theme_GetCurrent, DisplayName = "Current Theme", Category = EsdTheme, Type = Ft
  29:FT_Esd_Widgets/FT_Esd_Theme.h **** Ft_Esd_Theme *Ft_Esd_Theme_GetCurrent();
  30:FT_Esd_Widgets/FT_Esd_Theme.h **** 
  31:FT_Esd_Widgets/FT_Esd_Theme.h **** ESD_FUNCTION(Ft_Esd_Theme_GetClearColor, DisplayName = "Get Clear Color", Category = EsdTheme, Type
  32:FT_Esd_Widgets/FT_Esd_Theme.h **** ESD_PARAMETER(theme, Type = Ft_Esd_Theme *, Default = Ft_Esd_Theme_GetCurrent)
  33:FT_Esd_Widgets/FT_Esd_Theme.h **** inline static ft_rgb32_t Ft_Esd_Theme_GetClearColor(Ft_Esd_Theme *theme) { if (!theme) return Ft_Es
  34:FT_Esd_Widgets/FT_Esd_Theme.h **** 
  35:FT_Esd_Widgets/FT_Esd_Theme.h **** ESD_FUNCTION(Ft_Esd_Theme_GetBackColor, DisplayName = "Get Back Color", Category = EsdTheme, Type =
  36:FT_Esd_Widgets/FT_Esd_Theme.h **** ESD_PARAMETER(theme, Type = Ft_Esd_Theme *, Default = Ft_Esd_Theme_GetCurrent)
  37:FT_Esd_Widgets/FT_Esd_Theme.h **** inline static ft_rgb32_t Ft_Esd_Theme_GetBackColor(Ft_Esd_Theme *theme) { if (!theme) return Ft_Esd
  38:FT_Esd_Widgets/FT_Esd_Theme.h **** 
  39:FT_Esd_Widgets/FT_Esd_Theme.h **** ESD_FUNCTION(Ft_Esd_Theme_GetTextColor, DisplayName = "Get Text Color", Category = EsdTheme, Type =
  40:FT_Esd_Widgets/FT_Esd_Theme.h **** ESD_PARAMETER(theme, Type = Ft_Esd_Theme *, Default = Ft_Esd_Theme_GetCurrent)
  41:FT_Esd_Widgets/FT_Esd_Theme.h **** inline static ft_rgb32_t Ft_Esd_Theme_GetTextColor(Ft_Esd_Theme *theme) { if (!theme) return Ft_Esd
  42:FT_Esd_Widgets/FT_Esd_Theme.h **** 
ARM GAS  /var/folders/n8/cvzdcwlj0vl4g_wtyz1ffy300000gn/T//cc48gXeA.s 			page 38


  43:FT_Esd_Widgets/FT_Esd_Theme.h **** ESD_FUNCTION(Ft_Esd_Theme_GetButtonTextColor, DisplayName = "Get Button Text Color", Category = Esd
  44:FT_Esd_Widgets/FT_Esd_Theme.h **** ESD_PARAMETER(theme, Type = Ft_Esd_Theme *, Default = Ft_Esd_Theme_GetCurrent)
  45:FT_Esd_Widgets/FT_Esd_Theme.h **** inline static ft_rgb32_t Ft_Esd_Theme_GetButtonTextColor(Ft_Esd_Theme *theme) { if (!theme) return 
  46:FT_Esd_Widgets/FT_Esd_Theme.h **** 
  47:FT_Esd_Widgets/FT_Esd_Theme.h **** ESD_FUNCTION(Ft_Esd_Theme_GetCurrentColor, DisplayName = "Get Default Color", Category = EsdTheme, 
  48:FT_Esd_Widgets/FT_Esd_Theme.h **** ESD_PARAMETER(theme, Type = Ft_Esd_Theme *, Default = Ft_Esd_Theme_GetCurrent)
  49:FT_Esd_Widgets/FT_Esd_Theme.h **** inline static ft_rgb32_t Ft_Esd_Theme_GetCurrentColor(Ft_Esd_Theme *theme) { if (!theme) return Ft_
  50:FT_Esd_Widgets/FT_Esd_Theme.h **** 
  51:FT_Esd_Widgets/FT_Esd_Theme.h **** ESD_FUNCTION(Ft_Esd_Theme_GetPrimaryColor, DisplayName = "Get Primary Color", Category = EsdTheme, 
  52:FT_Esd_Widgets/FT_Esd_Theme.h **** ESD_PARAMETER(theme, Type = Ft_Esd_Theme *, Default = Ft_Esd_Theme_GetCurrent)
  53:FT_Esd_Widgets/FT_Esd_Theme.h **** inline static ft_rgb32_t Ft_Esd_Theme_GetPrimaryColor(Ft_Esd_Theme *theme) { if (!theme) return Ft_
 1518              		.loc 3 53 0
 1519 0092 08B1     		cbz	r0, .L87
 1520 0094 4669     		ldr	r6, [r0, #20]
 1521 0096 09E0     		b	.L82
 1522              	.L87:
 1523 0098 FFF7FEFF 		bl	Ft_Esd_Theme_GetCurrent
 1524              	.LVL179:
 1525 009c 4669     		ldr	r6, [r0, #20]
 1526 009e 05E0     		b	.L82
 1527              	.LVL180:
 1528              	.L80:
 1529              	.LBE34:
 1530              	.LBE33:
 1531              	.LBE32:
 1532              	.LBB35:
 147:FT_Esd_Widgets/Ft_Esd_SpinBox__Generated.c **** 		c = Ft_Esd_Theme_GetTextColor(theme_2);
 1533              		.loc 1 147 0
 1534 00a0 6368     		ldr	r3, [r4, #4]
 1535 00a2 2846     		mov	r0, r5
 1536              	.LVL181:
 1537 00a4 9847     		blx	r3
 1538              	.LVL182:
 1539              	.LBB36:
 1540              	.LBB37:
  41:FT_Esd_Widgets/FT_Esd_Theme.h **** 
 1541              		.loc 3 41 0
 1542 00a6 0028     		cmp	r0, #0
 1543 00a8 46D0     		beq	.L88
 1544 00aa 8668     		ldr	r6, [r0, #8]
 1545              	.LVL183:
 1546              	.L82:
 1547              	.LBE37:
 1548              	.LBE36:
 1549              	.LBE35:
 1550              	.LBB40:
 1551              	.LBB41:
  82:FT_Esd_Framework/FT_Esd_Dl.h **** 	if (rgb != FT_ESD_STATE.ColorRGB)
 1552              		.loc 2 82 0
 1553 00ac 26F07F46 		bic	r6, r6, #-16777216
 1554              	.LVL184:
  83:FT_Esd_Framework/FT_Esd_Dl.h **** 	{
 1555              		.loc 2 83 0
 1556 00b0 254B     		ldr	r3, .L90+4
 1557 00b2 1A78     		ldrb	r2, [r3]	@ zero_extendqisi2
 1558 00b4 254B     		ldr	r3, .L90+8
 1559 00b6 03EB0213 		add	r3, r3, r2, lsl #4
ARM GAS  /var/folders/n8/cvzdcwlj0vl4g_wtyz1ffy300000gn/T//cc48gXeA.s 			page 39


 1560 00ba 5B68     		ldr	r3, [r3, #4]
 1561 00bc 9E42     		cmp	r6, r3
 1562 00be 0BD0     		beq	.L84
  86:FT_Esd_Framework/FT_Esd_Dl.h **** #if FT_ESD_OPTIMIZE_DISPLAYLIST
 1563              		.loc 2 86 0
 1564 00c0 46F08061 		orr	r1, r6, #67108864
 1565 00c4 1F4B     		ldr	r3, .L90
 1566 00c6 1868     		ldr	r0, [r3]
 1567 00c8 FFF7FEFF 		bl	Ft_Gpu_Hal_WrCmd32
 1568              	.LVL185:
  88:FT_Esd_Framework/FT_Esd_Dl.h **** 	}
 1569              		.loc 2 88 0
 1570 00cc 1E4B     		ldr	r3, .L90+4
 1571 00ce 1A78     		ldrb	r2, [r3]	@ zero_extendqisi2
 1572 00d0 1E4B     		ldr	r3, .L90+8
 1573 00d2 03EB0213 		add	r3, r3, r2, lsl #4
 1574 00d6 5E60     		str	r6, [r3, #4]
 1575              	.L84:
 1576              	.LVL186:
 1577              	.LBE41:
 1578              	.LBE40:
 151:FT_Esd_Widgets/Ft_Esd_SpinBox__Generated.c **** 	int left_1 = LayoutSplit_FirstLength(&context->LayoutSplit_1);
 1579              		.loc 1 151 0
 1580 00d8 FFF7FEFF 		bl	Ft_Esd_GetHost
 1581              	.LVL187:
 1582 00dc 8046     		mov	r8, r0
 1583              	.LVL188:
 152:FT_Esd_Widgets/Ft_Esd_SpinBox__Generated.c **** 	int right = LayoutSplit_FirstPos(&context->LayoutSplit_1);
 1584              		.loc 1 152 0
 1585 00de 04F17407 		add	r7, r4, #116
 1586              	.LVL189:
 1587 00e2 3846     		mov	r0, r7
 1588              	.LVL190:
 1589 00e4 FFF7FEFF 		bl	LayoutSplit_FirstLength
 1590              	.LVL191:
 1591 00e8 0646     		mov	r6, r0
 1592              	.LVL192:
 153:FT_Esd_Widgets/Ft_Esd_SpinBox__Generated.c **** 	int left = left_1 + right;
 1593              		.loc 1 153 0
 1594 00ea 3846     		mov	r0, r7
 1595              	.LVL193:
 1596 00ec FFF7FEFF 		bl	LayoutSplit_FirstPos
 1597              	.LVL194:
 154:FT_Esd_Widgets/Ft_Esd_SpinBox__Generated.c **** 	int right_1 = 8L;
 1598              		.loc 1 154 0
 1599 00f0 0644     		add	r6, r6, r0
 1600              	.LVL195:
 156:FT_Esd_Widgets/Ft_Esd_SpinBox__Generated.c **** 	ft_int16_t left_2 = context->Y(parent);
 1601              		.loc 1 156 0
 1602 00f2 083E     		subs	r6, r6, #8
 1603              	.LVL196:
 157:FT_Esd_Widgets/Ft_Esd_SpinBox__Generated.c **** 	ft_int16_t left_3 = context->Height(parent);
 1604              		.loc 1 157 0
 1605 00f4 636A     		ldr	r3, [r4, #36]
 1606 00f6 2846     		mov	r0, r5
 1607              	.LVL197:
 1608 00f8 9847     		blx	r3
ARM GAS  /var/folders/n8/cvzdcwlj0vl4g_wtyz1ffy300000gn/T//cc48gXeA.s 			page 40


 1609              	.LVL198:
 1610 00fa 0746     		mov	r7, r0
 1611              	.LVL199:
 158:FT_Esd_Widgets/Ft_Esd_SpinBox__Generated.c **** 	int right_3 = 2L;
 1612              		.loc 1 158 0
 1613 00fc E36A     		ldr	r3, [r4, #44]
 1614 00fe 2846     		mov	r0, r5
 1615 0100 9847     		blx	r3
 1616              	.LVL200:
 160:FT_Esd_Widgets/Ft_Esd_SpinBox__Generated.c **** 	int y_1 = left_2 + right_2;
 1617              		.loc 1 160 0
 1618 0102 0246     		mov	r2, r0
 1619 0104 0028     		cmp	r0, #0
 1620 0106 1BDB     		blt	.L89
 1621              	.L85:
 1622              	.LVL201:
 161:FT_Esd_Widgets/Ft_Esd_SpinBox__Generated.c **** 	ft_int16_t font = 31;
 1623              		.loc 1 161 0
 1624 0108 07EB6202 		add	r2, r7, r2, asr #1
 1625              	.LVL202:
 168:FT_Esd_Widgets/Ft_Esd_SpinBox__Generated.c **** 	Ft_Gpu_CoCmd_Number(phost, x_1, y_1, font, options, n);
 1626              		.loc 1 168 0
 1627 010c A36B     		ldr	r3, [r4, #56]
 1628              	.LVL203:
 169:FT_Esd_Widgets/Ft_Esd_SpinBox__Generated.c **** 	Ft_Esd_PushButton_Render(&context->Push_Up);
 1629              		.loc 1 169 0
 1630 010e 0193     		str	r3, [sp, #4]
 1631 0110 4FF45063 		mov	r3, #3328
 1632              	.LVL204:
 1633 0114 0093     		str	r3, [sp]
 1634 0116 1F23     		movs	r3, #31
 1635 0118 12B2     		sxth	r2, r2
 1636              	.LVL205:
 1637 011a 31B2     		sxth	r1, r6
 1638 011c 4046     		mov	r0, r8
 1639              	.LVL206:
 1640 011e FFF7FEFF 		bl	Ft_Gpu_CoCmd_Number
 1641              	.LVL207:
 170:FT_Esd_Widgets/Ft_Esd_SpinBox__Generated.c **** 	Ft_Esd_PushButton_Render(&context->Push_Down);
 1642              		.loc 1 170 0
 1643 0122 04F19000 		add	r0, r4, #144
 1644 0126 FFF7FEFF 		bl	Ft_Esd_PushButton_Render
 1645              	.LVL208:
 171:FT_Esd_Widgets/Ft_Esd_SpinBox__Generated.c **** }
 1646              		.loc 1 171 0
 1647 012a 04F1D800 		add	r0, r4, #216
 1648 012e FFF7FEFF 		bl	Ft_Esd_PushButton_Render
 1649              	.LVL209:
 172:FT_Esd_Widgets/Ft_Esd_SpinBox__Generated.c **** 
 1650              		.loc 1 172 0
 1651 0132 04B0     		add	sp, sp, #16
 1652              	.LCFI23:
 1653              		.cfi_remember_state
 1654              		.cfi_def_cfa_offset 32
 1655              		@ sp needed
 1656 0134 BDE8F087 		pop	{r4, r5, r6, r7, r8, r9, r10, pc}
 1657              	.LVL210:
ARM GAS  /var/folders/n8/cvzdcwlj0vl4g_wtyz1ffy300000gn/T//cc48gXeA.s 			page 41


 1658              	.L88:
 1659              	.LCFI24:
 1660              		.cfi_restore_state
 1661              	.LBB42:
 1662              	.LBB39:
 1663              	.LBB38:
  41:FT_Esd_Widgets/FT_Esd_Theme.h **** 
 1664              		.loc 3 41 0
 1665 0138 FFF7FEFF 		bl	Ft_Esd_Theme_GetCurrent
 1666              	.LVL211:
 1667 013c 8668     		ldr	r6, [r0, #8]
 1668 013e B5E7     		b	.L82
 1669              	.LVL212:
 1670              	.L89:
 1671              	.LBE38:
 1672              	.LBE39:
 1673              	.LBE42:
 160:FT_Esd_Widgets/Ft_Esd_SpinBox__Generated.c **** 	int y_1 = left_2 + right_2;
 1674              		.loc 1 160 0
 1675 0140 421C     		adds	r2, r0, #1
 1676 0142 E1E7     		b	.L85
 1677              	.L91:
 1678              		.align	2
 1679              	.L90:
 1680 0144 00000000 		.word	Ft_Esd_Host
 1681 0148 00000000 		.word	Ft_Esd_GpuState_I
 1682 014c 00000000 		.word	Ft_Esd_GpuState
 1683 0150 FF000010 		.word	268435711
 1684              		.cfi_endproc
 1685              	.LFE48:
 1687              		.section	.text.Ft_Esd_SpinBox_Update,"ax",%progbits
 1688              		.align	1
 1689              		.global	Ft_Esd_SpinBox_Update
 1690              		.syntax unified
 1691              		.thumb
 1692              		.thumb_func
 1693              		.fpu fpv5-sp-d16
 1695              	Ft_Esd_SpinBox_Update:
 1696              	.LFB49:
 175:FT_Esd_Widgets/Ft_Esd_SpinBox__Generated.c **** 	void *parent = context->Parent;
 1697              		.loc 1 175 0
 1698              		.cfi_startproc
 1699              		@ args = 0, pretend = 0, frame = 0
 1700              		@ frame_needed = 0, uses_anonymous_args = 0
 1701              	.LVL213:
 1702 0000 10B5     		push	{r4, lr}
 1703              	.LCFI25:
 1704              		.cfi_def_cfa_offset 8
 1705              		.cfi_offset 4, -8
 1706              		.cfi_offset 14, -4
 1707 0002 0446     		mov	r4, r0
 1708              	.LVL214:
 177:FT_Esd_Widgets/Ft_Esd_SpinBox__Generated.c **** 	Ft_Esd_PushButton_Update(&context->Push_Up);
 1709              		.loc 1 177 0
 1710 0004 0830     		adds	r0, r0, #8
 1711              	.LVL215:
 1712 0006 FFF7FEFF 		bl	Ft_Esd_TouchTag_Update
ARM GAS  /var/folders/n8/cvzdcwlj0vl4g_wtyz1ffy300000gn/T//cc48gXeA.s 			page 42


 1713              	.LVL216:
 178:FT_Esd_Widgets/Ft_Esd_SpinBox__Generated.c **** 	Ft_Esd_PushButton_Update(&context->Push_Down);
 1714              		.loc 1 178 0
 1715 000a 04F19000 		add	r0, r4, #144
 1716 000e FFF7FEFF 		bl	Ft_Esd_PushButton_Update
 1717              	.LVL217:
 179:FT_Esd_Widgets/Ft_Esd_SpinBox__Generated.c **** }
 1718              		.loc 1 179 0
 1719 0012 04F1D800 		add	r0, r4, #216
 1720 0016 FFF7FEFF 		bl	Ft_Esd_PushButton_Update
 1721              	.LVL218:
 180:FT_Esd_Widgets/Ft_Esd_SpinBox__Generated.c **** 
 1722              		.loc 1 180 0
 1723 001a 10BD     		pop	{r4, pc}
 1724              		.cfi_endproc
 1725              	.LFE49:
 1727              		.section	.text.Ft_Esd_SpinBox_End,"ax",%progbits
 1728              		.align	1
 1729              		.global	Ft_Esd_SpinBox_End
 1730              		.syntax unified
 1731              		.thumb
 1732              		.thumb_func
 1733              		.fpu fpv5-sp-d16
 1735              	Ft_Esd_SpinBox_End:
 1736              	.LFB50:
 183:FT_Esd_Widgets/Ft_Esd_SpinBox__Generated.c **** 	void *parent = context->Parent;
 1737              		.loc 1 183 0
 1738              		.cfi_startproc
 1739              		@ args = 0, pretend = 0, frame = 0
 1740              		@ frame_needed = 0, uses_anonymous_args = 0
 1741              	.LVL219:
 1742 0000 10B5     		push	{r4, lr}
 1743              	.LCFI26:
 1744              		.cfi_def_cfa_offset 8
 1745              		.cfi_offset 4, -8
 1746              		.cfi_offset 14, -4
 1747 0002 0446     		mov	r4, r0
 1748              	.LVL220:
 185:FT_Esd_Widgets/Ft_Esd_SpinBox__Generated.c **** 	Ft_Esd_PushButton_End(&context->Push_Up);
 1749              		.loc 1 185 0
 1750 0004 0830     		adds	r0, r0, #8
 1751              	.LVL221:
 1752 0006 FFF7FEFF 		bl	Ft_Esd_TouchTag_End
 1753              	.LVL222:
 186:FT_Esd_Widgets/Ft_Esd_SpinBox__Generated.c **** 	Ft_Esd_PushButton_End(&context->Push_Down);
 1754              		.loc 1 186 0
 1755 000a 04F19000 		add	r0, r4, #144
 1756 000e FFF7FEFF 		bl	Ft_Esd_PushButton_End
 1757              	.LVL223:
 187:FT_Esd_Widgets/Ft_Esd_SpinBox__Generated.c **** }
 1758              		.loc 1 187 0
 1759 0012 04F1D800 		add	r0, r4, #216
 1760 0016 FFF7FEFF 		bl	Ft_Esd_PushButton_End
 1761              	.LVL224:
 188:FT_Esd_Widgets/Ft_Esd_SpinBox__Generated.c **** 
 1762              		.loc 1 188 0
 1763 001a 10BD     		pop	{r4, pc}
ARM GAS  /var/folders/n8/cvzdcwlj0vl4g_wtyz1ffy300000gn/T//cc48gXeA.s 			page 43


 1764              		.cfi_endproc
 1765              	.LFE50:
 1767              		.section	.text.Ft_Esd_SpinBox_Increase,"ax",%progbits
 1768              		.align	1
 1769              		.global	Ft_Esd_SpinBox_Increase
 1770              		.syntax unified
 1771              		.thumb
 1772              		.thumb_func
 1773              		.fpu fpv5-sp-d16
 1775              	Ft_Esd_SpinBox_Increase:
 1776              	.LFB57:
 237:FT_Esd_Widgets/Ft_Esd_SpinBox__Generated.c **** 	void *parent = context->Parent;
 1777              		.loc 1 237 0
 1778              		.cfi_startproc
 1779              		@ args = 0, pretend = 0, frame = 0
 1780              		@ frame_needed = 0, uses_anonymous_args = 0
 1781              	.LVL225:
 1782 0000 70B5     		push	{r4, r5, r6, lr}
 1783              	.LCFI27:
 1784              		.cfi_def_cfa_offset 16
 1785              		.cfi_offset 4, -16
 1786              		.cfi_offset 5, -12
 1787              		.cfi_offset 6, -8
 1788              		.cfi_offset 14, -4
 1789 0002 0446     		mov	r4, r0
 238:FT_Esd_Widgets/Ft_Esd_SpinBox__Generated.c **** 	int left_8 = context->Value;
 1790              		.loc 1 238 0
 1791 0004 0668     		ldr	r6, [r0]
 1792              	.LVL226:
 239:FT_Esd_Widgets/Ft_Esd_SpinBox__Generated.c **** 	int right_8 = context->Step(parent);
 1793              		.loc 1 239 0
 1794 0006 856B     		ldr	r5, [r0, #56]
 1795              	.LVL227:
 240:FT_Esd_Widgets/Ft_Esd_SpinBox__Generated.c **** 	int increase_value = left_8 + right_8;
 1796              		.loc 1 240 0
 1797 0008 036B     		ldr	r3, [r0, #48]
 1798 000a 3046     		mov	r0, r6
 1799              	.LVL228:
 1800 000c 9847     		blx	r3
 1801              	.LVL229:
 241:FT_Esd_Widgets/Ft_Esd_SpinBox__Generated.c **** 	context->Value = increase_value;
 1802              		.loc 1 241 0
 1803 000e 2918     		adds	r1, r5, r0
 1804              	.LVL230:
 242:FT_Esd_Widgets/Ft_Esd_SpinBox__Generated.c **** 	context->Changed(parent, increase_value);
 1805              		.loc 1 242 0
 1806 0010 A163     		str	r1, [r4, #56]
 243:FT_Esd_Widgets/Ft_Esd_SpinBox__Generated.c **** 	context->Increased(parent);
 1807              		.loc 1 243 0
 1808 0012 E36B     		ldr	r3, [r4, #60]
 1809 0014 3046     		mov	r0, r6
 1810              	.LVL231:
 1811 0016 9847     		blx	r3
 1812              	.LVL232:
 244:FT_Esd_Widgets/Ft_Esd_SpinBox__Generated.c **** }
 1813              		.loc 1 244 0
 1814 0018 636B     		ldr	r3, [r4, #52]
ARM GAS  /var/folders/n8/cvzdcwlj0vl4g_wtyz1ffy300000gn/T//cc48gXeA.s 			page 44


 1815 001a 3046     		mov	r0, r6
 1816 001c 9847     		blx	r3
 1817              	.LVL233:
 245:FT_Esd_Widgets/Ft_Esd_SpinBox__Generated.c **** 
 1818              		.loc 1 245 0
 1819 001e 70BD     		pop	{r4, r5, r6, pc}
 1820              		.cfi_endproc
 1821              	.LFE57:
 1823              		.section	.text.Ft_Esd_SpinBox_Decrease,"ax",%progbits
 1824              		.align	1
 1825              		.global	Ft_Esd_SpinBox_Decrease
 1826              		.syntax unified
 1827              		.thumb
 1828              		.thumb_func
 1829              		.fpu fpv5-sp-d16
 1831              	Ft_Esd_SpinBox_Decrease:
 1832              	.LFB60:
 262:FT_Esd_Widgets/Ft_Esd_SpinBox__Generated.c **** 	void *parent = context->Parent;
 1833              		.loc 1 262 0
 1834              		.cfi_startproc
 1835              		@ args = 0, pretend = 0, frame = 0
 1836              		@ frame_needed = 0, uses_anonymous_args = 0
 1837              	.LVL234:
 1838 0000 70B5     		push	{r4, r5, r6, lr}
 1839              	.LCFI28:
 1840              		.cfi_def_cfa_offset 16
 1841              		.cfi_offset 4, -16
 1842              		.cfi_offset 5, -12
 1843              		.cfi_offset 6, -8
 1844              		.cfi_offset 14, -4
 1845 0002 0446     		mov	r4, r0
 263:FT_Esd_Widgets/Ft_Esd_SpinBox__Generated.c **** 	int left_9 = context->Value;
 1846              		.loc 1 263 0
 1847 0004 0668     		ldr	r6, [r0]
 1848              	.LVL235:
 264:FT_Esd_Widgets/Ft_Esd_SpinBox__Generated.c **** 	int right_9 = context->Step(parent);
 1849              		.loc 1 264 0
 1850 0006 856B     		ldr	r5, [r0, #56]
 1851              	.LVL236:
 265:FT_Esd_Widgets/Ft_Esd_SpinBox__Generated.c **** 	int decrease_value = left_9 - right_9;
 1852              		.loc 1 265 0
 1853 0008 036B     		ldr	r3, [r0, #48]
 1854 000a 3046     		mov	r0, r6
 1855              	.LVL237:
 1856 000c 9847     		blx	r3
 1857              	.LVL238:
 266:FT_Esd_Widgets/Ft_Esd_SpinBox__Generated.c **** 	context->Value = decrease_value;
 1858              		.loc 1 266 0
 1859 000e 291A     		subs	r1, r5, r0
 1860              	.LVL239:
 267:FT_Esd_Widgets/Ft_Esd_SpinBox__Generated.c **** 	context->Changed(parent, decrease_value);
 1861              		.loc 1 267 0
 1862 0010 A163     		str	r1, [r4, #56]
 268:FT_Esd_Widgets/Ft_Esd_SpinBox__Generated.c **** 	context->Decreased(parent);
 1863              		.loc 1 268 0
 1864 0012 E36B     		ldr	r3, [r4, #60]
 1865 0014 3046     		mov	r0, r6
ARM GAS  /var/folders/n8/cvzdcwlj0vl4g_wtyz1ffy300000gn/T//cc48gXeA.s 			page 45


 1866              	.LVL240:
 1867 0016 9847     		blx	r3
 1868              	.LVL241:
 269:FT_Esd_Widgets/Ft_Esd_SpinBox__Generated.c **** }
 1869              		.loc 1 269 0
 1870 0018 A36D     		ldr	r3, [r4, #88]
 1871 001a 3046     		mov	r0, r6
 1872 001c 9847     		blx	r3
 1873              	.LVL242:
 270:FT_Esd_Widgets/Ft_Esd_SpinBox__Generated.c **** 
 1874              		.loc 1 270 0
 1875 001e 70BD     		pop	{r4, r5, r6, pc}
 1876              		.cfi_endproc
 1877              	.LFE60:
 1879              		.section	.rodata.Ft_Esd_SpinBox_Push_Down_Text__Property.str1.4,"aMS",%progbits,1
 1880              		.align	2
 1881              	.LC1:
 1882 0000 1F00     		.ascii	"\037\000"
 1883              		.section	.rodata.Ft_Esd_SpinBox_Push_Up_Text__Property.str1.4,"aMS",%progbits,1
 1884              		.align	2
 1885              	.LC0:
 1886 0000 1E00     		.ascii	"\036\000"
 1887              		.text
 1888              	.Letext0:
 1889              		.file 4 "FT_Eve_Hal/FT_DataTypes.h"
 1890              		.file 5 "/usr/local/Cellar/arm-none-eabi-gcc/20180627/arm-none-eabi/include/sys/lock.h"
 1891              		.file 6 "/usr/local/Cellar/arm-none-eabi-gcc/20180627/arm-none-eabi/include/sys/_types.h"
 1892              		.file 7 "/usr/local/Cellar/arm-none-eabi-gcc/20180627/lib/gcc/arm-none-eabi/7.3.1/include/stddef.h
 1893              		.file 8 "/usr/local/Cellar/arm-none-eabi-gcc/20180627/arm-none-eabi/include/sys/unistd.h"
 1894              		.file 9 "/usr/local/Cellar/arm-none-eabi-gcc/20180627/arm-none-eabi/include/sys/reent.h"
 1895              		.file 10 "/usr/local/Cellar/arm-none-eabi-gcc/20180627/arm-none-eabi/include/stdlib.h"
 1896              		.file 11 "FT_Eve_Hal/FT_Gpu_Hal.h"
 1897              		.file 12 "FT_Esd_Framework/Ft_Esd.h"
 1898              		.file 13 "FT_Esd_Widgets/FT_Esd_DefaultTheme.h"
 1899              		.file 14 "FT_Esd_Framework/Ft_Esd_TouchTag.h"
 1900              		.file 15 "FT_Esd_Widgets/Ft_Esd_PushButton.h"
 1901              		.file 16 "FT_Esd_Widgets/LayoutMargin.h"
 1902              		.file 17 "FT_Esd_Widgets/LayoutSplit.h"
 1903              		.file 18 "FT_Esd_Widgets/Ft_Esd_SpinBox.h"
 1904              		.file 19 "FT_Esd_Framework/FT_Esd_CoPro_Cmds.h"
 1905              		.file 20 "FT_Esd_Widgets/Ft_Esd_Elements.h"
ARM GAS  /var/folders/n8/cvzdcwlj0vl4g_wtyz1ffy300000gn/T//cc48gXeA.s 			page 46

