ARM GAS  /var/folders/n8/cvzdcwlj0vl4g_wtyz1ffy300000gn/T//ccNmQxhK.s 			page 1


   1              		.cpu cortex-m7
   2              		.eabi_attribute 27, 1
   3              		.eabi_attribute 28, 1
   4              		.eabi_attribute 20, 1
   5              		.eabi_attribute 21, 1
   6              		.eabi_attribute 23, 3
   7              		.eabi_attribute 24, 1
   8              		.eabi_attribute 25, 1
   9              		.eabi_attribute 26, 1
  10              		.eabi_attribute 30, 1
  11              		.eabi_attribute 34, 1
  12              		.eabi_attribute 18, 4
  13              		.file	"Ft_Esd_ScrollPanel__Generated.c"
  14              		.text
  15              	.Ltext0:
  16              		.cfi_sections	.debug_frame
  17              		.section	.text.Ft_Esd_ScrollPanel_X__Default,"ax",%progbits
  18              		.align	1
  19              		.global	Ft_Esd_ScrollPanel_X__Default
  20              		.syntax unified
  21              		.thumb
  22              		.thumb_func
  23              		.fpu fpv5-sp-d16
  25              	Ft_Esd_ScrollPanel_X__Default:
  26              	.LFB28:
  27              		.file 1 "FT_Esd_Widgets/Ft_Esd_ScrollPanel__Generated.c"
   1:FT_Esd_Widgets/Ft_Esd_ScrollPanel__Generated.c **** /*
   2:FT_Esd_Widgets/Ft_Esd_ScrollPanel__Generated.c **** This file is automatically generated
   3:FT_Esd_Widgets/Ft_Esd_ScrollPanel__Generated.c **** Ft_Esd_ScrollPanel
   4:FT_Esd_Widgets/Ft_Esd_ScrollPanel__Generated.c **** C Source
   5:FT_Esd_Widgets/Ft_Esd_ScrollPanel__Generated.c **** */
   6:FT_Esd_Widgets/Ft_Esd_ScrollPanel__Generated.c **** 
   7:FT_Esd_Widgets/Ft_Esd_ScrollPanel__Generated.c **** #include "Ft_Esd_ScrollPanel.h"
   8:FT_Esd_Widgets/Ft_Esd_ScrollPanel__Generated.c **** 
   9:FT_Esd_Widgets/Ft_Esd_ScrollPanel__Generated.c **** #include "FT_Esd_Dl.h"
  10:FT_Esd_Widgets/Ft_Esd_ScrollPanel__Generated.c **** #include "Ft_Esd_Elements.h"
  11:FT_Esd_Widgets/Ft_Esd_ScrollPanel__Generated.c **** 
  12:FT_Esd_Widgets/Ft_Esd_ScrollPanel__Generated.c **** extern void Ft_Esd_Noop(void *context);
  13:FT_Esd_Widgets/Ft_Esd_ScrollPanel__Generated.c **** Ft_Esd_Theme * Ft_Esd_ScrollPanel_Theme__Default(void *context) { return Ft_Esd_Theme_GetCurrent();
  14:FT_Esd_Widgets/Ft_Esd_ScrollPanel__Generated.c **** ft_int16_t Ft_Esd_ScrollPanel_X__Default(void *context) { return 0; }
  28              		.loc 1 14 0
  29              		.cfi_startproc
  30              		@ args = 0, pretend = 0, frame = 0
  31              		@ frame_needed = 0, uses_anonymous_args = 0
  32              		@ link register save eliminated.
  33              	.LVL0:
  34              		.loc 1 14 0
  35 0000 0020     		movs	r0, #0
  36              	.LVL1:
  37 0002 7047     		bx	lr
  38              		.cfi_endproc
  39              	.LFE28:
  41              		.section	.text.Ft_Esd_ScrollPanel_Y__Default,"ax",%progbits
  42              		.align	1
  43              		.global	Ft_Esd_ScrollPanel_Y__Default
  44              		.syntax unified
  45              		.thumb
ARM GAS  /var/folders/n8/cvzdcwlj0vl4g_wtyz1ffy300000gn/T//ccNmQxhK.s 			page 2


  46              		.thumb_func
  47              		.fpu fpv5-sp-d16
  49              	Ft_Esd_ScrollPanel_Y__Default:
  50              	.LFB29:
  15:FT_Esd_Widgets/Ft_Esd_ScrollPanel__Generated.c **** ft_int16_t Ft_Esd_ScrollPanel_Y__Default(void *context) { return 0; }
  51              		.loc 1 15 0
  52              		.cfi_startproc
  53              		@ args = 0, pretend = 0, frame = 0
  54              		@ frame_needed = 0, uses_anonymous_args = 0
  55              		@ link register save eliminated.
  56              	.LVL2:
  57              		.loc 1 15 0
  58 0000 0020     		movs	r0, #0
  59              	.LVL3:
  60 0002 7047     		bx	lr
  61              		.cfi_endproc
  62              	.LFE29:
  64              		.section	.text.Ft_Esd_ScrollPanel_Width__Default,"ax",%progbits
  65              		.align	1
  66              		.global	Ft_Esd_ScrollPanel_Width__Default
  67              		.syntax unified
  68              		.thumb
  69              		.thumb_func
  70              		.fpu fpv5-sp-d16
  72              	Ft_Esd_ScrollPanel_Width__Default:
  73              	.LFB30:
  16:FT_Esd_Widgets/Ft_Esd_ScrollPanel__Generated.c **** ft_int16_t Ft_Esd_ScrollPanel_Width__Default(void *context) { return 200; }
  74              		.loc 1 16 0
  75              		.cfi_startproc
  76              		@ args = 0, pretend = 0, frame = 0
  77              		@ frame_needed = 0, uses_anonymous_args = 0
  78              		@ link register save eliminated.
  79              	.LVL4:
  80              		.loc 1 16 0
  81 0000 C820     		movs	r0, #200
  82              	.LVL5:
  83 0002 7047     		bx	lr
  84              		.cfi_endproc
  85              	.LFE30:
  87              		.section	.text.Ft_Esd_ScrollPanel_Height__Default,"ax",%progbits
  88              		.align	1
  89              		.global	Ft_Esd_ScrollPanel_Height__Default
  90              		.syntax unified
  91              		.thumb
  92              		.thumb_func
  93              		.fpu fpv5-sp-d16
  95              	Ft_Esd_ScrollPanel_Height__Default:
  96              	.LFB31:
  17:FT_Esd_Widgets/Ft_Esd_ScrollPanel__Generated.c **** ft_int16_t Ft_Esd_ScrollPanel_Height__Default(void *context) { return 150; }
  97              		.loc 1 17 0
  98              		.cfi_startproc
  99              		@ args = 0, pretend = 0, frame = 0
 100              		@ frame_needed = 0, uses_anonymous_args = 0
 101              		@ link register save eliminated.
 102              	.LVL6:
 103              		.loc 1 17 0
 104 0000 9620     		movs	r0, #150
ARM GAS  /var/folders/n8/cvzdcwlj0vl4g_wtyz1ffy300000gn/T//ccNmQxhK.s 			page 3


 105              	.LVL7:
 106 0002 7047     		bx	lr
 107              		.cfi_endproc
 108              	.LFE31:
 110              		.section	.text.Ft_Esd_ScrollPanel_Columns__Default,"ax",%progbits
 111              		.align	1
 112              		.global	Ft_Esd_ScrollPanel_Columns__Default
 113              		.syntax unified
 114              		.thumb
 115              		.thumb_func
 116              		.fpu fpv5-sp-d16
 118              	Ft_Esd_ScrollPanel_Columns__Default:
 119              	.LFB32:
  18:FT_Esd_Widgets/Ft_Esd_ScrollPanel__Generated.c **** int Ft_Esd_ScrollPanel_Columns__Default(void *context) { return 1L; }
 120              		.loc 1 18 0
 121              		.cfi_startproc
 122              		@ args = 0, pretend = 0, frame = 0
 123              		@ frame_needed = 0, uses_anonymous_args = 0
 124              		@ link register save eliminated.
 125              	.LVL8:
 126              		.loc 1 18 0
 127 0000 0120     		movs	r0, #1
 128              	.LVL9:
 129 0002 7047     		bx	lr
 130              		.cfi_endproc
 131              	.LFE32:
 133              		.section	.text.Ft_Esd_ScrollPanel_Margin__Default,"ax",%progbits
 134              		.align	1
 135              		.global	Ft_Esd_ScrollPanel_Margin__Default
 136              		.syntax unified
 137              		.thumb
 138              		.thumb_func
 139              		.fpu fpv5-sp-d16
 141              	Ft_Esd_ScrollPanel_Margin__Default:
 142              	.LFB33:
  19:FT_Esd_Widgets/Ft_Esd_ScrollPanel__Generated.c **** int Ft_Esd_ScrollPanel_Margin__Default(void *context) { return 4L; }
 143              		.loc 1 19 0
 144              		.cfi_startproc
 145              		@ args = 0, pretend = 0, frame = 0
 146              		@ frame_needed = 0, uses_anonymous_args = 0
 147              		@ link register save eliminated.
 148              	.LVL10:
 149              		.loc 1 19 0
 150 0000 0420     		movs	r0, #4
 151              	.LVL11:
 152 0002 7047     		bx	lr
 153              		.cfi_endproc
 154              	.LFE33:
 156              		.section	.text.Ft_Esd_ScrollPanel_OffsetYChanged__Noop,"ax",%progbits
 157              		.align	1
 158              		.global	Ft_Esd_ScrollPanel_OffsetYChanged__Noop
 159              		.syntax unified
 160              		.thumb
 161              		.thumb_func
 162              		.fpu fpv5-sp-d16
 164              	Ft_Esd_ScrollPanel_OffsetYChanged__Noop:
 165              	.LFB34:
ARM GAS  /var/folders/n8/cvzdcwlj0vl4g_wtyz1ffy300000gn/T//ccNmQxhK.s 			page 4


  20:FT_Esd_Widgets/Ft_Esd_ScrollPanel__Generated.c **** void Ft_Esd_ScrollPanel_OffsetYChanged__Noop(void *context, ft_int16_t value) { }
 166              		.loc 1 20 0
 167              		.cfi_startproc
 168              		@ args = 0, pretend = 0, frame = 0
 169              		@ frame_needed = 0, uses_anonymous_args = 0
 170              		@ link register save eliminated.
 171              	.LVL12:
 172              		.loc 1 20 0
 173 0000 7047     		bx	lr
 174              		.cfi_endproc
 175              	.LFE34:
 177              		.section	.text.Ft_Esd_ScrollPanel_TouchArea_X__Property,"ax",%progbits
 178              		.align	1
 179              		.syntax unified
 180              		.thumb
 181              		.thumb_func
 182              		.fpu fpv5-sp-d16
 184              	Ft_Esd_ScrollPanel_TouchArea_X__Property:
 185              	.LFB38:
  21:FT_Esd_Widgets/Ft_Esd_ScrollPanel__Generated.c **** 
  22:FT_Esd_Widgets/Ft_Esd_ScrollPanel__Generated.c **** Ft_Esd_Theme * Ft_Esd_Theme_GetCurrent();
  23:FT_Esd_Widgets/Ft_Esd_ScrollPanel__Generated.c **** static int Ft_Esd_ScrollPanel_TouchArea_X__Property(void *context);
  24:FT_Esd_Widgets/Ft_Esd_ScrollPanel__Generated.c **** static int Ft_Esd_ScrollPanel_TouchArea_Y__Property(void *context);
  25:FT_Esd_Widgets/Ft_Esd_ScrollPanel__Generated.c **** static int Ft_Esd_ScrollPanel_TouchArea_Width__Property(void *context);
  26:FT_Esd_Widgets/Ft_Esd_ScrollPanel__Generated.c **** static int Ft_Esd_ScrollPanel_TouchArea_Height__Property(void *context);
  27:FT_Esd_Widgets/Ft_Esd_ScrollPanel__Generated.c **** 
  28:FT_Esd_Widgets/Ft_Esd_ScrollPanel__Generated.c **** static void Ft_Esd_ScrollPanel_TouchArea_Down__Signal(void *context);
  29:FT_Esd_Widgets/Ft_Esd_ScrollPanel__Generated.c **** 
  30:FT_Esd_Widgets/Ft_Esd_ScrollPanel__Generated.c **** void Ft_Esd_ScrollPanel__Initializer(Ft_Esd_ScrollPanel *context)
  31:FT_Esd_Widgets/Ft_Esd_ScrollPanel__Generated.c **** {
  32:FT_Esd_Widgets/Ft_Esd_ScrollPanel__Generated.c **** 	context->Parent = 0;
  33:FT_Esd_Widgets/Ft_Esd_ScrollPanel__Generated.c **** 	Ft_Esd_TouchArea__Initializer(&context->TouchArea);
  34:FT_Esd_Widgets/Ft_Esd_ScrollPanel__Generated.c **** 	context->TouchArea.Parent = context;
  35:FT_Esd_Widgets/Ft_Esd_ScrollPanel__Generated.c **** 	context->TouchArea.X = Ft_Esd_ScrollPanel_TouchArea_X__Property;
  36:FT_Esd_Widgets/Ft_Esd_ScrollPanel__Generated.c **** 	context->TouchArea.Y = Ft_Esd_ScrollPanel_TouchArea_Y__Property;
  37:FT_Esd_Widgets/Ft_Esd_ScrollPanel__Generated.c **** 	context->TouchArea.Width = Ft_Esd_ScrollPanel_TouchArea_Width__Property;
  38:FT_Esd_Widgets/Ft_Esd_ScrollPanel__Generated.c **** 	context->TouchArea.Height = Ft_Esd_ScrollPanel_TouchArea_Height__Property;
  39:FT_Esd_Widgets/Ft_Esd_ScrollPanel__Generated.c **** 	context->TouchArea.Down = Ft_Esd_ScrollPanel_TouchArea_Down__Signal;
  40:FT_Esd_Widgets/Ft_Esd_ScrollPanel__Generated.c **** 	context->Theme = Ft_Esd_ScrollPanel_Theme__Default;
  41:FT_Esd_Widgets/Ft_Esd_ScrollPanel__Generated.c **** 	context->X = Ft_Esd_ScrollPanel_X__Default;
  42:FT_Esd_Widgets/Ft_Esd_ScrollPanel__Generated.c **** 	context->Y = Ft_Esd_ScrollPanel_Y__Default;
  43:FT_Esd_Widgets/Ft_Esd_ScrollPanel__Generated.c **** 	context->Width = Ft_Esd_ScrollPanel_Width__Default;
  44:FT_Esd_Widgets/Ft_Esd_ScrollPanel__Generated.c **** 	context->Height = Ft_Esd_ScrollPanel_Height__Default;
  45:FT_Esd_Widgets/Ft_Esd_ScrollPanel__Generated.c **** 	context->Columns = Ft_Esd_ScrollPanel_Columns__Default;
  46:FT_Esd_Widgets/Ft_Esd_ScrollPanel__Generated.c **** 	context->OffsetY = 0L;
  47:FT_Esd_Widgets/Ft_Esd_ScrollPanel__Generated.c **** 	context->Margin = Ft_Esd_ScrollPanel_Margin__Default;
  48:FT_Esd_Widgets/Ft_Esd_ScrollPanel__Generated.c **** 	context->OffsetYRange = 0L;
  49:FT_Esd_Widgets/Ft_Esd_ScrollPanel__Generated.c **** 	context->PreviousTouchY = 0;
  50:FT_Esd_Widgets/Ft_Esd_ScrollPanel__Generated.c **** 	context->OffsetYChanged = Ft_Esd_ScrollPanel_OffsetYChanged__Noop;
  51:FT_Esd_Widgets/Ft_Esd_ScrollPanel__Generated.c **** 	context->CurrentX = 0L;
  52:FT_Esd_Widgets/Ft_Esd_ScrollPanel__Generated.c **** 	context->CurrentY = 0L;
  53:FT_Esd_Widgets/Ft_Esd_ScrollPanel__Generated.c **** 	context->PreviousOffsetY = 0;
  54:FT_Esd_Widgets/Ft_Esd_ScrollPanel__Generated.c **** 	context->First = 0x0;
  55:FT_Esd_Widgets/Ft_Esd_ScrollPanel__Generated.c **** 	context->Current = 0x0;
  56:FT_Esd_Widgets/Ft_Esd_ScrollPanel__Generated.c **** }
  57:FT_Esd_Widgets/Ft_Esd_ScrollPanel__Generated.c **** 
  58:FT_Esd_Widgets/Ft_Esd_ScrollPanel__Generated.c **** void Ft_Esd_ScrollPanel_Render_Contents(Ft_Esd_ScrollPanel *context);
ARM GAS  /var/folders/n8/cvzdcwlj0vl4g_wtyz1ffy300000gn/T//ccNmQxhK.s 			page 5


  59:FT_Esd_Widgets/Ft_Esd_ScrollPanel__Generated.c **** void Ft_Esd_ScrollPanel_Update_Scroll(Ft_Esd_ScrollPanel *context);
  60:FT_Esd_Widgets/Ft_Esd_ScrollPanel__Generated.c **** void Ft_Esd_ScrollPanel_Update_Contents(Ft_Esd_ScrollPanel *context);
  61:FT_Esd_Widgets/Ft_Esd_ScrollPanel__Generated.c **** void Ft_Esd_Elements_Panel(Ft_Esd_Theme *, ft_int16_t, ft_int16_t, ft_int16_t, ft_int16_t, ft_int16
  62:FT_Esd_Widgets/Ft_Esd_ScrollPanel__Generated.c **** 
  63:FT_Esd_Widgets/Ft_Esd_ScrollPanel__Generated.c **** void Ft_Esd_ScrollPanel_Render(Ft_Esd_ScrollPanel *context) {
  64:FT_Esd_Widgets/Ft_Esd_ScrollPanel__Generated.c **** 	void *parent = context->Parent;
  65:FT_Esd_Widgets/Ft_Esd_ScrollPanel__Generated.c **** 	ft_uint8_t alpha = 255;
  66:FT_Esd_Widgets/Ft_Esd_ScrollPanel__Generated.c **** 	Ft_Esd_Dl_COLOR_A(alpha);
  67:FT_Esd_Widgets/Ft_Esd_ScrollPanel__Generated.c **** 	Ft_Esd_Theme * theme = context->Theme(parent);
  68:FT_Esd_Widgets/Ft_Esd_ScrollPanel__Generated.c **** 	ft_int16_t x = context->X(parent);
  69:FT_Esd_Widgets/Ft_Esd_ScrollPanel__Generated.c **** 	ft_int16_t y = context->Y(parent);
  70:FT_Esd_Widgets/Ft_Esd_ScrollPanel__Generated.c **** 	ft_int16_t width = context->Width(parent);
  71:FT_Esd_Widgets/Ft_Esd_ScrollPanel__Generated.c **** 	ft_int16_t height = context->Height(parent);
  72:FT_Esd_Widgets/Ft_Esd_ScrollPanel__Generated.c **** 	ft_int16_t radius = 4;
  73:FT_Esd_Widgets/Ft_Esd_ScrollPanel__Generated.c **** 	ft_bool_t raised = 0;
  74:FT_Esd_Widgets/Ft_Esd_ScrollPanel__Generated.c **** 	Ft_Esd_Elements_Panel(theme, x, y, width, height, radius, raised);
  75:FT_Esd_Widgets/Ft_Esd_ScrollPanel__Generated.c **** 	Ft_Esd_ScrollPanel_Render_Contents(context);
  76:FT_Esd_Widgets/Ft_Esd_ScrollPanel__Generated.c **** }
  77:FT_Esd_Widgets/Ft_Esd_ScrollPanel__Generated.c **** 
  78:FT_Esd_Widgets/Ft_Esd_ScrollPanel__Generated.c **** void Ft_Esd_ScrollPanel_Update(Ft_Esd_ScrollPanel *context)
  79:FT_Esd_Widgets/Ft_Esd_ScrollPanel__Generated.c **** {
  80:FT_Esd_Widgets/Ft_Esd_ScrollPanel__Generated.c **** 	void *parent = context->Parent;
  81:FT_Esd_Widgets/Ft_Esd_ScrollPanel__Generated.c **** 	Ft_Esd_TouchArea_Update(&context->TouchArea);
  82:FT_Esd_Widgets/Ft_Esd_ScrollPanel__Generated.c **** 	Ft_Esd_ScrollPanel_Update_Scroll(context);
  83:FT_Esd_Widgets/Ft_Esd_ScrollPanel__Generated.c **** 	Ft_Esd_ScrollPanel_Update_Contents(context);
  84:FT_Esd_Widgets/Ft_Esd_ScrollPanel__Generated.c **** }
  85:FT_Esd_Widgets/Ft_Esd_ScrollPanel__Generated.c **** 
  86:FT_Esd_Widgets/Ft_Esd_ScrollPanel__Generated.c **** int Ft_Esd_ScrollPanel_TouchArea_X__Property(void *c)
  87:FT_Esd_Widgets/Ft_Esd_ScrollPanel__Generated.c **** {
 186              		.loc 1 87 0
 187              		.cfi_startproc
 188              		@ args = 0, pretend = 0, frame = 0
 189              		@ frame_needed = 0, uses_anonymous_args = 0
 190              	.LVL13:
 191 0000 08B5     		push	{r3, lr}
 192              	.LCFI0:
 193              		.cfi_def_cfa_offset 8
 194              		.cfi_offset 3, -8
 195              		.cfi_offset 14, -4
 196              	.LVL14:
  88:FT_Esd_Widgets/Ft_Esd_ScrollPanel__Generated.c **** 	Ft_Esd_ScrollPanel *context = (Ft_Esd_ScrollPanel *)c;
  89:FT_Esd_Widgets/Ft_Esd_ScrollPanel__Generated.c **** 	void *parent = context->Parent;
  90:FT_Esd_Widgets/Ft_Esd_ScrollPanel__Generated.c **** 	return context->X(parent);
 197              		.loc 1 90 0
 198 0002 C36A     		ldr	r3, [r0, #44]
 199 0004 0068     		ldr	r0, [r0]
 200              	.LVL15:
 201 0006 9847     		blx	r3
 202              	.LVL16:
  91:FT_Esd_Widgets/Ft_Esd_ScrollPanel__Generated.c **** }
 203              		.loc 1 91 0
 204 0008 08BD     		pop	{r3, pc}
 205              		.cfi_endproc
 206              	.LFE38:
 208              		.section	.text.Ft_Esd_ScrollPanel_TouchArea_Y__Property,"ax",%progbits
 209              		.align	1
 210              		.syntax unified
ARM GAS  /var/folders/n8/cvzdcwlj0vl4g_wtyz1ffy300000gn/T//ccNmQxhK.s 			page 6


 211              		.thumb
 212              		.thumb_func
 213              		.fpu fpv5-sp-d16
 215              	Ft_Esd_ScrollPanel_TouchArea_Y__Property:
 216              	.LFB39:
  92:FT_Esd_Widgets/Ft_Esd_ScrollPanel__Generated.c **** 
  93:FT_Esd_Widgets/Ft_Esd_ScrollPanel__Generated.c **** int Ft_Esd_ScrollPanel_TouchArea_Y__Property(void *c)
  94:FT_Esd_Widgets/Ft_Esd_ScrollPanel__Generated.c **** {
 217              		.loc 1 94 0
 218              		.cfi_startproc
 219              		@ args = 0, pretend = 0, frame = 0
 220              		@ frame_needed = 0, uses_anonymous_args = 0
 221              	.LVL17:
 222 0000 08B5     		push	{r3, lr}
 223              	.LCFI1:
 224              		.cfi_def_cfa_offset 8
 225              		.cfi_offset 3, -8
 226              		.cfi_offset 14, -4
 227              	.LVL18:
  95:FT_Esd_Widgets/Ft_Esd_ScrollPanel__Generated.c **** 	Ft_Esd_ScrollPanel *context = (Ft_Esd_ScrollPanel *)c;
  96:FT_Esd_Widgets/Ft_Esd_ScrollPanel__Generated.c **** 	void *parent = context->Parent;
  97:FT_Esd_Widgets/Ft_Esd_ScrollPanel__Generated.c **** 	return context->Y(parent);
 228              		.loc 1 97 0
 229 0002 036B     		ldr	r3, [r0, #48]
 230 0004 0068     		ldr	r0, [r0]
 231              	.LVL19:
 232 0006 9847     		blx	r3
 233              	.LVL20:
  98:FT_Esd_Widgets/Ft_Esd_ScrollPanel__Generated.c **** }
 234              		.loc 1 98 0
 235 0008 08BD     		pop	{r3, pc}
 236              		.cfi_endproc
 237              	.LFE39:
 239              		.section	.text.Ft_Esd_ScrollPanel_TouchArea_Width__Property,"ax",%progbits
 240              		.align	1
 241              		.syntax unified
 242              		.thumb
 243              		.thumb_func
 244              		.fpu fpv5-sp-d16
 246              	Ft_Esd_ScrollPanel_TouchArea_Width__Property:
 247              	.LFB40:
  99:FT_Esd_Widgets/Ft_Esd_ScrollPanel__Generated.c **** 
 100:FT_Esd_Widgets/Ft_Esd_ScrollPanel__Generated.c **** int Ft_Esd_ScrollPanel_TouchArea_Width__Property(void *c)
 101:FT_Esd_Widgets/Ft_Esd_ScrollPanel__Generated.c **** {
 248              		.loc 1 101 0
 249              		.cfi_startproc
 250              		@ args = 0, pretend = 0, frame = 0
 251              		@ frame_needed = 0, uses_anonymous_args = 0
 252              	.LVL21:
 253 0000 08B5     		push	{r3, lr}
 254              	.LCFI2:
 255              		.cfi_def_cfa_offset 8
 256              		.cfi_offset 3, -8
 257              		.cfi_offset 14, -4
 258              	.LVL22:
 102:FT_Esd_Widgets/Ft_Esd_ScrollPanel__Generated.c **** 	Ft_Esd_ScrollPanel *context = (Ft_Esd_ScrollPanel *)c;
 103:FT_Esd_Widgets/Ft_Esd_ScrollPanel__Generated.c **** 	void *parent = context->Parent;
ARM GAS  /var/folders/n8/cvzdcwlj0vl4g_wtyz1ffy300000gn/T//ccNmQxhK.s 			page 7


 104:FT_Esd_Widgets/Ft_Esd_ScrollPanel__Generated.c **** 	return context->Width(parent);
 259              		.loc 1 104 0
 260 0002 436B     		ldr	r3, [r0, #52]
 261 0004 0068     		ldr	r0, [r0]
 262              	.LVL23:
 263 0006 9847     		blx	r3
 264              	.LVL24:
 105:FT_Esd_Widgets/Ft_Esd_ScrollPanel__Generated.c **** }
 265              		.loc 1 105 0
 266 0008 08BD     		pop	{r3, pc}
 267              		.cfi_endproc
 268              	.LFE40:
 270              		.section	.text.Ft_Esd_ScrollPanel_TouchArea_Height__Property,"ax",%progbits
 271              		.align	1
 272              		.syntax unified
 273              		.thumb
 274              		.thumb_func
 275              		.fpu fpv5-sp-d16
 277              	Ft_Esd_ScrollPanel_TouchArea_Height__Property:
 278              	.LFB41:
 106:FT_Esd_Widgets/Ft_Esd_ScrollPanel__Generated.c **** 
 107:FT_Esd_Widgets/Ft_Esd_ScrollPanel__Generated.c **** int Ft_Esd_ScrollPanel_TouchArea_Height__Property(void *c)
 108:FT_Esd_Widgets/Ft_Esd_ScrollPanel__Generated.c **** {
 279              		.loc 1 108 0
 280              		.cfi_startproc
 281              		@ args = 0, pretend = 0, frame = 0
 282              		@ frame_needed = 0, uses_anonymous_args = 0
 283              	.LVL25:
 284 0000 08B5     		push	{r3, lr}
 285              	.LCFI3:
 286              		.cfi_def_cfa_offset 8
 287              		.cfi_offset 3, -8
 288              		.cfi_offset 14, -4
 289              	.LVL26:
 109:FT_Esd_Widgets/Ft_Esd_ScrollPanel__Generated.c **** 	Ft_Esd_ScrollPanel *context = (Ft_Esd_ScrollPanel *)c;
 110:FT_Esd_Widgets/Ft_Esd_ScrollPanel__Generated.c **** 	void *parent = context->Parent;
 111:FT_Esd_Widgets/Ft_Esd_ScrollPanel__Generated.c **** 	return context->Height(parent);
 290              		.loc 1 111 0
 291 0002 836B     		ldr	r3, [r0, #56]
 292 0004 0068     		ldr	r0, [r0]
 293              	.LVL27:
 294 0006 9847     		blx	r3
 295              	.LVL28:
 112:FT_Esd_Widgets/Ft_Esd_ScrollPanel__Generated.c **** }
 296              		.loc 1 112 0
 297 0008 08BD     		pop	{r3, pc}
 298              		.cfi_endproc
 299              	.LFE41:
 301              		.section	.text.Ft_Esd_ScrollPanel_Theme__Default,"ax",%progbits
 302              		.align	1
 303              		.global	Ft_Esd_ScrollPanel_Theme__Default
 304              		.syntax unified
 305              		.thumb
 306              		.thumb_func
 307              		.fpu fpv5-sp-d16
 309              	Ft_Esd_ScrollPanel_Theme__Default:
 310              	.LFB27:
ARM GAS  /var/folders/n8/cvzdcwlj0vl4g_wtyz1ffy300000gn/T//ccNmQxhK.s 			page 8


  13:FT_Esd_Widgets/Ft_Esd_ScrollPanel__Generated.c **** ft_int16_t Ft_Esd_ScrollPanel_X__Default(void *context) { return 0; }
 311              		.loc 1 13 0
 312              		.cfi_startproc
 313              		@ args = 0, pretend = 0, frame = 0
 314              		@ frame_needed = 0, uses_anonymous_args = 0
 315              	.LVL29:
 316 0000 08B5     		push	{r3, lr}
 317              	.LCFI4:
 318              		.cfi_def_cfa_offset 8
 319              		.cfi_offset 3, -8
 320              		.cfi_offset 14, -4
  13:FT_Esd_Widgets/Ft_Esd_ScrollPanel__Generated.c **** ft_int16_t Ft_Esd_ScrollPanel_X__Default(void *context) { return 0; }
 321              		.loc 1 13 0
 322 0002 FFF7FEFF 		bl	Ft_Esd_Theme_GetCurrent
 323              	.LVL30:
 324 0006 08BD     		pop	{r3, pc}
 325              		.cfi_endproc
 326              	.LFE27:
 328              		.section	.text.Ft_Esd_ScrollPanel_TouchArea_Down__Signal,"ax",%progbits
 329              		.align	1
 330              		.syntax unified
 331              		.thumb
 332              		.thumb_func
 333              		.fpu fpv5-sp-d16
 335              	Ft_Esd_ScrollPanel_TouchArea_Down__Signal:
 336              	.LFB42:
 113:FT_Esd_Widgets/Ft_Esd_ScrollPanel__Generated.c **** 
 114:FT_Esd_Widgets/Ft_Esd_ScrollPanel__Generated.c **** void Ft_Esd_ScrollPanel_TouchArea_Down__Signal(void *c)
 115:FT_Esd_Widgets/Ft_Esd_ScrollPanel__Generated.c **** {
 337              		.loc 1 115 0
 338              		.cfi_startproc
 339              		@ args = 0, pretend = 0, frame = 0
 340              		@ frame_needed = 0, uses_anonymous_args = 0
 341              	.LVL31:
 342 0000 10B5     		push	{r4, lr}
 343              	.LCFI5:
 344              		.cfi_def_cfa_offset 8
 345              		.cfi_offset 4, -8
 346              		.cfi_offset 14, -4
 347 0002 0446     		mov	r4, r0
 348              	.LVL32:
 116:FT_Esd_Widgets/Ft_Esd_ScrollPanel__Generated.c **** 	Ft_Esd_ScrollPanel *context = (Ft_Esd_ScrollPanel *)c;
 117:FT_Esd_Widgets/Ft_Esd_ScrollPanel__Generated.c **** 	void *parent = context->Parent;
 118:FT_Esd_Widgets/Ft_Esd_ScrollPanel__Generated.c **** 	ft_int16_t set_variable = Ft_Esd_TouchArea_TouchY(&context->TouchArea);
 349              		.loc 1 118 0
 350 0004 0430     		adds	r0, r0, #4
 351              	.LVL33:
 352 0006 FFF7FEFF 		bl	Ft_Esd_TouchArea_TouchY
 353              	.LVL34:
 119:FT_Esd_Widgets/Ft_Esd_ScrollPanel__Generated.c **** 	context->PreviousTouchY = set_variable;
 354              		.loc 1 119 0
 355 000a A4F84C00 		strh	r0, [r4, #76]	@ movhi
 120:FT_Esd_Widgets/Ft_Esd_ScrollPanel__Generated.c **** 	int set_variable_1 = context->OffsetY;
 356              		.loc 1 120 0
 357 000e 236C     		ldr	r3, [r4, #64]
 358              	.LVL35:
 121:FT_Esd_Widgets/Ft_Esd_ScrollPanel__Generated.c **** 	context->PreviousOffsetY = set_variable_1;
ARM GAS  /var/folders/n8/cvzdcwlj0vl4g_wtyz1ffy300000gn/T//ccNmQxhK.s 			page 9


 359              		.loc 1 121 0
 360 0010 A4F85C30 		strh	r3, [r4, #92]	@ movhi
 122:FT_Esd_Widgets/Ft_Esd_ScrollPanel__Generated.c **** }
 361              		.loc 1 122 0
 362 0014 10BD     		pop	{r4, pc}
 363              		.cfi_endproc
 364              	.LFE42:
 366              		.section	.text.Ft_Esd_ScrollPanel__Initializer,"ax",%progbits
 367              		.align	1
 368              		.global	Ft_Esd_ScrollPanel__Initializer
 369              		.syntax unified
 370              		.thumb
 371              		.thumb_func
 372              		.fpu fpv5-sp-d16
 374              	Ft_Esd_ScrollPanel__Initializer:
 375              	.LFB35:
  31:FT_Esd_Widgets/Ft_Esd_ScrollPanel__Generated.c **** 	context->Parent = 0;
 376              		.loc 1 31 0
 377              		.cfi_startproc
 378              		@ args = 0, pretend = 0, frame = 0
 379              		@ frame_needed = 0, uses_anonymous_args = 0
 380              	.LVL36:
 381 0000 38B5     		push	{r3, r4, r5, lr}
 382              	.LCFI6:
 383              		.cfi_def_cfa_offset 16
 384              		.cfi_offset 3, -16
 385              		.cfi_offset 4, -12
 386              		.cfi_offset 5, -8
 387              		.cfi_offset 14, -4
 388 0002 0446     		mov	r4, r0
  32:FT_Esd_Widgets/Ft_Esd_ScrollPanel__Generated.c **** 	Ft_Esd_TouchArea__Initializer(&context->TouchArea);
 389              		.loc 1 32 0
 390 0004 0025     		movs	r5, #0
 391 0006 40F8045B 		str	r5, [r0], #4
 392              	.LVL37:
  33:FT_Esd_Widgets/Ft_Esd_ScrollPanel__Generated.c **** 	context->TouchArea.Parent = context;
 393              		.loc 1 33 0
 394 000a FFF7FEFF 		bl	Ft_Esd_TouchArea__Initializer
 395              	.LVL38:
  34:FT_Esd_Widgets/Ft_Esd_ScrollPanel__Generated.c **** 	context->TouchArea.X = Ft_Esd_ScrollPanel_TouchArea_X__Property;
 396              		.loc 1 34 0
 397 000e 6460     		str	r4, [r4, #4]
  35:FT_Esd_Widgets/Ft_Esd_ScrollPanel__Generated.c **** 	context->TouchArea.Y = Ft_Esd_ScrollPanel_TouchArea_Y__Property;
 398              		.loc 1 35 0
 399 0010 124B     		ldr	r3, .L22
 400 0012 A361     		str	r3, [r4, #24]
  36:FT_Esd_Widgets/Ft_Esd_ScrollPanel__Generated.c **** 	context->TouchArea.Width = Ft_Esd_ScrollPanel_TouchArea_Width__Property;
 401              		.loc 1 36 0
 402 0014 124B     		ldr	r3, .L22+4
 403 0016 E361     		str	r3, [r4, #28]
  37:FT_Esd_Widgets/Ft_Esd_ScrollPanel__Generated.c **** 	context->TouchArea.Height = Ft_Esd_ScrollPanel_TouchArea_Height__Property;
 404              		.loc 1 37 0
 405 0018 124B     		ldr	r3, .L22+8
 406 001a 2362     		str	r3, [r4, #32]
  38:FT_Esd_Widgets/Ft_Esd_ScrollPanel__Generated.c **** 	context->TouchArea.Down = Ft_Esd_ScrollPanel_TouchArea_Down__Signal;
 407              		.loc 1 38 0
 408 001c 124B     		ldr	r3, .L22+12
ARM GAS  /var/folders/n8/cvzdcwlj0vl4g_wtyz1ffy300000gn/T//ccNmQxhK.s 			page 10


 409 001e 6362     		str	r3, [r4, #36]
  39:FT_Esd_Widgets/Ft_Esd_ScrollPanel__Generated.c **** 	context->Theme = Ft_Esd_ScrollPanel_Theme__Default;
 410              		.loc 1 39 0
 411 0020 124B     		ldr	r3, .L22+16
 412 0022 2361     		str	r3, [r4, #16]
  40:FT_Esd_Widgets/Ft_Esd_ScrollPanel__Generated.c **** 	context->X = Ft_Esd_ScrollPanel_X__Default;
 413              		.loc 1 40 0
 414 0024 124B     		ldr	r3, .L22+20
 415 0026 A362     		str	r3, [r4, #40]
  41:FT_Esd_Widgets/Ft_Esd_ScrollPanel__Generated.c **** 	context->Y = Ft_Esd_ScrollPanel_Y__Default;
 416              		.loc 1 41 0
 417 0028 124B     		ldr	r3, .L22+24
 418 002a E362     		str	r3, [r4, #44]
  42:FT_Esd_Widgets/Ft_Esd_ScrollPanel__Generated.c **** 	context->Width = Ft_Esd_ScrollPanel_Width__Default;
 419              		.loc 1 42 0
 420 002c 124B     		ldr	r3, .L22+28
 421 002e 2363     		str	r3, [r4, #48]
  43:FT_Esd_Widgets/Ft_Esd_ScrollPanel__Generated.c **** 	context->Height = Ft_Esd_ScrollPanel_Height__Default;
 422              		.loc 1 43 0
 423 0030 124B     		ldr	r3, .L22+32
 424 0032 6363     		str	r3, [r4, #52]
  44:FT_Esd_Widgets/Ft_Esd_ScrollPanel__Generated.c **** 	context->Columns = Ft_Esd_ScrollPanel_Columns__Default;
 425              		.loc 1 44 0
 426 0034 124B     		ldr	r3, .L22+36
 427 0036 A363     		str	r3, [r4, #56]
  45:FT_Esd_Widgets/Ft_Esd_ScrollPanel__Generated.c **** 	context->OffsetY = 0L;
 428              		.loc 1 45 0
 429 0038 124B     		ldr	r3, .L22+40
 430 003a E363     		str	r3, [r4, #60]
  46:FT_Esd_Widgets/Ft_Esd_ScrollPanel__Generated.c **** 	context->Margin = Ft_Esd_ScrollPanel_Margin__Default;
 431              		.loc 1 46 0
 432 003c 2564     		str	r5, [r4, #64]
  47:FT_Esd_Widgets/Ft_Esd_ScrollPanel__Generated.c **** 	context->OffsetYRange = 0L;
 433              		.loc 1 47 0
 434 003e 124B     		ldr	r3, .L22+44
 435 0040 6364     		str	r3, [r4, #68]
  48:FT_Esd_Widgets/Ft_Esd_ScrollPanel__Generated.c **** 	context->PreviousTouchY = 0;
 436              		.loc 1 48 0
 437 0042 A564     		str	r5, [r4, #72]
  49:FT_Esd_Widgets/Ft_Esd_ScrollPanel__Generated.c **** 	context->OffsetYChanged = Ft_Esd_ScrollPanel_OffsetYChanged__Noop;
 438              		.loc 1 49 0
 439 0044 A4F84C50 		strh	r5, [r4, #76]	@ movhi
  50:FT_Esd_Widgets/Ft_Esd_ScrollPanel__Generated.c **** 	context->CurrentX = 0L;
 440              		.loc 1 50 0
 441 0048 104B     		ldr	r3, .L22+48
 442 004a 2365     		str	r3, [r4, #80]
  51:FT_Esd_Widgets/Ft_Esd_ScrollPanel__Generated.c **** 	context->CurrentY = 0L;
 443              		.loc 1 51 0
 444 004c 6565     		str	r5, [r4, #84]
  52:FT_Esd_Widgets/Ft_Esd_ScrollPanel__Generated.c **** 	context->PreviousOffsetY = 0;
 445              		.loc 1 52 0
 446 004e A565     		str	r5, [r4, #88]
  53:FT_Esd_Widgets/Ft_Esd_ScrollPanel__Generated.c **** 	context->First = 0x0;
 447              		.loc 1 53 0
 448 0050 A4F85C50 		strh	r5, [r4, #92]	@ movhi
  54:FT_Esd_Widgets/Ft_Esd_ScrollPanel__Generated.c **** 	context->Current = 0x0;
 449              		.loc 1 54 0
ARM GAS  /var/folders/n8/cvzdcwlj0vl4g_wtyz1ffy300000gn/T//ccNmQxhK.s 			page 11


 450 0054 2566     		str	r5, [r4, #96]
  55:FT_Esd_Widgets/Ft_Esd_ScrollPanel__Generated.c **** }
 451              		.loc 1 55 0
 452 0056 6566     		str	r5, [r4, #100]
  56:FT_Esd_Widgets/Ft_Esd_ScrollPanel__Generated.c **** 
 453              		.loc 1 56 0
 454 0058 38BD     		pop	{r3, r4, r5, pc}
 455              	.LVL39:
 456              	.L23:
 457 005a 00BF     		.align	2
 458              	.L22:
 459 005c 00000000 		.word	Ft_Esd_ScrollPanel_TouchArea_X__Property
 460 0060 00000000 		.word	Ft_Esd_ScrollPanel_TouchArea_Y__Property
 461 0064 00000000 		.word	Ft_Esd_ScrollPanel_TouchArea_Width__Property
 462 0068 00000000 		.word	Ft_Esd_ScrollPanel_TouchArea_Height__Property
 463 006c 00000000 		.word	Ft_Esd_ScrollPanel_TouchArea_Down__Signal
 464 0070 00000000 		.word	Ft_Esd_ScrollPanel_Theme__Default
 465 0074 00000000 		.word	Ft_Esd_ScrollPanel_X__Default
 466 0078 00000000 		.word	Ft_Esd_ScrollPanel_Y__Default
 467 007c 00000000 		.word	Ft_Esd_ScrollPanel_Width__Default
 468 0080 00000000 		.word	Ft_Esd_ScrollPanel_Height__Default
 469 0084 00000000 		.word	Ft_Esd_ScrollPanel_Columns__Default
 470 0088 00000000 		.word	Ft_Esd_ScrollPanel_Margin__Default
 471 008c 00000000 		.word	Ft_Esd_ScrollPanel_OffsetYChanged__Noop
 472              		.cfi_endproc
 473              	.LFE35:
 475              		.section	.text.Ft_Esd_ScrollPanel_Render,"ax",%progbits
 476              		.align	1
 477              		.global	Ft_Esd_ScrollPanel_Render
 478              		.syntax unified
 479              		.thumb
 480              		.thumb_func
 481              		.fpu fpv5-sp-d16
 483              	Ft_Esd_ScrollPanel_Render:
 484              	.LFB36:
  63:FT_Esd_Widgets/Ft_Esd_ScrollPanel__Generated.c **** 	void *parent = context->Parent;
 485              		.loc 1 63 0
 486              		.cfi_startproc
 487              		@ args = 0, pretend = 0, frame = 0
 488              		@ frame_needed = 0, uses_anonymous_args = 0
 489              	.LVL40:
 490 0000 2DE9F043 		push	{r4, r5, r6, r7, r8, r9, lr}
 491              	.LCFI7:
 492              		.cfi_def_cfa_offset 28
 493              		.cfi_offset 4, -28
 494              		.cfi_offset 5, -24
 495              		.cfi_offset 6, -20
 496              		.cfi_offset 7, -16
 497              		.cfi_offset 8, -12
 498              		.cfi_offset 9, -8
 499              		.cfi_offset 14, -4
 500 0004 85B0     		sub	sp, sp, #20
 501              	.LCFI8:
 502              		.cfi_def_cfa_offset 48
 503 0006 0446     		mov	r4, r0
  64:FT_Esd_Widgets/Ft_Esd_ScrollPanel__Generated.c **** 	ft_uint8_t alpha = 255;
 504              		.loc 1 64 0
ARM GAS  /var/folders/n8/cvzdcwlj0vl4g_wtyz1ffy300000gn/T//ccNmQxhK.s 			page 12


 505 0008 0568     		ldr	r5, [r0]
 506              	.LVL41:
 507              	.LBB4:
 508              	.LBB5:
 509              		.file 2 "FT_Esd_Framework/FT_Esd_Dl.h"
   1:FT_Esd_Framework/FT_Esd_Dl.h **** 
   2:FT_Esd_Framework/FT_Esd_Dl.h **** #ifndef FT_ESD_DL_H
   3:FT_Esd_Framework/FT_Esd_Dl.h **** #define FT_ESD_DL_H
   4:FT_Esd_Framework/FT_Esd_Dl.h **** 
   5:FT_Esd_Framework/FT_Esd_Dl.h **** #include "FT_DataTypes.h"
   6:FT_Esd_Framework/FT_Esd_Dl.h **** #include "FT_Platform.h"
   7:FT_Esd_Framework/FT_Esd_Dl.h **** #include "Ft_Esd.h"
   8:FT_Esd_Framework/FT_Esd_Dl.h **** #include "FT_Gpu.h"
   9:FT_Esd_Framework/FT_Esd_Dl.h **** #include "Ft_Esd_BitmapInfo.h"
  10:FT_Esd_Framework/FT_Esd_Dl.h **** 
  11:FT_Esd_Framework/FT_Esd_Dl.h **** ESD_CATEGORY(EsdUtilities, DisplayName = "ESD Utilities")
  12:FT_Esd_Framework/FT_Esd_Dl.h **** ESD_CATEGORY(EveRenderFunctions, DisplayName = "EVE Render Functions")
  13:FT_Esd_Framework/FT_Esd_Dl.h **** 
  14:FT_Esd_Framework/FT_Esd_Dl.h **** ESD_TYPE(Ft_Gpu_Hal_Context_t *, Native = Pointer, Edit = Library)
  15:FT_Esd_Framework/FT_Esd_Dl.h **** 
  16:FT_Esd_Framework/FT_Esd_Dl.h **** // Keep cache of displaylist values that don't often change but are generally set by every widget t
  17:FT_Esd_Framework/FT_Esd_Dl.h **** #define FT_ESD_OPTIMIZE_DISPLAYLIST 1
  18:FT_Esd_Framework/FT_Esd_Dl.h **** #define FT_ESD_STATE_STACK_SIZE 5
  19:FT_Esd_Framework/FT_Esd_Dl.h **** 
  20:FT_Esd_Framework/FT_Esd_Dl.h **** #define FT_ESD_BITMAPHANDLE_INVALID 255
  21:FT_Esd_Framework/FT_Esd_Dl.h **** 
  22:FT_Esd_Framework/FT_Esd_Dl.h **** //
  23:FT_Esd_Framework/FT_Esd_Dl.h **** // Structs
  24:FT_Esd_Framework/FT_Esd_Dl.h **** //
  25:FT_Esd_Framework/FT_Esd_Dl.h **** #ifdef FT_ESD_OPTIMIZE_DISPLAYLIST
  26:FT_Esd_Framework/FT_Esd_Dl.h **** #define FT_ESD_STATE Ft_Esd_GpuState[Ft_Esd_GpuState_I]
  27:FT_Esd_Framework/FT_Esd_Dl.h **** typedef struct
  28:FT_Esd_Framework/FT_Esd_Dl.h **** {
  29:FT_Esd_Framework/FT_Esd_Dl.h **** 	// Keep to a minimum
  30:FT_Esd_Framework/FT_Esd_Dl.h **** #ifdef FT_81X_ENABLE
  31:FT_Esd_Framework/FT_Esd_Dl.h **** 	ft_uint32_t PaletteSource;
  32:FT_Esd_Framework/FT_Esd_Dl.h **** #endif
  33:FT_Esd_Framework/FT_Esd_Dl.h **** 	ft_uint32_t ColorRGB;
  34:FT_Esd_Framework/FT_Esd_Dl.h **** 	ft_uint8_t ColorA;
  35:FT_Esd_Framework/FT_Esd_Dl.h **** 	ft_uint8_t Handle;         // Current handle
  36:FT_Esd_Framework/FT_Esd_Dl.h **** 	ft_uint8_t Cell;           // Current cell
  37:FT_Esd_Framework/FT_Esd_Dl.h **** 	ft_bool_t BitmapTransform; // BitmapTransform other than default is set
  38:FT_Esd_Framework/FT_Esd_Dl.h **** #ifdef FT_81X_ENABLE
  39:FT_Esd_Framework/FT_Esd_Dl.h **** 	ft_uint8_t VertexFormat;   // Current vertex format
  40:FT_Esd_Framework/FT_Esd_Dl.h **** #endif
  41:FT_Esd_Framework/FT_Esd_Dl.h **** } Ft_Esd_GpuState_T;
  42:FT_Esd_Framework/FT_Esd_Dl.h **** #endif
  43:FT_Esd_Framework/FT_Esd_Dl.h **** 
  44:FT_Esd_Framework/FT_Esd_Dl.h **** //
  45:FT_Esd_Framework/FT_Esd_Dl.h **** // Globals
  46:FT_Esd_Framework/FT_Esd_Dl.h **** //
  47:FT_Esd_Framework/FT_Esd_Dl.h **** extern Ft_Gpu_Hal_Context_t *Ft_Esd_Host;
  48:FT_Esd_Framework/FT_Esd_Dl.h **** extern ft_uint16_t Ft_Esd_FontHeight[32];
  49:FT_Esd_Framework/FT_Esd_Dl.h **** #ifdef FT_ESD_OPTIMIZE_DISPLAYLIST
  50:FT_Esd_Framework/FT_Esd_Dl.h **** extern Ft_Esd_GpuState_T Ft_Esd_GpuState[FT_ESD_STATE_STACK_SIZE];
  51:FT_Esd_Framework/FT_Esd_Dl.h **** extern ft_uint8_t Ft_Esd_GpuState_I;
  52:FT_Esd_Framework/FT_Esd_Dl.h **** extern ft_uint32_t Ft_Esd_CoFgColor;
ARM GAS  /var/folders/n8/cvzdcwlj0vl4g_wtyz1ffy300000gn/T//ccNmQxhK.s 			page 13


  53:FT_Esd_Framework/FT_Esd_Dl.h **** extern ft_uint32_t Ft_Esd_CoBgColor;
  54:FT_Esd_Framework/FT_Esd_Dl.h **** #endif
  55:FT_Esd_Framework/FT_Esd_Dl.h **** 
  56:FT_Esd_Framework/FT_Esd_Dl.h **** //Get the height of builtin font
  57:FT_Esd_Framework/FT_Esd_Dl.h **** ESD_FUNCTION(Ft_Esd_GetFontHeight, Type = ft_uint16_t ,DisplayName = "Get Font Height", Category = 
  58:FT_Esd_Framework/FT_Esd_Dl.h **** ESD_PARAMETER(i, Type = int, DisplayName = "Bitmap Handle", Default = 0, Min = 0, Max = 31)
  59:FT_Esd_Framework/FT_Esd_Dl.h **** // inline static ft_uint16_t Ft_Esd_GetFontHeight(int i) { return Ft_Esd_FontHeight[i]; }
  60:FT_Esd_Framework/FT_Esd_Dl.h **** #define Ft_Esd_GetFontHeight(i) (Ft_Esd_FontHeight[i]);
  61:FT_Esd_Framework/FT_Esd_Dl.h **** 
  62:FT_Esd_Framework/FT_Esd_Dl.h **** // Reset any cached state
  63:FT_Esd_Framework/FT_Esd_Dl.h **** void Ft_Esd_ResetGpuState();
  64:FT_Esd_Framework/FT_Esd_Dl.h **** void Ft_Esd_ResetCoState();
  65:FT_Esd_Framework/FT_Esd_Dl.h **** 
  66:FT_Esd_Framework/FT_Esd_Dl.h **** ft_uint32_t Ft_Esd_BitmapHandle_GetTotalUsed();
  67:FT_Esd_Framework/FT_Esd_Dl.h **** ft_uint32_t Ft_Esd_BitmapHandle_GetTotal();
  68:FT_Esd_Framework/FT_Esd_Dl.h **** 
  69:FT_Esd_Framework/FT_Esd_Dl.h **** /// Set current tag. Must be returned to 255 after usage, to ensure next widgets don't draw with in
  70:FT_Esd_Framework/FT_Esd_Dl.h **** ESD_FUNCTION(Ft_Esd_Dl_TAG, Type = ft_void_t, Category = EveRenderFunctions, Inline)
  71:FT_Esd_Framework/FT_Esd_Dl.h **** ESD_PARAMETER(s, Type = ft_uint8_t, DisplayName = "Tag", Default = 255, Min = 0, Max = 255)
  72:FT_Esd_Framework/FT_Esd_Dl.h **** inline static ft_void_t Ft_Esd_Dl_TAG(ft_uint8_t s)
  73:FT_Esd_Framework/FT_Esd_Dl.h **** {
  74:FT_Esd_Framework/FT_Esd_Dl.h **** 	Ft_Gpu_Hal_WrCmd32(Ft_Esd_Host, TAG(s));
  75:FT_Esd_Framework/FT_Esd_Dl.h **** }
  76:FT_Esd_Framework/FT_Esd_Dl.h **** //Specify color RGB
  77:FT_Esd_Framework/FT_Esd_Dl.h **** ESD_FUNCTION(Ft_Esd_Dl_COLOR_RGB, Type = ft_void_t, Category = EveRenderFunctions, Inline)
  78:FT_Esd_Framework/FT_Esd_Dl.h **** ESD_PARAMETER(c, Type = ft_rgb32_t, DisplayName = "Color")
  79:FT_Esd_Framework/FT_Esd_Dl.h **** inline static ft_void_t Ft_Esd_Dl_COLOR_RGB(ft_rgb32_t c)
  80:FT_Esd_Framework/FT_Esd_Dl.h **** {
  81:FT_Esd_Framework/FT_Esd_Dl.h **** #if FT_ESD_OPTIMIZE_DISPLAYLIST
  82:FT_Esd_Framework/FT_Esd_Dl.h **** 	ft_rgb32_t rgb = c & 0xFFFFFF;
  83:FT_Esd_Framework/FT_Esd_Dl.h **** 	if (rgb != FT_ESD_STATE.ColorRGB)
  84:FT_Esd_Framework/FT_Esd_Dl.h **** 	{
  85:FT_Esd_Framework/FT_Esd_Dl.h **** #endif
  86:FT_Esd_Framework/FT_Esd_Dl.h **** 		Ft_Gpu_Hal_WrCmd32(Ft_Esd_Host, (4UL << 24) | (rgb));
  87:FT_Esd_Framework/FT_Esd_Dl.h **** #if FT_ESD_OPTIMIZE_DISPLAYLIST
  88:FT_Esd_Framework/FT_Esd_Dl.h **** 		FT_ESD_STATE.ColorRGB = rgb;
  89:FT_Esd_Framework/FT_Esd_Dl.h **** 	}
  90:FT_Esd_Framework/FT_Esd_Dl.h **** #endif
  91:FT_Esd_Framework/FT_Esd_Dl.h **** }
  92:FT_Esd_Framework/FT_Esd_Dl.h **** //Specify alpha channel
  93:FT_Esd_Framework/FT_Esd_Dl.h **** ESD_FUNCTION(Ft_Esd_Dl_COLOR_A, Type = ft_void_t, Category = EveRenderFunctions, Inline)
  94:FT_Esd_Framework/FT_Esd_Dl.h **** ESD_PARAMETER(alpha, Type = ft_uint8_t, Default = 255, Min = 0, Max = 255)
  95:FT_Esd_Framework/FT_Esd_Dl.h **** inline static ft_void_t Ft_Esd_Dl_COLOR_A(ft_uint8_t alpha)
  96:FT_Esd_Framework/FT_Esd_Dl.h **** {
  97:FT_Esd_Framework/FT_Esd_Dl.h **** #if FT_ESD_OPTIMIZE_DISPLAYLIST
  98:FT_Esd_Framework/FT_Esd_Dl.h **** 	if (alpha != FT_ESD_STATE.ColorA)
 510              		.loc 2 98 0
 511 000a 1C4B     		ldr	r3, .L27
 512 000c 1A78     		ldrb	r2, [r3]	@ zero_extendqisi2
 513 000e 1C4B     		ldr	r3, .L27+4
 514 0010 03EB0213 		add	r3, r3, r2, lsl #4
 515 0014 1B7A     		ldrb	r3, [r3, #8]	@ zero_extendqisi2
 516 0016 FF2B     		cmp	r3, #255
 517 0018 0BD0     		beq	.L25
  99:FT_Esd_Framework/FT_Esd_Dl.h **** 	{
 100:FT_Esd_Framework/FT_Esd_Dl.h **** #endif
 101:FT_Esd_Framework/FT_Esd_Dl.h **** 		Ft_Gpu_Hal_WrCmd32(Ft_Esd_Host, COLOR_A(alpha));
ARM GAS  /var/folders/n8/cvzdcwlj0vl4g_wtyz1ffy300000gn/T//ccNmQxhK.s 			page 14


 518              		.loc 2 101 0
 519 001a 1A49     		ldr	r1, .L27+8
 520 001c 1A4B     		ldr	r3, .L27+12
 521 001e 1868     		ldr	r0, [r3]
 522              	.LVL42:
 523 0020 FFF7FEFF 		bl	Ft_Gpu_Hal_WrCmd32
 524              	.LVL43:
 102:FT_Esd_Framework/FT_Esd_Dl.h **** #if FT_ESD_OPTIMIZE_DISPLAYLIST
 103:FT_Esd_Framework/FT_Esd_Dl.h **** 		FT_ESD_STATE.ColorA = alpha;
 525              		.loc 2 103 0
 526 0024 154B     		ldr	r3, .L27
 527 0026 1A78     		ldrb	r2, [r3]	@ zero_extendqisi2
 528 0028 154B     		ldr	r3, .L27+4
 529 002a 03EB0213 		add	r3, r3, r2, lsl #4
 530 002e FF22     		movs	r2, #255
 531 0030 1A72     		strb	r2, [r3, #8]
 532              	.L25:
 533              	.LVL44:
 534              	.LBE5:
 535              	.LBE4:
  67:FT_Esd_Widgets/Ft_Esd_ScrollPanel__Generated.c **** 	ft_int16_t x = context->X(parent);
 536              		.loc 1 67 0
 537 0032 A36A     		ldr	r3, [r4, #40]
 538 0034 2846     		mov	r0, r5
 539 0036 9847     		blx	r3
 540              	.LVL45:
 541 0038 0646     		mov	r6, r0
 542              	.LVL46:
  68:FT_Esd_Widgets/Ft_Esd_ScrollPanel__Generated.c **** 	ft_int16_t y = context->Y(parent);
 543              		.loc 1 68 0
 544 003a E36A     		ldr	r3, [r4, #44]
 545 003c 2846     		mov	r0, r5
 546              	.LVL47:
 547 003e 9847     		blx	r3
 548              	.LVL48:
 549 0040 0746     		mov	r7, r0
 550              	.LVL49:
  69:FT_Esd_Widgets/Ft_Esd_ScrollPanel__Generated.c **** 	ft_int16_t width = context->Width(parent);
 551              		.loc 1 69 0
 552 0042 236B     		ldr	r3, [r4, #48]
 553 0044 2846     		mov	r0, r5
 554 0046 9847     		blx	r3
 555              	.LVL50:
 556 0048 8046     		mov	r8, r0
 557              	.LVL51:
  70:FT_Esd_Widgets/Ft_Esd_ScrollPanel__Generated.c **** 	ft_int16_t height = context->Height(parent);
 558              		.loc 1 70 0
 559 004a 636B     		ldr	r3, [r4, #52]
 560 004c 2846     		mov	r0, r5
 561 004e 9847     		blx	r3
 562              	.LVL52:
 563 0050 8146     		mov	r9, r0
 564              	.LVL53:
  71:FT_Esd_Widgets/Ft_Esd_ScrollPanel__Generated.c **** 	ft_int16_t radius = 4;
 565              		.loc 1 71 0
 566 0052 A36B     		ldr	r3, [r4, #56]
 567 0054 2846     		mov	r0, r5
ARM GAS  /var/folders/n8/cvzdcwlj0vl4g_wtyz1ffy300000gn/T//ccNmQxhK.s 			page 15


 568 0056 9847     		blx	r3
 569              	.LVL54:
  74:FT_Esd_Widgets/Ft_Esd_ScrollPanel__Generated.c **** 	Ft_Esd_ScrollPanel_Render_Contents(context);
 570              		.loc 1 74 0
 571 0058 0023     		movs	r3, #0
 572 005a 0293     		str	r3, [sp, #8]
 573 005c 0423     		movs	r3, #4
 574 005e 0193     		str	r3, [sp, #4]
 575 0060 0090     		str	r0, [sp]
 576 0062 4B46     		mov	r3, r9
 577 0064 4246     		mov	r2, r8
 578 0066 3946     		mov	r1, r7
 579 0068 3046     		mov	r0, r6
 580              	.LVL55:
 581 006a FFF7FEFF 		bl	Ft_Esd_Elements_Panel
 582              	.LVL56:
  75:FT_Esd_Widgets/Ft_Esd_ScrollPanel__Generated.c **** }
 583              		.loc 1 75 0
 584 006e 2046     		mov	r0, r4
 585 0070 FFF7FEFF 		bl	Ft_Esd_ScrollPanel_Render_Contents
 586              	.LVL57:
  76:FT_Esd_Widgets/Ft_Esd_ScrollPanel__Generated.c **** 
 587              		.loc 1 76 0
 588 0074 05B0     		add	sp, sp, #20
 589              	.LCFI9:
 590              		.cfi_def_cfa_offset 28
 591              		@ sp needed
 592 0076 BDE8F083 		pop	{r4, r5, r6, r7, r8, r9, pc}
 593              	.LVL58:
 594              	.L28:
 595 007a 00BF     		.align	2
 596              	.L27:
 597 007c 00000000 		.word	Ft_Esd_GpuState_I
 598 0080 00000000 		.word	Ft_Esd_GpuState
 599 0084 FF000010 		.word	268435711
 600 0088 00000000 		.word	Ft_Esd_Host
 601              		.cfi_endproc
 602              	.LFE36:
 604              		.section	.text.Ft_Esd_ScrollPanel_Update,"ax",%progbits
 605              		.align	1
 606              		.global	Ft_Esd_ScrollPanel_Update
 607              		.syntax unified
 608              		.thumb
 609              		.thumb_func
 610              		.fpu fpv5-sp-d16
 612              	Ft_Esd_ScrollPanel_Update:
 613              	.LFB37:
  79:FT_Esd_Widgets/Ft_Esd_ScrollPanel__Generated.c **** 	void *parent = context->Parent;
 614              		.loc 1 79 0
 615              		.cfi_startproc
 616              		@ args = 0, pretend = 0, frame = 0
 617              		@ frame_needed = 0, uses_anonymous_args = 0
 618              	.LVL59:
 619 0000 10B5     		push	{r4, lr}
 620              	.LCFI10:
 621              		.cfi_def_cfa_offset 8
 622              		.cfi_offset 4, -8
ARM GAS  /var/folders/n8/cvzdcwlj0vl4g_wtyz1ffy300000gn/T//ccNmQxhK.s 			page 16


 623              		.cfi_offset 14, -4
 624 0002 0446     		mov	r4, r0
 625              	.LVL60:
  81:FT_Esd_Widgets/Ft_Esd_ScrollPanel__Generated.c **** 	Ft_Esd_ScrollPanel_Update_Scroll(context);
 626              		.loc 1 81 0
 627 0004 0430     		adds	r0, r0, #4
 628              	.LVL61:
 629 0006 FFF7FEFF 		bl	Ft_Esd_TouchArea_Update
 630              	.LVL62:
  82:FT_Esd_Widgets/Ft_Esd_ScrollPanel__Generated.c **** 	Ft_Esd_ScrollPanel_Update_Contents(context);
 631              		.loc 1 82 0
 632 000a 2046     		mov	r0, r4
 633 000c FFF7FEFF 		bl	Ft_Esd_ScrollPanel_Update_Scroll
 634              	.LVL63:
  83:FT_Esd_Widgets/Ft_Esd_ScrollPanel__Generated.c **** }
 635              		.loc 1 83 0
 636 0010 2046     		mov	r0, r4
 637 0012 FFF7FEFF 		bl	Ft_Esd_ScrollPanel_Update_Contents
 638              	.LVL64:
  84:FT_Esd_Widgets/Ft_Esd_ScrollPanel__Generated.c **** 
 639              		.loc 1 84 0
 640 0016 10BD     		pop	{r4, pc}
 641              		.cfi_endproc
 642              	.LFE37:
 644              		.text
 645              	.Letext0:
 646              		.file 3 "FT_Eve_Hal/FT_DataTypes.h"
 647              		.file 4 "/usr/local/Cellar/arm-none-eabi-gcc/20180627/arm-none-eabi/include/sys/lock.h"
 648              		.file 5 "/usr/local/Cellar/arm-none-eabi-gcc/20180627/arm-none-eabi/include/sys/_types.h"
 649              		.file 6 "/usr/local/Cellar/arm-none-eabi-gcc/20180627/lib/gcc/arm-none-eabi/7.3.1/include/stddef.h
 650              		.file 7 "/usr/local/Cellar/arm-none-eabi-gcc/20180627/arm-none-eabi/include/sys/unistd.h"
 651              		.file 8 "/usr/local/Cellar/arm-none-eabi-gcc/20180627/arm-none-eabi/include/sys/reent.h"
 652              		.file 9 "/usr/local/Cellar/arm-none-eabi-gcc/20180627/arm-none-eabi/include/stdlib.h"
 653              		.file 10 "FT_Eve_Hal/FT_Gpu_Hal.h"
 654              		.file 11 "FT_Esd_Framework/Ft_Esd.h"
 655              		.file 12 "FT_Esd_Widgets/Ft_Esd_Layout.h"
 656              		.file 13 "FT_Esd_Widgets/Ft_Esd_Theme.h"
 657              		.file 14 "FT_Esd_Widgets/Ft_Esd_TouchArea.h"
 658              		.file 15 "FT_Esd_Widgets/Ft_Esd_ScrollPanel.h"
ARM GAS  /var/folders/n8/cvzdcwlj0vl4g_wtyz1ffy300000gn/T//ccNmQxhK.s 			page 17

