ARM GAS  /var/folders/n8/cvzdcwlj0vl4g_wtyz1ffy300000gn/T//ccrAP5wE.s 			page 1


   1              		.cpu cortex-m7
   2              		.eabi_attribute 27, 1
   3              		.eabi_attribute 28, 1
   4              		.eabi_attribute 20, 1
   5              		.eabi_attribute 21, 1
   6              		.eabi_attribute 23, 3
   7              		.eabi_attribute 24, 1
   8              		.eabi_attribute 25, 1
   9              		.eabi_attribute 26, 1
  10              		.eabi_attribute 30, 1
  11              		.eabi_attribute 34, 1
  12              		.eabi_attribute 18, 4
  13              		.file	"Ft_Esd_ColorPicker__Generated.c"
  14              		.text
  15              	.Ltext0:
  16              		.cfi_sections	.debug_frame
  17              		.section	.text.Ft_Esd_ColorPicker_X__Default,"ax",%progbits
  18              		.align	1
  19              		.global	Ft_Esd_ColorPicker_X__Default
  20              		.syntax unified
  21              		.thumb
  22              		.thumb_func
  23              		.fpu fpv5-sp-d16
  25              	Ft_Esd_ColorPicker_X__Default:
  26              	.LFB26:
  27              		.file 1 "FT_Esd_Widgets/Ft_Esd_ColorPicker__Generated.c"
   1:FT_Esd_Widgets/Ft_Esd_ColorPicker__Generated.c **** /*
   2:FT_Esd_Widgets/Ft_Esd_ColorPicker__Generated.c **** This file is automatically generated
   3:FT_Esd_Widgets/Ft_Esd_ColorPicker__Generated.c **** Ft_Esd_ColorPicker
   4:FT_Esd_Widgets/Ft_Esd_ColorPicker__Generated.c **** C Source
   5:FT_Esd_Widgets/Ft_Esd_ColorPicker__Generated.c **** */
   6:FT_Esd_Widgets/Ft_Esd_ColorPicker__Generated.c **** 
   7:FT_Esd_Widgets/Ft_Esd_ColorPicker__Generated.c **** #include "Ft_Esd_ColorPicker.h"
   8:FT_Esd_Widgets/Ft_Esd_ColorPicker__Generated.c **** 
   9:FT_Esd_Widgets/Ft_Esd_ColorPicker__Generated.c **** #include "FT_Esd_Dl.h"
  10:FT_Esd_Widgets/Ft_Esd_ColorPicker__Generated.c **** #include "FT_Esd_Primitives.h"
  11:FT_Esd_Widgets/Ft_Esd_ColorPicker__Generated.c **** 
  12:FT_Esd_Widgets/Ft_Esd_ColorPicker__Generated.c **** extern void Ft_Esd_Noop(void *context);
  13:FT_Esd_Widgets/Ft_Esd_ColorPicker__Generated.c **** int Ft_Esd_ColorPicker_X__Default(void *context) { return 0L; }
  28              		.loc 1 13 0
  29              		.cfi_startproc
  30              		@ args = 0, pretend = 0, frame = 0
  31              		@ frame_needed = 0, uses_anonymous_args = 0
  32              		@ link register save eliminated.
  33              	.LVL0:
  34              		.loc 1 13 0
  35 0000 0020     		movs	r0, #0
  36              	.LVL1:
  37 0002 7047     		bx	lr
  38              		.cfi_endproc
  39              	.LFE26:
  41              		.section	.text.Ft_Esd_ColorPicker_Y__Default,"ax",%progbits
  42              		.align	1
  43              		.global	Ft_Esd_ColorPicker_Y__Default
  44              		.syntax unified
  45              		.thumb
  46              		.thumb_func
ARM GAS  /var/folders/n8/cvzdcwlj0vl4g_wtyz1ffy300000gn/T//ccrAP5wE.s 			page 2


  47              		.fpu fpv5-sp-d16
  49              	Ft_Esd_ColorPicker_Y__Default:
  50              	.LFB27:
  14:FT_Esd_Widgets/Ft_Esd_ColorPicker__Generated.c **** int Ft_Esd_ColorPicker_Y__Default(void *context) { return 0L; }
  51              		.loc 1 14 0
  52              		.cfi_startproc
  53              		@ args = 0, pretend = 0, frame = 0
  54              		@ frame_needed = 0, uses_anonymous_args = 0
  55              		@ link register save eliminated.
  56              	.LVL2:
  57              		.loc 1 14 0
  58 0000 0020     		movs	r0, #0
  59              	.LVL3:
  60 0002 7047     		bx	lr
  61              		.cfi_endproc
  62              	.LFE27:
  64              		.global	__aeabi_i2d
  65              		.section	.text.Ft_Esd_ColorPicker_getSat__return,"ax",%progbits
  66              		.align	1
  67              		.syntax unified
  68              		.thumb
  69              		.thumb_func
  70              		.fpu fpv5-sp-d16
  72              	Ft_Esd_ColorPicker_getSat__return:
  73              	.LFB30:
  15:FT_Esd_Widgets/Ft_Esd_ColorPicker__Generated.c **** 
  16:FT_Esd_Widgets/Ft_Esd_ColorPicker__Generated.c **** 
  17:FT_Esd_Widgets/Ft_Esd_ColorPicker__Generated.c **** 
  18:FT_Esd_Widgets/Ft_Esd_ColorPicker__Generated.c **** void Ft_Esd_ColorPicker__Initializer(Ft_Esd_ColorPicker *context)
  19:FT_Esd_Widgets/Ft_Esd_ColorPicker__Generated.c **** {
  20:FT_Esd_Widgets/Ft_Esd_ColorPicker__Generated.c **** 	context->Parent = 0;
  21:FT_Esd_Widgets/Ft_Esd_ColorPicker__Generated.c **** 	context->Bitmap = 0;
  22:FT_Esd_Widgets/Ft_Esd_ColorPicker__Generated.c **** 	context->Radius = 125L;
  23:FT_Esd_Widgets/Ft_Esd_ColorPicker__Generated.c **** 	context->X = Ft_Esd_ColorPicker_X__Default;
  24:FT_Esd_Widgets/Ft_Esd_ColorPicker__Generated.c **** 	context->Y = Ft_Esd_ColorPicker_Y__Default;
  25:FT_Esd_Widgets/Ft_Esd_ColorPicker__Generated.c **** 	Ft_Esd_TouchTag__Initializer(&context->Touch_Tag);
  26:FT_Esd_Widgets/Ft_Esd_ColorPicker__Generated.c **** 	context->Touch_Tag.Parent = context;
  27:FT_Esd_Widgets/Ft_Esd_ColorPicker__Generated.c **** 	context->Color = 0xffffffffUL;
  28:FT_Esd_Widgets/Ft_Esd_ColorPicker__Generated.c **** }
  29:FT_Esd_Widgets/Ft_Esd_ColorPicker__Generated.c **** 
  30:FT_Esd_Widgets/Ft_Esd_ColorPicker__Generated.c **** static double Ft_Esd_ColorPicker_getSat__return(Ft_Esd_ColorPicker *context);
  31:FT_Esd_Widgets/Ft_Esd_ColorPicker__Generated.c **** 
  32:FT_Esd_Widgets/Ft_Esd_ColorPicker__Generated.c **** double getHue(int, int, int, int);
  33:FT_Esd_Widgets/Ft_Esd_ColorPicker__Generated.c **** double getSat(int, int, int, int, double);
  34:FT_Esd_Widgets/Ft_Esd_ColorPicker__Generated.c **** ft_argb32_t hsvToRgb(double, double, double);
  35:FT_Esd_Widgets/Ft_Esd_ColorPicker__Generated.c **** ft_void_t Ft_Esd_Render_Bitmap(ft_int16_t, ft_int16_t, Ft_Esd_BitmapCell *, ft_argb32_t);
  36:FT_Esd_Widgets/Ft_Esd_ColorPicker__Generated.c **** 
  37:FT_Esd_Widgets/Ft_Esd_ColorPicker__Generated.c **** void Ft_Esd_ColorPicker_Render(Ft_Esd_ColorPicker *context)
  38:FT_Esd_Widgets/Ft_Esd_ColorPicker__Generated.c **** {
  39:FT_Esd_Widgets/Ft_Esd_ColorPicker__Generated.c **** 	void *parent = context->Parent;
  40:FT_Esd_Widgets/Ft_Esd_ColorPicker__Generated.c **** 	ft_uint8_t s = Ft_Esd_TouchTag_Tag(&context->Touch_Tag);
  41:FT_Esd_Widgets/Ft_Esd_ColorPicker__Generated.c **** 	Ft_Esd_Dl_TAG(s);
  42:FT_Esd_Widgets/Ft_Esd_ColorPicker__Generated.c **** 	int x = context->X(parent);
  43:FT_Esd_Widgets/Ft_Esd_ColorPicker__Generated.c **** 	int y = context->Y(parent);
  44:FT_Esd_Widgets/Ft_Esd_ColorPicker__Generated.c **** 	Ft_Esd_BitmapCell * bitmapCell = context->Bitmap;
  45:FT_Esd_Widgets/Ft_Esd_ColorPicker__Generated.c **** 	ft_argb32_t c = 0xffffffffUL;
  46:FT_Esd_Widgets/Ft_Esd_ColorPicker__Generated.c **** 	Ft_Esd_Render_Bitmap(x, y, bitmapCell, c);
ARM GAS  /var/folders/n8/cvzdcwlj0vl4g_wtyz1ffy300000gn/T//ccrAP5wE.s 			page 3


  47:FT_Esd_Widgets/Ft_Esd_ColorPicker__Generated.c **** 	ft_uint8_t s_1 = 255;
  48:FT_Esd_Widgets/Ft_Esd_ColorPicker__Generated.c **** 	Ft_Esd_Dl_TAG(s_1);
  49:FT_Esd_Widgets/Ft_Esd_ColorPicker__Generated.c **** }
  50:FT_Esd_Widgets/Ft_Esd_ColorPicker__Generated.c **** 
  51:FT_Esd_Widgets/Ft_Esd_ColorPicker__Generated.c **** double Ft_Esd_ColorPicker_getSat__return(Ft_Esd_ColorPicker *context)
  52:FT_Esd_Widgets/Ft_Esd_ColorPicker__Generated.c **** {
  74              		.loc 1 52 0
  75              		.cfi_startproc
  76              		@ args = 0, pretend = 0, frame = 0
  77              		@ frame_needed = 0, uses_anonymous_args = 0
  78              	.LVL4:
  79 0000 2DE9F041 		push	{r4, r5, r6, r7, r8, lr}
  80              	.LCFI0:
  81              		.cfi_def_cfa_offset 24
  82              		.cfi_offset 4, -24
  83              		.cfi_offset 5, -20
  84              		.cfi_offset 6, -16
  85              		.cfi_offset 7, -12
  86              		.cfi_offset 8, -8
  87              		.cfi_offset 14, -4
  88 0004 0446     		mov	r4, r0
  53:FT_Esd_Widgets/Ft_Esd_ColorPicker__Generated.c **** 	void *parent = context->Parent;
  89              		.loc 1 53 0
  90 0006 0668     		ldr	r6, [r0]
  91              	.LVL5:
  54:FT_Esd_Widgets/Ft_Esd_ColorPicker__Generated.c **** 	int left = context->X(parent);
  92              		.loc 1 54 0
  93 0008 C368     		ldr	r3, [r0, #12]
  94 000a 3046     		mov	r0, r6
  95              	.LVL6:
  96 000c 9847     		blx	r3
  97              	.LVL7:
  55:FT_Esd_Widgets/Ft_Esd_ColorPicker__Generated.c **** 	int right = context->Radius;
  98              		.loc 1 55 0
  99 000e A568     		ldr	r5, [r4, #8]
 100              	.LVL8:
  56:FT_Esd_Widgets/Ft_Esd_ColorPicker__Generated.c **** 	int x0 = left + right;
 101              		.loc 1 56 0
 102 0010 0544     		add	r5, r5, r0
 103              	.LVL9:
  57:FT_Esd_Widgets/Ft_Esd_ColorPicker__Generated.c **** 	int left_1 = context->Y(parent);
 104              		.loc 1 57 0
 105 0012 2369     		ldr	r3, [r4, #16]
 106 0014 3046     		mov	r0, r6
 107              	.LVL10:
 108 0016 9847     		blx	r3
 109              	.LVL11:
  58:FT_Esd_Widgets/Ft_Esd_ColorPicker__Generated.c **** 	int right_1 = context->Radius;
 110              		.loc 1 58 0
 111 0018 A168     		ldr	r1, [r4, #8]
 112              	.LVL12:
  59:FT_Esd_Widgets/Ft_Esd_ColorPicker__Generated.c **** 	int y0 = left_1 + right_1;
 113              		.loc 1 59 0
 114 001a 4618     		adds	r6, r0, r1
 115              	.LVL13:
  60:FT_Esd_Widgets/Ft_Esd_ColorPicker__Generated.c **** 	ft_int16_t x1 = Ft_Esd_TouchTag_TouchX(&context->Touch_Tag);
 116              		.loc 1 60 0
ARM GAS  /var/folders/n8/cvzdcwlj0vl4g_wtyz1ffy300000gn/T//ccrAP5wE.s 			page 4


 117 001c 04F11407 		add	r7, r4, #20
 118 0020 3846     		mov	r0, r7
 119              	.LVL14:
 120 0022 FFF7FEFF 		bl	Ft_Esd_TouchTag_TouchX
 121              	.LVL15:
 122 0026 8046     		mov	r8, r0
 123              	.LVL16:
  61:FT_Esd_Widgets/Ft_Esd_ColorPicker__Generated.c **** 	ft_int16_t y1 = Ft_Esd_TouchTag_TouchY(&context->Touch_Tag);
 124              		.loc 1 61 0
 125 0028 3846     		mov	r0, r7
 126 002a FFF7FEFF 		bl	Ft_Esd_TouchTag_TouchY
 127              	.LVL17:
 128 002e 0746     		mov	r7, r0
 129              	.LVL18:
  62:FT_Esd_Widgets/Ft_Esd_ColorPicker__Generated.c **** 	int r = context->Radius;
  63:FT_Esd_Widgets/Ft_Esd_ColorPicker__Generated.c **** 	return getSat(x0, y0, x1, y1, r);
 130              		.loc 1 63 0
 131 0030 A068     		ldr	r0, [r4, #8]
 132 0032 FFF7FEFF 		bl	__aeabi_i2d
 133              	.LVL19:
 134 0036 41EC100B 		vmov	d0, r0, r1
 135 003a 3B46     		mov	r3, r7
 136 003c 4246     		mov	r2, r8
 137 003e 3146     		mov	r1, r6
 138 0040 2846     		mov	r0, r5
 139 0042 FFF7FEFF 		bl	getSat
 140              	.LVL20:
  64:FT_Esd_Widgets/Ft_Esd_ColorPicker__Generated.c **** }
 141              		.loc 1 64 0
 142 0046 51EC100B 		vmov	r0, r1, d0
 143 004a BDE8F081 		pop	{r4, r5, r6, r7, r8, pc}
 144              		.cfi_endproc
 145              	.LFE30:
 147              		.section	.text.Ft_Esd_ColorPicker__Initializer,"ax",%progbits
 148              		.align	1
 149              		.global	Ft_Esd_ColorPicker__Initializer
 150              		.syntax unified
 151              		.thumb
 152              		.thumb_func
 153              		.fpu fpv5-sp-d16
 155              	Ft_Esd_ColorPicker__Initializer:
 156              	.LFB28:
  19:FT_Esd_Widgets/Ft_Esd_ColorPicker__Generated.c **** 	context->Parent = 0;
 157              		.loc 1 19 0
 158              		.cfi_startproc
 159              		@ args = 0, pretend = 0, frame = 0
 160              		@ frame_needed = 0, uses_anonymous_args = 0
 161              	.LVL21:
 162 0000 10B5     		push	{r4, lr}
 163              	.LCFI1:
 164              		.cfi_def_cfa_offset 8
 165              		.cfi_offset 4, -8
 166              		.cfi_offset 14, -4
 167 0002 0446     		mov	r4, r0
  20:FT_Esd_Widgets/Ft_Esd_ColorPicker__Generated.c **** 	context->Bitmap = 0;
 168              		.loc 1 20 0
 169 0004 0023     		movs	r3, #0
ARM GAS  /var/folders/n8/cvzdcwlj0vl4g_wtyz1ffy300000gn/T//ccrAP5wE.s 			page 5


 170 0006 0360     		str	r3, [r0]
  21:FT_Esd_Widgets/Ft_Esd_ColorPicker__Generated.c **** 	context->Radius = 125L;
 171              		.loc 1 21 0
 172 0008 4360     		str	r3, [r0, #4]
  22:FT_Esd_Widgets/Ft_Esd_ColorPicker__Generated.c **** 	context->X = Ft_Esd_ColorPicker_X__Default;
 173              		.loc 1 22 0
 174 000a 7D23     		movs	r3, #125
 175 000c 8360     		str	r3, [r0, #8]
  23:FT_Esd_Widgets/Ft_Esd_ColorPicker__Generated.c **** 	context->Y = Ft_Esd_ColorPicker_Y__Default;
 176              		.loc 1 23 0
 177 000e 064B     		ldr	r3, .L7
 178 0010 C360     		str	r3, [r0, #12]
  24:FT_Esd_Widgets/Ft_Esd_ColorPicker__Generated.c **** 	Ft_Esd_TouchTag__Initializer(&context->Touch_Tag);
 179              		.loc 1 24 0
 180 0012 064B     		ldr	r3, .L7+4
 181 0014 0361     		str	r3, [r0, #16]
  25:FT_Esd_Widgets/Ft_Esd_ColorPicker__Generated.c **** 	context->Touch_Tag.Parent = context;
 182              		.loc 1 25 0
 183 0016 1430     		adds	r0, r0, #20
 184              	.LVL22:
 185 0018 FFF7FEFF 		bl	Ft_Esd_TouchTag__Initializer
 186              	.LVL23:
  26:FT_Esd_Widgets/Ft_Esd_ColorPicker__Generated.c **** 	context->Color = 0xffffffffUL;
 187              		.loc 1 26 0
 188 001c 6461     		str	r4, [r4, #20]
  27:FT_Esd_Widgets/Ft_Esd_ColorPicker__Generated.c **** }
 189              		.loc 1 27 0
 190 001e 4FF0FF33 		mov	r3, #-1
 191 0022 E362     		str	r3, [r4, #44]
  28:FT_Esd_Widgets/Ft_Esd_ColorPicker__Generated.c **** 
 192              		.loc 1 28 0
 193 0024 10BD     		pop	{r4, pc}
 194              	.LVL24:
 195              	.L8:
 196 0026 00BF     		.align	2
 197              	.L7:
 198 0028 00000000 		.word	Ft_Esd_ColorPicker_X__Default
 199 002c 00000000 		.word	Ft_Esd_ColorPicker_Y__Default
 200              		.cfi_endproc
 201              	.LFE28:
 203              		.section	.text.Ft_Esd_ColorPicker_Render,"ax",%progbits
 204              		.align	1
 205              		.global	Ft_Esd_ColorPicker_Render
 206              		.syntax unified
 207              		.thumb
 208              		.thumb_func
 209              		.fpu fpv5-sp-d16
 211              	Ft_Esd_ColorPicker_Render:
 212              	.LFB29:
  38:FT_Esd_Widgets/Ft_Esd_ColorPicker__Generated.c **** 	void *parent = context->Parent;
 213              		.loc 1 38 0
 214              		.cfi_startproc
 215              		@ args = 0, pretend = 0, frame = 0
 216              		@ frame_needed = 0, uses_anonymous_args = 0
 217              	.LVL25:
 218 0000 F8B5     		push	{r3, r4, r5, r6, r7, lr}
 219              	.LCFI2:
ARM GAS  /var/folders/n8/cvzdcwlj0vl4g_wtyz1ffy300000gn/T//ccrAP5wE.s 			page 6


 220              		.cfi_def_cfa_offset 24
 221              		.cfi_offset 3, -24
 222              		.cfi_offset 4, -20
 223              		.cfi_offset 5, -16
 224              		.cfi_offset 6, -12
 225              		.cfi_offset 7, -8
 226              		.cfi_offset 14, -4
 227 0002 0446     		mov	r4, r0
  39:FT_Esd_Widgets/Ft_Esd_ColorPicker__Generated.c **** 	ft_uint8_t s = Ft_Esd_TouchTag_Tag(&context->Touch_Tag);
 228              		.loc 1 39 0
 229 0004 50F8146B 		ldr	r6, [r0], #20
 230              	.LVL26:
  40:FT_Esd_Widgets/Ft_Esd_ColorPicker__Generated.c **** 	Ft_Esd_Dl_TAG(s);
 231              		.loc 1 40 0
 232 0008 FFF7FEFF 		bl	Ft_Esd_TouchTag_Tag
 233              	.LVL27:
 234              	.LBB6:
 235              	.LBB7:
 236              		.file 2 "FT_Esd_Framework/FT_Esd_Dl.h"
   1:FT_Esd_Framework/FT_Esd_Dl.h **** 
   2:FT_Esd_Framework/FT_Esd_Dl.h **** #ifndef FT_ESD_DL_H
   3:FT_Esd_Framework/FT_Esd_Dl.h **** #define FT_ESD_DL_H
   4:FT_Esd_Framework/FT_Esd_Dl.h **** 
   5:FT_Esd_Framework/FT_Esd_Dl.h **** #include "FT_DataTypes.h"
   6:FT_Esd_Framework/FT_Esd_Dl.h **** #include "FT_Platform.h"
   7:FT_Esd_Framework/FT_Esd_Dl.h **** #include "Ft_Esd.h"
   8:FT_Esd_Framework/FT_Esd_Dl.h **** #include "FT_Gpu.h"
   9:FT_Esd_Framework/FT_Esd_Dl.h **** #include "Ft_Esd_BitmapInfo.h"
  10:FT_Esd_Framework/FT_Esd_Dl.h **** 
  11:FT_Esd_Framework/FT_Esd_Dl.h **** ESD_CATEGORY(EsdUtilities, DisplayName = "ESD Utilities")
  12:FT_Esd_Framework/FT_Esd_Dl.h **** ESD_CATEGORY(EveRenderFunctions, DisplayName = "EVE Render Functions")
  13:FT_Esd_Framework/FT_Esd_Dl.h **** 
  14:FT_Esd_Framework/FT_Esd_Dl.h **** ESD_TYPE(Ft_Gpu_Hal_Context_t *, Native = Pointer, Edit = Library)
  15:FT_Esd_Framework/FT_Esd_Dl.h **** 
  16:FT_Esd_Framework/FT_Esd_Dl.h **** // Keep cache of displaylist values that don't often change but are generally set by every widget t
  17:FT_Esd_Framework/FT_Esd_Dl.h **** #define FT_ESD_OPTIMIZE_DISPLAYLIST 1
  18:FT_Esd_Framework/FT_Esd_Dl.h **** #define FT_ESD_STATE_STACK_SIZE 5
  19:FT_Esd_Framework/FT_Esd_Dl.h **** 
  20:FT_Esd_Framework/FT_Esd_Dl.h **** #define FT_ESD_BITMAPHANDLE_INVALID 255
  21:FT_Esd_Framework/FT_Esd_Dl.h **** 
  22:FT_Esd_Framework/FT_Esd_Dl.h **** //
  23:FT_Esd_Framework/FT_Esd_Dl.h **** // Structs
  24:FT_Esd_Framework/FT_Esd_Dl.h **** //
  25:FT_Esd_Framework/FT_Esd_Dl.h **** #ifdef FT_ESD_OPTIMIZE_DISPLAYLIST
  26:FT_Esd_Framework/FT_Esd_Dl.h **** #define FT_ESD_STATE Ft_Esd_GpuState[Ft_Esd_GpuState_I]
  27:FT_Esd_Framework/FT_Esd_Dl.h **** typedef struct
  28:FT_Esd_Framework/FT_Esd_Dl.h **** {
  29:FT_Esd_Framework/FT_Esd_Dl.h **** 	// Keep to a minimum
  30:FT_Esd_Framework/FT_Esd_Dl.h **** #ifdef FT_81X_ENABLE
  31:FT_Esd_Framework/FT_Esd_Dl.h **** 	ft_uint32_t PaletteSource;
  32:FT_Esd_Framework/FT_Esd_Dl.h **** #endif
  33:FT_Esd_Framework/FT_Esd_Dl.h **** 	ft_uint32_t ColorRGB;
  34:FT_Esd_Framework/FT_Esd_Dl.h **** 	ft_uint8_t ColorA;
  35:FT_Esd_Framework/FT_Esd_Dl.h **** 	ft_uint8_t Handle;         // Current handle
  36:FT_Esd_Framework/FT_Esd_Dl.h **** 	ft_uint8_t Cell;           // Current cell
  37:FT_Esd_Framework/FT_Esd_Dl.h **** 	ft_bool_t BitmapTransform; // BitmapTransform other than default is set
  38:FT_Esd_Framework/FT_Esd_Dl.h **** #ifdef FT_81X_ENABLE
ARM GAS  /var/folders/n8/cvzdcwlj0vl4g_wtyz1ffy300000gn/T//ccrAP5wE.s 			page 7


  39:FT_Esd_Framework/FT_Esd_Dl.h **** 	ft_uint8_t VertexFormat;   // Current vertex format
  40:FT_Esd_Framework/FT_Esd_Dl.h **** #endif
  41:FT_Esd_Framework/FT_Esd_Dl.h **** } Ft_Esd_GpuState_T;
  42:FT_Esd_Framework/FT_Esd_Dl.h **** #endif
  43:FT_Esd_Framework/FT_Esd_Dl.h **** 
  44:FT_Esd_Framework/FT_Esd_Dl.h **** //
  45:FT_Esd_Framework/FT_Esd_Dl.h **** // Globals
  46:FT_Esd_Framework/FT_Esd_Dl.h **** //
  47:FT_Esd_Framework/FT_Esd_Dl.h **** extern Ft_Gpu_Hal_Context_t *Ft_Esd_Host;
  48:FT_Esd_Framework/FT_Esd_Dl.h **** extern ft_uint16_t Ft_Esd_FontHeight[32];
  49:FT_Esd_Framework/FT_Esd_Dl.h **** #ifdef FT_ESD_OPTIMIZE_DISPLAYLIST
  50:FT_Esd_Framework/FT_Esd_Dl.h **** extern Ft_Esd_GpuState_T Ft_Esd_GpuState[FT_ESD_STATE_STACK_SIZE];
  51:FT_Esd_Framework/FT_Esd_Dl.h **** extern ft_uint8_t Ft_Esd_GpuState_I;
  52:FT_Esd_Framework/FT_Esd_Dl.h **** extern ft_uint32_t Ft_Esd_CoFgColor;
  53:FT_Esd_Framework/FT_Esd_Dl.h **** extern ft_uint32_t Ft_Esd_CoBgColor;
  54:FT_Esd_Framework/FT_Esd_Dl.h **** #endif
  55:FT_Esd_Framework/FT_Esd_Dl.h **** 
  56:FT_Esd_Framework/FT_Esd_Dl.h **** //Get the height of builtin font
  57:FT_Esd_Framework/FT_Esd_Dl.h **** ESD_FUNCTION(Ft_Esd_GetFontHeight, Type = ft_uint16_t ,DisplayName = "Get Font Height", Category = 
  58:FT_Esd_Framework/FT_Esd_Dl.h **** ESD_PARAMETER(i, Type = int, DisplayName = "Bitmap Handle", Default = 0, Min = 0, Max = 31)
  59:FT_Esd_Framework/FT_Esd_Dl.h **** // inline static ft_uint16_t Ft_Esd_GetFontHeight(int i) { return Ft_Esd_FontHeight[i]; }
  60:FT_Esd_Framework/FT_Esd_Dl.h **** #define Ft_Esd_GetFontHeight(i) (Ft_Esd_FontHeight[i]);
  61:FT_Esd_Framework/FT_Esd_Dl.h **** 
  62:FT_Esd_Framework/FT_Esd_Dl.h **** // Reset any cached state
  63:FT_Esd_Framework/FT_Esd_Dl.h **** void Ft_Esd_ResetGpuState();
  64:FT_Esd_Framework/FT_Esd_Dl.h **** void Ft_Esd_ResetCoState();
  65:FT_Esd_Framework/FT_Esd_Dl.h **** 
  66:FT_Esd_Framework/FT_Esd_Dl.h **** ft_uint32_t Ft_Esd_BitmapHandle_GetTotalUsed();
  67:FT_Esd_Framework/FT_Esd_Dl.h **** ft_uint32_t Ft_Esd_BitmapHandle_GetTotal();
  68:FT_Esd_Framework/FT_Esd_Dl.h **** 
  69:FT_Esd_Framework/FT_Esd_Dl.h **** /// Set current tag. Must be returned to 255 after usage, to ensure next widgets don't draw with in
  70:FT_Esd_Framework/FT_Esd_Dl.h **** ESD_FUNCTION(Ft_Esd_Dl_TAG, Type = ft_void_t, Category = EveRenderFunctions, Inline)
  71:FT_Esd_Framework/FT_Esd_Dl.h **** ESD_PARAMETER(s, Type = ft_uint8_t, DisplayName = "Tag", Default = 255, Min = 0, Max = 255)
  72:FT_Esd_Framework/FT_Esd_Dl.h **** inline static ft_void_t Ft_Esd_Dl_TAG(ft_uint8_t s)
  73:FT_Esd_Framework/FT_Esd_Dl.h **** {
  74:FT_Esd_Framework/FT_Esd_Dl.h **** 	Ft_Gpu_Hal_WrCmd32(Ft_Esd_Host, TAG(s));
 237              		.loc 2 74 0
 238 000c 0C4D     		ldr	r5, .L11
 239 000e 40F04071 		orr	r1, r0, #50331648
 240 0012 2868     		ldr	r0, [r5]
 241              	.LVL28:
 242 0014 FFF7FEFF 		bl	Ft_Gpu_Hal_WrCmd32
 243              	.LVL29:
 244              	.LBE7:
 245              	.LBE6:
  42:FT_Esd_Widgets/Ft_Esd_ColorPicker__Generated.c **** 	int y = context->Y(parent);
 246              		.loc 1 42 0
 247 0018 E368     		ldr	r3, [r4, #12]
 248 001a 3046     		mov	r0, r6
 249 001c 9847     		blx	r3
 250              	.LVL30:
 251 001e 0746     		mov	r7, r0
 252              	.LVL31:
  43:FT_Esd_Widgets/Ft_Esd_ColorPicker__Generated.c **** 	Ft_Esd_BitmapCell * bitmapCell = context->Bitmap;
 253              		.loc 1 43 0
 254 0020 2369     		ldr	r3, [r4, #16]
 255 0022 3046     		mov	r0, r6
ARM GAS  /var/folders/n8/cvzdcwlj0vl4g_wtyz1ffy300000gn/T//ccrAP5wE.s 			page 8


 256              	.LVL32:
 257 0024 9847     		blx	r3
 258              	.LVL33:
  46:FT_Esd_Widgets/Ft_Esd_ColorPicker__Generated.c **** 	ft_uint8_t s_1 = 255;
 259              		.loc 1 46 0
 260 0026 4FF0FF33 		mov	r3, #-1
 261 002a 6268     		ldr	r2, [r4, #4]
 262 002c 01B2     		sxth	r1, r0
 263 002e 38B2     		sxth	r0, r7
 264              	.LVL34:
 265 0030 FFF7FEFF 		bl	Ft_Esd_Render_Bitmap
 266              	.LVL35:
 267              	.LBB8:
 268              	.LBB9:
 269              		.loc 2 74 0
 270 0034 0349     		ldr	r1, .L11+4
 271 0036 2868     		ldr	r0, [r5]
 272 0038 FFF7FEFF 		bl	Ft_Gpu_Hal_WrCmd32
 273              	.LVL36:
 274              	.LBE9:
 275              	.LBE8:
  49:FT_Esd_Widgets/Ft_Esd_ColorPicker__Generated.c **** 
 276              		.loc 1 49 0
 277 003c F8BD     		pop	{r3, r4, r5, r6, r7, pc}
 278              	.LVL37:
 279              	.L12:
 280 003e 00BF     		.align	2
 281              	.L11:
 282 0040 00000000 		.word	Ft_Esd_Host
 283 0044 FF000003 		.word	50331903
 284              		.cfi_endproc
 285              	.LFE29:
 287              		.section	.text.Ft_Esd_ColorPicker_Start,"ax",%progbits
 288              		.align	1
 289              		.global	Ft_Esd_ColorPicker_Start
 290              		.syntax unified
 291              		.thumb
 292              		.thumb_func
 293              		.fpu fpv5-sp-d16
 295              	Ft_Esd_ColorPicker_Start:
 296              	.LFB31:
  65:FT_Esd_Widgets/Ft_Esd_ColorPicker__Generated.c **** 
  66:FT_Esd_Widgets/Ft_Esd_ColorPicker__Generated.c **** void Ft_Esd_ColorPicker_Start(Ft_Esd_ColorPicker *context)
  67:FT_Esd_Widgets/Ft_Esd_ColorPicker__Generated.c **** {
 297              		.loc 1 67 0
 298              		.cfi_startproc
 299              		@ args = 0, pretend = 0, frame = 0
 300              		@ frame_needed = 0, uses_anonymous_args = 0
 301              	.LVL38:
 302 0000 08B5     		push	{r3, lr}
 303              	.LCFI3:
 304              		.cfi_def_cfa_offset 8
 305              		.cfi_offset 3, -8
 306              		.cfi_offset 14, -4
 307              	.LVL39:
  68:FT_Esd_Widgets/Ft_Esd_ColorPicker__Generated.c **** 	void *parent = context->Parent;
  69:FT_Esd_Widgets/Ft_Esd_ColorPicker__Generated.c **** 	Ft_Esd_TouchTag_Start(&context->Touch_Tag);
ARM GAS  /var/folders/n8/cvzdcwlj0vl4g_wtyz1ffy300000gn/T//ccrAP5wE.s 			page 9


 308              		.loc 1 69 0
 309 0002 1430     		adds	r0, r0, #20
 310              	.LVL40:
 311 0004 FFF7FEFF 		bl	Ft_Esd_TouchTag_Start
 312              	.LVL41:
  70:FT_Esd_Widgets/Ft_Esd_ColorPicker__Generated.c **** }
 313              		.loc 1 70 0
 314 0008 08BD     		pop	{r3, pc}
 315              		.cfi_endproc
 316              	.LFE31:
 318              		.global	__aeabi_dcmple
 319              		.section	.text.Ft_Esd_ColorPicker_Update,"ax",%progbits
 320              		.align	1
 321              		.global	Ft_Esd_ColorPicker_Update
 322              		.syntax unified
 323              		.thumb
 324              		.thumb_func
 325              		.fpu fpv5-sp-d16
 327              	Ft_Esd_ColorPicker_Update:
 328              	.LFB32:
  71:FT_Esd_Widgets/Ft_Esd_ColorPicker__Generated.c **** 
  72:FT_Esd_Widgets/Ft_Esd_ColorPicker__Generated.c **** void Ft_Esd_ColorPicker_Update(Ft_Esd_ColorPicker *context)
  73:FT_Esd_Widgets/Ft_Esd_ColorPicker__Generated.c **** {
 329              		.loc 1 73 0
 330              		.cfi_startproc
 331              		@ args = 0, pretend = 0, frame = 0
 332              		@ frame_needed = 0, uses_anonymous_args = 0
 333              	.LVL42:
 334 0000 2DE9F041 		push	{r4, r5, r6, r7, r8, lr}
 335              	.LCFI4:
 336              		.cfi_def_cfa_offset 24
 337              		.cfi_offset 4, -24
 338              		.cfi_offset 5, -20
 339              		.cfi_offset 6, -16
 340              		.cfi_offset 7, -12
 341              		.cfi_offset 8, -8
 342              		.cfi_offset 14, -4
 343 0004 2DED028B 		vpush.64	{d8}
 344              	.LCFI5:
 345              		.cfi_def_cfa_offset 32
 346              		.cfi_offset 80, -32
 347              		.cfi_offset 81, -28
 348 0008 0446     		mov	r4, r0
  74:FT_Esd_Widgets/Ft_Esd_ColorPicker__Generated.c **** 	void *parent = context->Parent;
 349              		.loc 1 74 0
 350 000a 0546     		mov	r5, r0
 351 000c 55F8147B 		ldr	r7, [r5], #20
 352              	.LVL43:
  75:FT_Esd_Widgets/Ft_Esd_ColorPicker__Generated.c **** 	Ft_Esd_TouchTag_Update(&context->Touch_Tag);
 353              		.loc 1 75 0
 354 0010 2846     		mov	r0, r5
 355              	.LVL44:
 356 0012 FFF7FEFF 		bl	Ft_Esd_TouchTag_Update
 357              	.LVL45:
  76:FT_Esd_Widgets/Ft_Esd_ColorPicker__Generated.c **** 	double left_3 = Ft_Esd_ColorPicker_getSat__return(context);
 358              		.loc 1 76 0
 359 0016 2046     		mov	r0, r4
ARM GAS  /var/folders/n8/cvzdcwlj0vl4g_wtyz1ffy300000gn/T//ccrAP5wE.s 			page 10


 360 0018 FFF7FEFF 		bl	Ft_Esd_ColorPicker_getSat__return
 361              	.LVL46:
  77:FT_Esd_Widgets/Ft_Esd_ColorPicker__Generated.c **** 	double right_2 = 1.0;
  78:FT_Esd_Widgets/Ft_Esd_ColorPicker__Generated.c **** 	int left_2 = left_3 <= right_2;
 362              		.loc 1 78 0
 363 001c 4FF00106 		mov	r6, #1
 364 0020 0022     		movs	r2, #0
 365 0022 1F4B     		ldr	r3, .L20+8
 366 0024 FFF7FEFF 		bl	__aeabi_dcmple
 367              	.LVL47:
 368 0028 08B9     		cbnz	r0, .L16
 369 002a 4FF00006 		mov	r6, #0
 370              	.L16:
 371              	.LVL48:
  79:FT_Esd_Widgets/Ft_Esd_ColorPicker__Generated.c **** 	ft_bool_t right_3 = Ft_Esd_TouchTag_Touching(&context->Touch_Tag);
 372              		.loc 1 79 0
 373 002e 2846     		mov	r0, r5
 374 0030 FFF7FEFF 		bl	Ft_Esd_TouchTag_Touching
 375              	.LVL49:
  80:FT_Esd_Widgets/Ft_Esd_ColorPicker__Generated.c **** 	ft_bool_t if_1 = left_2 & right_3;
 376              		.loc 1 80 0
 377 0034 3040     		ands	r0, r0, r6
 378              	.LVL50:
 379 0036 40B2     		sxtb	r0, r0
 380              	.LVL51:
  81:FT_Esd_Widgets/Ft_Esd_ColorPicker__Generated.c **** 	ft_argb32_t set_variable;
  82:FT_Esd_Widgets/Ft_Esd_ColorPicker__Generated.c **** 	if (if_1)
 381              		.loc 1 82 0
 382 0038 60B3     		cbz	r0, .L17
 383              	.LBB10:
  83:FT_Esd_Widgets/Ft_Esd_ColorPicker__Generated.c **** 	{
  84:FT_Esd_Widgets/Ft_Esd_ColorPicker__Generated.c **** 		int left_4 = context->X(parent);
 384              		.loc 1 84 0
 385 003a E368     		ldr	r3, [r4, #12]
 386 003c 3846     		mov	r0, r7
 387              	.LVL52:
 388 003e 9847     		blx	r3
 389              	.LVL53:
  85:FT_Esd_Widgets/Ft_Esd_ColorPicker__Generated.c **** 		int right_4 = context->Radius;
 390              		.loc 1 85 0
 391 0040 A368     		ldr	r3, [r4, #8]
 392              	.LVL54:
  86:FT_Esd_Widgets/Ft_Esd_ColorPicker__Generated.c **** 		int x0_1 = left_4 + right_4;
 393              		.loc 1 86 0
 394 0042 C618     		adds	r6, r0, r3
 395              	.LVL55:
  87:FT_Esd_Widgets/Ft_Esd_ColorPicker__Generated.c **** 		int left_5 = context->Y(parent);
 396              		.loc 1 87 0
 397 0044 2369     		ldr	r3, [r4, #16]
 398              	.LVL56:
 399 0046 3846     		mov	r0, r7
 400              	.LVL57:
 401 0048 9847     		blx	r3
 402              	.LVL58:
  88:FT_Esd_Widgets/Ft_Esd_ColorPicker__Generated.c **** 		int right_5 = context->Radius;
 403              		.loc 1 88 0
 404 004a A168     		ldr	r1, [r4, #8]
ARM GAS  /var/folders/n8/cvzdcwlj0vl4g_wtyz1ffy300000gn/T//ccrAP5wE.s 			page 11


 405              	.LVL59:
  89:FT_Esd_Widgets/Ft_Esd_ColorPicker__Generated.c **** 		int y0_1 = left_5 + right_5;
 406              		.loc 1 89 0
 407 004c 4718     		adds	r7, r0, r1
 408              	.LVL60:
  90:FT_Esd_Widgets/Ft_Esd_ColorPicker__Generated.c **** 		ft_int16_t x1_1 = Ft_Esd_TouchTag_TouchX(&context->Touch_Tag);
 409              		.loc 1 90 0
 410 004e 2846     		mov	r0, r5
 411              	.LVL61:
 412 0050 FFF7FEFF 		bl	Ft_Esd_TouchTag_TouchX
 413              	.LVL62:
 414 0054 8046     		mov	r8, r0
 415              	.LVL63:
  91:FT_Esd_Widgets/Ft_Esd_ColorPicker__Generated.c **** 		ft_int16_t y1_1 = Ft_Esd_TouchTag_TouchY(&context->Touch_Tag);
 416              		.loc 1 91 0
 417 0056 2846     		mov	r0, r5
 418 0058 FFF7FEFF 		bl	Ft_Esd_TouchTag_TouchY
 419              	.LVL64:
  92:FT_Esd_Widgets/Ft_Esd_ColorPicker__Generated.c **** 		double h = getHue(x0_1, y0_1, x1_1, y1_1);
 420              		.loc 1 92 0
 421 005c 0346     		mov	r3, r0
 422 005e 4246     		mov	r2, r8
 423 0060 3946     		mov	r1, r7
 424 0062 3046     		mov	r0, r6
 425              	.LVL65:
 426 0064 FFF7FEFF 		bl	getHue
 427              	.LVL66:
 428 0068 B0EE408A 		vmov.f32	s16, s0
 429 006c F0EE608A 		vmov.f32	s17, s1
 430              	.LVL67:
  93:FT_Esd_Widgets/Ft_Esd_ColorPicker__Generated.c **** 		double s_2 = Ft_Esd_ColorPicker_getSat__return(context);
 431              		.loc 1 93 0
 432 0070 2046     		mov	r0, r4
 433 0072 FFF7FEFF 		bl	Ft_Esd_ColorPicker_getSat__return
 434              	.LVL68:
  94:FT_Esd_Widgets/Ft_Esd_ColorPicker__Generated.c **** 		double v = 255.0;
  95:FT_Esd_Widgets/Ft_Esd_ColorPicker__Generated.c **** 		set_variable = hsvToRgb(h, s_2, v);
 435              		.loc 1 95 0
 436 0076 9FED082B 		vldr.64	d2, .L20
 437 007a 41EC110B 		vmov	d1, r0, r1
 438 007e B0EE480A 		vmov.f32	s0, s16
 439 0082 F0EE680A 		vmov.f32	s1, s17
 440 0086 FFF7FEFF 		bl	hsvToRgb
 441              	.LVL69:
 442              	.L18:
 443              	.LBE10:
  96:FT_Esd_Widgets/Ft_Esd_ColorPicker__Generated.c **** 	}
  97:FT_Esd_Widgets/Ft_Esd_ColorPicker__Generated.c **** 	else
  98:FT_Esd_Widgets/Ft_Esd_ColorPicker__Generated.c **** 	{
  99:FT_Esd_Widgets/Ft_Esd_ColorPicker__Generated.c **** 		set_variable = context->Color;
 100:FT_Esd_Widgets/Ft_Esd_ColorPicker__Generated.c **** 	}
 101:FT_Esd_Widgets/Ft_Esd_ColorPicker__Generated.c **** 	context->Color = set_variable;
 444              		.loc 1 101 0
 445 008a E062     		str	r0, [r4, #44]
 102:FT_Esd_Widgets/Ft_Esd_ColorPicker__Generated.c **** }
 446              		.loc 1 102 0
 447 008c BDEC028B 		vldm	sp!, {d8}
ARM GAS  /var/folders/n8/cvzdcwlj0vl4g_wtyz1ffy300000gn/T//ccrAP5wE.s 			page 12


 448              	.LCFI6:
 449              		.cfi_remember_state
 450              		.cfi_restore 80
 451              		.cfi_restore 81
 452              		.cfi_def_cfa_offset 24
 453 0090 BDE8F081 		pop	{r4, r5, r6, r7, r8, pc}
 454              	.LVL70:
 455              	.L17:
 456              	.LCFI7:
 457              		.cfi_restore_state
  99:FT_Esd_Widgets/Ft_Esd_ColorPicker__Generated.c **** 	}
 458              		.loc 1 99 0
 459 0094 E06A     		ldr	r0, [r4, #44]
 460              	.LVL71:
 461 0096 F8E7     		b	.L18
 462              	.L21:
 463              		.align	3
 464              	.L20:
 465 0098 00000000 		.word	0
 466 009c 00E06F40 		.word	1081073664
 467 00a0 0000F03F 		.word	1072693248
 468              		.cfi_endproc
 469              	.LFE32:
 471              		.section	.text.Ft_Esd_ColorPicker_End,"ax",%progbits
 472              		.align	1
 473              		.global	Ft_Esd_ColorPicker_End
 474              		.syntax unified
 475              		.thumb
 476              		.thumb_func
 477              		.fpu fpv5-sp-d16
 479              	Ft_Esd_ColorPicker_End:
 480              	.LFB33:
 103:FT_Esd_Widgets/Ft_Esd_ColorPicker__Generated.c **** 
 104:FT_Esd_Widgets/Ft_Esd_ColorPicker__Generated.c **** void Ft_Esd_ColorPicker_End(Ft_Esd_ColorPicker *context)
 105:FT_Esd_Widgets/Ft_Esd_ColorPicker__Generated.c **** {
 481              		.loc 1 105 0
 482              		.cfi_startproc
 483              		@ args = 0, pretend = 0, frame = 0
 484              		@ frame_needed = 0, uses_anonymous_args = 0
 485              	.LVL72:
 486 0000 08B5     		push	{r3, lr}
 487              	.LCFI8:
 488              		.cfi_def_cfa_offset 8
 489              		.cfi_offset 3, -8
 490              		.cfi_offset 14, -4
 491              	.LVL73:
 106:FT_Esd_Widgets/Ft_Esd_ColorPicker__Generated.c **** 	void *parent = context->Parent;
 107:FT_Esd_Widgets/Ft_Esd_ColorPicker__Generated.c **** 	Ft_Esd_TouchTag_End(&context->Touch_Tag);
 492              		.loc 1 107 0
 493 0002 1430     		adds	r0, r0, #20
 494              	.LVL74:
 495 0004 FFF7FEFF 		bl	Ft_Esd_TouchTag_End
 496              	.LVL75:
 108:FT_Esd_Widgets/Ft_Esd_ColorPicker__Generated.c **** }
 497              		.loc 1 108 0
 498 0008 08BD     		pop	{r3, pc}
 499              		.cfi_endproc
ARM GAS  /var/folders/n8/cvzdcwlj0vl4g_wtyz1ffy300000gn/T//ccrAP5wE.s 			page 13


 500              	.LFE33:
 502              		.text
 503              	.Letext0:
 504              		.file 3 "FT_Eve_Hal/FT_DataTypes.h"
 505              		.file 4 "/usr/local/Cellar/arm-none-eabi-gcc/20180627/arm-none-eabi/include/sys/lock.h"
 506              		.file 5 "/usr/local/Cellar/arm-none-eabi-gcc/20180627/arm-none-eabi/include/sys/_types.h"
 507              		.file 6 "/usr/local/Cellar/arm-none-eabi-gcc/20180627/lib/gcc/arm-none-eabi/7.3.1/include/stddef.h
 508              		.file 7 "/usr/local/Cellar/arm-none-eabi-gcc/20180627/arm-none-eabi/include/sys/unistd.h"
 509              		.file 8 "/usr/local/Cellar/arm-none-eabi-gcc/20180627/arm-none-eabi/include/sys/reent.h"
 510              		.file 9 "/usr/local/Cellar/arm-none-eabi-gcc/20180627/arm-none-eabi/include/stdlib.h"
 511              		.file 10 "FT_Eve_Hal/FT_Gpu_Hal.h"
 512              		.file 11 "FT_Esd_Framework/Ft_Esd.h"
 513              		.file 12 "FT_Esd_Framework/Ft_Esd_GpuAlloc.h"
 514              		.file 13 "FT_Esd_Framework/Ft_Esd_BitmapInfo.h"
 515              		.file 14 "FT_Esd_Framework/Ft_Esd_TouchTag.h"
 516              		.file 15 "FT_Esd_Widgets/Ft_Esd_ColorPicker.h"
 517              		.file 16 "FT_Esd_Widgets/Ft_Esd_Theme.h"
 518              		.file 17 "FT_Esd_Widgets/Ft_Esd_DefaultTheme.h"
ARM GAS  /var/folders/n8/cvzdcwlj0vl4g_wtyz1ffy300000gn/T//ccrAP5wE.s 			page 14

