ARM GAS  /var/folders/n8/cvzdcwlj0vl4g_wtyz1ffy300000gn/T//ccjuOOkr.s 			page 1


   1              		.cpu cortex-m7
   2              		.eabi_attribute 27, 1
   3              		.eabi_attribute 28, 1
   4              		.eabi_attribute 20, 1
   5              		.eabi_attribute 21, 1
   6              		.eabi_attribute 23, 3
   7              		.eabi_attribute 24, 1
   8              		.eabi_attribute 25, 1
   9              		.eabi_attribute 26, 1
  10              		.eabi_attribute 30, 1
  11              		.eabi_attribute 34, 1
  12              		.eabi_attribute 18, 4
  13              		.file	"Ft_Esd_DemoPage__Generated.c"
  14              		.text
  15              	.Ltext0:
  16              		.cfi_sections	.debug_frame
  17              		.section	.text.Ft_Esd_DemoPage_ESD_ProgressBar_X__Property,"ax",%progbits
  18              		.align	1
  19              		.syntax unified
  20              		.thumb
  21              		.thumb_func
  22              		.fpu fpv5-sp-d16
  24              	Ft_Esd_DemoPage_ESD_ProgressBar_X__Property:
  25              	.LFB30:
  26              		.file 1 "FT_Esd_Widgets/Ft_Esd_DemoPage__Generated.c"
   1:FT_Esd_Widgets/Ft_Esd_DemoPage__Generated.c **** /*
   2:FT_Esd_Widgets/Ft_Esd_DemoPage__Generated.c **** This file is automatically generated
   3:FT_Esd_Widgets/Ft_Esd_DemoPage__Generated.c **** Ft_Esd_DemoPage
   4:FT_Esd_Widgets/Ft_Esd_DemoPage__Generated.c **** C Source
   5:FT_Esd_Widgets/Ft_Esd_DemoPage__Generated.c **** */
   6:FT_Esd_Widgets/Ft_Esd_DemoPage__Generated.c **** 
   7:FT_Esd_Widgets/Ft_Esd_DemoPage__Generated.c **** #include "Ft_Esd_DemoPage.h"
   8:FT_Esd_Widgets/Ft_Esd_DemoPage__Generated.c **** 
   9:FT_Esd_Widgets/Ft_Esd_DemoPage__Generated.c **** #include "Ft_Esd_Elements.h"
  10:FT_Esd_Widgets/Ft_Esd_DemoPage__Generated.c **** 
  11:FT_Esd_Widgets/Ft_Esd_DemoPage__Generated.c **** extern void Ft_Esd_Noop(void *context);
  12:FT_Esd_Widgets/Ft_Esd_DemoPage__Generated.c **** 
  13:FT_Esd_Widgets/Ft_Esd_DemoPage__Generated.c **** Ft_Esd_Theme * Ft_Esd_Theme_GetCurrent();
  14:FT_Esd_Widgets/Ft_Esd_DemoPage__Generated.c **** static ft_int16_t Ft_Esd_DemoPage_ESD_ProgressBar_X__Property(void *context) { return 389; }
  27              		.loc 1 14 0
  28              		.cfi_startproc
  29              		@ args = 0, pretend = 0, frame = 0
  30              		@ frame_needed = 0, uses_anonymous_args = 0
  31              		@ link register save eliminated.
  32              	.LVL0:
  33              		.loc 1 14 0
  34 0000 40F28510 		movw	r0, #389
  35              	.LVL1:
  36 0004 7047     		bx	lr
  37              		.cfi_endproc
  38              	.LFE30:
  40              		.section	.text.Ft_Esd_DemoPage_ESD_ProgressBar_Y__Property,"ax",%progbits
  41              		.align	1
  42              		.syntax unified
  43              		.thumb
  44              		.thumb_func
  45              		.fpu fpv5-sp-d16
ARM GAS  /var/folders/n8/cvzdcwlj0vl4g_wtyz1ffy300000gn/T//ccjuOOkr.s 			page 2


  47              	Ft_Esd_DemoPage_ESD_ProgressBar_Y__Property:
  48              	.LFB31:
  15:FT_Esd_Widgets/Ft_Esd_DemoPage__Generated.c **** static ft_int16_t Ft_Esd_DemoPage_ESD_ProgressBar_Y__Property(void *context) { return 286; }
  49              		.loc 1 15 0
  50              		.cfi_startproc
  51              		@ args = 0, pretend = 0, frame = 0
  52              		@ frame_needed = 0, uses_anonymous_args = 0
  53              		@ link register save eliminated.
  54              	.LVL2:
  55              		.loc 1 15 0
  56 0000 4FF48F70 		mov	r0, #286
  57              	.LVL3:
  58 0004 7047     		bx	lr
  59              		.cfi_endproc
  60              	.LFE31:
  62              		.section	.text.Ft_Esd_DemoPage_ESD_ProgressBar_Height__Property,"ax",%progbits
  63              		.align	1
  64              		.syntax unified
  65              		.thumb
  66              		.thumb_func
  67              		.fpu fpv5-sp-d16
  69              	Ft_Esd_DemoPage_ESD_ProgressBar_Height__Property:
  70              	.LFB32:
  16:FT_Esd_Widgets/Ft_Esd_DemoPage__Generated.c **** static ft_int16_t Ft_Esd_DemoPage_ESD_ProgressBar_Height__Property(void *context) { return 25; }
  71              		.loc 1 16 0
  72              		.cfi_startproc
  73              		@ args = 0, pretend = 0, frame = 0
  74              		@ frame_needed = 0, uses_anonymous_args = 0
  75              		@ link register save eliminated.
  76              	.LVL4:
  77              		.loc 1 16 0
  78 0000 1920     		movs	r0, #25
  79              	.LVL5:
  80 0002 7047     		bx	lr
  81              		.cfi_endproc
  82              	.LFE32:
  84              		.section	.text.Ft_Esd_DemoPage_ESD_ProgressBar_Range__Property,"ax",%progbits
  85              		.align	1
  86              		.syntax unified
  87              		.thumb
  88              		.thumb_func
  89              		.fpu fpv5-sp-d16
  91              	Ft_Esd_DemoPage_ESD_ProgressBar_Range__Property:
  92              	.LFB33:
  17:FT_Esd_Widgets/Ft_Esd_DemoPage__Generated.c **** static ft_uint16_t Ft_Esd_DemoPage_ESD_ProgressBar_Val__Property(void *context);
  18:FT_Esd_Widgets/Ft_Esd_DemoPage__Generated.c **** static ft_uint16_t Ft_Esd_DemoPage_ESD_ProgressBar_Range__Property(void *context) { return 1000U; }
  93              		.loc 1 18 0
  94              		.cfi_startproc
  95              		@ args = 0, pretend = 0, frame = 0
  96              		@ frame_needed = 0, uses_anonymous_args = 0
  97              		@ link register save eliminated.
  98              	.LVL6:
  99              		.loc 1 18 0
 100 0000 4FF47A70 		mov	r0, #1000
 101              	.LVL7:
 102 0004 7047     		bx	lr
 103              		.cfi_endproc
ARM GAS  /var/folders/n8/cvzdcwlj0vl4g_wtyz1ffy300000gn/T//ccjuOOkr.s 			page 3


 104              	.LFE33:
 106              		.section	.text.Ft_Esd_DemoPage_ESD_Gauge_X__Property,"ax",%progbits
 107              		.align	1
 108              		.syntax unified
 109              		.thumb
 110              		.thumb_func
 111              		.fpu fpv5-sp-d16
 113              	Ft_Esd_DemoPage_ESD_Gauge_X__Property:
 114              	.LFB34:
  19:FT_Esd_Widgets/Ft_Esd_DemoPage__Generated.c **** static ft_int16_t Ft_Esd_DemoPage_ESD_Gauge_X__Property(void *context) { return 287; }
 115              		.loc 1 19 0
 116              		.cfi_startproc
 117              		@ args = 0, pretend = 0, frame = 0
 118              		@ frame_needed = 0, uses_anonymous_args = 0
 119              		@ link register save eliminated.
 120              	.LVL8:
 121              		.loc 1 19 0
 122 0000 40F21F10 		movw	r0, #287
 123              	.LVL9:
 124 0004 7047     		bx	lr
 125              		.cfi_endproc
 126              	.LFE34:
 128              		.section	.text.Ft_Esd_DemoPage_ESD_Gauge_Y__Property,"ax",%progbits
 129              		.align	1
 130              		.syntax unified
 131              		.thumb
 132              		.thumb_func
 133              		.fpu fpv5-sp-d16
 135              	Ft_Esd_DemoPage_ESD_Gauge_Y__Property:
 136              	.LFB35:
  20:FT_Esd_Widgets/Ft_Esd_DemoPage__Generated.c **** static ft_int16_t Ft_Esd_DemoPage_ESD_Gauge_Y__Property(void *context) { return 324; }
 137              		.loc 1 20 0
 138              		.cfi_startproc
 139              		@ args = 0, pretend = 0, frame = 0
 140              		@ frame_needed = 0, uses_anonymous_args = 0
 141              		@ link register save eliminated.
 142              	.LVL10:
 143              		.loc 1 20 0
 144 0000 4FF4A270 		mov	r0, #324
 145              	.LVL11:
 146 0004 7047     		bx	lr
 147              		.cfi_endproc
 148              	.LFE35:
 150              		.section	.text.Ft_Esd_DemoPage_ESD_Clock_X__Property,"ax",%progbits
 151              		.align	1
 152              		.syntax unified
 153              		.thumb
 154              		.thumb_func
 155              		.fpu fpv5-sp-d16
 157              	Ft_Esd_DemoPage_ESD_Clock_X__Property:
 158              	.LFB36:
  21:FT_Esd_Widgets/Ft_Esd_DemoPage__Generated.c **** static ft_uint16_t Ft_Esd_DemoPage_ESD_Gauge_Val__Property(void *context);
  22:FT_Esd_Widgets/Ft_Esd_DemoPage__Generated.c **** static ft_int16_t Ft_Esd_DemoPage_ESD_Clock_X__Property(void *context) { return 383; }
 159              		.loc 1 22 0
 160              		.cfi_startproc
 161              		@ args = 0, pretend = 0, frame = 0
 162              		@ frame_needed = 0, uses_anonymous_args = 0
ARM GAS  /var/folders/n8/cvzdcwlj0vl4g_wtyz1ffy300000gn/T//ccjuOOkr.s 			page 4


 163              		@ link register save eliminated.
 164              	.LVL12:
 165              		.loc 1 22 0
 166 0000 40F27F10 		movw	r0, #383
 167              	.LVL13:
 168 0004 7047     		bx	lr
 169              		.cfi_endproc
 170              	.LFE36:
 172              		.section	.text.Ft_Esd_DemoPage_ESD_Clock_Y__Property,"ax",%progbits
 173              		.align	1
 174              		.syntax unified
 175              		.thumb
 176              		.thumb_func
 177              		.fpu fpv5-sp-d16
 179              	Ft_Esd_DemoPage_ESD_Clock_Y__Property:
 180              	.LFB37:
  23:FT_Esd_Widgets/Ft_Esd_DemoPage__Generated.c **** static ft_int16_t Ft_Esd_DemoPage_ESD_Clock_Y__Property(void *context) { return 98; }
 181              		.loc 1 23 0
 182              		.cfi_startproc
 183              		@ args = 0, pretend = 0, frame = 0
 184              		@ frame_needed = 0, uses_anonymous_args = 0
 185              		@ link register save eliminated.
 186              	.LVL14:
 187              		.loc 1 23 0
 188 0000 6220     		movs	r0, #98
 189              	.LVL15:
 190 0002 7047     		bx	lr
 191              		.cfi_endproc
 192              	.LFE37:
 194              		.section	.text.Ft_Esd_DemoPage_ESD_Clock_Interactive__Property,"ax",%progbits
 195              		.align	1
 196              		.syntax unified
 197              		.thumb
 198              		.thumb_func
 199              		.fpu fpv5-sp-d16
 201              	Ft_Esd_DemoPage_ESD_Clock_Interactive__Property:
 202              	.LFB38:
  24:FT_Esd_Widgets/Ft_Esd_DemoPage__Generated.c **** static ft_uint32_t Ft_Esd_DemoPage_ESD_Clock_Ms__Property(void *context);
  25:FT_Esd_Widgets/Ft_Esd_DemoPage__Generated.c **** static ft_bool_t Ft_Esd_DemoPage_ESD_Clock_Interactive__Property(void *context) { return 1; }
 203              		.loc 1 25 0
 204              		.cfi_startproc
 205              		@ args = 0, pretend = 0, frame = 0
 206              		@ frame_needed = 0, uses_anonymous_args = 0
 207              		@ link register save eliminated.
 208              	.LVL16:
 209              		.loc 1 25 0
 210 0000 0120     		movs	r0, #1
 211              	.LVL17:
 212 0002 7047     		bx	lr
 213              		.cfi_endproc
 214              	.LFE38:
 216              		.section	.text.Ft_Esd_DemoPage_ESD_PushButton_X__Property,"ax",%progbits
 217              		.align	1
 218              		.syntax unified
 219              		.thumb
 220              		.thumb_func
 221              		.fpu fpv5-sp-d16
ARM GAS  /var/folders/n8/cvzdcwlj0vl4g_wtyz1ffy300000gn/T//ccjuOOkr.s 			page 5


 223              	Ft_Esd_DemoPage_ESD_PushButton_X__Property:
 224              	.LFB39:
  26:FT_Esd_Widgets/Ft_Esd_DemoPage__Generated.c **** static ft_int16_t Ft_Esd_DemoPage_ESD_PushButton_X__Property(void *context) { return 26; }
 225              		.loc 1 26 0
 226              		.cfi_startproc
 227              		@ args = 0, pretend = 0, frame = 0
 228              		@ frame_needed = 0, uses_anonymous_args = 0
 229              		@ link register save eliminated.
 230              	.LVL18:
 231              		.loc 1 26 0
 232 0000 1A20     		movs	r0, #26
 233              	.LVL19:
 234 0002 7047     		bx	lr
 235              		.cfi_endproc
 236              	.LFE39:
 238              		.section	.text.Ft_Esd_DemoPage_ESD_PushButton_Y__Property,"ax",%progbits
 239              		.align	1
 240              		.syntax unified
 241              		.thumb
 242              		.thumb_func
 243              		.fpu fpv5-sp-d16
 245              	Ft_Esd_DemoPage_ESD_PushButton_Y__Property:
 246              	.LFB40:
  27:FT_Esd_Widgets/Ft_Esd_DemoPage__Generated.c **** static ft_int16_t Ft_Esd_DemoPage_ESD_PushButton_Y__Property(void *context) { return 14; }
 247              		.loc 1 27 0
 248              		.cfi_startproc
 249              		@ args = 0, pretend = 0, frame = 0
 250              		@ frame_needed = 0, uses_anonymous_args = 0
 251              		@ link register save eliminated.
 252              	.LVL20:
 253              		.loc 1 27 0
 254 0000 0E20     		movs	r0, #14
 255              	.LVL21:
 256 0002 7047     		bx	lr
 257              		.cfi_endproc
 258              	.LFE40:
 260              		.section	.text.Ft_Esd_DemoPage_ESD_Rectangle_X__Property,"ax",%progbits
 261              		.align	1
 262              		.syntax unified
 263              		.thumb
 264              		.thumb_func
 265              		.fpu fpv5-sp-d16
 267              	Ft_Esd_DemoPage_ESD_Rectangle_X__Property:
 268              	.LFB41:
  28:FT_Esd_Widgets/Ft_Esd_DemoPage__Generated.c **** static ft_int16_t Ft_Esd_DemoPage_ESD_Rectangle_X__Property(void *context) { return 431; }
 269              		.loc 1 28 0
 270              		.cfi_startproc
 271              		@ args = 0, pretend = 0, frame = 0
 272              		@ frame_needed = 0, uses_anonymous_args = 0
 273              		@ link register save eliminated.
 274              	.LVL22:
 275              		.loc 1 28 0
 276 0000 40F2AF10 		movw	r0, #431
 277              	.LVL23:
 278 0004 7047     		bx	lr
 279              		.cfi_endproc
 280              	.LFE41:
ARM GAS  /var/folders/n8/cvzdcwlj0vl4g_wtyz1ffy300000gn/T//ccjuOOkr.s 			page 6


 282              		.section	.text.Ft_Esd_DemoPage_ESD_Rectangle_Y__Property,"ax",%progbits
 283              		.align	1
 284              		.syntax unified
 285              		.thumb
 286              		.thumb_func
 287              		.fpu fpv5-sp-d16
 289              	Ft_Esd_DemoPage_ESD_Rectangle_Y__Property:
 290              	.LFB42:
  29:FT_Esd_Widgets/Ft_Esd_DemoPage__Generated.c **** static ft_int16_t Ft_Esd_DemoPage_ESD_Rectangle_Y__Property(void *context) { return 13; }
 291              		.loc 1 29 0
 292              		.cfi_startproc
 293              		@ args = 0, pretend = 0, frame = 0
 294              		@ frame_needed = 0, uses_anonymous_args = 0
 295              		@ link register save eliminated.
 296              	.LVL24:
 297              		.loc 1 29 0
 298 0000 0D20     		movs	r0, #13
 299              	.LVL25:
 300 0002 7047     		bx	lr
 301              		.cfi_endproc
 302              	.LFE42:
 304              		.section	.text.Ft_Esd_DemoPage_ESD_PushButton_1_X__Property,"ax",%progbits
 305              		.align	1
 306              		.syntax unified
 307              		.thumb
 308              		.thumb_func
 309              		.fpu fpv5-sp-d16
 311              	Ft_Esd_DemoPage_ESD_PushButton_1_X__Property:
 312              	.LFB43:
  30:FT_Esd_Widgets/Ft_Esd_DemoPage__Generated.c **** static ft_int16_t Ft_Esd_DemoPage_ESD_PushButton_1_X__Property(void *context) { return 158; }
 313              		.loc 1 30 0
 314              		.cfi_startproc
 315              		@ args = 0, pretend = 0, frame = 0
 316              		@ frame_needed = 0, uses_anonymous_args = 0
 317              		@ link register save eliminated.
 318              	.LVL26:
 319              		.loc 1 30 0
 320 0000 9E20     		movs	r0, #158
 321              	.LVL27:
 322 0002 7047     		bx	lr
 323              		.cfi_endproc
 324              	.LFE43:
 326              		.section	.text.Ft_Esd_DemoPage_ESD_PushButton_1_Y__Property,"ax",%progbits
 327              		.align	1
 328              		.syntax unified
 329              		.thumb
 330              		.thumb_func
 331              		.fpu fpv5-sp-d16
 333              	Ft_Esd_DemoPage_ESD_PushButton_1_Y__Property:
 334              	.LFB44:
  31:FT_Esd_Widgets/Ft_Esd_DemoPage__Generated.c **** static ft_int16_t Ft_Esd_DemoPage_ESD_PushButton_1_Y__Property(void *context) { return 13; }
 335              		.loc 1 31 0
 336              		.cfi_startproc
 337              		@ args = 0, pretend = 0, frame = 0
 338              		@ frame_needed = 0, uses_anonymous_args = 0
 339              		@ link register save eliminated.
 340              	.LVL28:
ARM GAS  /var/folders/n8/cvzdcwlj0vl4g_wtyz1ffy300000gn/T//ccjuOOkr.s 			page 7


 341              		.loc 1 31 0
 342 0000 0D20     		movs	r0, #13
 343              	.LVL29:
 344 0002 7047     		bx	lr
 345              		.cfi_endproc
 346              	.LFE44:
 348              		.section	.text.Ft_Esd_DemoPage_ESD_PushButton_1_Primary__Property,"ax",%progbits
 349              		.align	1
 350              		.syntax unified
 351              		.thumb
 352              		.thumb_func
 353              		.fpu fpv5-sp-d16
 355              	Ft_Esd_DemoPage_ESD_PushButton_1_Primary__Property:
 356              	.LFB45:
  32:FT_Esd_Widgets/Ft_Esd_DemoPage__Generated.c **** static ft_bool_t Ft_Esd_DemoPage_ESD_PushButton_1_Primary__Property(void *context) { return 0; }
 357              		.loc 1 32 0
 358              		.cfi_startproc
 359              		@ args = 0, pretend = 0, frame = 0
 360              		@ frame_needed = 0, uses_anonymous_args = 0
 361              		@ link register save eliminated.
 362              	.LVL30:
 363              		.loc 1 32 0
 364 0000 0020     		movs	r0, #0
 365              	.LVL31:
 366 0002 7047     		bx	lr
 367              		.cfi_endproc
 368              	.LFE45:
 370              		.section	.text.Ft_Esd_DemoPage_ESD_Toggle_X__Property,"ax",%progbits
 371              		.align	1
 372              		.syntax unified
 373              		.thumb
 374              		.thumb_func
 375              		.fpu fpv5-sp-d16
 377              	Ft_Esd_DemoPage_ESD_Toggle_X__Property:
 378              	.LFB46:
  33:FT_Esd_Widgets/Ft_Esd_DemoPage__Generated.c **** static ft_int16_t Ft_Esd_DemoPage_ESD_Toggle_X__Property(void *context) { return 450; }
 379              		.loc 1 33 0
 380              		.cfi_startproc
 381              		@ args = 0, pretend = 0, frame = 0
 382              		@ frame_needed = 0, uses_anonymous_args = 0
 383              		@ link register save eliminated.
 384              	.LVL32:
 385              		.loc 1 33 0
 386 0000 4FF4E170 		mov	r0, #450
 387              	.LVL33:
 388 0004 7047     		bx	lr
 389              		.cfi_endproc
 390              	.LFE46:
 392              		.section	.text.Ft_Esd_DemoPage_ESD_Toggle_Y__Property,"ax",%progbits
 393              		.align	1
 394              		.syntax unified
 395              		.thumb
 396              		.thumb_func
 397              		.fpu fpv5-sp-d16
 399              	Ft_Esd_DemoPage_ESD_Toggle_Y__Property:
 400              	.LFB47:
  34:FT_Esd_Widgets/Ft_Esd_DemoPage__Generated.c **** static ft_int16_t Ft_Esd_DemoPage_ESD_Toggle_Y__Property(void *context) { return 331; }
ARM GAS  /var/folders/n8/cvzdcwlj0vl4g_wtyz1ffy300000gn/T//ccjuOOkr.s 			page 8


 401              		.loc 1 34 0
 402              		.cfi_startproc
 403              		@ args = 0, pretend = 0, frame = 0
 404              		@ frame_needed = 0, uses_anonymous_args = 0
 405              		@ link register save eliminated.
 406              	.LVL34:
 407              		.loc 1 34 0
 408 0000 40F24B10 		movw	r0, #331
 409              	.LVL35:
 410 0004 7047     		bx	lr
 411              		.cfi_endproc
 412              	.LFE47:
 414              		.section	.text.Ft_Esd_DemoPage_ESD_Toggle_Width__Property,"ax",%progbits
 415              		.align	1
 416              		.syntax unified
 417              		.thumb
 418              		.thumb_func
 419              		.fpu fpv5-sp-d16
 421              	Ft_Esd_DemoPage_ESD_Toggle_Width__Property:
 422              	.LFB48:
  35:FT_Esd_Widgets/Ft_Esd_DemoPage__Generated.c **** static ft_int16_t Ft_Esd_DemoPage_ESD_Toggle_Width__Property(void *context) { return 120; }
 423              		.loc 1 35 0
 424              		.cfi_startproc
 425              		@ args = 0, pretend = 0, frame = 0
 426              		@ frame_needed = 0, uses_anonymous_args = 0
 427              		@ link register save eliminated.
 428              	.LVL36:
 429              		.loc 1 35 0
 430 0000 7820     		movs	r0, #120
 431              	.LVL37:
 432 0002 7047     		bx	lr
 433              		.cfi_endproc
 434              	.LFE48:
 436              		.section	.text.Ft_Esd_DemoPage_ESD_PushButton_2_X__Property,"ax",%progbits
 437              		.align	1
 438              		.syntax unified
 439              		.thumb
 440              		.thumb_func
 441              		.fpu fpv5-sp-d16
 443              	Ft_Esd_DemoPage_ESD_PushButton_2_X__Property:
 444              	.LFB49:
  36:FT_Esd_Widgets/Ft_Esd_DemoPage__Generated.c **** static ft_int16_t Ft_Esd_DemoPage_ESD_PushButton_2_X__Property(void *context) { return 21; }
 445              		.loc 1 36 0
 446              		.cfi_startproc
 447              		@ args = 0, pretend = 0, frame = 0
 448              		@ frame_needed = 0, uses_anonymous_args = 0
 449              		@ link register save eliminated.
 450              	.LVL38:
 451              		.loc 1 36 0
 452 0000 1520     		movs	r0, #21
 453              	.LVL39:
 454 0002 7047     		bx	lr
 455              		.cfi_endproc
 456              	.LFE49:
 458              		.section	.text.Ft_Esd_DemoPage_ESD_PushButton_2_Y__Property,"ax",%progbits
 459              		.align	1
 460              		.syntax unified
ARM GAS  /var/folders/n8/cvzdcwlj0vl4g_wtyz1ffy300000gn/T//ccjuOOkr.s 			page 9


 461              		.thumb
 462              		.thumb_func
 463              		.fpu fpv5-sp-d16
 465              	Ft_Esd_DemoPage_ESD_PushButton_2_Y__Property:
 466              	.LFB50:
  37:FT_Esd_Widgets/Ft_Esd_DemoPage__Generated.c **** static ft_int16_t Ft_Esd_DemoPage_ESD_PushButton_2_Y__Property(void *context) { return 66; }
 467              		.loc 1 37 0
 468              		.cfi_startproc
 469              		@ args = 0, pretend = 0, frame = 0
 470              		@ frame_needed = 0, uses_anonymous_args = 0
 471              		@ link register save eliminated.
 472              	.LVL40:
 473              		.loc 1 37 0
 474 0000 4220     		movs	r0, #66
 475              	.LVL41:
 476 0002 7047     		bx	lr
 477              		.cfi_endproc
 478              	.LFE50:
 480              		.section	.text.Ft_Esd_DemoPage_ESD_PushButton_2_Primary__Property,"ax",%progbits
 481              		.align	1
 482              		.syntax unified
 483              		.thumb
 484              		.thumb_func
 485              		.fpu fpv5-sp-d16
 487              	Ft_Esd_DemoPage_ESD_PushButton_2_Primary__Property:
 488              	.LFB51:
  38:FT_Esd_Widgets/Ft_Esd_DemoPage__Generated.c **** static ft_bool_t Ft_Esd_DemoPage_ESD_PushButton_2_Primary__Property(void *context) { return 0; }
 489              		.loc 1 38 0
 490              		.cfi_startproc
 491              		@ args = 0, pretend = 0, frame = 0
 492              		@ frame_needed = 0, uses_anonymous_args = 0
 493              		@ link register save eliminated.
 494              	.LVL42:
 495              		.loc 1 38 0
 496 0000 0020     		movs	r0, #0
 497              	.LVL43:
 498 0002 7047     		bx	lr
 499              		.cfi_endproc
 500              	.LFE51:
 502              		.section	.text.Ft_Esd_DemoPage_ESD_Label_X__Property,"ax",%progbits
 503              		.align	1
 504              		.syntax unified
 505              		.thumb
 506              		.thumb_func
 507              		.fpu fpv5-sp-d16
 509              	Ft_Esd_DemoPage_ESD_Label_X__Property:
 510              	.LFB52:
  39:FT_Esd_Widgets/Ft_Esd_DemoPage__Generated.c **** static ft_int16_t Ft_Esd_DemoPage_ESD_Label_X__Property(void *context) { return 158; }
 511              		.loc 1 39 0
 512              		.cfi_startproc
 513              		@ args = 0, pretend = 0, frame = 0
 514              		@ frame_needed = 0, uses_anonymous_args = 0
 515              		@ link register save eliminated.
 516              	.LVL44:
 517              		.loc 1 39 0
 518 0000 9E20     		movs	r0, #158
 519              	.LVL45:
ARM GAS  /var/folders/n8/cvzdcwlj0vl4g_wtyz1ffy300000gn/T//ccjuOOkr.s 			page 10


 520 0002 7047     		bx	lr
 521              		.cfi_endproc
 522              	.LFE52:
 524              		.section	.text.Ft_Esd_DemoPage_ESD_Label_Y__Property,"ax",%progbits
 525              		.align	1
 526              		.syntax unified
 527              		.thumb
 528              		.thumb_func
 529              		.fpu fpv5-sp-d16
 531              	Ft_Esd_DemoPage_ESD_Label_Y__Property:
 532              	.LFB53:
  40:FT_Esd_Widgets/Ft_Esd_DemoPage__Generated.c **** static ft_int16_t Ft_Esd_DemoPage_ESD_Label_Y__Property(void *context) { return 66; }
 533              		.loc 1 40 0
 534              		.cfi_startproc
 535              		@ args = 0, pretend = 0, frame = 0
 536              		@ frame_needed = 0, uses_anonymous_args = 0
 537              		@ link register save eliminated.
 538              	.LVL46:
 539              		.loc 1 40 0
 540 0000 4220     		movs	r0, #66
 541              	.LVL47:
 542 0002 7047     		bx	lr
 543              		.cfi_endproc
 544              	.LFE53:
 546              		.section	.text.Ft_Esd_DemoPage_ESD_PushButton_3_X__Property,"ax",%progbits
 547              		.align	1
 548              		.syntax unified
 549              		.thumb
 550              		.thumb_func
 551              		.fpu fpv5-sp-d16
 553              	Ft_Esd_DemoPage_ESD_PushButton_3_X__Property:
 554              	.LFB54:
  41:FT_Esd_Widgets/Ft_Esd_DemoPage__Generated.c **** static ft_int16_t Ft_Esd_DemoPage_ESD_PushButton_3_X__Property(void *context) { return 292; }
 555              		.loc 1 41 0
 556              		.cfi_startproc
 557              		@ args = 0, pretend = 0, frame = 0
 558              		@ frame_needed = 0, uses_anonymous_args = 0
 559              		@ link register save eliminated.
 560              	.LVL48:
 561              		.loc 1 41 0
 562 0000 4FF49270 		mov	r0, #292
 563              	.LVL49:
 564 0004 7047     		bx	lr
 565              		.cfi_endproc
 566              	.LFE54:
 568              		.section	.text.Ft_Esd_DemoPage_ESD_PushButton_3_Y__Property,"ax",%progbits
 569              		.align	1
 570              		.syntax unified
 571              		.thumb
 572              		.thumb_func
 573              		.fpu fpv5-sp-d16
 575              	Ft_Esd_DemoPage_ESD_PushButton_3_Y__Property:
 576              	.LFB55:
  42:FT_Esd_Widgets/Ft_Esd_DemoPage__Generated.c **** static ft_int16_t Ft_Esd_DemoPage_ESD_PushButton_3_Y__Property(void *context) { return 13; }
 577              		.loc 1 42 0
 578              		.cfi_startproc
 579              		@ args = 0, pretend = 0, frame = 0
ARM GAS  /var/folders/n8/cvzdcwlj0vl4g_wtyz1ffy300000gn/T//ccjuOOkr.s 			page 11


 580              		@ frame_needed = 0, uses_anonymous_args = 0
 581              		@ link register save eliminated.
 582              	.LVL50:
 583              		.loc 1 42 0
 584 0000 0D20     		movs	r0, #13
 585              	.LVL51:
 586 0002 7047     		bx	lr
 587              		.cfi_endproc
 588              	.LFE55:
 590              		.section	.text.Ft_Esd_DemoPage_ESD_PushButton_3_Primary__Property,"ax",%progbits
 591              		.align	1
 592              		.syntax unified
 593              		.thumb
 594              		.thumb_func
 595              		.fpu fpv5-sp-d16
 597              	Ft_Esd_DemoPage_ESD_PushButton_3_Primary__Property:
 598              	.LFB56:
  43:FT_Esd_Widgets/Ft_Esd_DemoPage__Generated.c **** static ft_bool_t Ft_Esd_DemoPage_ESD_PushButton_3_Primary__Property(void *context) { return 0; }
 599              		.loc 1 43 0
 600              		.cfi_startproc
 601              		@ args = 0, pretend = 0, frame = 0
 602              		@ frame_needed = 0, uses_anonymous_args = 0
 603              		@ link register save eliminated.
 604              	.LVL52:
 605              		.loc 1 43 0
 606 0000 0020     		movs	r0, #0
 607              	.LVL53:
 608 0002 7047     		bx	lr
 609              		.cfi_endproc
 610              	.LFE56:
 612              		.section	.text.Ft_Esd_DemoPage_ESD_Toggle_1_X__Property,"ax",%progbits
 613              		.align	1
 614              		.syntax unified
 615              		.thumb
 616              		.thumb_func
 617              		.fpu fpv5-sp-d16
 619              	Ft_Esd_DemoPage_ESD_Toggle_1_X__Property:
 620              	.LFB57:
  44:FT_Esd_Widgets/Ft_Esd_DemoPage__Generated.c **** static ft_int16_t Ft_Esd_DemoPage_ESD_Toggle_1_X__Property(void *context) { return 450; }
 621              		.loc 1 44 0
 622              		.cfi_startproc
 623              		@ args = 0, pretend = 0, frame = 0
 624              		@ frame_needed = 0, uses_anonymous_args = 0
 625              		@ link register save eliminated.
 626              	.LVL54:
 627              		.loc 1 44 0
 628 0000 4FF4E170 		mov	r0, #450
 629              	.LVL55:
 630 0004 7047     		bx	lr
 631              		.cfi_endproc
 632              	.LFE57:
 634              		.section	.text.Ft_Esd_DemoPage_ESD_Toggle_1_Y__Property,"ax",%progbits
 635              		.align	1
 636              		.syntax unified
 637              		.thumb
 638              		.thumb_func
 639              		.fpu fpv5-sp-d16
ARM GAS  /var/folders/n8/cvzdcwlj0vl4g_wtyz1ffy300000gn/T//ccjuOOkr.s 			page 12


 641              	Ft_Esd_DemoPage_ESD_Toggle_1_Y__Property:
 642              	.LFB58:
  45:FT_Esd_Widgets/Ft_Esd_DemoPage__Generated.c **** static ft_int16_t Ft_Esd_DemoPage_ESD_Toggle_1_Y__Property(void *context) { return 385; }
 643              		.loc 1 45 0
 644              		.cfi_startproc
 645              		@ args = 0, pretend = 0, frame = 0
 646              		@ frame_needed = 0, uses_anonymous_args = 0
 647              		@ link register save eliminated.
 648              	.LVL56:
 649              		.loc 1 45 0
 650 0000 40F28110 		movw	r0, #385
 651              	.LVL57:
 652 0004 7047     		bx	lr
 653              		.cfi_endproc
 654              	.LFE58:
 656              		.section	.text.Ft_Esd_DemoPage_ESD_Toggle_1_Width__Property,"ax",%progbits
 657              		.align	1
 658              		.syntax unified
 659              		.thumb
 660              		.thumb_func
 661              		.fpu fpv5-sp-d16
 663              	Ft_Esd_DemoPage_ESD_Toggle_1_Width__Property:
 664              	.LFB59:
  46:FT_Esd_Widgets/Ft_Esd_DemoPage__Generated.c **** static ft_int16_t Ft_Esd_DemoPage_ESD_Toggle_1_Width__Property(void *context) { return 120; }
 665              		.loc 1 46 0
 666              		.cfi_startproc
 667              		@ args = 0, pretend = 0, frame = 0
 668              		@ frame_needed = 0, uses_anonymous_args = 0
 669              		@ link register save eliminated.
 670              	.LVL58:
 671              		.loc 1 46 0
 672 0000 7820     		movs	r0, #120
 673              	.LVL59:
 674 0002 7047     		bx	lr
 675              		.cfi_endproc
 676              	.LFE59:
 678              		.section	.text.Ft_Esd_DemoPage_ESD_Toggle_1_Height__Property,"ax",%progbits
 679              		.align	1
 680              		.syntax unified
 681              		.thumb
 682              		.thumb_func
 683              		.fpu fpv5-sp-d16
 685              	Ft_Esd_DemoPage_ESD_Toggle_1_Height__Property:
 686              	.LFB60:
  47:FT_Esd_Widgets/Ft_Esd_DemoPage__Generated.c **** static ft_int16_t Ft_Esd_DemoPage_ESD_Toggle_1_Height__Property(void *context) { return 74; }
 687              		.loc 1 47 0
 688              		.cfi_startproc
 689              		@ args = 0, pretend = 0, frame = 0
 690              		@ frame_needed = 0, uses_anonymous_args = 0
 691              		@ link register save eliminated.
 692              	.LVL60:
 693              		.loc 1 47 0
 694 0000 4A20     		movs	r0, #74
 695              	.LVL61:
 696 0002 7047     		bx	lr
 697              		.cfi_endproc
 698              	.LFE60:
ARM GAS  /var/folders/n8/cvzdcwlj0vl4g_wtyz1ffy300000gn/T//ccjuOOkr.s 			page 13


 700              		.section	.text.Ft_Esd_DemoPage_ESD_Toggle_1_Font__Property,"ax",%progbits
 701              		.align	1
 702              		.syntax unified
 703              		.thumb
 704              		.thumb_func
 705              		.fpu fpv5-sp-d16
 707              	Ft_Esd_DemoPage_ESD_Toggle_1_Font__Property:
 708              	.LFB61:
  48:FT_Esd_Widgets/Ft_Esd_DemoPage__Generated.c **** static ft_int16_t Ft_Esd_DemoPage_ESD_Toggle_1_Font__Property(void *context) { return 31; }
 709              		.loc 1 48 0
 710              		.cfi_startproc
 711              		@ args = 0, pretend = 0, frame = 0
 712              		@ frame_needed = 0, uses_anonymous_args = 0
 713              		@ link register save eliminated.
 714              	.LVL62:
 715              		.loc 1 48 0
 716 0000 1F20     		movs	r0, #31
 717              	.LVL63:
 718 0002 7047     		bx	lr
 719              		.cfi_endproc
 720              	.LFE61:
 722              		.section	.text.Ft_Esd_DemoPage_ESD_SpinBox_X__Property,"ax",%progbits
 723              		.align	1
 724              		.syntax unified
 725              		.thumb
 726              		.thumb_func
 727              		.fpu fpv5-sp-d16
 729              	Ft_Esd_DemoPage_ESD_SpinBox_X__Property:
 730              	.LFB62:
  49:FT_Esd_Widgets/Ft_Esd_DemoPage__Generated.c **** static ft_int16_t Ft_Esd_DemoPage_ESD_SpinBox_X__Property(void *context) { return 19; }
 731              		.loc 1 49 0
 732              		.cfi_startproc
 733              		@ args = 0, pretend = 0, frame = 0
 734              		@ frame_needed = 0, uses_anonymous_args = 0
 735              		@ link register save eliminated.
 736              	.LVL64:
 737              		.loc 1 49 0
 738 0000 1320     		movs	r0, #19
 739              	.LVL65:
 740 0002 7047     		bx	lr
 741              		.cfi_endproc
 742              	.LFE62:
 744              		.section	.text.Ft_Esd_DemoPage_ESD_SpinBox_Y__Property,"ax",%progbits
 745              		.align	1
 746              		.syntax unified
 747              		.thumb
 748              		.thumb_func
 749              		.fpu fpv5-sp-d16
 751              	Ft_Esd_DemoPage_ESD_SpinBox_Y__Property:
 752              	.LFB63:
  50:FT_Esd_Widgets/Ft_Esd_DemoPage__Generated.c **** static ft_int16_t Ft_Esd_DemoPage_ESD_SpinBox_Y__Property(void *context) { return 118; }
 753              		.loc 1 50 0
 754              		.cfi_startproc
 755              		@ args = 0, pretend = 0, frame = 0
 756              		@ frame_needed = 0, uses_anonymous_args = 0
 757              		@ link register save eliminated.
 758              	.LVL66:
ARM GAS  /var/folders/n8/cvzdcwlj0vl4g_wtyz1ffy300000gn/T//ccjuOOkr.s 			page 14


 759              		.loc 1 50 0
 760 0000 7620     		movs	r0, #118
 761              	.LVL67:
 762 0002 7047     		bx	lr
 763              		.cfi_endproc
 764              	.LFE63:
 766              		.section	.text.Ft_Esd_DemoPage_ESD_SpinBox_Height__Property,"ax",%progbits
 767              		.align	1
 768              		.syntax unified
 769              		.thumb
 770              		.thumb_func
 771              		.fpu fpv5-sp-d16
 773              	Ft_Esd_DemoPage_ESD_SpinBox_Height__Property:
 774              	.LFB64:
  51:FT_Esd_Widgets/Ft_Esd_DemoPage__Generated.c **** static ft_int16_t Ft_Esd_DemoPage_ESD_SpinBox_Height__Property(void *context) { return 74; }
 775              		.loc 1 51 0
 776              		.cfi_startproc
 777              		@ args = 0, pretend = 0, frame = 0
 778              		@ frame_needed = 0, uses_anonymous_args = 0
 779              		@ link register save eliminated.
 780              	.LVL68:
 781              		.loc 1 51 0
 782 0000 4A20     		movs	r0, #74
 783              	.LVL69:
 784 0002 7047     		bx	lr
 785              		.cfi_endproc
 786              	.LFE64:
 788              		.section	.text.Ft_Esd_DemoPage_ESD_NumericLabel_X__Property,"ax",%progbits
 789              		.align	1
 790              		.syntax unified
 791              		.thumb
 792              		.thumb_func
 793              		.fpu fpv5-sp-d16
 795              	Ft_Esd_DemoPage_ESD_NumericLabel_X__Property:
 796              	.LFB65:
  52:FT_Esd_Widgets/Ft_Esd_DemoPage__Generated.c **** static ft_int16_t Ft_Esd_DemoPage_ESD_NumericLabel_X__Property(void *context) { return 558; }
 797              		.loc 1 52 0
 798              		.cfi_startproc
 799              		@ args = 0, pretend = 0, frame = 0
 800              		@ frame_needed = 0, uses_anonymous_args = 0
 801              		@ link register save eliminated.
 802              	.LVL70:
 803              		.loc 1 52 0
 804 0000 40F22E20 		movw	r0, #558
 805              	.LVL71:
 806 0004 7047     		bx	lr
 807              		.cfi_endproc
 808              	.LFE65:
 810              		.section	.text.Ft_Esd_DemoPage_ESD_NumericLabel_Y__Property,"ax",%progbits
 811              		.align	1
 812              		.syntax unified
 813              		.thumb
 814              		.thumb_func
 815              		.fpu fpv5-sp-d16
 817              	Ft_Esd_DemoPage_ESD_NumericLabel_Y__Property:
 818              	.LFB66:
  53:FT_Esd_Widgets/Ft_Esd_DemoPage__Generated.c **** static ft_int16_t Ft_Esd_DemoPage_ESD_NumericLabel_Y__Property(void *context) { return 42; }
ARM GAS  /var/folders/n8/cvzdcwlj0vl4g_wtyz1ffy300000gn/T//ccjuOOkr.s 			page 15


 819              		.loc 1 53 0
 820              		.cfi_startproc
 821              		@ args = 0, pretend = 0, frame = 0
 822              		@ frame_needed = 0, uses_anonymous_args = 0
 823              		@ link register save eliminated.
 824              	.LVL72:
 825              		.loc 1 53 0
 826 0000 2A20     		movs	r0, #42
 827              	.LVL73:
 828 0002 7047     		bx	lr
 829              		.cfi_endproc
 830              	.LFE66:
 832              		.section	.text.Ft_Esd_DemoPage_ESD_Label_Button_X__Property,"ax",%progbits
 833              		.align	1
 834              		.syntax unified
 835              		.thumb
 836              		.thumb_func
 837              		.fpu fpv5-sp-d16
 839              	Ft_Esd_DemoPage_ESD_Label_Button_X__Property:
 840              	.LFB67:
  54:FT_Esd_Widgets/Ft_Esd_DemoPage__Generated.c **** static ft_int32_t Ft_Esd_DemoPage_ESD_NumericLabel_Value__Property(void *context);
  55:FT_Esd_Widgets/Ft_Esd_DemoPage__Generated.c **** static ft_int16_t Ft_Esd_DemoPage_ESD_Label_Button_X__Property(void *context) { return 602; }
 841              		.loc 1 55 0
 842              		.cfi_startproc
 843              		@ args = 0, pretend = 0, frame = 0
 844              		@ frame_needed = 0, uses_anonymous_args = 0
 845              		@ link register save eliminated.
 846              	.LVL74:
 847              		.loc 1 55 0
 848 0000 40F25A20 		movw	r0, #602
 849              	.LVL75:
 850 0004 7047     		bx	lr
 851              		.cfi_endproc
 852              	.LFE67:
 854              		.section	.text.Ft_Esd_DemoPage_ESD_Label_Button_Y__Property,"ax",%progbits
 855              		.align	1
 856              		.syntax unified
 857              		.thumb
 858              		.thumb_func
 859              		.fpu fpv5-sp-d16
 861              	Ft_Esd_DemoPage_ESD_Label_Button_Y__Property:
 862              	.LFB68:
  56:FT_Esd_Widgets/Ft_Esd_DemoPage__Generated.c **** static ft_int16_t Ft_Esd_DemoPage_ESD_Label_Button_Y__Property(void *context) { return 290; }
 863              		.loc 1 56 0
 864              		.cfi_startproc
 865              		@ args = 0, pretend = 0, frame = 0
 866              		@ frame_needed = 0, uses_anonymous_args = 0
 867              		@ link register save eliminated.
 868              	.LVL76:
 869              		.loc 1 56 0
 870 0000 4FF49170 		mov	r0, #290
 871              	.LVL77:
 872 0004 7047     		bx	lr
 873              		.cfi_endproc
 874              	.LFE68:
 876              		.section	.text.Ft_Esd_DemoPage_ESD_SpinBox_1_X__Property,"ax",%progbits
 877              		.align	1
ARM GAS  /var/folders/n8/cvzdcwlj0vl4g_wtyz1ffy300000gn/T//ccjuOOkr.s 			page 16


 878              		.syntax unified
 879              		.thumb
 880              		.thumb_func
 881              		.fpu fpv5-sp-d16
 883              	Ft_Esd_DemoPage_ESD_SpinBox_1_X__Property:
 884              	.LFB69:
  57:FT_Esd_Widgets/Ft_Esd_DemoPage__Generated.c **** static ft_int16_t Ft_Esd_DemoPage_ESD_NumericLabel_1_X__Property(void *context);
  58:FT_Esd_Widgets/Ft_Esd_DemoPage__Generated.c **** static ft_int32_t Ft_Esd_DemoPage_ESD_NumericLabel_1_Value__Property(void *context);
  59:FT_Esd_Widgets/Ft_Esd_DemoPage__Generated.c **** static ft_int16_t Ft_Esd_DemoPage_ESD_SpinBox_1_X__Property(void *context) { return 20; }
 885              		.loc 1 59 0
 886              		.cfi_startproc
 887              		@ args = 0, pretend = 0, frame = 0
 888              		@ frame_needed = 0, uses_anonymous_args = 0
 889              		@ link register save eliminated.
 890              	.LVL78:
 891              		.loc 1 59 0
 892 0000 1420     		movs	r0, #20
 893              	.LVL79:
 894 0002 7047     		bx	lr
 895              		.cfi_endproc
 896              	.LFE69:
 898              		.section	.text.Ft_Esd_DemoPage_ESD_SpinBox_1_Y__Property,"ax",%progbits
 899              		.align	1
 900              		.syntax unified
 901              		.thumb
 902              		.thumb_func
 903              		.fpu fpv5-sp-d16
 905              	Ft_Esd_DemoPage_ESD_SpinBox_1_Y__Property:
 906              	.LFB70:
  60:FT_Esd_Widgets/Ft_Esd_DemoPage__Generated.c **** static ft_int16_t Ft_Esd_DemoPage_ESD_SpinBox_1_Y__Property(void *context) { return 206; }
 907              		.loc 1 60 0
 908              		.cfi_startproc
 909              		@ args = 0, pretend = 0, frame = 0
 910              		@ frame_needed = 0, uses_anonymous_args = 0
 911              		@ link register save eliminated.
 912              	.LVL80:
 913              		.loc 1 60 0
 914 0000 CE20     		movs	r0, #206
 915              	.LVL81:
 916 0002 7047     		bx	lr
 917              		.cfi_endproc
 918              	.LFE70:
 920              		.section	.text.Ft_Esd_DemoPage_ESD_SpinBox_1_Step__Property,"ax",%progbits
 921              		.align	1
 922              		.syntax unified
 923              		.thumb
 924              		.thumb_func
 925              		.fpu fpv5-sp-d16
 927              	Ft_Esd_DemoPage_ESD_SpinBox_1_Step__Property:
 928              	.LFB71:
  61:FT_Esd_Widgets/Ft_Esd_DemoPage__Generated.c **** static int Ft_Esd_DemoPage_ESD_SpinBox_1_Step__Property(void *context) { return 10L; }
 929              		.loc 1 61 0
 930              		.cfi_startproc
 931              		@ args = 0, pretend = 0, frame = 0
 932              		@ frame_needed = 0, uses_anonymous_args = 0
 933              		@ link register save eliminated.
 934              	.LVL82:
ARM GAS  /var/folders/n8/cvzdcwlj0vl4g_wtyz1ffy300000gn/T//ccjuOOkr.s 			page 17


 935              		.loc 1 61 0
 936 0000 0A20     		movs	r0, #10
 937              	.LVL83:
 938 0002 7047     		bx	lr
 939              		.cfi_endproc
 940              	.LFE71:
 942              		.section	.text.Ft_Esd_DemoPage_ESD_SpinBox_2_X__Property,"ax",%progbits
 943              		.align	1
 944              		.syntax unified
 945              		.thumb
 946              		.thumb_func
 947              		.fpu fpv5-sp-d16
 949              	Ft_Esd_DemoPage_ESD_SpinBox_2_X__Property:
 950              	.LFB72:
  62:FT_Esd_Widgets/Ft_Esd_DemoPage__Generated.c **** static ft_int16_t Ft_Esd_DemoPage_ESD_NumericLabel_2_Y__Property(void *context);
  63:FT_Esd_Widgets/Ft_Esd_DemoPage__Generated.c **** static ft_int32_t Ft_Esd_DemoPage_ESD_NumericLabel_2_Value__Property(void *context);
  64:FT_Esd_Widgets/Ft_Esd_DemoPage__Generated.c **** static ft_int16_t Ft_Esd_DemoPage_ESD_SpinBox_2_X__Property(void *context) { return 21; }
 951              		.loc 1 64 0
 952              		.cfi_startproc
 953              		@ args = 0, pretend = 0, frame = 0
 954              		@ frame_needed = 0, uses_anonymous_args = 0
 955              		@ link register save eliminated.
 956              	.LVL84:
 957              		.loc 1 64 0
 958 0000 1520     		movs	r0, #21
 959              	.LVL85:
 960 0002 7047     		bx	lr
 961              		.cfi_endproc
 962              	.LFE72:
 964              		.section	.text.Ft_Esd_DemoPage_ESD_SpinBox_2_Y__Property,"ax",%progbits
 965              		.align	1
 966              		.syntax unified
 967              		.thumb
 968              		.thumb_func
 969              		.fpu fpv5-sp-d16
 971              	Ft_Esd_DemoPage_ESD_SpinBox_2_Y__Property:
 972              	.LFB73:
  65:FT_Esd_Widgets/Ft_Esd_DemoPage__Generated.c **** static ft_int16_t Ft_Esd_DemoPage_ESD_SpinBox_2_Y__Property(void *context) { return 301; }
 973              		.loc 1 65 0
 974              		.cfi_startproc
 975              		@ args = 0, pretend = 0, frame = 0
 976              		@ frame_needed = 0, uses_anonymous_args = 0
 977              		@ link register save eliminated.
 978              	.LVL86:
 979              		.loc 1 65 0
 980 0000 40F22D10 		movw	r0, #301
 981              	.LVL87:
 982 0004 7047     		bx	lr
 983              		.cfi_endproc
 984              	.LFE73:
 986              		.section	.text.Ft_Esd_DemoPage_ESD_PushButton_3__active,"ax",%progbits
 987              		.align	1
 988              		.syntax unified
 989              		.thumb
 990              		.thumb_func
 991              		.fpu fpv5-sp-d16
 993              	Ft_Esd_DemoPage_ESD_PushButton_3__active:
ARM GAS  /var/folders/n8/cvzdcwlj0vl4g_wtyz1ffy300000gn/T//ccjuOOkr.s 			page 18


 994              	.LFB87:
  66:FT_Esd_Widgets/Ft_Esd_DemoPage__Generated.c **** 
  67:FT_Esd_Widgets/Ft_Esd_DemoPage__Generated.c **** static void Ft_Esd_DemoPage_ESD_PushButton_Pushed__Signal(void *context);
  68:FT_Esd_Widgets/Ft_Esd_DemoPage__Generated.c **** static void Ft_Esd_DemoPage_ESD_SpinBox_Changed__Writer(void *context, int value);
  69:FT_Esd_Widgets/Ft_Esd_DemoPage__Generated.c **** static void Ft_Esd_DemoPage_ESD_Label_Button_Pushed__Signal(void *context);
  70:FT_Esd_Widgets/Ft_Esd_DemoPage__Generated.c **** static void Ft_Esd_DemoPage_ESD_SpinBox_1_Changed__Writer(void *context, int value);
  71:FT_Esd_Widgets/Ft_Esd_DemoPage__Generated.c **** 
  72:FT_Esd_Widgets/Ft_Esd_DemoPage__Generated.c **** void Ft_Esd_DemoPage__Initializer(Ft_Esd_DemoPage *context)
  73:FT_Esd_Widgets/Ft_Esd_DemoPage__Generated.c **** {
  74:FT_Esd_Widgets/Ft_Esd_DemoPage__Generated.c **** 	context->Parent = 0;
  75:FT_Esd_Widgets/Ft_Esd_DemoPage__Generated.c **** 	SwitchBool__Initializer(&context->SwitchBool);
  76:FT_Esd_Widgets/Ft_Esd_DemoPage__Generated.c **** 	context->SwitchBool.Parent = context;
  77:FT_Esd_Widgets/Ft_Esd_DemoPage__Generated.c **** 	Ft_Esd_TouchTag__Initializer(&context->Touch_Tag);
  78:FT_Esd_Widgets/Ft_Esd_DemoPage__Generated.c **** 	context->Touch_Tag.Parent = context;
  79:FT_Esd_Widgets/Ft_Esd_DemoPage__Generated.c **** 	Ft_Esd_ProgressBar__Initializer(&context->ESD_ProgressBar);
  80:FT_Esd_Widgets/Ft_Esd_DemoPage__Generated.c **** 	context->ESD_ProgressBar.Parent = context;
  81:FT_Esd_Widgets/Ft_Esd_DemoPage__Generated.c **** 	context->ESD_ProgressBar.X = Ft_Esd_DemoPage_ESD_ProgressBar_X__Property;
  82:FT_Esd_Widgets/Ft_Esd_DemoPage__Generated.c **** 	context->ESD_ProgressBar.Y = Ft_Esd_DemoPage_ESD_ProgressBar_Y__Property;
  83:FT_Esd_Widgets/Ft_Esd_DemoPage__Generated.c **** 	context->ESD_ProgressBar.Height = Ft_Esd_DemoPage_ESD_ProgressBar_Height__Property;
  84:FT_Esd_Widgets/Ft_Esd_DemoPage__Generated.c **** 	context->ESD_ProgressBar.Val = Ft_Esd_DemoPage_ESD_ProgressBar_Val__Property;
  85:FT_Esd_Widgets/Ft_Esd_DemoPage__Generated.c **** 	context->ESD_ProgressBar.Range = Ft_Esd_DemoPage_ESD_ProgressBar_Range__Property;
  86:FT_Esd_Widgets/Ft_Esd_DemoPage__Generated.c **** 	Ft_Esd_Gauge__Initializer(&context->ESD_Gauge);
  87:FT_Esd_Widgets/Ft_Esd_DemoPage__Generated.c **** 	context->ESD_Gauge.Parent = context;
  88:FT_Esd_Widgets/Ft_Esd_DemoPage__Generated.c **** 	context->ESD_Gauge.X = Ft_Esd_DemoPage_ESD_Gauge_X__Property;
  89:FT_Esd_Widgets/Ft_Esd_DemoPage__Generated.c **** 	context->ESD_Gauge.Y = Ft_Esd_DemoPage_ESD_Gauge_Y__Property;
  90:FT_Esd_Widgets/Ft_Esd_DemoPage__Generated.c **** 	context->ESD_Gauge.Val = Ft_Esd_DemoPage_ESD_Gauge_Val__Property;
  91:FT_Esd_Widgets/Ft_Esd_DemoPage__Generated.c **** 	Ft_Esd_Clock__Initializer(&context->ESD_Clock);
  92:FT_Esd_Widgets/Ft_Esd_DemoPage__Generated.c **** 	context->ESD_Clock.Parent = context;
  93:FT_Esd_Widgets/Ft_Esd_DemoPage__Generated.c **** 	context->ESD_Clock.X = Ft_Esd_DemoPage_ESD_Clock_X__Property;
  94:FT_Esd_Widgets/Ft_Esd_DemoPage__Generated.c **** 	context->ESD_Clock.Y = Ft_Esd_DemoPage_ESD_Clock_Y__Property;
  95:FT_Esd_Widgets/Ft_Esd_DemoPage__Generated.c **** 	context->ESD_Clock.Ms = Ft_Esd_DemoPage_ESD_Clock_Ms__Property;
  96:FT_Esd_Widgets/Ft_Esd_DemoPage__Generated.c **** 	context->ESD_Clock.Interactive = Ft_Esd_DemoPage_ESD_Clock_Interactive__Property;
  97:FT_Esd_Widgets/Ft_Esd_DemoPage__Generated.c **** 	Ft_Esd_PushButton__Initializer(&context->ESD_PushButton);
  98:FT_Esd_Widgets/Ft_Esd_DemoPage__Generated.c **** 	context->ESD_PushButton.Parent = context;
  99:FT_Esd_Widgets/Ft_Esd_DemoPage__Generated.c **** 	context->ESD_PushButton.X = Ft_Esd_DemoPage_ESD_PushButton_X__Property;
 100:FT_Esd_Widgets/Ft_Esd_DemoPage__Generated.c **** 	context->ESD_PushButton.Y = Ft_Esd_DemoPage_ESD_PushButton_Y__Property;
 101:FT_Esd_Widgets/Ft_Esd_DemoPage__Generated.c **** 	context->ESD_PushButton.Pushed = Ft_Esd_DemoPage_ESD_PushButton_Pushed__Signal;
 102:FT_Esd_Widgets/Ft_Esd_DemoPage__Generated.c **** 	Ft_Esd_Rectangle__Initializer(&context->ESD_Rectangle);
 103:FT_Esd_Widgets/Ft_Esd_DemoPage__Generated.c **** 	context->ESD_Rectangle.Parent = context;
 104:FT_Esd_Widgets/Ft_Esd_DemoPage__Generated.c **** 	context->ESD_Rectangle.X = Ft_Esd_DemoPage_ESD_Rectangle_X__Property;
 105:FT_Esd_Widgets/Ft_Esd_DemoPage__Generated.c **** 	context->ESD_Rectangle.Y = Ft_Esd_DemoPage_ESD_Rectangle_Y__Property;
 106:FT_Esd_Widgets/Ft_Esd_DemoPage__Generated.c **** 	Ft_Esd_PushButton__Initializer(&context->ESD_PushButton_1);
 107:FT_Esd_Widgets/Ft_Esd_DemoPage__Generated.c **** 	context->ESD_PushButton_1.Parent = context;
 108:FT_Esd_Widgets/Ft_Esd_DemoPage__Generated.c **** 	context->ESD_PushButton_1.X = Ft_Esd_DemoPage_ESD_PushButton_1_X__Property;
 109:FT_Esd_Widgets/Ft_Esd_DemoPage__Generated.c **** 	context->ESD_PushButton_1.Y = Ft_Esd_DemoPage_ESD_PushButton_1_Y__Property;
 110:FT_Esd_Widgets/Ft_Esd_DemoPage__Generated.c **** 	context->ESD_PushButton_1.Primary = Ft_Esd_DemoPage_ESD_PushButton_1_Primary__Property;
 111:FT_Esd_Widgets/Ft_Esd_DemoPage__Generated.c **** 	Ft_Esd_Toggle__Initializer(&context->ESD_Toggle);
 112:FT_Esd_Widgets/Ft_Esd_DemoPage__Generated.c **** 	context->ESD_Toggle.Parent = context;
 113:FT_Esd_Widgets/Ft_Esd_DemoPage__Generated.c **** 	context->ESD_Toggle.X = Ft_Esd_DemoPage_ESD_Toggle_X__Property;
 114:FT_Esd_Widgets/Ft_Esd_DemoPage__Generated.c **** 	context->ESD_Toggle.Y = Ft_Esd_DemoPage_ESD_Toggle_Y__Property;
 115:FT_Esd_Widgets/Ft_Esd_DemoPage__Generated.c **** 	context->ESD_Toggle.Width = Ft_Esd_DemoPage_ESD_Toggle_Width__Property;
 116:FT_Esd_Widgets/Ft_Esd_DemoPage__Generated.c **** 	Ft_Esd_PushButton__Initializer(&context->ESD_PushButton_2);
 117:FT_Esd_Widgets/Ft_Esd_DemoPage__Generated.c **** 	context->ESD_PushButton_2.Parent = context;
 118:FT_Esd_Widgets/Ft_Esd_DemoPage__Generated.c **** 	context->ESD_PushButton_2.X = Ft_Esd_DemoPage_ESD_PushButton_2_X__Property;
 119:FT_Esd_Widgets/Ft_Esd_DemoPage__Generated.c **** 	context->ESD_PushButton_2.Y = Ft_Esd_DemoPage_ESD_PushButton_2_Y__Property;
 120:FT_Esd_Widgets/Ft_Esd_DemoPage__Generated.c **** 	context->ESD_PushButton_2.Primary = Ft_Esd_DemoPage_ESD_PushButton_2_Primary__Property;
 121:FT_Esd_Widgets/Ft_Esd_DemoPage__Generated.c **** 	Ft_Esd_Label__Initializer(&context->ESD_Label);
ARM GAS  /var/folders/n8/cvzdcwlj0vl4g_wtyz1ffy300000gn/T//ccjuOOkr.s 			page 19


 122:FT_Esd_Widgets/Ft_Esd_DemoPage__Generated.c **** 	context->ESD_Label.Parent = context;
 123:FT_Esd_Widgets/Ft_Esd_DemoPage__Generated.c **** 	context->ESD_Label.X = Ft_Esd_DemoPage_ESD_Label_X__Property;
 124:FT_Esd_Widgets/Ft_Esd_DemoPage__Generated.c **** 	context->ESD_Label.Y = Ft_Esd_DemoPage_ESD_Label_Y__Property;
 125:FT_Esd_Widgets/Ft_Esd_DemoPage__Generated.c **** 	Ft_Esd_PushButton__Initializer(&context->ESD_PushButton_3);
 126:FT_Esd_Widgets/Ft_Esd_DemoPage__Generated.c **** 	context->ESD_PushButton_3.Parent = context;
 127:FT_Esd_Widgets/Ft_Esd_DemoPage__Generated.c **** 	context->ESD_PushButton_3.X = Ft_Esd_DemoPage_ESD_PushButton_3_X__Property;
 128:FT_Esd_Widgets/Ft_Esd_DemoPage__Generated.c **** 	context->ESD_PushButton_3.Y = Ft_Esd_DemoPage_ESD_PushButton_3_Y__Property;
 129:FT_Esd_Widgets/Ft_Esd_DemoPage__Generated.c **** 	context->ESD_PushButton_3.Primary = Ft_Esd_DemoPage_ESD_PushButton_3_Primary__Property;
 130:FT_Esd_Widgets/Ft_Esd_DemoPage__Generated.c **** 	Ft_Esd_Toggle__Initializer(&context->ESD_Toggle_1);
 131:FT_Esd_Widgets/Ft_Esd_DemoPage__Generated.c **** 	context->ESD_Toggle_1.Parent = context;
 132:FT_Esd_Widgets/Ft_Esd_DemoPage__Generated.c **** 	context->ESD_Toggle_1.X = Ft_Esd_DemoPage_ESD_Toggle_1_X__Property;
 133:FT_Esd_Widgets/Ft_Esd_DemoPage__Generated.c **** 	context->ESD_Toggle_1.Y = Ft_Esd_DemoPage_ESD_Toggle_1_Y__Property;
 134:FT_Esd_Widgets/Ft_Esd_DemoPage__Generated.c **** 	context->ESD_Toggle_1.Width = Ft_Esd_DemoPage_ESD_Toggle_1_Width__Property;
 135:FT_Esd_Widgets/Ft_Esd_DemoPage__Generated.c **** 	context->ESD_Toggle_1.Height = Ft_Esd_DemoPage_ESD_Toggle_1_Height__Property;
 136:FT_Esd_Widgets/Ft_Esd_DemoPage__Generated.c **** 	context->ESD_Toggle_1.Font = Ft_Esd_DemoPage_ESD_Toggle_1_Font__Property;
 137:FT_Esd_Widgets/Ft_Esd_DemoPage__Generated.c **** 	Ft_Esd_SpinBox__Initializer(&context->ESD_SpinBox);
 138:FT_Esd_Widgets/Ft_Esd_DemoPage__Generated.c **** 	context->ESD_SpinBox.Parent = context;
 139:FT_Esd_Widgets/Ft_Esd_DemoPage__Generated.c **** 	context->ESD_SpinBox.X = Ft_Esd_DemoPage_ESD_SpinBox_X__Property;
 140:FT_Esd_Widgets/Ft_Esd_DemoPage__Generated.c **** 	context->ESD_SpinBox.Y = Ft_Esd_DemoPage_ESD_SpinBox_Y__Property;
 141:FT_Esd_Widgets/Ft_Esd_DemoPage__Generated.c **** 	context->ESD_SpinBox.Height = Ft_Esd_DemoPage_ESD_SpinBox_Height__Property;
 142:FT_Esd_Widgets/Ft_Esd_DemoPage__Generated.c **** 	context->ESD_SpinBox.SideButtons = 1;
 143:FT_Esd_Widgets/Ft_Esd_DemoPage__Generated.c **** 	context->ESD_SpinBox.Changed = Ft_Esd_DemoPage_ESD_SpinBox_Changed__Writer;
 144:FT_Esd_Widgets/Ft_Esd_DemoPage__Generated.c **** 	Ft_Esd_NumericLabel__Initializer(&context->ESD_NumericLabel);
 145:FT_Esd_Widgets/Ft_Esd_DemoPage__Generated.c **** 	context->ESD_NumericLabel.Parent = context;
 146:FT_Esd_Widgets/Ft_Esd_DemoPage__Generated.c **** 	context->ESD_NumericLabel.X = Ft_Esd_DemoPage_ESD_NumericLabel_X__Property;
 147:FT_Esd_Widgets/Ft_Esd_DemoPage__Generated.c **** 	context->ESD_NumericLabel.Y = Ft_Esd_DemoPage_ESD_NumericLabel_Y__Property;
 148:FT_Esd_Widgets/Ft_Esd_DemoPage__Generated.c **** 	context->ESD_NumericLabel.Value = Ft_Esd_DemoPage_ESD_NumericLabel_Value__Property;
 149:FT_Esd_Widgets/Ft_Esd_DemoPage__Generated.c **** 	Ft_Esd_LabelButton__Initializer(&context->ESD_Label_Button);
 150:FT_Esd_Widgets/Ft_Esd_DemoPage__Generated.c **** 	context->ESD_Label_Button.Parent = context;
 151:FT_Esd_Widgets/Ft_Esd_DemoPage__Generated.c **** 	context->ESD_Label_Button.X = Ft_Esd_DemoPage_ESD_Label_Button_X__Property;
 152:FT_Esd_Widgets/Ft_Esd_DemoPage__Generated.c **** 	context->ESD_Label_Button.Y = Ft_Esd_DemoPage_ESD_Label_Button_Y__Property;
 153:FT_Esd_Widgets/Ft_Esd_DemoPage__Generated.c **** 	context->ESD_Label_Button.Pushed = Ft_Esd_DemoPage_ESD_Label_Button_Pushed__Signal;
 154:FT_Esd_Widgets/Ft_Esd_DemoPage__Generated.c **** 	Ft_Esd_NumericLabel__Initializer(&context->ESD_NumericLabel_1);
 155:FT_Esd_Widgets/Ft_Esd_DemoPage__Generated.c **** 	context->ESD_NumericLabel_1.Parent = context;
 156:FT_Esd_Widgets/Ft_Esd_DemoPage__Generated.c **** 	context->ESD_NumericLabel_1.X = Ft_Esd_DemoPage_ESD_NumericLabel_1_X__Property;
 157:FT_Esd_Widgets/Ft_Esd_DemoPage__Generated.c **** 	context->ESD_NumericLabel_1.Value = Ft_Esd_DemoPage_ESD_NumericLabel_1_Value__Property;
 158:FT_Esd_Widgets/Ft_Esd_DemoPage__Generated.c **** 	Ft_Esd_SpinBox__Initializer(&context->ESD_SpinBox_1);
 159:FT_Esd_Widgets/Ft_Esd_DemoPage__Generated.c **** 	context->ESD_SpinBox_1.Parent = context;
 160:FT_Esd_Widgets/Ft_Esd_DemoPage__Generated.c **** 	context->ESD_SpinBox_1.X = Ft_Esd_DemoPage_ESD_SpinBox_1_X__Property;
 161:FT_Esd_Widgets/Ft_Esd_DemoPage__Generated.c **** 	context->ESD_SpinBox_1.Y = Ft_Esd_DemoPage_ESD_SpinBox_1_Y__Property;
 162:FT_Esd_Widgets/Ft_Esd_DemoPage__Generated.c **** 	context->ESD_SpinBox_1.Step = Ft_Esd_DemoPage_ESD_SpinBox_1_Step__Property;
 163:FT_Esd_Widgets/Ft_Esd_DemoPage__Generated.c **** 	context->ESD_SpinBox_1.Changed = Ft_Esd_DemoPage_ESD_SpinBox_1_Changed__Writer;
 164:FT_Esd_Widgets/Ft_Esd_DemoPage__Generated.c **** 	Ft_Esd_NumericLabel__Initializer(&context->ESD_NumericLabel_2);
 165:FT_Esd_Widgets/Ft_Esd_DemoPage__Generated.c **** 	context->ESD_NumericLabel_2.Parent = context;
 166:FT_Esd_Widgets/Ft_Esd_DemoPage__Generated.c **** 	context->ESD_NumericLabel_2.Y = Ft_Esd_DemoPage_ESD_NumericLabel_2_Y__Property;
 167:FT_Esd_Widgets/Ft_Esd_DemoPage__Generated.c **** 	context->ESD_NumericLabel_2.Value = Ft_Esd_DemoPage_ESD_NumericLabel_2_Value__Property;
 168:FT_Esd_Widgets/Ft_Esd_DemoPage__Generated.c **** 	Ft_Esd_SpinBox__Initializer(&context->ESD_SpinBox_2);
 169:FT_Esd_Widgets/Ft_Esd_DemoPage__Generated.c **** 	context->ESD_SpinBox_2.Parent = context;
 170:FT_Esd_Widgets/Ft_Esd_DemoPage__Generated.c **** 	context->ESD_SpinBox_2.X = Ft_Esd_DemoPage_ESD_SpinBox_2_X__Property;
 171:FT_Esd_Widgets/Ft_Esd_DemoPage__Generated.c **** 	context->ESD_SpinBox_2.Y = Ft_Esd_DemoPage_ESD_SpinBox_2_Y__Property;
 172:FT_Esd_Widgets/Ft_Esd_DemoPage__Generated.c **** }
 173:FT_Esd_Widgets/Ft_Esd_DemoPage__Generated.c **** 
 174:FT_Esd_Widgets/Ft_Esd_DemoPage__Generated.c **** static ft_uint32_t Ft_Esd_DemoPage_Ft_Esd_GetMillis__return(Ft_Esd_DemoPage *context);
 175:FT_Esd_Widgets/Ft_Esd_DemoPage__Generated.c **** static int Ft_Esd_DemoPage_ESD_PushButton_1__active(Ft_Esd_DemoPage *context);
 176:FT_Esd_Widgets/Ft_Esd_DemoPage__Generated.c **** static int Ft_Esd_DemoPage_ESD_PushButton_3__active(Ft_Esd_DemoPage *context);
 177:FT_Esd_Widgets/Ft_Esd_DemoPage__Generated.c **** 
 178:FT_Esd_Widgets/Ft_Esd_DemoPage__Generated.c **** ft_uint32_t Ft_Esd_GetMillis();
ARM GAS  /var/folders/n8/cvzdcwlj0vl4g_wtyz1ffy300000gn/T//ccjuOOkr.s 			page 20


 179:FT_Esd_Widgets/Ft_Esd_DemoPage__Generated.c **** void Ft_Esd_Elements_Panel(Ft_Esd_Theme *, ft_int16_t, ft_int16_t, ft_int16_t, ft_int16_t, ft_int16
 180:FT_Esd_Widgets/Ft_Esd_DemoPage__Generated.c **** 
 181:FT_Esd_Widgets/Ft_Esd_DemoPage__Generated.c **** void Ft_Esd_DemoPage_Start__Builtin(Ft_Esd_DemoPage *context)
 182:FT_Esd_Widgets/Ft_Esd_DemoPage__Generated.c **** {
 183:FT_Esd_Widgets/Ft_Esd_DemoPage__Generated.c **** 	void *parent = context->Parent;
 184:FT_Esd_Widgets/Ft_Esd_DemoPage__Generated.c **** 	Ft_Esd_Clock_Start(&context->ESD_Clock);
 185:FT_Esd_Widgets/Ft_Esd_DemoPage__Generated.c **** 	Ft_Esd_PushButton_Start(&context->ESD_PushButton);
 186:FT_Esd_Widgets/Ft_Esd_DemoPage__Generated.c **** 	Ft_Esd_PushButton_Start(&context->ESD_PushButton_1);
 187:FT_Esd_Widgets/Ft_Esd_DemoPage__Generated.c **** 	Ft_Esd_Toggle_Start(&context->ESD_Toggle);
 188:FT_Esd_Widgets/Ft_Esd_DemoPage__Generated.c **** 	Ft_Esd_PushButton_Start(&context->ESD_PushButton_2);
 189:FT_Esd_Widgets/Ft_Esd_DemoPage__Generated.c **** 	Ft_Esd_PushButton_Start(&context->ESD_PushButton_3);
 190:FT_Esd_Widgets/Ft_Esd_DemoPage__Generated.c **** 	Ft_Esd_Toggle_Start(&context->ESD_Toggle_1);
 191:FT_Esd_Widgets/Ft_Esd_DemoPage__Generated.c **** 	Ft_Esd_SpinBox_Start(&context->ESD_SpinBox);
 192:FT_Esd_Widgets/Ft_Esd_DemoPage__Generated.c **** 	Ft_Esd_LabelButton_Start(&context->ESD_Label_Button);
 193:FT_Esd_Widgets/Ft_Esd_DemoPage__Generated.c **** 	Ft_Esd_SpinBox_Start(&context->ESD_SpinBox_1);
 194:FT_Esd_Widgets/Ft_Esd_DemoPage__Generated.c **** 	Ft_Esd_SpinBox_Start(&context->ESD_SpinBox_2);
 195:FT_Esd_Widgets/Ft_Esd_DemoPage__Generated.c **** }
 196:FT_Esd_Widgets/Ft_Esd_DemoPage__Generated.c **** 
 197:FT_Esd_Widgets/Ft_Esd_DemoPage__Generated.c **** void Ft_Esd_DemoPage_Update(Ft_Esd_DemoPage *context)
 198:FT_Esd_Widgets/Ft_Esd_DemoPage__Generated.c **** {
 199:FT_Esd_Widgets/Ft_Esd_DemoPage__Generated.c **** 	void *parent = context->Parent;
 200:FT_Esd_Widgets/Ft_Esd_DemoPage__Generated.c **** 	Ft_Esd_Clock_Update(&context->ESD_Clock);
 201:FT_Esd_Widgets/Ft_Esd_DemoPage__Generated.c **** 	Ft_Esd_PushButton_Update(&context->ESD_PushButton);
 202:FT_Esd_Widgets/Ft_Esd_DemoPage__Generated.c **** 	if (Ft_Esd_DemoPage_ESD_PushButton_1__active(context))
 203:FT_Esd_Widgets/Ft_Esd_DemoPage__Generated.c **** 		Ft_Esd_PushButton_Update(&context->ESD_PushButton_1);
 204:FT_Esd_Widgets/Ft_Esd_DemoPage__Generated.c **** 	Ft_Esd_Toggle_Update(&context->ESD_Toggle);
 205:FT_Esd_Widgets/Ft_Esd_DemoPage__Generated.c **** 	Ft_Esd_PushButton_Update(&context->ESD_PushButton_2);
 206:FT_Esd_Widgets/Ft_Esd_DemoPage__Generated.c **** 	if (Ft_Esd_DemoPage_ESD_PushButton_3__active(context))
 207:FT_Esd_Widgets/Ft_Esd_DemoPage__Generated.c **** 		Ft_Esd_PushButton_Update(&context->ESD_PushButton_3);
 208:FT_Esd_Widgets/Ft_Esd_DemoPage__Generated.c **** 	Ft_Esd_Toggle_Update(&context->ESD_Toggle_1);
 209:FT_Esd_Widgets/Ft_Esd_DemoPage__Generated.c **** 	Ft_Esd_SpinBox_Update(&context->ESD_SpinBox);
 210:FT_Esd_Widgets/Ft_Esd_DemoPage__Generated.c **** 	Ft_Esd_LabelButton_Update(&context->ESD_Label_Button);
 211:FT_Esd_Widgets/Ft_Esd_DemoPage__Generated.c **** 	Ft_Esd_SpinBox_Update(&context->ESD_SpinBox_1);
 212:FT_Esd_Widgets/Ft_Esd_DemoPage__Generated.c **** 	Ft_Esd_SpinBox_Update(&context->ESD_SpinBox_2);
 213:FT_Esd_Widgets/Ft_Esd_DemoPage__Generated.c **** }
 214:FT_Esd_Widgets/Ft_Esd_DemoPage__Generated.c **** 
 215:FT_Esd_Widgets/Ft_Esd_DemoPage__Generated.c **** void Ft_Esd_DemoPage_Render(Ft_Esd_DemoPage *context)
 216:FT_Esd_Widgets/Ft_Esd_DemoPage__Generated.c **** {
 217:FT_Esd_Widgets/Ft_Esd_DemoPage__Generated.c **** 	void *parent = context->Parent;
 218:FT_Esd_Widgets/Ft_Esd_DemoPage__Generated.c **** 	Ft_Esd_ProgressBar_Render(&context->ESD_ProgressBar);
 219:FT_Esd_Widgets/Ft_Esd_DemoPage__Generated.c **** 	Ft_Esd_Gauge_Render(&context->ESD_Gauge);
 220:FT_Esd_Widgets/Ft_Esd_DemoPage__Generated.c **** 	Ft_Esd_Theme * theme = Ft_Esd_Theme_GetCurrent();
 221:FT_Esd_Widgets/Ft_Esd_DemoPage__Generated.c **** 	ft_int16_t x = 536;
 222:FT_Esd_Widgets/Ft_Esd_DemoPage__Generated.c **** 	ft_int16_t y = 96;
 223:FT_Esd_Widgets/Ft_Esd_DemoPage__Generated.c **** 	ft_int16_t width = 130;
 224:FT_Esd_Widgets/Ft_Esd_DemoPage__Generated.c **** 	ft_int16_t height = 145;
 225:FT_Esd_Widgets/Ft_Esd_DemoPage__Generated.c **** 	ft_int16_t radius = 4;
 226:FT_Esd_Widgets/Ft_Esd_DemoPage__Generated.c **** 	ft_bool_t raised = 0;
 227:FT_Esd_Widgets/Ft_Esd_DemoPage__Generated.c **** 	Ft_Esd_Elements_Panel(theme, x, y, width, height, radius, raised);
 228:FT_Esd_Widgets/Ft_Esd_DemoPage__Generated.c **** 	Ft_Esd_Clock_Render(&context->ESD_Clock);
 229:FT_Esd_Widgets/Ft_Esd_DemoPage__Generated.c **** 	Ft_Esd_PushButton_Render(&context->ESD_PushButton);
 230:FT_Esd_Widgets/Ft_Esd_DemoPage__Generated.c **** 	Ft_Esd_Rectangle_Render(&context->ESD_Rectangle);
 231:FT_Esd_Widgets/Ft_Esd_DemoPage__Generated.c **** 	if (Ft_Esd_DemoPage_ESD_PushButton_1__active(context))
 232:FT_Esd_Widgets/Ft_Esd_DemoPage__Generated.c **** 		Ft_Esd_PushButton_Render(&context->ESD_PushButton_1);
 233:FT_Esd_Widgets/Ft_Esd_DemoPage__Generated.c **** 	Ft_Esd_Toggle_Render(&context->ESD_Toggle);
 234:FT_Esd_Widgets/Ft_Esd_DemoPage__Generated.c **** 	Ft_Esd_PushButton_Render(&context->ESD_PushButton_2);
 235:FT_Esd_Widgets/Ft_Esd_DemoPage__Generated.c **** 	Ft_Esd_Label_Render(&context->ESD_Label);
ARM GAS  /var/folders/n8/cvzdcwlj0vl4g_wtyz1ffy300000gn/T//ccjuOOkr.s 			page 21


 236:FT_Esd_Widgets/Ft_Esd_DemoPage__Generated.c **** 	if (Ft_Esd_DemoPage_ESD_PushButton_3__active(context))
 237:FT_Esd_Widgets/Ft_Esd_DemoPage__Generated.c **** 		Ft_Esd_PushButton_Render(&context->ESD_PushButton_3);
 238:FT_Esd_Widgets/Ft_Esd_DemoPage__Generated.c **** 	Ft_Esd_Toggle_Render(&context->ESD_Toggle_1);
 239:FT_Esd_Widgets/Ft_Esd_DemoPage__Generated.c **** 	Ft_Esd_SpinBox_Render(&context->ESD_SpinBox);
 240:FT_Esd_Widgets/Ft_Esd_DemoPage__Generated.c **** 	Ft_Esd_NumericLabel_Render(&context->ESD_NumericLabel);
 241:FT_Esd_Widgets/Ft_Esd_DemoPage__Generated.c **** 	Ft_Esd_LabelButton_Render(&context->ESD_Label_Button);
 242:FT_Esd_Widgets/Ft_Esd_DemoPage__Generated.c **** 	Ft_Esd_NumericLabel_Render(&context->ESD_NumericLabel_1);
 243:FT_Esd_Widgets/Ft_Esd_DemoPage__Generated.c **** 	Ft_Esd_SpinBox_Render(&context->ESD_SpinBox_1);
 244:FT_Esd_Widgets/Ft_Esd_DemoPage__Generated.c **** 	Ft_Esd_NumericLabel_Render(&context->ESD_NumericLabel_2);
 245:FT_Esd_Widgets/Ft_Esd_DemoPage__Generated.c **** 	Ft_Esd_SpinBox_Render(&context->ESD_SpinBox_2);
 246:FT_Esd_Widgets/Ft_Esd_DemoPage__Generated.c **** }
 247:FT_Esd_Widgets/Ft_Esd_DemoPage__Generated.c **** 
 248:FT_Esd_Widgets/Ft_Esd_DemoPage__Generated.c **** void Ft_Esd_DemoPage_Idle(Ft_Esd_DemoPage *context)
 249:FT_Esd_Widgets/Ft_Esd_DemoPage__Generated.c **** {
 250:FT_Esd_Widgets/Ft_Esd_DemoPage__Generated.c **** 	void *parent = context->Parent;
 251:FT_Esd_Widgets/Ft_Esd_DemoPage__Generated.c **** }
 252:FT_Esd_Widgets/Ft_Esd_DemoPage__Generated.c **** 
 253:FT_Esd_Widgets/Ft_Esd_DemoPage__Generated.c **** void Ft_Esd_DemoPage_End(Ft_Esd_DemoPage *context)
 254:FT_Esd_Widgets/Ft_Esd_DemoPage__Generated.c **** {
 255:FT_Esd_Widgets/Ft_Esd_DemoPage__Generated.c **** 	void *parent = context->Parent;
 256:FT_Esd_Widgets/Ft_Esd_DemoPage__Generated.c **** 	Ft_Esd_Clock_End(&context->ESD_Clock);
 257:FT_Esd_Widgets/Ft_Esd_DemoPage__Generated.c **** 	Ft_Esd_PushButton_End(&context->ESD_PushButton);
 258:FT_Esd_Widgets/Ft_Esd_DemoPage__Generated.c **** 	Ft_Esd_PushButton_End(&context->ESD_PushButton_1);
 259:FT_Esd_Widgets/Ft_Esd_DemoPage__Generated.c **** 	Ft_Esd_Toggle_End(&context->ESD_Toggle);
 260:FT_Esd_Widgets/Ft_Esd_DemoPage__Generated.c **** 	Ft_Esd_PushButton_End(&context->ESD_PushButton_2);
 261:FT_Esd_Widgets/Ft_Esd_DemoPage__Generated.c **** 	Ft_Esd_PushButton_End(&context->ESD_PushButton_3);
 262:FT_Esd_Widgets/Ft_Esd_DemoPage__Generated.c **** 	Ft_Esd_Toggle_End(&context->ESD_Toggle_1);
 263:FT_Esd_Widgets/Ft_Esd_DemoPage__Generated.c **** 	Ft_Esd_SpinBox_End(&context->ESD_SpinBox);
 264:FT_Esd_Widgets/Ft_Esd_DemoPage__Generated.c **** 	Ft_Esd_LabelButton_End(&context->ESD_Label_Button);
 265:FT_Esd_Widgets/Ft_Esd_DemoPage__Generated.c **** 	Ft_Esd_SpinBox_End(&context->ESD_SpinBox_1);
 266:FT_Esd_Widgets/Ft_Esd_DemoPage__Generated.c **** 	Ft_Esd_SpinBox_End(&context->ESD_SpinBox_2);
 267:FT_Esd_Widgets/Ft_Esd_DemoPage__Generated.c **** }
 268:FT_Esd_Widgets/Ft_Esd_DemoPage__Generated.c **** 
 269:FT_Esd_Widgets/Ft_Esd_DemoPage__Generated.c **** ft_uint32_t Ft_Esd_DemoPage_Ft_Esd_GetMillis__return(Ft_Esd_DemoPage *context)
 270:FT_Esd_Widgets/Ft_Esd_DemoPage__Generated.c **** {
 271:FT_Esd_Widgets/Ft_Esd_DemoPage__Generated.c **** 	void *parent = context->Parent;
 272:FT_Esd_Widgets/Ft_Esd_DemoPage__Generated.c **** 	return Ft_Esd_GetMillis();
 273:FT_Esd_Widgets/Ft_Esd_DemoPage__Generated.c **** }
 274:FT_Esd_Widgets/Ft_Esd_DemoPage__Generated.c **** 
 275:FT_Esd_Widgets/Ft_Esd_DemoPage__Generated.c **** void Ft_Esd_DemoPage_Start(Ft_Esd_DemoPage *context)
 276:FT_Esd_Widgets/Ft_Esd_DemoPage__Generated.c **** {
 277:FT_Esd_Widgets/Ft_Esd_DemoPage__Generated.c **** 	void *parent = context->Parent;
 278:FT_Esd_Widgets/Ft_Esd_DemoPage__Generated.c **** 	Ft_Esd_DemoPage_Start__Builtin(context);
 279:FT_Esd_Widgets/Ft_Esd_DemoPage__Generated.c **** 	Ft_Esd_Toggle_Toggle(&context->ESD_Toggle_1);
 280:FT_Esd_Widgets/Ft_Esd_DemoPage__Generated.c **** }
 281:FT_Esd_Widgets/Ft_Esd_DemoPage__Generated.c **** 
 282:FT_Esd_Widgets/Ft_Esd_DemoPage__Generated.c **** ft_uint16_t Ft_Esd_DemoPage_ESD_ProgressBar_Val__Property(void *c)
 283:FT_Esd_Widgets/Ft_Esd_DemoPage__Generated.c **** {
 284:FT_Esd_Widgets/Ft_Esd_DemoPage__Generated.c **** 	Ft_Esd_DemoPage *context = (Ft_Esd_DemoPage *)c;
 285:FT_Esd_Widgets/Ft_Esd_DemoPage__Generated.c **** 	void *parent = context->Parent;
 286:FT_Esd_Widgets/Ft_Esd_DemoPage__Generated.c **** 	ft_uint32_t left = Ft_Esd_DemoPage_Ft_Esd_GetMillis__return(context);
 287:FT_Esd_Widgets/Ft_Esd_DemoPage__Generated.c **** 	ft_uint16_t right = 1000U;
 288:FT_Esd_Widgets/Ft_Esd_DemoPage__Generated.c **** 	return left % right;
 289:FT_Esd_Widgets/Ft_Esd_DemoPage__Generated.c **** }
 290:FT_Esd_Widgets/Ft_Esd_DemoPage__Generated.c **** 
 291:FT_Esd_Widgets/Ft_Esd_DemoPage__Generated.c **** ft_uint16_t Ft_Esd_DemoPage_ESD_Gauge_Val__Property(void *c)
 292:FT_Esd_Widgets/Ft_Esd_DemoPage__Generated.c **** {
ARM GAS  /var/folders/n8/cvzdcwlj0vl4g_wtyz1ffy300000gn/T//ccjuOOkr.s 			page 22


 293:FT_Esd_Widgets/Ft_Esd_DemoPage__Generated.c **** 	Ft_Esd_DemoPage *context = (Ft_Esd_DemoPage *)c;
 294:FT_Esd_Widgets/Ft_Esd_DemoPage__Generated.c **** 	void *parent = context->Parent;
 295:FT_Esd_Widgets/Ft_Esd_DemoPage__Generated.c **** 	return Ft_Esd_DemoPage_Ft_Esd_GetMillis__return(context);
 296:FT_Esd_Widgets/Ft_Esd_DemoPage__Generated.c **** }
 297:FT_Esd_Widgets/Ft_Esd_DemoPage__Generated.c **** 
 298:FT_Esd_Widgets/Ft_Esd_DemoPage__Generated.c **** ft_uint32_t Ft_Esd_DemoPage_ESD_Clock_Ms__Property(void *c)
 299:FT_Esd_Widgets/Ft_Esd_DemoPage__Generated.c **** {
 300:FT_Esd_Widgets/Ft_Esd_DemoPage__Generated.c **** 	Ft_Esd_DemoPage *context = (Ft_Esd_DemoPage *)c;
 301:FT_Esd_Widgets/Ft_Esd_DemoPage__Generated.c **** 	void *parent = context->Parent;
 302:FT_Esd_Widgets/Ft_Esd_DemoPage__Generated.c **** 	return Ft_Esd_DemoPage_Ft_Esd_GetMillis__return(context);
 303:FT_Esd_Widgets/Ft_Esd_DemoPage__Generated.c **** }
 304:FT_Esd_Widgets/Ft_Esd_DemoPage__Generated.c **** 
 305:FT_Esd_Widgets/Ft_Esd_DemoPage__Generated.c **** void Ft_Esd_DemoPage_ESD_PushButton_Pushed__Signal(void *c)
 306:FT_Esd_Widgets/Ft_Esd_DemoPage__Generated.c **** {
 307:FT_Esd_Widgets/Ft_Esd_DemoPage__Generated.c **** 	Ft_Esd_DemoPage *context = (Ft_Esd_DemoPage *)c;
 308:FT_Esd_Widgets/Ft_Esd_DemoPage__Generated.c **** 	void *parent = context->Parent;
 309:FT_Esd_Widgets/Ft_Esd_DemoPage__Generated.c **** 	SwitchBool_Switch(&context->SwitchBool);
 310:FT_Esd_Widgets/Ft_Esd_DemoPage__Generated.c **** }
 311:FT_Esd_Widgets/Ft_Esd_DemoPage__Generated.c **** 
 312:FT_Esd_Widgets/Ft_Esd_DemoPage__Generated.c **** int Ft_Esd_DemoPage_ESD_PushButton_1__active(Ft_Esd_DemoPage *context)
 313:FT_Esd_Widgets/Ft_Esd_DemoPage__Generated.c **** {
 314:FT_Esd_Widgets/Ft_Esd_DemoPage__Generated.c **** 	void *parent = context->Parent;
 315:FT_Esd_Widgets/Ft_Esd_DemoPage__Generated.c **** 	return SwitchBool_Value(&context->SwitchBool);
 316:FT_Esd_Widgets/Ft_Esd_DemoPage__Generated.c **** }
 317:FT_Esd_Widgets/Ft_Esd_DemoPage__Generated.c **** 
 318:FT_Esd_Widgets/Ft_Esd_DemoPage__Generated.c **** int Ft_Esd_DemoPage_ESD_PushButton_3__active(Ft_Esd_DemoPage *context)
 319:FT_Esd_Widgets/Ft_Esd_DemoPage__Generated.c **** {
 995              		.loc 1 319 0
 996              		.cfi_startproc
 997              		@ args = 0, pretend = 0, frame = 0
 998              		@ frame_needed = 0, uses_anonymous_args = 0
 999              		@ link register save eliminated.
 1000              	.LVL88:
 320:FT_Esd_Widgets/Ft_Esd_DemoPage__Generated.c **** 	void *parent = context->Parent;
 321:FT_Esd_Widgets/Ft_Esd_DemoPage__Generated.c **** 	return context->ESD_Toggle.State;
 322:FT_Esd_Widgets/Ft_Esd_DemoPage__Generated.c **** }
 1001              		.loc 1 322 0
 1002 0000 90F8C801 		ldrb	r0, [r0, #456]	@ zero_extendqisi2
 1003              	.LVL89:
 1004 0004 7047     		bx	lr
 1005              		.cfi_endproc
 1006              	.LFE87:
 1008              		.section	.text.Ft_Esd_DemoPage_ESD_SpinBox_Changed__Writer,"ax",%progbits
 1009              		.align	1
 1010              		.syntax unified
 1011              		.thumb
 1012              		.thumb_func
 1013              		.fpu fpv5-sp-d16
 1015              	Ft_Esd_DemoPage_ESD_SpinBox_Changed__Writer:
 1016              	.LFB88:
 323:FT_Esd_Widgets/Ft_Esd_DemoPage__Generated.c **** 
 324:FT_Esd_Widgets/Ft_Esd_DemoPage__Generated.c **** void Ft_Esd_DemoPage_ESD_SpinBox_Changed__Writer(void *c, int value)
 325:FT_Esd_Widgets/Ft_Esd_DemoPage__Generated.c **** {
 1017              		.loc 1 325 0
 1018              		.cfi_startproc
 1019              		@ args = 0, pretend = 0, frame = 0
 1020              		@ frame_needed = 0, uses_anonymous_args = 0
ARM GAS  /var/folders/n8/cvzdcwlj0vl4g_wtyz1ffy300000gn/T//ccjuOOkr.s 			page 23


 1021              		@ link register save eliminated.
 1022              	.LVL90:
 326:FT_Esd_Widgets/Ft_Esd_DemoPage__Generated.c **** 	Ft_Esd_DemoPage *context = (Ft_Esd_DemoPage *)c;
 327:FT_Esd_Widgets/Ft_Esd_DemoPage__Generated.c **** 	void *parent = context->Parent;
 328:FT_Esd_Widgets/Ft_Esd_DemoPage__Generated.c **** 	context->ESD_SpinBox_1.Value = value;
 1023              		.loc 1 328 0
 1024 0000 C0F8A414 		str	r1, [r0, #1188]
 329:FT_Esd_Widgets/Ft_Esd_DemoPage__Generated.c **** }
 1025              		.loc 1 329 0
 1026 0004 7047     		bx	lr
 1027              		.cfi_endproc
 1028              	.LFE88:
 1030              		.section	.text.Ft_Esd_DemoPage_ESD_NumericLabel_Value__Property,"ax",%progbits
 1031              		.align	1
 1032              		.syntax unified
 1033              		.thumb
 1034              		.thumb_func
 1035              		.fpu fpv5-sp-d16
 1037              	Ft_Esd_DemoPage_ESD_NumericLabel_Value__Property:
 1038              	.LFB89:
 330:FT_Esd_Widgets/Ft_Esd_DemoPage__Generated.c **** 
 331:FT_Esd_Widgets/Ft_Esd_DemoPage__Generated.c **** ft_int32_t Ft_Esd_DemoPage_ESD_NumericLabel_Value__Property(void *c)
 332:FT_Esd_Widgets/Ft_Esd_DemoPage__Generated.c **** {
 1039              		.loc 1 332 0
 1040              		.cfi_startproc
 1041              		@ args = 0, pretend = 0, frame = 0
 1042              		@ frame_needed = 0, uses_anonymous_args = 0
 1043              		@ link register save eliminated.
 1044              	.LVL91:
 333:FT_Esd_Widgets/Ft_Esd_DemoPage__Generated.c **** 	Ft_Esd_DemoPage *context = (Ft_Esd_DemoPage *)c;
 334:FT_Esd_Widgets/Ft_Esd_DemoPage__Generated.c **** 	void *parent = context->Parent;
 335:FT_Esd_Widgets/Ft_Esd_DemoPage__Generated.c **** 	return context->ESD_SpinBox.Value;
 336:FT_Esd_Widgets/Ft_Esd_DemoPage__Generated.c **** }
 1045              		.loc 1 336 0
 1046 0000 D0F80403 		ldr	r0, [r0, #772]
 1047              	.LVL92:
 1048 0004 7047     		bx	lr
 1049              		.cfi_endproc
 1050              	.LFE89:
 1052              		.section	.text.Ft_Esd_DemoPage_ESD_SpinBox_1_Changed__Writer,"ax",%progbits
 1053              		.align	1
 1054              		.syntax unified
 1055              		.thumb
 1056              		.thumb_func
 1057              		.fpu fpv5-sp-d16
 1059              	Ft_Esd_DemoPage_ESD_SpinBox_1_Changed__Writer:
 1060              	.LFB93:
 337:FT_Esd_Widgets/Ft_Esd_DemoPage__Generated.c **** 
 338:FT_Esd_Widgets/Ft_Esd_DemoPage__Generated.c **** void Ft_Esd_DemoPage_ESD_Label_Button_Pushed__Signal(void *c)
 339:FT_Esd_Widgets/Ft_Esd_DemoPage__Generated.c **** {
 340:FT_Esd_Widgets/Ft_Esd_DemoPage__Generated.c **** 	Ft_Esd_DemoPage *context = (Ft_Esd_DemoPage *)c;
 341:FT_Esd_Widgets/Ft_Esd_DemoPage__Generated.c **** 	void *parent = context->Parent;
 342:FT_Esd_Widgets/Ft_Esd_DemoPage__Generated.c **** 	Ft_Esd_Toggle_Toggle(&context->ESD_Toggle_1);
 343:FT_Esd_Widgets/Ft_Esd_DemoPage__Generated.c **** }
 344:FT_Esd_Widgets/Ft_Esd_DemoPage__Generated.c **** 
 345:FT_Esd_Widgets/Ft_Esd_DemoPage__Generated.c **** ft_int16_t Ft_Esd_DemoPage_ESD_NumericLabel_1_X__Property(void *c)
 346:FT_Esd_Widgets/Ft_Esd_DemoPage__Generated.c **** {
ARM GAS  /var/folders/n8/cvzdcwlj0vl4g_wtyz1ffy300000gn/T//ccjuOOkr.s 			page 24


 347:FT_Esd_Widgets/Ft_Esd_DemoPage__Generated.c **** 	Ft_Esd_DemoPage *context = (Ft_Esd_DemoPage *)c;
 348:FT_Esd_Widgets/Ft_Esd_DemoPage__Generated.c **** 	void *parent = context->Parent;
 349:FT_Esd_Widgets/Ft_Esd_DemoPage__Generated.c **** 	return Ft_Esd_TouchTag_TouchX(&context->Touch_Tag);
 350:FT_Esd_Widgets/Ft_Esd_DemoPage__Generated.c **** }
 351:FT_Esd_Widgets/Ft_Esd_DemoPage__Generated.c **** 
 352:FT_Esd_Widgets/Ft_Esd_DemoPage__Generated.c **** ft_int32_t Ft_Esd_DemoPage_ESD_NumericLabel_1_Value__Property(void *c)
 353:FT_Esd_Widgets/Ft_Esd_DemoPage__Generated.c **** {
 354:FT_Esd_Widgets/Ft_Esd_DemoPage__Generated.c **** 	Ft_Esd_DemoPage *context = (Ft_Esd_DemoPage *)c;
 355:FT_Esd_Widgets/Ft_Esd_DemoPage__Generated.c **** 	void *parent = context->Parent;
 356:FT_Esd_Widgets/Ft_Esd_DemoPage__Generated.c **** 	return Ft_Esd_TouchTag_TouchX(&context->Touch_Tag);
 357:FT_Esd_Widgets/Ft_Esd_DemoPage__Generated.c **** }
 358:FT_Esd_Widgets/Ft_Esd_DemoPage__Generated.c **** 
 359:FT_Esd_Widgets/Ft_Esd_DemoPage__Generated.c **** void Ft_Esd_DemoPage_ESD_SpinBox_1_Changed__Writer(void *c, int value)
 360:FT_Esd_Widgets/Ft_Esd_DemoPage__Generated.c **** {
 1061              		.loc 1 360 0
 1062              		.cfi_startproc
 1063              		@ args = 0, pretend = 0, frame = 0
 1064              		@ frame_needed = 0, uses_anonymous_args = 0
 1065              		@ link register save eliminated.
 1066              	.LVL93:
 361:FT_Esd_Widgets/Ft_Esd_DemoPage__Generated.c **** 	Ft_Esd_DemoPage *context = (Ft_Esd_DemoPage *)c;
 362:FT_Esd_Widgets/Ft_Esd_DemoPage__Generated.c **** 	void *parent = context->Parent;
 363:FT_Esd_Widgets/Ft_Esd_DemoPage__Generated.c **** 	context->ESD_SpinBox.Value = value;
 1067              		.loc 1 363 0
 1068 0000 C0F80413 		str	r1, [r0, #772]
 364:FT_Esd_Widgets/Ft_Esd_DemoPage__Generated.c **** }
 1069              		.loc 1 364 0
 1070 0004 7047     		bx	lr
 1071              		.cfi_endproc
 1072              	.LFE93:
 1074              		.section	.text.Ft_Esd_DemoPage_ESD_NumericLabel_2_Value__Property,"ax",%progbits
 1075              		.align	1
 1076              		.syntax unified
 1077              		.thumb
 1078              		.thumb_func
 1079              		.fpu fpv5-sp-d16
 1081              	Ft_Esd_DemoPage_ESD_NumericLabel_2_Value__Property:
 1082              	.LFB95:
 365:FT_Esd_Widgets/Ft_Esd_DemoPage__Generated.c **** 
 366:FT_Esd_Widgets/Ft_Esd_DemoPage__Generated.c **** ft_int16_t Ft_Esd_DemoPage_ESD_NumericLabel_2_Y__Property(void *c)
 367:FT_Esd_Widgets/Ft_Esd_DemoPage__Generated.c **** {
 368:FT_Esd_Widgets/Ft_Esd_DemoPage__Generated.c **** 	Ft_Esd_DemoPage *context = (Ft_Esd_DemoPage *)c;
 369:FT_Esd_Widgets/Ft_Esd_DemoPage__Generated.c **** 	void *parent = context->Parent;
 370:FT_Esd_Widgets/Ft_Esd_DemoPage__Generated.c **** 	return Ft_Esd_TouchTag_TouchY(&context->Touch_Tag);
 371:FT_Esd_Widgets/Ft_Esd_DemoPage__Generated.c **** }
 372:FT_Esd_Widgets/Ft_Esd_DemoPage__Generated.c **** 
 373:FT_Esd_Widgets/Ft_Esd_DemoPage__Generated.c **** ft_int32_t Ft_Esd_DemoPage_ESD_NumericLabel_2_Value__Property(void *c)
 374:FT_Esd_Widgets/Ft_Esd_DemoPage__Generated.c **** {
 1083              		.loc 1 374 0
 1084              		.cfi_startproc
 1085              		@ args = 0, pretend = 0, frame = 0
 1086              		@ frame_needed = 0, uses_anonymous_args = 0
 1087              	.LVL94:
 1088 0000 08B5     		push	{r3, lr}
 1089              	.LCFI0:
 1090              		.cfi_def_cfa_offset 8
 1091              		.cfi_offset 3, -8
ARM GAS  /var/folders/n8/cvzdcwlj0vl4g_wtyz1ffy300000gn/T//ccjuOOkr.s 			page 25


 1092              		.cfi_offset 14, -4
 1093              	.LVL95:
 375:FT_Esd_Widgets/Ft_Esd_DemoPage__Generated.c **** 	Ft_Esd_DemoPage *context = (Ft_Esd_DemoPage *)c;
 376:FT_Esd_Widgets/Ft_Esd_DemoPage__Generated.c **** 	void *parent = context->Parent;
 377:FT_Esd_Widgets/Ft_Esd_DemoPage__Generated.c **** 	return Ft_Esd_TouchTag_TouchY(&context->Touch_Tag);
 1094              		.loc 1 377 0
 1095 0002 0C30     		adds	r0, r0, #12
 1096              	.LVL96:
 1097 0004 FFF7FEFF 		bl	Ft_Esd_TouchTag_TouchY
 1098              	.LVL97:
 378:FT_Esd_Widgets/Ft_Esd_DemoPage__Generated.c **** }
 1099              		.loc 1 378 0
 1100 0008 08BD     		pop	{r3, pc}
 1101              		.cfi_endproc
 1102              	.LFE95:
 1104              		.section	.text.Ft_Esd_DemoPage_ESD_NumericLabel_2_Y__Property,"ax",%progbits
 1105              		.align	1
 1106              		.syntax unified
 1107              		.thumb
 1108              		.thumb_func
 1109              		.fpu fpv5-sp-d16
 1111              	Ft_Esd_DemoPage_ESD_NumericLabel_2_Y__Property:
 1112              	.LFB94:
 367:FT_Esd_Widgets/Ft_Esd_DemoPage__Generated.c **** 	Ft_Esd_DemoPage *context = (Ft_Esd_DemoPage *)c;
 1113              		.loc 1 367 0
 1114              		.cfi_startproc
 1115              		@ args = 0, pretend = 0, frame = 0
 1116              		@ frame_needed = 0, uses_anonymous_args = 0
 1117              	.LVL98:
 1118 0000 08B5     		push	{r3, lr}
 1119              	.LCFI1:
 1120              		.cfi_def_cfa_offset 8
 1121              		.cfi_offset 3, -8
 1122              		.cfi_offset 14, -4
 1123              	.LVL99:
 370:FT_Esd_Widgets/Ft_Esd_DemoPage__Generated.c **** }
 1124              		.loc 1 370 0
 1125 0002 0C30     		adds	r0, r0, #12
 1126              	.LVL100:
 1127 0004 FFF7FEFF 		bl	Ft_Esd_TouchTag_TouchY
 1128              	.LVL101:
 371:FT_Esd_Widgets/Ft_Esd_DemoPage__Generated.c **** 
 1129              		.loc 1 371 0
 1130 0008 08BD     		pop	{r3, pc}
 1131              		.cfi_endproc
 1132              	.LFE94:
 1134              		.section	.text.Ft_Esd_DemoPage_ESD_NumericLabel_1_Value__Property,"ax",%progbits
 1135              		.align	1
 1136              		.syntax unified
 1137              		.thumb
 1138              		.thumb_func
 1139              		.fpu fpv5-sp-d16
 1141              	Ft_Esd_DemoPage_ESD_NumericLabel_1_Value__Property:
 1142              	.LFB92:
 353:FT_Esd_Widgets/Ft_Esd_DemoPage__Generated.c **** 	Ft_Esd_DemoPage *context = (Ft_Esd_DemoPage *)c;
 1143              		.loc 1 353 0
 1144              		.cfi_startproc
ARM GAS  /var/folders/n8/cvzdcwlj0vl4g_wtyz1ffy300000gn/T//ccjuOOkr.s 			page 26


 1145              		@ args = 0, pretend = 0, frame = 0
 1146              		@ frame_needed = 0, uses_anonymous_args = 0
 1147              	.LVL102:
 1148 0000 08B5     		push	{r3, lr}
 1149              	.LCFI2:
 1150              		.cfi_def_cfa_offset 8
 1151              		.cfi_offset 3, -8
 1152              		.cfi_offset 14, -4
 1153              	.LVL103:
 356:FT_Esd_Widgets/Ft_Esd_DemoPage__Generated.c **** }
 1154              		.loc 1 356 0
 1155 0002 0C30     		adds	r0, r0, #12
 1156              	.LVL104:
 1157 0004 FFF7FEFF 		bl	Ft_Esd_TouchTag_TouchX
 1158              	.LVL105:
 357:FT_Esd_Widgets/Ft_Esd_DemoPage__Generated.c **** 
 1159              		.loc 1 357 0
 1160 0008 08BD     		pop	{r3, pc}
 1161              		.cfi_endproc
 1162              	.LFE92:
 1164              		.section	.text.Ft_Esd_DemoPage_ESD_NumericLabel_1_X__Property,"ax",%progbits
 1165              		.align	1
 1166              		.syntax unified
 1167              		.thumb
 1168              		.thumb_func
 1169              		.fpu fpv5-sp-d16
 1171              	Ft_Esd_DemoPage_ESD_NumericLabel_1_X__Property:
 1172              	.LFB91:
 346:FT_Esd_Widgets/Ft_Esd_DemoPage__Generated.c **** 	Ft_Esd_DemoPage *context = (Ft_Esd_DemoPage *)c;
 1173              		.loc 1 346 0
 1174              		.cfi_startproc
 1175              		@ args = 0, pretend = 0, frame = 0
 1176              		@ frame_needed = 0, uses_anonymous_args = 0
 1177              	.LVL106:
 1178 0000 08B5     		push	{r3, lr}
 1179              	.LCFI3:
 1180              		.cfi_def_cfa_offset 8
 1181              		.cfi_offset 3, -8
 1182              		.cfi_offset 14, -4
 1183              	.LVL107:
 349:FT_Esd_Widgets/Ft_Esd_DemoPage__Generated.c **** }
 1184              		.loc 1 349 0
 1185 0002 0C30     		adds	r0, r0, #12
 1186              	.LVL108:
 1187 0004 FFF7FEFF 		bl	Ft_Esd_TouchTag_TouchX
 1188              	.LVL109:
 350:FT_Esd_Widgets/Ft_Esd_DemoPage__Generated.c **** 
 1189              		.loc 1 350 0
 1190 0008 08BD     		pop	{r3, pc}
 1191              		.cfi_endproc
 1192              	.LFE91:
 1194              		.section	.text.Ft_Esd_DemoPage_ESD_Label_Button_Pushed__Signal,"ax",%progbits
 1195              		.align	1
 1196              		.syntax unified
 1197              		.thumb
 1198              		.thumb_func
 1199              		.fpu fpv5-sp-d16
ARM GAS  /var/folders/n8/cvzdcwlj0vl4g_wtyz1ffy300000gn/T//ccjuOOkr.s 			page 27


 1201              	Ft_Esd_DemoPage_ESD_Label_Button_Pushed__Signal:
 1202              	.LFB90:
 339:FT_Esd_Widgets/Ft_Esd_DemoPage__Generated.c **** 	Ft_Esd_DemoPage *context = (Ft_Esd_DemoPage *)c;
 1203              		.loc 1 339 0
 1204              		.cfi_startproc
 1205              		@ args = 0, pretend = 0, frame = 0
 1206              		@ frame_needed = 0, uses_anonymous_args = 0
 1207              	.LVL110:
 1208 0000 08B5     		push	{r3, lr}
 1209              	.LCFI4:
 1210              		.cfi_def_cfa_offset 8
 1211              		.cfi_offset 3, -8
 1212              		.cfi_offset 14, -4
 1213              	.LVL111:
 342:FT_Esd_Widgets/Ft_Esd_DemoPage__Generated.c **** }
 1214              		.loc 1 342 0
 1215 0002 00F52270 		add	r0, r0, #648
 1216              	.LVL112:
 1217 0006 FFF7FEFF 		bl	Ft_Esd_Toggle_Toggle
 1218              	.LVL113:
 343:FT_Esd_Widgets/Ft_Esd_DemoPage__Generated.c **** 
 1219              		.loc 1 343 0
 1220 000a 08BD     		pop	{r3, pc}
 1221              		.cfi_endproc
 1222              	.LFE90:
 1224              		.section	.text.Ft_Esd_DemoPage_ESD_PushButton_Pushed__Signal,"ax",%progbits
 1225              		.align	1
 1226              		.syntax unified
 1227              		.thumb
 1228              		.thumb_func
 1229              		.fpu fpv5-sp-d16
 1231              	Ft_Esd_DemoPage_ESD_PushButton_Pushed__Signal:
 1232              	.LFB85:
 306:FT_Esd_Widgets/Ft_Esd_DemoPage__Generated.c **** 	Ft_Esd_DemoPage *context = (Ft_Esd_DemoPage *)c;
 1233              		.loc 1 306 0
 1234              		.cfi_startproc
 1235              		@ args = 0, pretend = 0, frame = 0
 1236              		@ frame_needed = 0, uses_anonymous_args = 0
 1237              	.LVL114:
 1238 0000 08B5     		push	{r3, lr}
 1239              	.LCFI5:
 1240              		.cfi_def_cfa_offset 8
 1241              		.cfi_offset 3, -8
 1242              		.cfi_offset 14, -4
 1243              	.LVL115:
 309:FT_Esd_Widgets/Ft_Esd_DemoPage__Generated.c **** }
 1244              		.loc 1 309 0
 1245 0002 0430     		adds	r0, r0, #4
 1246              	.LVL116:
 1247 0004 FFF7FEFF 		bl	SwitchBool_Switch
 1248              	.LVL117:
 310:FT_Esd_Widgets/Ft_Esd_DemoPage__Generated.c **** 
 1249              		.loc 1 310 0
 1250 0008 08BD     		pop	{r3, pc}
 1251              		.cfi_endproc
 1252              	.LFE85:
 1254              		.section	.text.Ft_Esd_DemoPage_Ft_Esd_GetMillis__return,"ax",%progbits
ARM GAS  /var/folders/n8/cvzdcwlj0vl4g_wtyz1ffy300000gn/T//ccjuOOkr.s 			page 28


 1255              		.align	1
 1256              		.syntax unified
 1257              		.thumb
 1258              		.thumb_func
 1259              		.fpu fpv5-sp-d16
 1261              	Ft_Esd_DemoPage_Ft_Esd_GetMillis__return:
 1262              	.LFB80:
 270:FT_Esd_Widgets/Ft_Esd_DemoPage__Generated.c **** 	void *parent = context->Parent;
 1263              		.loc 1 270 0
 1264              		.cfi_startproc
 1265              		@ args = 0, pretend = 0, frame = 0
 1266              		@ frame_needed = 0, uses_anonymous_args = 0
 1267              	.LVL118:
 1268 0000 08B5     		push	{r3, lr}
 1269              	.LCFI6:
 1270              		.cfi_def_cfa_offset 8
 1271              		.cfi_offset 3, -8
 1272              		.cfi_offset 14, -4
 1273              	.LVL119:
 272:FT_Esd_Widgets/Ft_Esd_DemoPage__Generated.c **** }
 1274              		.loc 1 272 0
 1275 0002 FFF7FEFF 		bl	Ft_Esd_GetMillis
 1276              	.LVL120:
 273:FT_Esd_Widgets/Ft_Esd_DemoPage__Generated.c **** 
 1277              		.loc 1 273 0
 1278 0006 08BD     		pop	{r3, pc}
 1279              		.cfi_endproc
 1280              	.LFE80:
 1282              		.section	.text.Ft_Esd_DemoPage_ESD_Clock_Ms__Property,"ax",%progbits
 1283              		.align	1
 1284              		.syntax unified
 1285              		.thumb
 1286              		.thumb_func
 1287              		.fpu fpv5-sp-d16
 1289              	Ft_Esd_DemoPage_ESD_Clock_Ms__Property:
 1290              	.LFB84:
 299:FT_Esd_Widgets/Ft_Esd_DemoPage__Generated.c **** 	Ft_Esd_DemoPage *context = (Ft_Esd_DemoPage *)c;
 1291              		.loc 1 299 0
 1292              		.cfi_startproc
 1293              		@ args = 0, pretend = 0, frame = 0
 1294              		@ frame_needed = 0, uses_anonymous_args = 0
 1295              	.LVL121:
 1296 0000 08B5     		push	{r3, lr}
 1297              	.LCFI7:
 1298              		.cfi_def_cfa_offset 8
 1299              		.cfi_offset 3, -8
 1300              		.cfi_offset 14, -4
 1301              	.LVL122:
 302:FT_Esd_Widgets/Ft_Esd_DemoPage__Generated.c **** }
 1302              		.loc 1 302 0
 1303 0002 FFF7FEFF 		bl	Ft_Esd_DemoPage_Ft_Esd_GetMillis__return
 1304              	.LVL123:
 303:FT_Esd_Widgets/Ft_Esd_DemoPage__Generated.c **** 
 1305              		.loc 1 303 0
 1306 0006 08BD     		pop	{r3, pc}
 1307              		.cfi_endproc
 1308              	.LFE84:
ARM GAS  /var/folders/n8/cvzdcwlj0vl4g_wtyz1ffy300000gn/T//ccjuOOkr.s 			page 29


 1310              		.section	.text.Ft_Esd_DemoPage_ESD_Gauge_Val__Property,"ax",%progbits
 1311              		.align	1
 1312              		.syntax unified
 1313              		.thumb
 1314              		.thumb_func
 1315              		.fpu fpv5-sp-d16
 1317              	Ft_Esd_DemoPage_ESD_Gauge_Val__Property:
 1318              	.LFB83:
 292:FT_Esd_Widgets/Ft_Esd_DemoPage__Generated.c **** 	Ft_Esd_DemoPage *context = (Ft_Esd_DemoPage *)c;
 1319              		.loc 1 292 0
 1320              		.cfi_startproc
 1321              		@ args = 0, pretend = 0, frame = 0
 1322              		@ frame_needed = 0, uses_anonymous_args = 0
 1323              	.LVL124:
 1324 0000 08B5     		push	{r3, lr}
 1325              	.LCFI8:
 1326              		.cfi_def_cfa_offset 8
 1327              		.cfi_offset 3, -8
 1328              		.cfi_offset 14, -4
 1329              	.LVL125:
 295:FT_Esd_Widgets/Ft_Esd_DemoPage__Generated.c **** }
 1330              		.loc 1 295 0
 1331 0002 FFF7FEFF 		bl	Ft_Esd_DemoPage_Ft_Esd_GetMillis__return
 1332              	.LVL126:
 296:FT_Esd_Widgets/Ft_Esd_DemoPage__Generated.c **** 
 1333              		.loc 1 296 0
 1334 0006 80B2     		uxth	r0, r0
 1335 0008 08BD     		pop	{r3, pc}
 1336              		.cfi_endproc
 1337              	.LFE83:
 1339              		.section	.text.Ft_Esd_DemoPage_ESD_ProgressBar_Val__Property,"ax",%progbits
 1340              		.align	1
 1341              		.syntax unified
 1342              		.thumb
 1343              		.thumb_func
 1344              		.fpu fpv5-sp-d16
 1346              	Ft_Esd_DemoPage_ESD_ProgressBar_Val__Property:
 1347              	.LFB82:
 283:FT_Esd_Widgets/Ft_Esd_DemoPage__Generated.c **** 	Ft_Esd_DemoPage *context = (Ft_Esd_DemoPage *)c;
 1348              		.loc 1 283 0
 1349              		.cfi_startproc
 1350              		@ args = 0, pretend = 0, frame = 0
 1351              		@ frame_needed = 0, uses_anonymous_args = 0
 1352              	.LVL127:
 1353 0000 08B5     		push	{r3, lr}
 1354              	.LCFI9:
 1355              		.cfi_def_cfa_offset 8
 1356              		.cfi_offset 3, -8
 1357              		.cfi_offset 14, -4
 1358              	.LVL128:
 286:FT_Esd_Widgets/Ft_Esd_DemoPage__Generated.c **** 	ft_uint16_t right = 1000U;
 1359              		.loc 1 286 0
 1360 0002 FFF7FEFF 		bl	Ft_Esd_DemoPage_Ft_Esd_GetMillis__return
 1361              	.LVL129:
 288:FT_Esd_Widgets/Ft_Esd_DemoPage__Generated.c **** }
 1362              		.loc 1 288 0
 1363 0006 054B     		ldr	r3, .L69
ARM GAS  /var/folders/n8/cvzdcwlj0vl4g_wtyz1ffy300000gn/T//ccjuOOkr.s 			page 30


 1364 0008 A3FB0023 		umull	r2, r3, r3, r0
 1365 000c 9B09     		lsrs	r3, r3, #6
 1366 000e 4FF47A72 		mov	r2, #1000
 1367 0012 02FB1300 		mls	r0, r2, r3, r0
 1368              	.LVL130:
 289:FT_Esd_Widgets/Ft_Esd_DemoPage__Generated.c **** 
 1369              		.loc 1 289 0
 1370 0016 80B2     		uxth	r0, r0
 1371 0018 08BD     		pop	{r3, pc}
 1372              	.L70:
 1373 001a 00BF     		.align	2
 1374              	.L69:
 1375 001c D34D6210 		.word	274877907
 1376              		.cfi_endproc
 1377              	.LFE82:
 1379              		.section	.text.Ft_Esd_DemoPage_ESD_PushButton_1__active,"ax",%progbits
 1380              		.align	1
 1381              		.syntax unified
 1382              		.thumb
 1383              		.thumb_func
 1384              		.fpu fpv5-sp-d16
 1386              	Ft_Esd_DemoPage_ESD_PushButton_1__active:
 1387              	.LFB86:
 313:FT_Esd_Widgets/Ft_Esd_DemoPage__Generated.c **** 	void *parent = context->Parent;
 1388              		.loc 1 313 0
 1389              		.cfi_startproc
 1390              		@ args = 0, pretend = 0, frame = 0
 1391              		@ frame_needed = 0, uses_anonymous_args = 0
 1392              	.LVL131:
 1393 0000 08B5     		push	{r3, lr}
 1394              	.LCFI10:
 1395              		.cfi_def_cfa_offset 8
 1396              		.cfi_offset 3, -8
 1397              		.cfi_offset 14, -4
 1398              	.LVL132:
 315:FT_Esd_Widgets/Ft_Esd_DemoPage__Generated.c **** }
 1399              		.loc 1 315 0
 1400 0002 0430     		adds	r0, r0, #4
 1401              	.LVL133:
 1402 0004 FFF7FEFF 		bl	SwitchBool_Value
 1403              	.LVL134:
 316:FT_Esd_Widgets/Ft_Esd_DemoPage__Generated.c **** 
 1404              		.loc 1 316 0
 1405 0008 08BD     		pop	{r3, pc}
 1406              		.cfi_endproc
 1407              	.LFE86:
 1409              		.section	.text.Ft_Esd_DemoPage__Initializer,"ax",%progbits
 1410              		.align	1
 1411              		.global	Ft_Esd_DemoPage__Initializer
 1412              		.syntax unified
 1413              		.thumb
 1414              		.thumb_func
 1415              		.fpu fpv5-sp-d16
 1417              	Ft_Esd_DemoPage__Initializer:
 1418              	.LFB74:
  73:FT_Esd_Widgets/Ft_Esd_DemoPage__Generated.c **** 	context->Parent = 0;
 1419              		.loc 1 73 0
ARM GAS  /var/folders/n8/cvzdcwlj0vl4g_wtyz1ffy300000gn/T//ccjuOOkr.s 			page 31


 1420              		.cfi_startproc
 1421              		@ args = 0, pretend = 0, frame = 0
 1422              		@ frame_needed = 0, uses_anonymous_args = 0
 1423              	.LVL135:
 1424 0000 10B5     		push	{r4, lr}
 1425              	.LCFI11:
 1426              		.cfi_def_cfa_offset 8
 1427              		.cfi_offset 4, -8
 1428              		.cfi_offset 14, -4
 1429 0002 0446     		mov	r4, r0
  74:FT_Esd_Widgets/Ft_Esd_DemoPage__Generated.c **** 	SwitchBool__Initializer(&context->SwitchBool);
 1430              		.loc 1 74 0
 1431 0004 0023     		movs	r3, #0
 1432 0006 40F8043B 		str	r3, [r0], #4
 1433              	.LVL136:
  75:FT_Esd_Widgets/Ft_Esd_DemoPage__Generated.c **** 	context->SwitchBool.Parent = context;
 1434              		.loc 1 75 0
 1435 000a FFF7FEFF 		bl	SwitchBool__Initializer
 1436              	.LVL137:
  76:FT_Esd_Widgets/Ft_Esd_DemoPage__Generated.c **** 	Ft_Esd_TouchTag__Initializer(&context->Touch_Tag);
 1437              		.loc 1 76 0
 1438 000e 6460     		str	r4, [r4, #4]
  77:FT_Esd_Widgets/Ft_Esd_DemoPage__Generated.c **** 	context->Touch_Tag.Parent = context;
 1439              		.loc 1 77 0
 1440 0010 04F10C00 		add	r0, r4, #12
 1441 0014 FFF7FEFF 		bl	Ft_Esd_TouchTag__Initializer
 1442              	.LVL138:
  78:FT_Esd_Widgets/Ft_Esd_DemoPage__Generated.c **** 	Ft_Esd_ProgressBar__Initializer(&context->ESD_ProgressBar);
 1443              		.loc 1 78 0
 1444 0018 E460     		str	r4, [r4, #12]
  79:FT_Esd_Widgets/Ft_Esd_DemoPage__Generated.c **** 	context->ESD_ProgressBar.Parent = context;
 1445              		.loc 1 79 0
 1446 001a 04F12400 		add	r0, r4, #36
 1447 001e FFF7FEFF 		bl	Ft_Esd_ProgressBar__Initializer
 1448              	.LVL139:
  80:FT_Esd_Widgets/Ft_Esd_DemoPage__Generated.c **** 	context->ESD_ProgressBar.X = Ft_Esd_DemoPage_ESD_ProgressBar_X__Property;
 1449              		.loc 1 80 0
 1450 0022 6462     		str	r4, [r4, #36]
  81:FT_Esd_Widgets/Ft_Esd_DemoPage__Generated.c **** 	context->ESD_ProgressBar.Y = Ft_Esd_DemoPage_ESD_ProgressBar_Y__Property;
 1451              		.loc 1 81 0
 1452 0024 844B     		ldr	r3, .L75
 1453 0026 E362     		str	r3, [r4, #44]
  82:FT_Esd_Widgets/Ft_Esd_DemoPage__Generated.c **** 	context->ESD_ProgressBar.Height = Ft_Esd_DemoPage_ESD_ProgressBar_Height__Property;
 1454              		.loc 1 82 0
 1455 0028 844B     		ldr	r3, .L75+4
 1456 002a 2363     		str	r3, [r4, #48]
  83:FT_Esd_Widgets/Ft_Esd_DemoPage__Generated.c **** 	context->ESD_ProgressBar.Val = Ft_Esd_DemoPage_ESD_ProgressBar_Val__Property;
 1457              		.loc 1 83 0
 1458 002c 844B     		ldr	r3, .L75+8
 1459 002e A363     		str	r3, [r4, #56]
  84:FT_Esd_Widgets/Ft_Esd_DemoPage__Generated.c **** 	context->ESD_ProgressBar.Range = Ft_Esd_DemoPage_ESD_ProgressBar_Range__Property;
 1460              		.loc 1 84 0
 1461 0030 844B     		ldr	r3, .L75+12
 1462 0032 E363     		str	r3, [r4, #60]
  85:FT_Esd_Widgets/Ft_Esd_DemoPage__Generated.c **** 	Ft_Esd_Gauge__Initializer(&context->ESD_Gauge);
 1463              		.loc 1 85 0
 1464 0034 844B     		ldr	r3, .L75+16
ARM GAS  /var/folders/n8/cvzdcwlj0vl4g_wtyz1ffy300000gn/T//ccjuOOkr.s 			page 32


 1465 0036 2364     		str	r3, [r4, #64]
  86:FT_Esd_Widgets/Ft_Esd_DemoPage__Generated.c **** 	context->ESD_Gauge.Parent = context;
 1466              		.loc 1 86 0
 1467 0038 04F14400 		add	r0, r4, #68
 1468 003c FFF7FEFF 		bl	Ft_Esd_Gauge__Initializer
 1469              	.LVL140:
  87:FT_Esd_Widgets/Ft_Esd_DemoPage__Generated.c **** 	context->ESD_Gauge.X = Ft_Esd_DemoPage_ESD_Gauge_X__Property;
 1470              		.loc 1 87 0
 1471 0040 6464     		str	r4, [r4, #68]
  88:FT_Esd_Widgets/Ft_Esd_DemoPage__Generated.c **** 	context->ESD_Gauge.Y = Ft_Esd_DemoPage_ESD_Gauge_Y__Property;
 1472              		.loc 1 88 0
 1473 0042 824B     		ldr	r3, .L75+20
 1474 0044 E364     		str	r3, [r4, #76]
  89:FT_Esd_Widgets/Ft_Esd_DemoPage__Generated.c **** 	context->ESD_Gauge.Val = Ft_Esd_DemoPage_ESD_Gauge_Val__Property;
 1475              		.loc 1 89 0
 1476 0046 824B     		ldr	r3, .L75+24
 1477 0048 2365     		str	r3, [r4, #80]
  90:FT_Esd_Widgets/Ft_Esd_DemoPage__Generated.c **** 	Ft_Esd_Clock__Initializer(&context->ESD_Clock);
 1478              		.loc 1 90 0
 1479 004a 824B     		ldr	r3, .L75+28
 1480 004c 6367     		str	r3, [r4, #116]
  91:FT_Esd_Widgets/Ft_Esd_DemoPage__Generated.c **** 	context->ESD_Clock.Parent = context;
 1481              		.loc 1 91 0
 1482 004e 04F18400 		add	r0, r4, #132
 1483 0052 FFF7FEFF 		bl	Ft_Esd_Clock__Initializer
 1484              	.LVL141:
  92:FT_Esd_Widgets/Ft_Esd_DemoPage__Generated.c **** 	context->ESD_Clock.X = Ft_Esd_DemoPage_ESD_Clock_X__Property;
 1485              		.loc 1 92 0
 1486 0056 C4F88440 		str	r4, [r4, #132]
  93:FT_Esd_Widgets/Ft_Esd_DemoPage__Generated.c **** 	context->ESD_Clock.Y = Ft_Esd_DemoPage_ESD_Clock_Y__Property;
 1487              		.loc 1 93 0
 1488 005a 7F4B     		ldr	r3, .L75+32
 1489 005c C4F88C30 		str	r3, [r4, #140]
  94:FT_Esd_Widgets/Ft_Esd_DemoPage__Generated.c **** 	context->ESD_Clock.Ms = Ft_Esd_DemoPage_ESD_Clock_Ms__Property;
 1490              		.loc 1 94 0
 1491 0060 7E4B     		ldr	r3, .L75+36
 1492 0062 C4F89030 		str	r3, [r4, #144]
  95:FT_Esd_Widgets/Ft_Esd_DemoPage__Generated.c **** 	context->ESD_Clock.Interactive = Ft_Esd_DemoPage_ESD_Clock_Interactive__Property;
 1493              		.loc 1 95 0
 1494 0066 7E4B     		ldr	r3, .L75+40
 1495 0068 C4F8C030 		str	r3, [r4, #192]
  96:FT_Esd_Widgets/Ft_Esd_DemoPage__Generated.c **** 	Ft_Esd_PushButton__Initializer(&context->ESD_PushButton);
 1496              		.loc 1 96 0
 1497 006c 7D4B     		ldr	r3, .L75+44
 1498 006e C4F8DC30 		str	r3, [r4, #220]
  97:FT_Esd_Widgets/Ft_Esd_DemoPage__Generated.c **** 	context->ESD_PushButton.Parent = context;
 1499              		.loc 1 97 0
 1500 0072 04F1E000 		add	r0, r4, #224
 1501 0076 FFF7FEFF 		bl	Ft_Esd_PushButton__Initializer
 1502              	.LVL142:
  98:FT_Esd_Widgets/Ft_Esd_DemoPage__Generated.c **** 	context->ESD_PushButton.X = Ft_Esd_DemoPage_ESD_PushButton_X__Property;
 1503              		.loc 1 98 0
 1504 007a C4F8E040 		str	r4, [r4, #224]
  99:FT_Esd_Widgets/Ft_Esd_DemoPage__Generated.c **** 	context->ESD_PushButton.Y = Ft_Esd_DemoPage_ESD_PushButton_Y__Property;
 1505              		.loc 1 99 0
 1506 007e 7A4B     		ldr	r3, .L75+48
 1507 0080 C4F8E830 		str	r3, [r4, #232]
ARM GAS  /var/folders/n8/cvzdcwlj0vl4g_wtyz1ffy300000gn/T//ccjuOOkr.s 			page 33


 100:FT_Esd_Widgets/Ft_Esd_DemoPage__Generated.c **** 	context->ESD_PushButton.Pushed = Ft_Esd_DemoPage_ESD_PushButton_Pushed__Signal;
 1508              		.loc 1 100 0
 1509 0084 794B     		ldr	r3, .L75+52
 1510 0086 C4F8EC30 		str	r3, [r4, #236]
 101:FT_Esd_Widgets/Ft_Esd_DemoPage__Generated.c **** 	Ft_Esd_Rectangle__Initializer(&context->ESD_Rectangle);
 1511              		.loc 1 101 0
 1512 008a 794B     		ldr	r3, .L75+56
 1513 008c C4F82431 		str	r3, [r4, #292]
 102:FT_Esd_Widgets/Ft_Esd_DemoPage__Generated.c **** 	context->ESD_Rectangle.Parent = context;
 1514              		.loc 1 102 0
 1515 0090 04F59470 		add	r0, r4, #296
 1516 0094 FFF7FEFF 		bl	Ft_Esd_Rectangle__Initializer
 1517              	.LVL143:
 103:FT_Esd_Widgets/Ft_Esd_DemoPage__Generated.c **** 	context->ESD_Rectangle.X = Ft_Esd_DemoPage_ESD_Rectangle_X__Property;
 1518              		.loc 1 103 0
 1519 0098 C4F82841 		str	r4, [r4, #296]
 104:FT_Esd_Widgets/Ft_Esd_DemoPage__Generated.c **** 	context->ESD_Rectangle.Y = Ft_Esd_DemoPage_ESD_Rectangle_Y__Property;
 1520              		.loc 1 104 0
 1521 009c 754B     		ldr	r3, .L75+60
 1522 009e C4F82C31 		str	r3, [r4, #300]
 105:FT_Esd_Widgets/Ft_Esd_DemoPage__Generated.c **** 	Ft_Esd_PushButton__Initializer(&context->ESD_PushButton_1);
 1523              		.loc 1 105 0
 1524 00a2 754B     		ldr	r3, .L75+64
 1525 00a4 C4F83031 		str	r3, [r4, #304]
 106:FT_Esd_Widgets/Ft_Esd_DemoPage__Generated.c **** 	context->ESD_PushButton_1.Parent = context;
 1526              		.loc 1 106 0
 1527 00a8 04F5A270 		add	r0, r4, #324
 1528 00ac FFF7FEFF 		bl	Ft_Esd_PushButton__Initializer
 1529              	.LVL144:
 107:FT_Esd_Widgets/Ft_Esd_DemoPage__Generated.c **** 	context->ESD_PushButton_1.X = Ft_Esd_DemoPage_ESD_PushButton_1_X__Property;
 1530              		.loc 1 107 0
 1531 00b0 C4F84441 		str	r4, [r4, #324]
 108:FT_Esd_Widgets/Ft_Esd_DemoPage__Generated.c **** 	context->ESD_PushButton_1.Y = Ft_Esd_DemoPage_ESD_PushButton_1_Y__Property;
 1532              		.loc 1 108 0
 1533 00b4 714B     		ldr	r3, .L75+68
 1534 00b6 C4F84C31 		str	r3, [r4, #332]
 109:FT_Esd_Widgets/Ft_Esd_DemoPage__Generated.c **** 	context->ESD_PushButton_1.Primary = Ft_Esd_DemoPage_ESD_PushButton_1_Primary__Property;
 1535              		.loc 1 109 0
 1536 00ba 714B     		ldr	r3, .L75+72
 1537 00bc C4F85031 		str	r3, [r4, #336]
 110:FT_Esd_Widgets/Ft_Esd_DemoPage__Generated.c **** 	Ft_Esd_Toggle__Initializer(&context->ESD_Toggle);
 1538              		.loc 1 110 0
 1539 00c0 704B     		ldr	r3, .L75+76
 1540 00c2 C4F86831 		str	r3, [r4, #360]
 111:FT_Esd_Widgets/Ft_Esd_DemoPage__Generated.c **** 	context->ESD_Toggle.Parent = context;
 1541              		.loc 1 111 0
 1542 00c6 04F5C670 		add	r0, r4, #396
 1543 00ca FFF7FEFF 		bl	Ft_Esd_Toggle__Initializer
 1544              	.LVL145:
 112:FT_Esd_Widgets/Ft_Esd_DemoPage__Generated.c **** 	context->ESD_Toggle.X = Ft_Esd_DemoPage_ESD_Toggle_X__Property;
 1545              		.loc 1 112 0
 1546 00ce C4F88C41 		str	r4, [r4, #396]
 113:FT_Esd_Widgets/Ft_Esd_DemoPage__Generated.c **** 	context->ESD_Toggle.Y = Ft_Esd_DemoPage_ESD_Toggle_Y__Property;
 1547              		.loc 1 113 0
 1548 00d2 6D4B     		ldr	r3, .L75+80
 1549 00d4 C4F89431 		str	r3, [r4, #404]
 114:FT_Esd_Widgets/Ft_Esd_DemoPage__Generated.c **** 	context->ESD_Toggle.Width = Ft_Esd_DemoPage_ESD_Toggle_Width__Property;
ARM GAS  /var/folders/n8/cvzdcwlj0vl4g_wtyz1ffy300000gn/T//ccjuOOkr.s 			page 34


 1550              		.loc 1 114 0
 1551 00d8 6C4B     		ldr	r3, .L75+84
 1552 00da C4F89831 		str	r3, [r4, #408]
 115:FT_Esd_Widgets/Ft_Esd_DemoPage__Generated.c **** 	Ft_Esd_PushButton__Initializer(&context->ESD_PushButton_2);
 1553              		.loc 1 115 0
 1554 00de 6C4B     		ldr	r3, .L75+88
 1555 00e0 C4F89C31 		str	r3, [r4, #412]
 116:FT_Esd_Widgets/Ft_Esd_DemoPage__Generated.c **** 	context->ESD_PushButton_2.Parent = context;
 1556              		.loc 1 116 0
 1557 00e4 04F5E870 		add	r0, r4, #464
 1558 00e8 FFF7FEFF 		bl	Ft_Esd_PushButton__Initializer
 1559              	.LVL146:
 117:FT_Esd_Widgets/Ft_Esd_DemoPage__Generated.c **** 	context->ESD_PushButton_2.X = Ft_Esd_DemoPage_ESD_PushButton_2_X__Property;
 1560              		.loc 1 117 0
 1561 00ec C4F8D041 		str	r4, [r4, #464]
 118:FT_Esd_Widgets/Ft_Esd_DemoPage__Generated.c **** 	context->ESD_PushButton_2.Y = Ft_Esd_DemoPage_ESD_PushButton_2_Y__Property;
 1562              		.loc 1 118 0
 1563 00f0 684B     		ldr	r3, .L75+92
 1564 00f2 C4F8D831 		str	r3, [r4, #472]
 119:FT_Esd_Widgets/Ft_Esd_DemoPage__Generated.c **** 	context->ESD_PushButton_2.Primary = Ft_Esd_DemoPage_ESD_PushButton_2_Primary__Property;
 1565              		.loc 1 119 0
 1566 00f6 684B     		ldr	r3, .L75+96
 1567 00f8 C4F8DC31 		str	r3, [r4, #476]
 120:FT_Esd_Widgets/Ft_Esd_DemoPage__Generated.c **** 	Ft_Esd_Label__Initializer(&context->ESD_Label);
 1568              		.loc 1 120 0
 1569 00fc 674B     		ldr	r3, .L75+100
 1570 00fe C4F8F431 		str	r3, [r4, #500]
 121:FT_Esd_Widgets/Ft_Esd_DemoPage__Generated.c **** 	context->ESD_Label.Parent = context;
 1571              		.loc 1 121 0
 1572 0102 04F50670 		add	r0, r4, #536
 1573 0106 FFF7FEFF 		bl	Ft_Esd_Label__Initializer
 1574              	.LVL147:
 122:FT_Esd_Widgets/Ft_Esd_DemoPage__Generated.c **** 	context->ESD_Label.X = Ft_Esd_DemoPage_ESD_Label_X__Property;
 1575              		.loc 1 122 0
 1576 010a C4F81842 		str	r4, [r4, #536]
 123:FT_Esd_Widgets/Ft_Esd_DemoPage__Generated.c **** 	context->ESD_Label.Y = Ft_Esd_DemoPage_ESD_Label_Y__Property;
 1577              		.loc 1 123 0
 1578 010e 644B     		ldr	r3, .L75+104
 1579 0110 C4F82832 		str	r3, [r4, #552]
 124:FT_Esd_Widgets/Ft_Esd_DemoPage__Generated.c **** 	Ft_Esd_PushButton__Initializer(&context->ESD_PushButton_3);
 1580              		.loc 1 124 0
 1581 0114 634B     		ldr	r3, .L75+108
 1582 0116 C4F82C32 		str	r3, [r4, #556]
 125:FT_Esd_Widgets/Ft_Esd_DemoPage__Generated.c **** 	context->ESD_PushButton_3.Parent = context;
 1583              		.loc 1 125 0
 1584 011a 04F51070 		add	r0, r4, #576
 1585 011e FFF7FEFF 		bl	Ft_Esd_PushButton__Initializer
 1586              	.LVL148:
 126:FT_Esd_Widgets/Ft_Esd_DemoPage__Generated.c **** 	context->ESD_PushButton_3.X = Ft_Esd_DemoPage_ESD_PushButton_3_X__Property;
 1587              		.loc 1 126 0
 1588 0122 C4F84042 		str	r4, [r4, #576]
 127:FT_Esd_Widgets/Ft_Esd_DemoPage__Generated.c **** 	context->ESD_PushButton_3.Y = Ft_Esd_DemoPage_ESD_PushButton_3_Y__Property;
 1589              		.loc 1 127 0
 1590 0126 604B     		ldr	r3, .L75+112
 1591 0128 C4F84832 		str	r3, [r4, #584]
 128:FT_Esd_Widgets/Ft_Esd_DemoPage__Generated.c **** 	context->ESD_PushButton_3.Primary = Ft_Esd_DemoPage_ESD_PushButton_3_Primary__Property;
 1592              		.loc 1 128 0
ARM GAS  /var/folders/n8/cvzdcwlj0vl4g_wtyz1ffy300000gn/T//ccjuOOkr.s 			page 35


 1593 012c 5F4B     		ldr	r3, .L75+116
 1594 012e C4F84C32 		str	r3, [r4, #588]
 129:FT_Esd_Widgets/Ft_Esd_DemoPage__Generated.c **** 	Ft_Esd_Toggle__Initializer(&context->ESD_Toggle_1);
 1595              		.loc 1 129 0
 1596 0132 5F4B     		ldr	r3, .L75+120
 1597 0134 C4F86432 		str	r3, [r4, #612]
 130:FT_Esd_Widgets/Ft_Esd_DemoPage__Generated.c **** 	context->ESD_Toggle_1.Parent = context;
 1598              		.loc 1 130 0
 1599 0138 04F52270 		add	r0, r4, #648
 1600 013c FFF7FEFF 		bl	Ft_Esd_Toggle__Initializer
 1601              	.LVL149:
 131:FT_Esd_Widgets/Ft_Esd_DemoPage__Generated.c **** 	context->ESD_Toggle_1.X = Ft_Esd_DemoPage_ESD_Toggle_1_X__Property;
 1602              		.loc 1 131 0
 1603 0140 C4F88842 		str	r4, [r4, #648]
 132:FT_Esd_Widgets/Ft_Esd_DemoPage__Generated.c **** 	context->ESD_Toggle_1.Y = Ft_Esd_DemoPage_ESD_Toggle_1_Y__Property;
 1604              		.loc 1 132 0
 1605 0144 5B4B     		ldr	r3, .L75+124
 1606 0146 C4F89032 		str	r3, [r4, #656]
 133:FT_Esd_Widgets/Ft_Esd_DemoPage__Generated.c **** 	context->ESD_Toggle_1.Width = Ft_Esd_DemoPage_ESD_Toggle_1_Width__Property;
 1607              		.loc 1 133 0
 1608 014a 5B4B     		ldr	r3, .L75+128
 1609 014c C4F89432 		str	r3, [r4, #660]
 134:FT_Esd_Widgets/Ft_Esd_DemoPage__Generated.c **** 	context->ESD_Toggle_1.Height = Ft_Esd_DemoPage_ESD_Toggle_1_Height__Property;
 1610              		.loc 1 134 0
 1611 0150 5A4B     		ldr	r3, .L75+132
 1612 0152 C4F89832 		str	r3, [r4, #664]
 135:FT_Esd_Widgets/Ft_Esd_DemoPage__Generated.c **** 	context->ESD_Toggle_1.Font = Ft_Esd_DemoPage_ESD_Toggle_1_Font__Property;
 1613              		.loc 1 135 0
 1614 0156 5A4B     		ldr	r3, .L75+136
 1615 0158 C4F89C32 		str	r3, [r4, #668]
 136:FT_Esd_Widgets/Ft_Esd_DemoPage__Generated.c **** 	Ft_Esd_SpinBox__Initializer(&context->ESD_SpinBox);
 1616              		.loc 1 136 0
 1617 015c 594B     		ldr	r3, .L75+140
 1618 015e C4F8A032 		str	r3, [r4, #672]
 137:FT_Esd_Widgets/Ft_Esd_DemoPage__Generated.c **** 	context->ESD_SpinBox.Parent = context;
 1619              		.loc 1 137 0
 1620 0162 04F53370 		add	r0, r4, #716
 1621 0166 FFF7FEFF 		bl	Ft_Esd_SpinBox__Initializer
 1622              	.LVL150:
 138:FT_Esd_Widgets/Ft_Esd_DemoPage__Generated.c **** 	context->ESD_SpinBox.X = Ft_Esd_DemoPage_ESD_SpinBox_X__Property;
 1623              		.loc 1 138 0
 1624 016a C4F8CC42 		str	r4, [r4, #716]
 139:FT_Esd_Widgets/Ft_Esd_DemoPage__Generated.c **** 	context->ESD_SpinBox.Y = Ft_Esd_DemoPage_ESD_SpinBox_Y__Property;
 1625              		.loc 1 139 0
 1626 016e 564B     		ldr	r3, .L75+144
 1627 0170 C4F8EC32 		str	r3, [r4, #748]
 140:FT_Esd_Widgets/Ft_Esd_DemoPage__Generated.c **** 	context->ESD_SpinBox.Height = Ft_Esd_DemoPage_ESD_SpinBox_Height__Property;
 1628              		.loc 1 140 0
 1629 0174 554B     		ldr	r3, .L75+148
 1630 0176 C4F8F032 		str	r3, [r4, #752]
 141:FT_Esd_Widgets/Ft_Esd_DemoPage__Generated.c **** 	context->ESD_SpinBox.SideButtons = 1;
 1631              		.loc 1 141 0
 1632 017a 554B     		ldr	r3, .L75+152
 1633 017c C4F8F832 		str	r3, [r4, #760]
 142:FT_Esd_Widgets/Ft_Esd_DemoPage__Generated.c **** 	context->ESD_SpinBox.Changed = Ft_Esd_DemoPage_ESD_SpinBox_Changed__Writer;
 1634              		.loc 1 142 0
 1635 0180 0123     		movs	r3, #1
ARM GAS  /var/folders/n8/cvzdcwlj0vl4g_wtyz1ffy300000gn/T//ccjuOOkr.s 			page 36


 1636 0182 84F85833 		strb	r3, [r4, #856]
 143:FT_Esd_Widgets/Ft_Esd_DemoPage__Generated.c **** 	Ft_Esd_NumericLabel__Initializer(&context->ESD_NumericLabel);
 1637              		.loc 1 143 0
 1638 0186 534B     		ldr	r3, .L75+156
 1639 0188 C4F80833 		str	r3, [r4, #776]
 144:FT_Esd_Widgets/Ft_Esd_DemoPage__Generated.c **** 	context->ESD_NumericLabel.Parent = context;
 1640              		.loc 1 144 0
 1641 018c 04F57B70 		add	r0, r4, #1004
 1642 0190 FFF7FEFF 		bl	Ft_Esd_NumericLabel__Initializer
 1643              	.LVL151:
 145:FT_Esd_Widgets/Ft_Esd_DemoPage__Generated.c **** 	context->ESD_NumericLabel.X = Ft_Esd_DemoPage_ESD_NumericLabel_X__Property;
 1644              		.loc 1 145 0
 1645 0194 C4F8EC43 		str	r4, [r4, #1004]
 146:FT_Esd_Widgets/Ft_Esd_DemoPage__Generated.c **** 	context->ESD_NumericLabel.Y = Ft_Esd_DemoPage_ESD_NumericLabel_Y__Property;
 1646              		.loc 1 146 0
 1647 0198 4F4B     		ldr	r3, .L75+160
 1648 019a C4F8F433 		str	r3, [r4, #1012]
 147:FT_Esd_Widgets/Ft_Esd_DemoPage__Generated.c **** 	context->ESD_NumericLabel.Value = Ft_Esd_DemoPage_ESD_NumericLabel_Value__Property;
 1649              		.loc 1 147 0
 1650 019e 4F4B     		ldr	r3, .L75+164
 1651 01a0 C4F8F833 		str	r3, [r4, #1016]
 148:FT_Esd_Widgets/Ft_Esd_DemoPage__Generated.c **** 	Ft_Esd_LabelButton__Initializer(&context->ESD_Label_Button);
 1652              		.loc 1 148 0
 1653 01a4 4E4B     		ldr	r3, .L75+168
 1654 01a6 C4F80834 		str	r3, [r4, #1032]
 149:FT_Esd_Widgets/Ft_Esd_DemoPage__Generated.c **** 	context->ESD_Label_Button.Parent = context;
 1655              		.loc 1 149 0
 1656 01aa 04F20C40 		addw	r0, r4, #1036
 1657 01ae FFF7FEFF 		bl	Ft_Esd_LabelButton__Initializer
 1658              	.LVL152:
 150:FT_Esd_Widgets/Ft_Esd_DemoPage__Generated.c **** 	context->ESD_Label_Button.X = Ft_Esd_DemoPage_ESD_Label_Button_X__Property;
 1659              		.loc 1 150 0
 1660 01b2 C4F80C44 		str	r4, [r4, #1036]
 151:FT_Esd_Widgets/Ft_Esd_DemoPage__Generated.c **** 	context->ESD_Label_Button.Y = Ft_Esd_DemoPage_ESD_Label_Button_Y__Property;
 1661              		.loc 1 151 0
 1662 01b6 4B4B     		ldr	r3, .L75+172
 1663 01b8 C4F83034 		str	r3, [r4, #1072]
 152:FT_Esd_Widgets/Ft_Esd_DemoPage__Generated.c **** 	context->ESD_Label_Button.Pushed = Ft_Esd_DemoPage_ESD_Label_Button_Pushed__Signal;
 1664              		.loc 1 152 0
 1665 01bc 4A4B     		ldr	r3, .L75+176
 1666 01be C4F83434 		str	r3, [r4, #1076]
 153:FT_Esd_Widgets/Ft_Esd_DemoPage__Generated.c **** 	Ft_Esd_NumericLabel__Initializer(&context->ESD_NumericLabel_1);
 1667              		.loc 1 153 0
 1668 01c2 4A4B     		ldr	r3, .L75+180
 1669 01c4 C4F82834 		str	r3, [r4, #1064]
 154:FT_Esd_Widgets/Ft_Esd_DemoPage__Generated.c **** 	context->ESD_NumericLabel_1.Parent = context;
 1670              		.loc 1 154 0
 1671 01c8 04F24C40 		addw	r0, r4, #1100
 1672 01cc FFF7FEFF 		bl	Ft_Esd_NumericLabel__Initializer
 1673              	.LVL153:
 155:FT_Esd_Widgets/Ft_Esd_DemoPage__Generated.c **** 	context->ESD_NumericLabel_1.X = Ft_Esd_DemoPage_ESD_NumericLabel_1_X__Property;
 1674              		.loc 1 155 0
 1675 01d0 C4F84C44 		str	r4, [r4, #1100]
 156:FT_Esd_Widgets/Ft_Esd_DemoPage__Generated.c **** 	context->ESD_NumericLabel_1.Value = Ft_Esd_DemoPage_ESD_NumericLabel_1_Value__Property;
 1676              		.loc 1 156 0
 1677 01d4 464B     		ldr	r3, .L75+184
 1678 01d6 C4F85434 		str	r3, [r4, #1108]
ARM GAS  /var/folders/n8/cvzdcwlj0vl4g_wtyz1ffy300000gn/T//ccjuOOkr.s 			page 37


 157:FT_Esd_Widgets/Ft_Esd_DemoPage__Generated.c **** 	Ft_Esd_SpinBox__Initializer(&context->ESD_SpinBox_1);
 1679              		.loc 1 157 0
 1680 01da 464B     		ldr	r3, .L75+188
 1681 01dc C4F86834 		str	r3, [r4, #1128]
 158:FT_Esd_Widgets/Ft_Esd_DemoPage__Generated.c **** 	context->ESD_SpinBox_1.Parent = context;
 1682              		.loc 1 158 0
 1683 01e0 04F26C40 		addw	r0, r4, #1132
 1684 01e4 FFF7FEFF 		bl	Ft_Esd_SpinBox__Initializer
 1685              	.LVL154:
 159:FT_Esd_Widgets/Ft_Esd_DemoPage__Generated.c **** 	context->ESD_SpinBox_1.X = Ft_Esd_DemoPage_ESD_SpinBox_1_X__Property;
 1686              		.loc 1 159 0
 1687 01e8 C4F86C44 		str	r4, [r4, #1132]
 160:FT_Esd_Widgets/Ft_Esd_DemoPage__Generated.c **** 	context->ESD_SpinBox_1.Y = Ft_Esd_DemoPage_ESD_SpinBox_1_Y__Property;
 1688              		.loc 1 160 0
 1689 01ec 424B     		ldr	r3, .L75+192
 1690 01ee C4F88C34 		str	r3, [r4, #1164]
 161:FT_Esd_Widgets/Ft_Esd_DemoPage__Generated.c **** 	context->ESD_SpinBox_1.Step = Ft_Esd_DemoPage_ESD_SpinBox_1_Step__Property;
 1691              		.loc 1 161 0
 1692 01f2 424B     		ldr	r3, .L75+196
 1693 01f4 C4F89034 		str	r3, [r4, #1168]
 162:FT_Esd_Widgets/Ft_Esd_DemoPage__Generated.c **** 	context->ESD_SpinBox_1.Changed = Ft_Esd_DemoPage_ESD_SpinBox_1_Changed__Writer;
 1694              		.loc 1 162 0
 1695 01f8 414B     		ldr	r3, .L75+200
 1696 01fa C4F89C34 		str	r3, [r4, #1180]
 163:FT_Esd_Widgets/Ft_Esd_DemoPage__Generated.c **** 	Ft_Esd_NumericLabel__Initializer(&context->ESD_NumericLabel_2);
 1697              		.loc 1 163 0
 1698 01fe 414B     		ldr	r3, .L75+204
 1699 0200 C4F8A834 		str	r3, [r4, #1192]
 164:FT_Esd_Widgets/Ft_Esd_DemoPage__Generated.c **** 	context->ESD_NumericLabel_2.Parent = context;
 1700              		.loc 1 164 0
 1701 0204 04F28C50 		addw	r0, r4, #1420
 1702 0208 FFF7FEFF 		bl	Ft_Esd_NumericLabel__Initializer
 1703              	.LVL155:
 165:FT_Esd_Widgets/Ft_Esd_DemoPage__Generated.c **** 	context->ESD_NumericLabel_2.Y = Ft_Esd_DemoPage_ESD_NumericLabel_2_Y__Property;
 1704              		.loc 1 165 0
 1705 020c C4F88C45 		str	r4, [r4, #1420]
 166:FT_Esd_Widgets/Ft_Esd_DemoPage__Generated.c **** 	context->ESD_NumericLabel_2.Value = Ft_Esd_DemoPage_ESD_NumericLabel_2_Value__Property;
 1706              		.loc 1 166 0
 1707 0210 3D4B     		ldr	r3, .L75+208
 1708 0212 C4F89835 		str	r3, [r4, #1432]
 167:FT_Esd_Widgets/Ft_Esd_DemoPage__Generated.c **** 	Ft_Esd_SpinBox__Initializer(&context->ESD_SpinBox_2);
 1709              		.loc 1 167 0
 1710 0216 3D4B     		ldr	r3, .L75+212
 1711 0218 C4F8A835 		str	r3, [r4, #1448]
 168:FT_Esd_Widgets/Ft_Esd_DemoPage__Generated.c **** 	context->ESD_SpinBox_2.Parent = context;
 1712              		.loc 1 168 0
 1713 021c 04F2AC50 		addw	r0, r4, #1452
 1714 0220 FFF7FEFF 		bl	Ft_Esd_SpinBox__Initializer
 1715              	.LVL156:
 169:FT_Esd_Widgets/Ft_Esd_DemoPage__Generated.c **** 	context->ESD_SpinBox_2.X = Ft_Esd_DemoPage_ESD_SpinBox_2_X__Property;
 1716              		.loc 1 169 0
 1717 0224 C4F8AC45 		str	r4, [r4, #1452]
 170:FT_Esd_Widgets/Ft_Esd_DemoPage__Generated.c **** 	context->ESD_SpinBox_2.Y = Ft_Esd_DemoPage_ESD_SpinBox_2_Y__Property;
 1718              		.loc 1 170 0
 1719 0228 394B     		ldr	r3, .L75+216
 1720 022a C4F8CC35 		str	r3, [r4, #1484]
 171:FT_Esd_Widgets/Ft_Esd_DemoPage__Generated.c **** }
ARM GAS  /var/folders/n8/cvzdcwlj0vl4g_wtyz1ffy300000gn/T//ccjuOOkr.s 			page 38


 1721              		.loc 1 171 0
 1722 022e 394B     		ldr	r3, .L75+220
 1723 0230 C4F8D035 		str	r3, [r4, #1488]
 172:FT_Esd_Widgets/Ft_Esd_DemoPage__Generated.c **** 
 1724              		.loc 1 172 0
 1725 0234 10BD     		pop	{r4, pc}
 1726              	.LVL157:
 1727              	.L76:
 1728 0236 00BF     		.align	2
 1729              	.L75:
 1730 0238 00000000 		.word	Ft_Esd_DemoPage_ESD_ProgressBar_X__Property
 1731 023c 00000000 		.word	Ft_Esd_DemoPage_ESD_ProgressBar_Y__Property
 1732 0240 00000000 		.word	Ft_Esd_DemoPage_ESD_ProgressBar_Height__Property
 1733 0244 00000000 		.word	Ft_Esd_DemoPage_ESD_ProgressBar_Val__Property
 1734 0248 00000000 		.word	Ft_Esd_DemoPage_ESD_ProgressBar_Range__Property
 1735 024c 00000000 		.word	Ft_Esd_DemoPage_ESD_Gauge_X__Property
 1736 0250 00000000 		.word	Ft_Esd_DemoPage_ESD_Gauge_Y__Property
 1737 0254 00000000 		.word	Ft_Esd_DemoPage_ESD_Gauge_Val__Property
 1738 0258 00000000 		.word	Ft_Esd_DemoPage_ESD_Clock_X__Property
 1739 025c 00000000 		.word	Ft_Esd_DemoPage_ESD_Clock_Y__Property
 1740 0260 00000000 		.word	Ft_Esd_DemoPage_ESD_Clock_Ms__Property
 1741 0264 00000000 		.word	Ft_Esd_DemoPage_ESD_Clock_Interactive__Property
 1742 0268 00000000 		.word	Ft_Esd_DemoPage_ESD_PushButton_X__Property
 1743 026c 00000000 		.word	Ft_Esd_DemoPage_ESD_PushButton_Y__Property
 1744 0270 00000000 		.word	Ft_Esd_DemoPage_ESD_PushButton_Pushed__Signal
 1745 0274 00000000 		.word	Ft_Esd_DemoPage_ESD_Rectangle_X__Property
 1746 0278 00000000 		.word	Ft_Esd_DemoPage_ESD_Rectangle_Y__Property
 1747 027c 00000000 		.word	Ft_Esd_DemoPage_ESD_PushButton_1_X__Property
 1748 0280 00000000 		.word	Ft_Esd_DemoPage_ESD_PushButton_1_Y__Property
 1749 0284 00000000 		.word	Ft_Esd_DemoPage_ESD_PushButton_1_Primary__Property
 1750 0288 00000000 		.word	Ft_Esd_DemoPage_ESD_Toggle_X__Property
 1751 028c 00000000 		.word	Ft_Esd_DemoPage_ESD_Toggle_Y__Property
 1752 0290 00000000 		.word	Ft_Esd_DemoPage_ESD_Toggle_Width__Property
 1753 0294 00000000 		.word	Ft_Esd_DemoPage_ESD_PushButton_2_X__Property
 1754 0298 00000000 		.word	Ft_Esd_DemoPage_ESD_PushButton_2_Y__Property
 1755 029c 00000000 		.word	Ft_Esd_DemoPage_ESD_PushButton_2_Primary__Property
 1756 02a0 00000000 		.word	Ft_Esd_DemoPage_ESD_Label_X__Property
 1757 02a4 00000000 		.word	Ft_Esd_DemoPage_ESD_Label_Y__Property
 1758 02a8 00000000 		.word	Ft_Esd_DemoPage_ESD_PushButton_3_X__Property
 1759 02ac 00000000 		.word	Ft_Esd_DemoPage_ESD_PushButton_3_Y__Property
 1760 02b0 00000000 		.word	Ft_Esd_DemoPage_ESD_PushButton_3_Primary__Property
 1761 02b4 00000000 		.word	Ft_Esd_DemoPage_ESD_Toggle_1_X__Property
 1762 02b8 00000000 		.word	Ft_Esd_DemoPage_ESD_Toggle_1_Y__Property
 1763 02bc 00000000 		.word	Ft_Esd_DemoPage_ESD_Toggle_1_Width__Property
 1764 02c0 00000000 		.word	Ft_Esd_DemoPage_ESD_Toggle_1_Height__Property
 1765 02c4 00000000 		.word	Ft_Esd_DemoPage_ESD_Toggle_1_Font__Property
 1766 02c8 00000000 		.word	Ft_Esd_DemoPage_ESD_SpinBox_X__Property
 1767 02cc 00000000 		.word	Ft_Esd_DemoPage_ESD_SpinBox_Y__Property
 1768 02d0 00000000 		.word	Ft_Esd_DemoPage_ESD_SpinBox_Height__Property
 1769 02d4 00000000 		.word	Ft_Esd_DemoPage_ESD_SpinBox_Changed__Writer
 1770 02d8 00000000 		.word	Ft_Esd_DemoPage_ESD_NumericLabel_X__Property
 1771 02dc 00000000 		.word	Ft_Esd_DemoPage_ESD_NumericLabel_Y__Property
 1772 02e0 00000000 		.word	Ft_Esd_DemoPage_ESD_NumericLabel_Value__Property
 1773 02e4 00000000 		.word	Ft_Esd_DemoPage_ESD_Label_Button_X__Property
 1774 02e8 00000000 		.word	Ft_Esd_DemoPage_ESD_Label_Button_Y__Property
 1775 02ec 00000000 		.word	Ft_Esd_DemoPage_ESD_Label_Button_Pushed__Signal
 1776 02f0 00000000 		.word	Ft_Esd_DemoPage_ESD_NumericLabel_1_X__Property
ARM GAS  /var/folders/n8/cvzdcwlj0vl4g_wtyz1ffy300000gn/T//ccjuOOkr.s 			page 39


 1777 02f4 00000000 		.word	Ft_Esd_DemoPage_ESD_NumericLabel_1_Value__Property
 1778 02f8 00000000 		.word	Ft_Esd_DemoPage_ESD_SpinBox_1_X__Property
 1779 02fc 00000000 		.word	Ft_Esd_DemoPage_ESD_SpinBox_1_Y__Property
 1780 0300 00000000 		.word	Ft_Esd_DemoPage_ESD_SpinBox_1_Step__Property
 1781 0304 00000000 		.word	Ft_Esd_DemoPage_ESD_SpinBox_1_Changed__Writer
 1782 0308 00000000 		.word	Ft_Esd_DemoPage_ESD_NumericLabel_2_Y__Property
 1783 030c 00000000 		.word	Ft_Esd_DemoPage_ESD_NumericLabel_2_Value__Property
 1784 0310 00000000 		.word	Ft_Esd_DemoPage_ESD_SpinBox_2_X__Property
 1785 0314 00000000 		.word	Ft_Esd_DemoPage_ESD_SpinBox_2_Y__Property
 1786              		.cfi_endproc
 1787              	.LFE74:
 1789              		.section	.text.Ft_Esd_DemoPage_Start__Builtin,"ax",%progbits
 1790              		.align	1
 1791              		.global	Ft_Esd_DemoPage_Start__Builtin
 1792              		.syntax unified
 1793              		.thumb
 1794              		.thumb_func
 1795              		.fpu fpv5-sp-d16
 1797              	Ft_Esd_DemoPage_Start__Builtin:
 1798              	.LFB75:
 182:FT_Esd_Widgets/Ft_Esd_DemoPage__Generated.c **** 	void *parent = context->Parent;
 1799              		.loc 1 182 0
 1800              		.cfi_startproc
 1801              		@ args = 0, pretend = 0, frame = 0
 1802              		@ frame_needed = 0, uses_anonymous_args = 0
 1803              	.LVL158:
 1804 0000 10B5     		push	{r4, lr}
 1805              	.LCFI12:
 1806              		.cfi_def_cfa_offset 8
 1807              		.cfi_offset 4, -8
 1808              		.cfi_offset 14, -4
 1809 0002 0446     		mov	r4, r0
 1810              	.LVL159:
 184:FT_Esd_Widgets/Ft_Esd_DemoPage__Generated.c **** 	Ft_Esd_PushButton_Start(&context->ESD_PushButton);
 1811              		.loc 1 184 0
 1812 0004 8430     		adds	r0, r0, #132
 1813              	.LVL160:
 1814 0006 FFF7FEFF 		bl	Ft_Esd_Clock_Start
 1815              	.LVL161:
 185:FT_Esd_Widgets/Ft_Esd_DemoPage__Generated.c **** 	Ft_Esd_PushButton_Start(&context->ESD_PushButton_1);
 1816              		.loc 1 185 0
 1817 000a 04F1E000 		add	r0, r4, #224
 1818 000e FFF7FEFF 		bl	Ft_Esd_PushButton_Start
 1819              	.LVL162:
 186:FT_Esd_Widgets/Ft_Esd_DemoPage__Generated.c **** 	Ft_Esd_Toggle_Start(&context->ESD_Toggle);
 1820              		.loc 1 186 0
 1821 0012 04F5A270 		add	r0, r4, #324
 1822 0016 FFF7FEFF 		bl	Ft_Esd_PushButton_Start
 1823              	.LVL163:
 187:FT_Esd_Widgets/Ft_Esd_DemoPage__Generated.c **** 	Ft_Esd_PushButton_Start(&context->ESD_PushButton_2);
 1824              		.loc 1 187 0
 1825 001a 04F5C670 		add	r0, r4, #396
 1826 001e FFF7FEFF 		bl	Ft_Esd_Toggle_Start
 1827              	.LVL164:
 188:FT_Esd_Widgets/Ft_Esd_DemoPage__Generated.c **** 	Ft_Esd_PushButton_Start(&context->ESD_PushButton_3);
 1828              		.loc 1 188 0
 1829 0022 04F5E870 		add	r0, r4, #464
ARM GAS  /var/folders/n8/cvzdcwlj0vl4g_wtyz1ffy300000gn/T//ccjuOOkr.s 			page 40


 1830 0026 FFF7FEFF 		bl	Ft_Esd_PushButton_Start
 1831              	.LVL165:
 189:FT_Esd_Widgets/Ft_Esd_DemoPage__Generated.c **** 	Ft_Esd_Toggle_Start(&context->ESD_Toggle_1);
 1832              		.loc 1 189 0
 1833 002a 04F51070 		add	r0, r4, #576
 1834 002e FFF7FEFF 		bl	Ft_Esd_PushButton_Start
 1835              	.LVL166:
 190:FT_Esd_Widgets/Ft_Esd_DemoPage__Generated.c **** 	Ft_Esd_SpinBox_Start(&context->ESD_SpinBox);
 1836              		.loc 1 190 0
 1837 0032 04F52270 		add	r0, r4, #648
 1838 0036 FFF7FEFF 		bl	Ft_Esd_Toggle_Start
 1839              	.LVL167:
 191:FT_Esd_Widgets/Ft_Esd_DemoPage__Generated.c **** 	Ft_Esd_LabelButton_Start(&context->ESD_Label_Button);
 1840              		.loc 1 191 0
 1841 003a 04F53370 		add	r0, r4, #716
 1842 003e FFF7FEFF 		bl	Ft_Esd_SpinBox_Start
 1843              	.LVL168:
 192:FT_Esd_Widgets/Ft_Esd_DemoPage__Generated.c **** 	Ft_Esd_SpinBox_Start(&context->ESD_SpinBox_1);
 1844              		.loc 1 192 0
 1845 0042 04F20C40 		addw	r0, r4, #1036
 1846 0046 FFF7FEFF 		bl	Ft_Esd_LabelButton_Start
 1847              	.LVL169:
 193:FT_Esd_Widgets/Ft_Esd_DemoPage__Generated.c **** 	Ft_Esd_SpinBox_Start(&context->ESD_SpinBox_2);
 1848              		.loc 1 193 0
 1849 004a 04F26C40 		addw	r0, r4, #1132
 1850 004e FFF7FEFF 		bl	Ft_Esd_SpinBox_Start
 1851              	.LVL170:
 194:FT_Esd_Widgets/Ft_Esd_DemoPage__Generated.c **** }
 1852              		.loc 1 194 0
 1853 0052 04F2AC50 		addw	r0, r4, #1452
 1854 0056 FFF7FEFF 		bl	Ft_Esd_SpinBox_Start
 1855              	.LVL171:
 195:FT_Esd_Widgets/Ft_Esd_DemoPage__Generated.c **** 
 1856              		.loc 1 195 0
 1857 005a 10BD     		pop	{r4, pc}
 1858              		.cfi_endproc
 1859              	.LFE75:
 1861              		.section	.text.Ft_Esd_DemoPage_Update,"ax",%progbits
 1862              		.align	1
 1863              		.global	Ft_Esd_DemoPage_Update
 1864              		.syntax unified
 1865              		.thumb
 1866              		.thumb_func
 1867              		.fpu fpv5-sp-d16
 1869              	Ft_Esd_DemoPage_Update:
 1870              	.LFB76:
 198:FT_Esd_Widgets/Ft_Esd_DemoPage__Generated.c **** 	void *parent = context->Parent;
 1871              		.loc 1 198 0
 1872              		.cfi_startproc
 1873              		@ args = 0, pretend = 0, frame = 0
 1874              		@ frame_needed = 0, uses_anonymous_args = 0
 1875              	.LVL172:
 1876 0000 10B5     		push	{r4, lr}
 1877              	.LCFI13:
 1878              		.cfi_def_cfa_offset 8
 1879              		.cfi_offset 4, -8
 1880              		.cfi_offset 14, -4
ARM GAS  /var/folders/n8/cvzdcwlj0vl4g_wtyz1ffy300000gn/T//ccjuOOkr.s 			page 41


 1881 0002 0446     		mov	r4, r0
 1882              	.LVL173:
 200:FT_Esd_Widgets/Ft_Esd_DemoPage__Generated.c **** 	Ft_Esd_PushButton_Update(&context->ESD_PushButton);
 1883              		.loc 1 200 0
 1884 0004 8430     		adds	r0, r0, #132
 1885              	.LVL174:
 1886 0006 FFF7FEFF 		bl	Ft_Esd_Clock_Update
 1887              	.LVL175:
 201:FT_Esd_Widgets/Ft_Esd_DemoPage__Generated.c **** 	if (Ft_Esd_DemoPage_ESD_PushButton_1__active(context))
 1888              		.loc 1 201 0
 1889 000a 04F1E000 		add	r0, r4, #224
 1890 000e FFF7FEFF 		bl	Ft_Esd_PushButton_Update
 1891              	.LVL176:
 202:FT_Esd_Widgets/Ft_Esd_DemoPage__Generated.c **** 		Ft_Esd_PushButton_Update(&context->ESD_PushButton_1);
 1892              		.loc 1 202 0
 1893 0012 2046     		mov	r0, r4
 1894 0014 FFF7FEFF 		bl	Ft_Esd_DemoPage_ESD_PushButton_1__active
 1895              	.LVL177:
 1896 0018 00BB     		cbnz	r0, .L83
 1897              	.L80:
 204:FT_Esd_Widgets/Ft_Esd_DemoPage__Generated.c **** 	Ft_Esd_PushButton_Update(&context->ESD_PushButton_2);
 1898              		.loc 1 204 0
 1899 001a 04F5C670 		add	r0, r4, #396
 1900 001e FFF7FEFF 		bl	Ft_Esd_Toggle_Update
 1901              	.LVL178:
 205:FT_Esd_Widgets/Ft_Esd_DemoPage__Generated.c **** 	if (Ft_Esd_DemoPage_ESD_PushButton_3__active(context))
 1902              		.loc 1 205 0
 1903 0022 04F5E870 		add	r0, r4, #464
 1904 0026 FFF7FEFF 		bl	Ft_Esd_PushButton_Update
 1905              	.LVL179:
 206:FT_Esd_Widgets/Ft_Esd_DemoPage__Generated.c **** 		Ft_Esd_PushButton_Update(&context->ESD_PushButton_3);
 1906              		.loc 1 206 0
 1907 002a 2046     		mov	r0, r4
 1908 002c FFF7FEFF 		bl	Ft_Esd_DemoPage_ESD_PushButton_3__active
 1909              	.LVL180:
 1910 0030 C8B9     		cbnz	r0, .L84
 1911              	.L81:
 208:FT_Esd_Widgets/Ft_Esd_DemoPage__Generated.c **** 	Ft_Esd_SpinBox_Update(&context->ESD_SpinBox);
 1912              		.loc 1 208 0
 1913 0032 04F52270 		add	r0, r4, #648
 1914 0036 FFF7FEFF 		bl	Ft_Esd_Toggle_Update
 1915              	.LVL181:
 209:FT_Esd_Widgets/Ft_Esd_DemoPage__Generated.c **** 	Ft_Esd_LabelButton_Update(&context->ESD_Label_Button);
 1916              		.loc 1 209 0
 1917 003a 04F53370 		add	r0, r4, #716
 1918 003e FFF7FEFF 		bl	Ft_Esd_SpinBox_Update
 1919              	.LVL182:
 210:FT_Esd_Widgets/Ft_Esd_DemoPage__Generated.c **** 	Ft_Esd_SpinBox_Update(&context->ESD_SpinBox_1);
 1920              		.loc 1 210 0
 1921 0042 04F20C40 		addw	r0, r4, #1036
 1922 0046 FFF7FEFF 		bl	Ft_Esd_LabelButton_Update
 1923              	.LVL183:
 211:FT_Esd_Widgets/Ft_Esd_DemoPage__Generated.c **** 	Ft_Esd_SpinBox_Update(&context->ESD_SpinBox_2);
 1924              		.loc 1 211 0
 1925 004a 04F26C40 		addw	r0, r4, #1132
 1926 004e FFF7FEFF 		bl	Ft_Esd_SpinBox_Update
 1927              	.LVL184:
ARM GAS  /var/folders/n8/cvzdcwlj0vl4g_wtyz1ffy300000gn/T//ccjuOOkr.s 			page 42


 212:FT_Esd_Widgets/Ft_Esd_DemoPage__Generated.c **** }
 1928              		.loc 1 212 0
 1929 0052 04F2AC50 		addw	r0, r4, #1452
 1930 0056 FFF7FEFF 		bl	Ft_Esd_SpinBox_Update
 1931              	.LVL185:
 213:FT_Esd_Widgets/Ft_Esd_DemoPage__Generated.c **** 
 1932              		.loc 1 213 0
 1933 005a 10BD     		pop	{r4, pc}
 1934              	.LVL186:
 1935              	.L83:
 203:FT_Esd_Widgets/Ft_Esd_DemoPage__Generated.c **** 	Ft_Esd_Toggle_Update(&context->ESD_Toggle);
 1936              		.loc 1 203 0
 1937 005c 04F5A270 		add	r0, r4, #324
 1938 0060 FFF7FEFF 		bl	Ft_Esd_PushButton_Update
 1939              	.LVL187:
 1940 0064 D9E7     		b	.L80
 1941              	.L84:
 207:FT_Esd_Widgets/Ft_Esd_DemoPage__Generated.c **** 	Ft_Esd_Toggle_Update(&context->ESD_Toggle_1);
 1942              		.loc 1 207 0
 1943 0066 04F51070 		add	r0, r4, #576
 1944 006a FFF7FEFF 		bl	Ft_Esd_PushButton_Update
 1945              	.LVL188:
 1946 006e E0E7     		b	.L81
 1947              		.cfi_endproc
 1948              	.LFE76:
 1950              		.section	.text.Ft_Esd_DemoPage_Render,"ax",%progbits
 1951              		.align	1
 1952              		.global	Ft_Esd_DemoPage_Render
 1953              		.syntax unified
 1954              		.thumb
 1955              		.thumb_func
 1956              		.fpu fpv5-sp-d16
 1958              	Ft_Esd_DemoPage_Render:
 1959              	.LFB77:
 216:FT_Esd_Widgets/Ft_Esd_DemoPage__Generated.c **** 	void *parent = context->Parent;
 1960              		.loc 1 216 0
 1961              		.cfi_startproc
 1962              		@ args = 0, pretend = 0, frame = 0
 1963              		@ frame_needed = 0, uses_anonymous_args = 0
 1964              	.LVL189:
 1965 0000 10B5     		push	{r4, lr}
 1966              	.LCFI14:
 1967              		.cfi_def_cfa_offset 8
 1968              		.cfi_offset 4, -8
 1969              		.cfi_offset 14, -4
 1970 0002 84B0     		sub	sp, sp, #16
 1971              	.LCFI15:
 1972              		.cfi_def_cfa_offset 24
 1973 0004 0446     		mov	r4, r0
 1974              	.LVL190:
 218:FT_Esd_Widgets/Ft_Esd_DemoPage__Generated.c **** 	Ft_Esd_Gauge_Render(&context->ESD_Gauge);
 1975              		.loc 1 218 0
 1976 0006 2430     		adds	r0, r0, #36
 1977              	.LVL191:
 1978 0008 FFF7FEFF 		bl	Ft_Esd_ProgressBar_Render
 1979              	.LVL192:
 219:FT_Esd_Widgets/Ft_Esd_DemoPage__Generated.c **** 	Ft_Esd_Theme * theme = Ft_Esd_Theme_GetCurrent();
ARM GAS  /var/folders/n8/cvzdcwlj0vl4g_wtyz1ffy300000gn/T//ccjuOOkr.s 			page 43


 1980              		.loc 1 219 0
 1981 000c 04F14400 		add	r0, r4, #68
 1982 0010 FFF7FEFF 		bl	Ft_Esd_Gauge_Render
 1983              	.LVL193:
 220:FT_Esd_Widgets/Ft_Esd_DemoPage__Generated.c **** 	ft_int16_t x = 536;
 1984              		.loc 1 220 0
 1985 0014 FFF7FEFF 		bl	Ft_Esd_Theme_GetCurrent
 1986              	.LVL194:
 227:FT_Esd_Widgets/Ft_Esd_DemoPage__Generated.c **** 	Ft_Esd_Clock_Render(&context->ESD_Clock);
 1987              		.loc 1 227 0
 1988 0018 0023     		movs	r3, #0
 1989 001a 0293     		str	r3, [sp, #8]
 1990 001c 0423     		movs	r3, #4
 1991 001e 0193     		str	r3, [sp, #4]
 1992 0020 9123     		movs	r3, #145
 1993 0022 0093     		str	r3, [sp]
 1994 0024 8223     		movs	r3, #130
 1995 0026 6022     		movs	r2, #96
 1996 0028 4FF40671 		mov	r1, #536
 1997 002c FFF7FEFF 		bl	Ft_Esd_Elements_Panel
 1998              	.LVL195:
 228:FT_Esd_Widgets/Ft_Esd_DemoPage__Generated.c **** 	Ft_Esd_PushButton_Render(&context->ESD_PushButton);
 1999              		.loc 1 228 0
 2000 0030 04F18400 		add	r0, r4, #132
 2001 0034 FFF7FEFF 		bl	Ft_Esd_Clock_Render
 2002              	.LVL196:
 229:FT_Esd_Widgets/Ft_Esd_DemoPage__Generated.c **** 	Ft_Esd_Rectangle_Render(&context->ESD_Rectangle);
 2003              		.loc 1 229 0
 2004 0038 04F1E000 		add	r0, r4, #224
 2005 003c FFF7FEFF 		bl	Ft_Esd_PushButton_Render
 2006              	.LVL197:
 230:FT_Esd_Widgets/Ft_Esd_DemoPage__Generated.c **** 	if (Ft_Esd_DemoPage_ESD_PushButton_1__active(context))
 2007              		.loc 1 230 0
 2008 0040 04F59470 		add	r0, r4, #296
 2009 0044 FFF7FEFF 		bl	Ft_Esd_Rectangle_Render
 2010              	.LVL198:
 231:FT_Esd_Widgets/Ft_Esd_DemoPage__Generated.c **** 		Ft_Esd_PushButton_Render(&context->ESD_PushButton_1);
 2011              		.loc 1 231 0
 2012 0048 2046     		mov	r0, r4
 2013 004a FFF7FEFF 		bl	Ft_Esd_DemoPage_ESD_PushButton_1__active
 2014              	.LVL199:
 2015 004e 88BB     		cbnz	r0, .L89
 2016              	.L86:
 233:FT_Esd_Widgets/Ft_Esd_DemoPage__Generated.c **** 	Ft_Esd_PushButton_Render(&context->ESD_PushButton_2);
 2017              		.loc 1 233 0
 2018 0050 04F5C670 		add	r0, r4, #396
 2019 0054 FFF7FEFF 		bl	Ft_Esd_Toggle_Render
 2020              	.LVL200:
 234:FT_Esd_Widgets/Ft_Esd_DemoPage__Generated.c **** 	Ft_Esd_Label_Render(&context->ESD_Label);
 2021              		.loc 1 234 0
 2022 0058 04F5E870 		add	r0, r4, #464
 2023 005c FFF7FEFF 		bl	Ft_Esd_PushButton_Render
 2024              	.LVL201:
 235:FT_Esd_Widgets/Ft_Esd_DemoPage__Generated.c **** 	if (Ft_Esd_DemoPage_ESD_PushButton_3__active(context))
 2025              		.loc 1 235 0
 2026 0060 04F50670 		add	r0, r4, #536
 2027 0064 FFF7FEFF 		bl	Ft_Esd_Label_Render
ARM GAS  /var/folders/n8/cvzdcwlj0vl4g_wtyz1ffy300000gn/T//ccjuOOkr.s 			page 44


 2028              	.LVL202:
 236:FT_Esd_Widgets/Ft_Esd_DemoPage__Generated.c **** 		Ft_Esd_PushButton_Render(&context->ESD_PushButton_3);
 2029              		.loc 1 236 0
 2030 0068 2046     		mov	r0, r4
 2031 006a FFF7FEFF 		bl	Ft_Esd_DemoPage_ESD_PushButton_3__active
 2032              	.LVL203:
 2033 006e 30BB     		cbnz	r0, .L90
 2034              	.L87:
 238:FT_Esd_Widgets/Ft_Esd_DemoPage__Generated.c **** 	Ft_Esd_SpinBox_Render(&context->ESD_SpinBox);
 2035              		.loc 1 238 0
 2036 0070 04F52270 		add	r0, r4, #648
 2037 0074 FFF7FEFF 		bl	Ft_Esd_Toggle_Render
 2038              	.LVL204:
 239:FT_Esd_Widgets/Ft_Esd_DemoPage__Generated.c **** 	Ft_Esd_NumericLabel_Render(&context->ESD_NumericLabel);
 2039              		.loc 1 239 0
 2040 0078 04F53370 		add	r0, r4, #716
 2041 007c FFF7FEFF 		bl	Ft_Esd_SpinBox_Render
 2042              	.LVL205:
 240:FT_Esd_Widgets/Ft_Esd_DemoPage__Generated.c **** 	Ft_Esd_LabelButton_Render(&context->ESD_Label_Button);
 2043              		.loc 1 240 0
 2044 0080 04F57B70 		add	r0, r4, #1004
 2045 0084 FFF7FEFF 		bl	Ft_Esd_NumericLabel_Render
 2046              	.LVL206:
 241:FT_Esd_Widgets/Ft_Esd_DemoPage__Generated.c **** 	Ft_Esd_NumericLabel_Render(&context->ESD_NumericLabel_1);
 2047              		.loc 1 241 0
 2048 0088 04F20C40 		addw	r0, r4, #1036
 2049 008c FFF7FEFF 		bl	Ft_Esd_LabelButton_Render
 2050              	.LVL207:
 242:FT_Esd_Widgets/Ft_Esd_DemoPage__Generated.c **** 	Ft_Esd_SpinBox_Render(&context->ESD_SpinBox_1);
 2051              		.loc 1 242 0
 2052 0090 04F24C40 		addw	r0, r4, #1100
 2053 0094 FFF7FEFF 		bl	Ft_Esd_NumericLabel_Render
 2054              	.LVL208:
 243:FT_Esd_Widgets/Ft_Esd_DemoPage__Generated.c **** 	Ft_Esd_NumericLabel_Render(&context->ESD_NumericLabel_2);
 2055              		.loc 1 243 0
 2056 0098 04F26C40 		addw	r0, r4, #1132
 2057 009c FFF7FEFF 		bl	Ft_Esd_SpinBox_Render
 2058              	.LVL209:
 244:FT_Esd_Widgets/Ft_Esd_DemoPage__Generated.c **** 	Ft_Esd_SpinBox_Render(&context->ESD_SpinBox_2);
 2059              		.loc 1 244 0
 2060 00a0 04F28C50 		addw	r0, r4, #1420
 2061 00a4 FFF7FEFF 		bl	Ft_Esd_NumericLabel_Render
 2062              	.LVL210:
 245:FT_Esd_Widgets/Ft_Esd_DemoPage__Generated.c **** }
 2063              		.loc 1 245 0
 2064 00a8 04F2AC50 		addw	r0, r4, #1452
 2065 00ac FFF7FEFF 		bl	Ft_Esd_SpinBox_Render
 2066              	.LVL211:
 246:FT_Esd_Widgets/Ft_Esd_DemoPage__Generated.c **** 
 2067              		.loc 1 246 0
 2068 00b0 04B0     		add	sp, sp, #16
 2069              	.LCFI16:
 2070              		.cfi_remember_state
 2071              		.cfi_def_cfa_offset 8
 2072              		@ sp needed
 2073 00b2 10BD     		pop	{r4, pc}
 2074              	.LVL212:
ARM GAS  /var/folders/n8/cvzdcwlj0vl4g_wtyz1ffy300000gn/T//ccjuOOkr.s 			page 45


 2075              	.L89:
 2076              	.LCFI17:
 2077              		.cfi_restore_state
 232:FT_Esd_Widgets/Ft_Esd_DemoPage__Generated.c **** 	Ft_Esd_Toggle_Render(&context->ESD_Toggle);
 2078              		.loc 1 232 0
 2079 00b4 04F5A270 		add	r0, r4, #324
 2080 00b8 FFF7FEFF 		bl	Ft_Esd_PushButton_Render
 2081              	.LVL213:
 2082 00bc C8E7     		b	.L86
 2083              	.L90:
 237:FT_Esd_Widgets/Ft_Esd_DemoPage__Generated.c **** 	Ft_Esd_Toggle_Render(&context->ESD_Toggle_1);
 2084              		.loc 1 237 0
 2085 00be 04F51070 		add	r0, r4, #576
 2086 00c2 FFF7FEFF 		bl	Ft_Esd_PushButton_Render
 2087              	.LVL214:
 2088 00c6 D3E7     		b	.L87
 2089              		.cfi_endproc
 2090              	.LFE77:
 2092              		.section	.text.Ft_Esd_DemoPage_Idle,"ax",%progbits
 2093              		.align	1
 2094              		.global	Ft_Esd_DemoPage_Idle
 2095              		.syntax unified
 2096              		.thumb
 2097              		.thumb_func
 2098              		.fpu fpv5-sp-d16
 2100              	Ft_Esd_DemoPage_Idle:
 2101              	.LFB78:
 249:FT_Esd_Widgets/Ft_Esd_DemoPage__Generated.c **** 	void *parent = context->Parent;
 2102              		.loc 1 249 0
 2103              		.cfi_startproc
 2104              		@ args = 0, pretend = 0, frame = 0
 2105              		@ frame_needed = 0, uses_anonymous_args = 0
 2106              		@ link register save eliminated.
 2107              	.LVL215:
 251:FT_Esd_Widgets/Ft_Esd_DemoPage__Generated.c **** 
 2108              		.loc 1 251 0
 2109 0000 7047     		bx	lr
 2110              		.cfi_endproc
 2111              	.LFE78:
 2113              		.section	.text.Ft_Esd_DemoPage_End,"ax",%progbits
 2114              		.align	1
 2115              		.global	Ft_Esd_DemoPage_End
 2116              		.syntax unified
 2117              		.thumb
 2118              		.thumb_func
 2119              		.fpu fpv5-sp-d16
 2121              	Ft_Esd_DemoPage_End:
 2122              	.LFB79:
 254:FT_Esd_Widgets/Ft_Esd_DemoPage__Generated.c **** 	void *parent = context->Parent;
 2123              		.loc 1 254 0
 2124              		.cfi_startproc
 2125              		@ args = 0, pretend = 0, frame = 0
 2126              		@ frame_needed = 0, uses_anonymous_args = 0
 2127              	.LVL216:
 2128 0000 10B5     		push	{r4, lr}
 2129              	.LCFI18:
 2130              		.cfi_def_cfa_offset 8
ARM GAS  /var/folders/n8/cvzdcwlj0vl4g_wtyz1ffy300000gn/T//ccjuOOkr.s 			page 46


 2131              		.cfi_offset 4, -8
 2132              		.cfi_offset 14, -4
 2133 0002 0446     		mov	r4, r0
 2134              	.LVL217:
 256:FT_Esd_Widgets/Ft_Esd_DemoPage__Generated.c **** 	Ft_Esd_PushButton_End(&context->ESD_PushButton);
 2135              		.loc 1 256 0
 2136 0004 8430     		adds	r0, r0, #132
 2137              	.LVL218:
 2138 0006 FFF7FEFF 		bl	Ft_Esd_Clock_End
 2139              	.LVL219:
 257:FT_Esd_Widgets/Ft_Esd_DemoPage__Generated.c **** 	Ft_Esd_PushButton_End(&context->ESD_PushButton_1);
 2140              		.loc 1 257 0
 2141 000a 04F1E000 		add	r0, r4, #224
 2142 000e FFF7FEFF 		bl	Ft_Esd_PushButton_End
 2143              	.LVL220:
 258:FT_Esd_Widgets/Ft_Esd_DemoPage__Generated.c **** 	Ft_Esd_Toggle_End(&context->ESD_Toggle);
 2144              		.loc 1 258 0
 2145 0012 04F5A270 		add	r0, r4, #324
 2146 0016 FFF7FEFF 		bl	Ft_Esd_PushButton_End
 2147              	.LVL221:
 259:FT_Esd_Widgets/Ft_Esd_DemoPage__Generated.c **** 	Ft_Esd_PushButton_End(&context->ESD_PushButton_2);
 2148              		.loc 1 259 0
 2149 001a 04F5C670 		add	r0, r4, #396
 2150 001e FFF7FEFF 		bl	Ft_Esd_Toggle_End
 2151              	.LVL222:
 260:FT_Esd_Widgets/Ft_Esd_DemoPage__Generated.c **** 	Ft_Esd_PushButton_End(&context->ESD_PushButton_3);
 2152              		.loc 1 260 0
 2153 0022 04F5E870 		add	r0, r4, #464
 2154 0026 FFF7FEFF 		bl	Ft_Esd_PushButton_End
 2155              	.LVL223:
 261:FT_Esd_Widgets/Ft_Esd_DemoPage__Generated.c **** 	Ft_Esd_Toggle_End(&context->ESD_Toggle_1);
 2156              		.loc 1 261 0
 2157 002a 04F51070 		add	r0, r4, #576
 2158 002e FFF7FEFF 		bl	Ft_Esd_PushButton_End
 2159              	.LVL224:
 262:FT_Esd_Widgets/Ft_Esd_DemoPage__Generated.c **** 	Ft_Esd_SpinBox_End(&context->ESD_SpinBox);
 2160              		.loc 1 262 0
 2161 0032 04F52270 		add	r0, r4, #648
 2162 0036 FFF7FEFF 		bl	Ft_Esd_Toggle_End
 2163              	.LVL225:
 263:FT_Esd_Widgets/Ft_Esd_DemoPage__Generated.c **** 	Ft_Esd_LabelButton_End(&context->ESD_Label_Button);
 2164              		.loc 1 263 0
 2165 003a 04F53370 		add	r0, r4, #716
 2166 003e FFF7FEFF 		bl	Ft_Esd_SpinBox_End
 2167              	.LVL226:
 264:FT_Esd_Widgets/Ft_Esd_DemoPage__Generated.c **** 	Ft_Esd_SpinBox_End(&context->ESD_SpinBox_1);
 2168              		.loc 1 264 0
 2169 0042 04F20C40 		addw	r0, r4, #1036
 2170 0046 FFF7FEFF 		bl	Ft_Esd_LabelButton_End
 2171              	.LVL227:
 265:FT_Esd_Widgets/Ft_Esd_DemoPage__Generated.c **** 	Ft_Esd_SpinBox_End(&context->ESD_SpinBox_2);
 2172              		.loc 1 265 0
 2173 004a 04F26C40 		addw	r0, r4, #1132
 2174 004e FFF7FEFF 		bl	Ft_Esd_SpinBox_End
 2175              	.LVL228:
 266:FT_Esd_Widgets/Ft_Esd_DemoPage__Generated.c **** }
 2176              		.loc 1 266 0
ARM GAS  /var/folders/n8/cvzdcwlj0vl4g_wtyz1ffy300000gn/T//ccjuOOkr.s 			page 47


 2177 0052 04F2AC50 		addw	r0, r4, #1452
 2178 0056 FFF7FEFF 		bl	Ft_Esd_SpinBox_End
 2179              	.LVL229:
 267:FT_Esd_Widgets/Ft_Esd_DemoPage__Generated.c **** 
 2180              		.loc 1 267 0
 2181 005a 10BD     		pop	{r4, pc}
 2182              		.cfi_endproc
 2183              	.LFE79:
 2185              		.section	.text.Ft_Esd_DemoPage_Start,"ax",%progbits
 2186              		.align	1
 2187              		.global	Ft_Esd_DemoPage_Start
 2188              		.syntax unified
 2189              		.thumb
 2190              		.thumb_func
 2191              		.fpu fpv5-sp-d16
 2193              	Ft_Esd_DemoPage_Start:
 2194              	.LFB81:
 276:FT_Esd_Widgets/Ft_Esd_DemoPage__Generated.c **** 	void *parent = context->Parent;
 2195              		.loc 1 276 0
 2196              		.cfi_startproc
 2197              		@ args = 0, pretend = 0, frame = 0
 2198              		@ frame_needed = 0, uses_anonymous_args = 0
 2199              	.LVL230:
 2200 0000 10B5     		push	{r4, lr}
 2201              	.LCFI19:
 2202              		.cfi_def_cfa_offset 8
 2203              		.cfi_offset 4, -8
 2204              		.cfi_offset 14, -4
 2205 0002 0446     		mov	r4, r0
 2206              	.LVL231:
 278:FT_Esd_Widgets/Ft_Esd_DemoPage__Generated.c **** 	Ft_Esd_Toggle_Toggle(&context->ESD_Toggle_1);
 2207              		.loc 1 278 0
 2208 0004 FFF7FEFF 		bl	Ft_Esd_DemoPage_Start__Builtin
 2209              	.LVL232:
 279:FT_Esd_Widgets/Ft_Esd_DemoPage__Generated.c **** }
 2210              		.loc 1 279 0
 2211 0008 04F52270 		add	r0, r4, #648
 2212 000c FFF7FEFF 		bl	Ft_Esd_Toggle_Toggle
 2213              	.LVL233:
 280:FT_Esd_Widgets/Ft_Esd_DemoPage__Generated.c **** 
 2214              		.loc 1 280 0
 2215 0010 10BD     		pop	{r4, pc}
 2216              		.cfi_endproc
 2217              	.LFE81:
 2219              		.text
 2220              	.Letext0:
 2221              		.file 2 "FT_Eve_Hal/FT_DataTypes.h"
 2222              		.file 3 "/usr/local/Cellar/arm-none-eabi-gcc/20180627/arm-none-eabi/include/machine/_default_types
 2223              		.file 4 "/usr/local/Cellar/arm-none-eabi-gcc/20180627/arm-none-eabi/include/sys/lock.h"
 2224              		.file 5 "/usr/local/Cellar/arm-none-eabi-gcc/20180627/arm-none-eabi/include/sys/_types.h"
 2225              		.file 6 "/usr/local/Cellar/arm-none-eabi-gcc/20180627/lib/gcc/arm-none-eabi/7.3.1/include/stddef.h
 2226              		.file 7 "/usr/local/Cellar/arm-none-eabi-gcc/20180627/arm-none-eabi/include/sys/_stdint.h"
 2227              		.file 8 "/usr/local/Cellar/arm-none-eabi-gcc/20180627/arm-none-eabi/include/sys/unistd.h"
 2228              		.file 9 "/usr/local/Cellar/arm-none-eabi-gcc/20180627/arm-none-eabi/include/sys/reent.h"
 2229              		.file 10 "/usr/local/Cellar/arm-none-eabi-gcc/20180627/arm-none-eabi/include/stdlib.h"
 2230              		.file 11 "FT_Eve_Hal/FT_Gpu_Hal.h"
 2231              		.file 12 "FT_Esd_Framework/Ft_Esd.h"
ARM GAS  /var/folders/n8/cvzdcwlj0vl4g_wtyz1ffy300000gn/T//ccjuOOkr.s 			page 48


 2232              		.file 13 "FT_Esd_Widgets/FT_Esd_Theme.h"
 2233              		.file 14 "FT_Esd_Widgets/Ft_Esd_DefaultTheme.h"
 2234              		.file 15 "FT_Esd_Widgets/Ft_Esd_PosSizeToRadius.h"
 2235              		.file 16 "FT_Esd_Framework/Ft_Esd_TouchTag.h"
 2236              		.file 17 "FT_Esd_Widgets/Ft_Esd_Clock.h"
 2237              		.file 18 "FT_Esd_Widgets/Ft_Esd_Gauge.h"
 2238              		.file 19 "FT_Esd_Widgets/Ft_Esd_Label.h"
 2239              		.file 20 "FT_Esd_Widgets/Ft_Esd_LabelButton.h"
 2240              		.file 21 "FT_Esd_Widgets/Ft_Esd_NumericLabel.h"
 2241              		.file 22 "FT_Esd_Widgets/Ft_Esd_ProgressBar.h"
 2242              		.file 23 "FT_Esd_Widgets/Ft_Esd_PushButton.h"
 2243              		.file 24 "FT_Esd_Framework/FT_Esd_Dl.h"
 2244              		.file 25 "FT_Esd_Widgets/Ft_Esd_Rectangle.h"
 2245              		.file 26 "FT_Esd_Widgets/LayoutMargin.h"
 2246              		.file 27 "FT_Esd_Widgets/LayoutSplit.h"
 2247              		.file 28 "FT_Esd_Widgets/Ft_Esd_SpinBox.h"
 2248              		.file 29 "FT_Esd_Widgets/Ft_Esd_Toggle.h"
 2249              		.file 30 "FT_Esd_Widgets/SwitchBool.h"
 2250              		.file 31 "FT_Esd_Widgets/Ft_Esd_DemoPage.h"
ARM GAS  /var/folders/n8/cvzdcwlj0vl4g_wtyz1ffy300000gn/T//ccjuOOkr.s 			page 49

