ARM GAS  /var/folders/n8/cvzdcwlj0vl4g_wtyz1ffy300000gn/T//ccWKMHJc.s 			page 1


   1              		.cpu cortex-m7
   2              		.eabi_attribute 27, 1
   3              		.eabi_attribute 28, 1
   4              		.eabi_attribute 20, 1
   5              		.eabi_attribute 21, 1
   6              		.eabi_attribute 23, 3
   7              		.eabi_attribute 24, 1
   8              		.eabi_attribute 25, 1
   9              		.eabi_attribute 26, 1
  10              		.eabi_attribute 30, 1
  11              		.eabi_attribute 34, 1
  12              		.eabi_attribute 18, 4
  13              		.file	"Ft_Esd_NumericLabel__Generated.c"
  14              		.text
  15              	.Ltext0:
  16              		.cfi_sections	.debug_frame
  17              		.section	.text.Ft_Esd_NumericLabel_X__Default,"ax",%progbits
  18              		.align	1
  19              		.global	Ft_Esd_NumericLabel_X__Default
  20              		.syntax unified
  21              		.thumb
  22              		.thumb_func
  23              		.fpu fpv5-sp-d16
  25              	Ft_Esd_NumericLabel_X__Default:
  26              	.LFB24:
  27              		.file 1 "FT_Esd_Widgets/Ft_Esd_NumericLabel__Generated.c"
   1:FT_Esd_Widgets/Ft_Esd_NumericLabel__Generated.c **** /*
   2:FT_Esd_Widgets/Ft_Esd_NumericLabel__Generated.c **** This file is automatically generated
   3:FT_Esd_Widgets/Ft_Esd_NumericLabel__Generated.c **** Ft_Esd_NumericLabel
   4:FT_Esd_Widgets/Ft_Esd_NumericLabel__Generated.c **** C Source
   5:FT_Esd_Widgets/Ft_Esd_NumericLabel__Generated.c **** */
   6:FT_Esd_Widgets/Ft_Esd_NumericLabel__Generated.c **** 
   7:FT_Esd_Widgets/Ft_Esd_NumericLabel__Generated.c **** #include "Ft_Esd_NumericLabel.h"
   8:FT_Esd_Widgets/Ft_Esd_NumericLabel__Generated.c **** 
   9:FT_Esd_Widgets/Ft_Esd_NumericLabel__Generated.c **** #include "FT_Esd_CoPro_Cmds.h"
  10:FT_Esd_Widgets/Ft_Esd_NumericLabel__Generated.c **** #include "FT_Esd_Dl.h"
  11:FT_Esd_Widgets/Ft_Esd_NumericLabel__Generated.c **** #include "FT_Gpu.h"
  12:FT_Esd_Widgets/Ft_Esd_NumericLabel__Generated.c **** 
  13:FT_Esd_Widgets/Ft_Esd_NumericLabel__Generated.c **** extern void Ft_Esd_Noop(void *context);
  14:FT_Esd_Widgets/Ft_Esd_NumericLabel__Generated.c **** Ft_Esd_Theme * Ft_Esd_NumericLabel_Theme__Default(void *context) { return Ft_Esd_Theme_GetCurrent()
  15:FT_Esd_Widgets/Ft_Esd_NumericLabel__Generated.c **** ft_int16_t Ft_Esd_NumericLabel_X__Default(void *context) { return 0; }
  28              		.loc 1 15 0
  29              		.cfi_startproc
  30              		@ args = 0, pretend = 0, frame = 0
  31              		@ frame_needed = 0, uses_anonymous_args = 0
  32              		@ link register save eliminated.
  33              	.LVL0:
  34              		.loc 1 15 0
  35 0000 0020     		movs	r0, #0
  36              	.LVL1:
  37 0002 7047     		bx	lr
  38              		.cfi_endproc
  39              	.LFE24:
  41              		.section	.text.Ft_Esd_NumericLabel_Y__Default,"ax",%progbits
  42              		.align	1
  43              		.global	Ft_Esd_NumericLabel_Y__Default
  44              		.syntax unified
ARM GAS  /var/folders/n8/cvzdcwlj0vl4g_wtyz1ffy300000gn/T//ccWKMHJc.s 			page 2


  45              		.thumb
  46              		.thumb_func
  47              		.fpu fpv5-sp-d16
  49              	Ft_Esd_NumericLabel_Y__Default:
  50              	.LFB25:
  16:FT_Esd_Widgets/Ft_Esd_NumericLabel__Generated.c **** ft_int16_t Ft_Esd_NumericLabel_Y__Default(void *context) { return 0; }
  51              		.loc 1 16 0
  52              		.cfi_startproc
  53              		@ args = 0, pretend = 0, frame = 0
  54              		@ frame_needed = 0, uses_anonymous_args = 0
  55              		@ link register save eliminated.
  56              	.LVL2:
  57              		.loc 1 16 0
  58 0000 0020     		movs	r0, #0
  59              	.LVL3:
  60 0002 7047     		bx	lr
  61              		.cfi_endproc
  62              	.LFE25:
  64              		.section	.text.Ft_Esd_NumericLabel_Width__Default,"ax",%progbits
  65              		.align	1
  66              		.global	Ft_Esd_NumericLabel_Width__Default
  67              		.syntax unified
  68              		.thumb
  69              		.thumb_func
  70              		.fpu fpv5-sp-d16
  72              	Ft_Esd_NumericLabel_Width__Default:
  73              	.LFB26:
  17:FT_Esd_Widgets/Ft_Esd_NumericLabel__Generated.c **** ft_int16_t Ft_Esd_NumericLabel_Width__Default(void *context) { return 120; }
  74              		.loc 1 17 0
  75              		.cfi_startproc
  76              		@ args = 0, pretend = 0, frame = 0
  77              		@ frame_needed = 0, uses_anonymous_args = 0
  78              		@ link register save eliminated.
  79              	.LVL4:
  80              		.loc 1 17 0
  81 0000 7820     		movs	r0, #120
  82              	.LVL5:
  83 0002 7047     		bx	lr
  84              		.cfi_endproc
  85              	.LFE26:
  87              		.section	.text.Ft_Esd_NumericLabel_Height__Default,"ax",%progbits
  88              		.align	1
  89              		.global	Ft_Esd_NumericLabel_Height__Default
  90              		.syntax unified
  91              		.thumb
  92              		.thumb_func
  93              		.fpu fpv5-sp-d16
  95              	Ft_Esd_NumericLabel_Height__Default:
  96              	.LFB27:
  18:FT_Esd_Widgets/Ft_Esd_NumericLabel__Generated.c **** ft_int16_t Ft_Esd_NumericLabel_Height__Default(void *context) { return 36; }
  97              		.loc 1 18 0
  98              		.cfi_startproc
  99              		@ args = 0, pretend = 0, frame = 0
 100              		@ frame_needed = 0, uses_anonymous_args = 0
 101              		@ link register save eliminated.
 102              	.LVL6:
 103              		.loc 1 18 0
ARM GAS  /var/folders/n8/cvzdcwlj0vl4g_wtyz1ffy300000gn/T//ccWKMHJc.s 			page 3


 104 0000 2420     		movs	r0, #36
 105              	.LVL7:
 106 0002 7047     		bx	lr
 107              		.cfi_endproc
 108              	.LFE27:
 110              		.section	.text.Ft_Esd_NumericLabel_Font__Default,"ax",%progbits
 111              		.align	1
 112              		.global	Ft_Esd_NumericLabel_Font__Default
 113              		.syntax unified
 114              		.thumb
 115              		.thumb_func
 116              		.fpu fpv5-sp-d16
 118              	Ft_Esd_NumericLabel_Font__Default:
 119              	.LFB28:
  19:FT_Esd_Widgets/Ft_Esd_NumericLabel__Generated.c **** ft_int16_t Ft_Esd_NumericLabel_Font__Default(void *context) { return 27; }
 120              		.loc 1 19 0
 121              		.cfi_startproc
 122              		@ args = 0, pretend = 0, frame = 0
 123              		@ frame_needed = 0, uses_anonymous_args = 0
 124              		@ link register save eliminated.
 125              	.LVL8:
 126              		.loc 1 19 0
 127 0000 1B20     		movs	r0, #27
 128              	.LVL9:
 129 0002 7047     		bx	lr
 130              		.cfi_endproc
 131              	.LFE28:
 133              		.section	.text.Ft_Esd_NumericLabel_Value__Default,"ax",%progbits
 134              		.align	1
 135              		.global	Ft_Esd_NumericLabel_Value__Default
 136              		.syntax unified
 137              		.thumb
 138              		.thumb_func
 139              		.fpu fpv5-sp-d16
 141              	Ft_Esd_NumericLabel_Value__Default:
 142              	.LFB29:
  20:FT_Esd_Widgets/Ft_Esd_NumericLabel__Generated.c **** ft_int32_t Ft_Esd_NumericLabel_Value__Default(void *context) { return 0L; }
 143              		.loc 1 20 0
 144              		.cfi_startproc
 145              		@ args = 0, pretend = 0, frame = 0
 146              		@ frame_needed = 0, uses_anonymous_args = 0
 147              		@ link register save eliminated.
 148              	.LVL10:
 149              		.loc 1 20 0
 150 0000 0020     		movs	r0, #0
 151              	.LVL11:
 152 0002 7047     		bx	lr
 153              		.cfi_endproc
 154              	.LFE29:
 156              		.section	.text.Ft_Esd_NumericLabel_Theme__Default,"ax",%progbits
 157              		.align	1
 158              		.global	Ft_Esd_NumericLabel_Theme__Default
 159              		.syntax unified
 160              		.thumb
 161              		.thumb_func
 162              		.fpu fpv5-sp-d16
 164              	Ft_Esd_NumericLabel_Theme__Default:
ARM GAS  /var/folders/n8/cvzdcwlj0vl4g_wtyz1ffy300000gn/T//ccWKMHJc.s 			page 4


 165              	.LFB23:
  14:FT_Esd_Widgets/Ft_Esd_NumericLabel__Generated.c **** ft_int16_t Ft_Esd_NumericLabel_X__Default(void *context) { return 0; }
 166              		.loc 1 14 0
 167              		.cfi_startproc
 168              		@ args = 0, pretend = 0, frame = 0
 169              		@ frame_needed = 0, uses_anonymous_args = 0
 170              	.LVL12:
 171 0000 08B5     		push	{r3, lr}
 172              	.LCFI0:
 173              		.cfi_def_cfa_offset 8
 174              		.cfi_offset 3, -8
 175              		.cfi_offset 14, -4
  14:FT_Esd_Widgets/Ft_Esd_NumericLabel__Generated.c **** ft_int16_t Ft_Esd_NumericLabel_X__Default(void *context) { return 0; }
 176              		.loc 1 14 0
 177 0002 FFF7FEFF 		bl	Ft_Esd_Theme_GetCurrent
 178              	.LVL13:
 179 0006 08BD     		pop	{r3, pc}
 180              		.cfi_endproc
 181              	.LFE23:
 183              		.section	.text.Ft_Esd_NumericLabel__Initializer,"ax",%progbits
 184              		.align	1
 185              		.global	Ft_Esd_NumericLabel__Initializer
 186              		.syntax unified
 187              		.thumb
 188              		.thumb_func
 189              		.fpu fpv5-sp-d16
 191              	Ft_Esd_NumericLabel__Initializer:
 192              	.LFB30:
  21:FT_Esd_Widgets/Ft_Esd_NumericLabel__Generated.c **** 
  22:FT_Esd_Widgets/Ft_Esd_NumericLabel__Generated.c **** Ft_Esd_Theme * Ft_Esd_Theme_GetCurrent();
  23:FT_Esd_Widgets/Ft_Esd_NumericLabel__Generated.c **** Ft_Gpu_Hal_Context_t * Ft_Esd_GetHost();
  24:FT_Esd_Widgets/Ft_Esd_NumericLabel__Generated.c **** 
  25:FT_Esd_Widgets/Ft_Esd_NumericLabel__Generated.c **** 
  26:FT_Esd_Widgets/Ft_Esd_NumericLabel__Generated.c **** void Ft_Esd_NumericLabel__Initializer(Ft_Esd_NumericLabel *context)
  27:FT_Esd_Widgets/Ft_Esd_NumericLabel__Generated.c **** {
 193              		.loc 1 27 0
 194              		.cfi_startproc
 195              		@ args = 0, pretend = 0, frame = 0
 196              		@ frame_needed = 0, uses_anonymous_args = 0
 197              		@ link register save eliminated.
 198              	.LVL14:
  28:FT_Esd_Widgets/Ft_Esd_NumericLabel__Generated.c **** 	context->Parent = 0;
 199              		.loc 1 28 0
 200 0000 0023     		movs	r3, #0
 201 0002 0360     		str	r3, [r0]
  29:FT_Esd_Widgets/Ft_Esd_NumericLabel__Generated.c **** 	context->Theme = Ft_Esd_NumericLabel_Theme__Default;
 202              		.loc 1 29 0
 203 0004 074B     		ldr	r3, .L10
 204 0006 4360     		str	r3, [r0, #4]
  30:FT_Esd_Widgets/Ft_Esd_NumericLabel__Generated.c **** 	context->X = Ft_Esd_NumericLabel_X__Default;
 205              		.loc 1 30 0
 206 0008 074B     		ldr	r3, .L10+4
 207 000a 8360     		str	r3, [r0, #8]
  31:FT_Esd_Widgets/Ft_Esd_NumericLabel__Generated.c **** 	context->Y = Ft_Esd_NumericLabel_Y__Default;
 208              		.loc 1 31 0
 209 000c 074B     		ldr	r3, .L10+8
 210 000e C360     		str	r3, [r0, #12]
ARM GAS  /var/folders/n8/cvzdcwlj0vl4g_wtyz1ffy300000gn/T//ccWKMHJc.s 			page 5


  32:FT_Esd_Widgets/Ft_Esd_NumericLabel__Generated.c **** 	context->Width = Ft_Esd_NumericLabel_Width__Default;
 211              		.loc 1 32 0
 212 0010 074B     		ldr	r3, .L10+12
 213 0012 0361     		str	r3, [r0, #16]
  33:FT_Esd_Widgets/Ft_Esd_NumericLabel__Generated.c **** 	context->Height = Ft_Esd_NumericLabel_Height__Default;
 214              		.loc 1 33 0
 215 0014 074B     		ldr	r3, .L10+16
 216 0016 4361     		str	r3, [r0, #20]
  34:FT_Esd_Widgets/Ft_Esd_NumericLabel__Generated.c **** 	context->Font = Ft_Esd_NumericLabel_Font__Default;
 217              		.loc 1 34 0
 218 0018 074B     		ldr	r3, .L10+20
 219 001a 8361     		str	r3, [r0, #24]
  35:FT_Esd_Widgets/Ft_Esd_NumericLabel__Generated.c **** 	context->Value = Ft_Esd_NumericLabel_Value__Default;
 220              		.loc 1 35 0
 221 001c 074B     		ldr	r3, .L10+24
 222 001e C361     		str	r3, [r0, #28]
  36:FT_Esd_Widgets/Ft_Esd_NumericLabel__Generated.c **** }
 223              		.loc 1 36 0
 224 0020 7047     		bx	lr
 225              	.L11:
 226 0022 00BF     		.align	2
 227              	.L10:
 228 0024 00000000 		.word	Ft_Esd_NumericLabel_Theme__Default
 229 0028 00000000 		.word	Ft_Esd_NumericLabel_X__Default
 230 002c 00000000 		.word	Ft_Esd_NumericLabel_Y__Default
 231 0030 00000000 		.word	Ft_Esd_NumericLabel_Width__Default
 232 0034 00000000 		.word	Ft_Esd_NumericLabel_Height__Default
 233 0038 00000000 		.word	Ft_Esd_NumericLabel_Font__Default
 234 003c 00000000 		.word	Ft_Esd_NumericLabel_Value__Default
 235              		.cfi_endproc
 236              	.LFE30:
 238              		.section	.text.Ft_Esd_NumericLabel_Render,"ax",%progbits
 239              		.align	1
 240              		.global	Ft_Esd_NumericLabel_Render
 241              		.syntax unified
 242              		.thumb
 243              		.thumb_func
 244              		.fpu fpv5-sp-d16
 246              	Ft_Esd_NumericLabel_Render:
 247              	.LFB31:
  37:FT_Esd_Widgets/Ft_Esd_NumericLabel__Generated.c **** 
  38:FT_Esd_Widgets/Ft_Esd_NumericLabel__Generated.c **** ft_void_t Ft_Gpu_CoCmd_Number(Ft_Gpu_Hal_Context_t *, ft_int16_t, ft_int16_t, ft_int16_t, ft_uint16
  39:FT_Esd_Widgets/Ft_Esd_NumericLabel__Generated.c **** 
  40:FT_Esd_Widgets/Ft_Esd_NumericLabel__Generated.c **** void Ft_Esd_NumericLabel_Render(Ft_Esd_NumericLabel *context)
  41:FT_Esd_Widgets/Ft_Esd_NumericLabel__Generated.c **** {
 248              		.loc 1 41 0
 249              		.cfi_startproc
 250              		@ args = 0, pretend = 0, frame = 0
 251              		@ frame_needed = 0, uses_anonymous_args = 0
 252              	.LVL15:
 253 0000 2DE9F043 		push	{r4, r5, r6, r7, r8, r9, lr}
 254              	.LCFI1:
 255              		.cfi_def_cfa_offset 28
 256              		.cfi_offset 4, -28
 257              		.cfi_offset 5, -24
 258              		.cfi_offset 6, -20
 259              		.cfi_offset 7, -16
ARM GAS  /var/folders/n8/cvzdcwlj0vl4g_wtyz1ffy300000gn/T//ccWKMHJc.s 			page 6


 260              		.cfi_offset 8, -12
 261              		.cfi_offset 9, -8
 262              		.cfi_offset 14, -4
 263 0004 83B0     		sub	sp, sp, #12
 264              	.LCFI2:
 265              		.cfi_def_cfa_offset 40
 266 0006 0446     		mov	r4, r0
  42:FT_Esd_Widgets/Ft_Esd_NumericLabel__Generated.c **** 	void *parent = context->Parent;
 267              		.loc 1 42 0
 268 0008 0568     		ldr	r5, [r0]
 269              	.LVL16:
 270              	.LBB10:
 271              	.LBB11:
 272              		.file 2 "FT_Esd_Framework/FT_Esd_Dl.h"
   1:FT_Esd_Framework/FT_Esd_Dl.h **** 
   2:FT_Esd_Framework/FT_Esd_Dl.h **** #ifndef FT_ESD_DL_H
   3:FT_Esd_Framework/FT_Esd_Dl.h **** #define FT_ESD_DL_H
   4:FT_Esd_Framework/FT_Esd_Dl.h **** 
   5:FT_Esd_Framework/FT_Esd_Dl.h **** #include "FT_DataTypes.h"
   6:FT_Esd_Framework/FT_Esd_Dl.h **** #include "FT_Platform.h"
   7:FT_Esd_Framework/FT_Esd_Dl.h **** #include "Ft_Esd.h"
   8:FT_Esd_Framework/FT_Esd_Dl.h **** #include "FT_Gpu.h"
   9:FT_Esd_Framework/FT_Esd_Dl.h **** #include "Ft_Esd_BitmapInfo.h"
  10:FT_Esd_Framework/FT_Esd_Dl.h **** 
  11:FT_Esd_Framework/FT_Esd_Dl.h **** ESD_CATEGORY(EsdUtilities, DisplayName = "ESD Utilities")
  12:FT_Esd_Framework/FT_Esd_Dl.h **** ESD_CATEGORY(EveRenderFunctions, DisplayName = "EVE Render Functions")
  13:FT_Esd_Framework/FT_Esd_Dl.h **** 
  14:FT_Esd_Framework/FT_Esd_Dl.h **** ESD_TYPE(Ft_Gpu_Hal_Context_t *, Native = Pointer, Edit = Library)
  15:FT_Esd_Framework/FT_Esd_Dl.h **** 
  16:FT_Esd_Framework/FT_Esd_Dl.h **** // Keep cache of displaylist values that don't often change but are generally set by every widget t
  17:FT_Esd_Framework/FT_Esd_Dl.h **** #define FT_ESD_OPTIMIZE_DISPLAYLIST 1
  18:FT_Esd_Framework/FT_Esd_Dl.h **** #define FT_ESD_STATE_STACK_SIZE 5
  19:FT_Esd_Framework/FT_Esd_Dl.h **** 
  20:FT_Esd_Framework/FT_Esd_Dl.h **** #define FT_ESD_BITMAPHANDLE_INVALID 255
  21:FT_Esd_Framework/FT_Esd_Dl.h **** 
  22:FT_Esd_Framework/FT_Esd_Dl.h **** //
  23:FT_Esd_Framework/FT_Esd_Dl.h **** // Structs
  24:FT_Esd_Framework/FT_Esd_Dl.h **** //
  25:FT_Esd_Framework/FT_Esd_Dl.h **** #ifdef FT_ESD_OPTIMIZE_DISPLAYLIST
  26:FT_Esd_Framework/FT_Esd_Dl.h **** #define FT_ESD_STATE Ft_Esd_GpuState[Ft_Esd_GpuState_I]
  27:FT_Esd_Framework/FT_Esd_Dl.h **** typedef struct
  28:FT_Esd_Framework/FT_Esd_Dl.h **** {
  29:FT_Esd_Framework/FT_Esd_Dl.h **** 	// Keep to a minimum
  30:FT_Esd_Framework/FT_Esd_Dl.h **** #ifdef FT_81X_ENABLE
  31:FT_Esd_Framework/FT_Esd_Dl.h **** 	ft_uint32_t PaletteSource;
  32:FT_Esd_Framework/FT_Esd_Dl.h **** #endif
  33:FT_Esd_Framework/FT_Esd_Dl.h **** 	ft_uint32_t ColorRGB;
  34:FT_Esd_Framework/FT_Esd_Dl.h **** 	ft_uint8_t ColorA;
  35:FT_Esd_Framework/FT_Esd_Dl.h **** 	ft_uint8_t Handle;         // Current handle
  36:FT_Esd_Framework/FT_Esd_Dl.h **** 	ft_uint8_t Cell;           // Current cell
  37:FT_Esd_Framework/FT_Esd_Dl.h **** 	ft_bool_t BitmapTransform; // BitmapTransform other than default is set
  38:FT_Esd_Framework/FT_Esd_Dl.h **** #ifdef FT_81X_ENABLE
  39:FT_Esd_Framework/FT_Esd_Dl.h **** 	ft_uint8_t VertexFormat;   // Current vertex format
  40:FT_Esd_Framework/FT_Esd_Dl.h **** #endif
  41:FT_Esd_Framework/FT_Esd_Dl.h **** } Ft_Esd_GpuState_T;
  42:FT_Esd_Framework/FT_Esd_Dl.h **** #endif
  43:FT_Esd_Framework/FT_Esd_Dl.h **** 
ARM GAS  /var/folders/n8/cvzdcwlj0vl4g_wtyz1ffy300000gn/T//ccWKMHJc.s 			page 7


  44:FT_Esd_Framework/FT_Esd_Dl.h **** //
  45:FT_Esd_Framework/FT_Esd_Dl.h **** // Globals
  46:FT_Esd_Framework/FT_Esd_Dl.h **** //
  47:FT_Esd_Framework/FT_Esd_Dl.h **** extern Ft_Gpu_Hal_Context_t *Ft_Esd_Host;
  48:FT_Esd_Framework/FT_Esd_Dl.h **** extern ft_uint16_t Ft_Esd_FontHeight[32];
  49:FT_Esd_Framework/FT_Esd_Dl.h **** #ifdef FT_ESD_OPTIMIZE_DISPLAYLIST
  50:FT_Esd_Framework/FT_Esd_Dl.h **** extern Ft_Esd_GpuState_T Ft_Esd_GpuState[FT_ESD_STATE_STACK_SIZE];
  51:FT_Esd_Framework/FT_Esd_Dl.h **** extern ft_uint8_t Ft_Esd_GpuState_I;
  52:FT_Esd_Framework/FT_Esd_Dl.h **** extern ft_uint32_t Ft_Esd_CoFgColor;
  53:FT_Esd_Framework/FT_Esd_Dl.h **** extern ft_uint32_t Ft_Esd_CoBgColor;
  54:FT_Esd_Framework/FT_Esd_Dl.h **** #endif
  55:FT_Esd_Framework/FT_Esd_Dl.h **** 
  56:FT_Esd_Framework/FT_Esd_Dl.h **** //Get the height of builtin font
  57:FT_Esd_Framework/FT_Esd_Dl.h **** ESD_FUNCTION(Ft_Esd_GetFontHeight, Type = ft_uint16_t ,DisplayName = "Get Font Height", Category = 
  58:FT_Esd_Framework/FT_Esd_Dl.h **** ESD_PARAMETER(i, Type = int, DisplayName = "Bitmap Handle", Default = 0, Min = 0, Max = 31)
  59:FT_Esd_Framework/FT_Esd_Dl.h **** // inline static ft_uint16_t Ft_Esd_GetFontHeight(int i) { return Ft_Esd_FontHeight[i]; }
  60:FT_Esd_Framework/FT_Esd_Dl.h **** #define Ft_Esd_GetFontHeight(i) (Ft_Esd_FontHeight[i]);
  61:FT_Esd_Framework/FT_Esd_Dl.h **** 
  62:FT_Esd_Framework/FT_Esd_Dl.h **** // Reset any cached state
  63:FT_Esd_Framework/FT_Esd_Dl.h **** void Ft_Esd_ResetGpuState();
  64:FT_Esd_Framework/FT_Esd_Dl.h **** void Ft_Esd_ResetCoState();
  65:FT_Esd_Framework/FT_Esd_Dl.h **** 
  66:FT_Esd_Framework/FT_Esd_Dl.h **** ft_uint32_t Ft_Esd_BitmapHandle_GetTotalUsed();
  67:FT_Esd_Framework/FT_Esd_Dl.h **** ft_uint32_t Ft_Esd_BitmapHandle_GetTotal();
  68:FT_Esd_Framework/FT_Esd_Dl.h **** 
  69:FT_Esd_Framework/FT_Esd_Dl.h **** /// Set current tag. Must be returned to 255 after usage, to ensure next widgets don't draw with in
  70:FT_Esd_Framework/FT_Esd_Dl.h **** ESD_FUNCTION(Ft_Esd_Dl_TAG, Type = ft_void_t, Category = EveRenderFunctions, Inline)
  71:FT_Esd_Framework/FT_Esd_Dl.h **** ESD_PARAMETER(s, Type = ft_uint8_t, DisplayName = "Tag", Default = 255, Min = 0, Max = 255)
  72:FT_Esd_Framework/FT_Esd_Dl.h **** inline static ft_void_t Ft_Esd_Dl_TAG(ft_uint8_t s)
  73:FT_Esd_Framework/FT_Esd_Dl.h **** {
  74:FT_Esd_Framework/FT_Esd_Dl.h **** 	Ft_Gpu_Hal_WrCmd32(Ft_Esd_Host, TAG(s));
  75:FT_Esd_Framework/FT_Esd_Dl.h **** }
  76:FT_Esd_Framework/FT_Esd_Dl.h **** //Specify color RGB
  77:FT_Esd_Framework/FT_Esd_Dl.h **** ESD_FUNCTION(Ft_Esd_Dl_COLOR_RGB, Type = ft_void_t, Category = EveRenderFunctions, Inline)
  78:FT_Esd_Framework/FT_Esd_Dl.h **** ESD_PARAMETER(c, Type = ft_rgb32_t, DisplayName = "Color")
  79:FT_Esd_Framework/FT_Esd_Dl.h **** inline static ft_void_t Ft_Esd_Dl_COLOR_RGB(ft_rgb32_t c)
  80:FT_Esd_Framework/FT_Esd_Dl.h **** {
  81:FT_Esd_Framework/FT_Esd_Dl.h **** #if FT_ESD_OPTIMIZE_DISPLAYLIST
  82:FT_Esd_Framework/FT_Esd_Dl.h **** 	ft_rgb32_t rgb = c & 0xFFFFFF;
  83:FT_Esd_Framework/FT_Esd_Dl.h **** 	if (rgb != FT_ESD_STATE.ColorRGB)
  84:FT_Esd_Framework/FT_Esd_Dl.h **** 	{
  85:FT_Esd_Framework/FT_Esd_Dl.h **** #endif
  86:FT_Esd_Framework/FT_Esd_Dl.h **** 		Ft_Gpu_Hal_WrCmd32(Ft_Esd_Host, (4UL << 24) | (rgb));
  87:FT_Esd_Framework/FT_Esd_Dl.h **** #if FT_ESD_OPTIMIZE_DISPLAYLIST
  88:FT_Esd_Framework/FT_Esd_Dl.h **** 		FT_ESD_STATE.ColorRGB = rgb;
  89:FT_Esd_Framework/FT_Esd_Dl.h **** 	}
  90:FT_Esd_Framework/FT_Esd_Dl.h **** #endif
  91:FT_Esd_Framework/FT_Esd_Dl.h **** }
  92:FT_Esd_Framework/FT_Esd_Dl.h **** //Specify alpha channel
  93:FT_Esd_Framework/FT_Esd_Dl.h **** ESD_FUNCTION(Ft_Esd_Dl_COLOR_A, Type = ft_void_t, Category = EveRenderFunctions, Inline)
  94:FT_Esd_Framework/FT_Esd_Dl.h **** ESD_PARAMETER(alpha, Type = ft_uint8_t, Default = 255, Min = 0, Max = 255)
  95:FT_Esd_Framework/FT_Esd_Dl.h **** inline static ft_void_t Ft_Esd_Dl_COLOR_A(ft_uint8_t alpha)
  96:FT_Esd_Framework/FT_Esd_Dl.h **** {
  97:FT_Esd_Framework/FT_Esd_Dl.h **** #if FT_ESD_OPTIMIZE_DISPLAYLIST
  98:FT_Esd_Framework/FT_Esd_Dl.h **** 	if (alpha != FT_ESD_STATE.ColorA)
 273              		.loc 2 98 0
 274 000a 294B     		ldr	r3, .L19
ARM GAS  /var/folders/n8/cvzdcwlj0vl4g_wtyz1ffy300000gn/T//ccWKMHJc.s 			page 8


 275 000c 1A78     		ldrb	r2, [r3]	@ zero_extendqisi2
 276 000e 294B     		ldr	r3, .L19+4
 277 0010 03EB0213 		add	r3, r3, r2, lsl #4
 278 0014 1B7A     		ldrb	r3, [r3, #8]	@ zero_extendqisi2
 279 0016 FF2B     		cmp	r3, #255
 280 0018 0BD0     		beq	.L13
  99:FT_Esd_Framework/FT_Esd_Dl.h **** 	{
 100:FT_Esd_Framework/FT_Esd_Dl.h **** #endif
 101:FT_Esd_Framework/FT_Esd_Dl.h **** 		Ft_Gpu_Hal_WrCmd32(Ft_Esd_Host, COLOR_A(alpha));
 281              		.loc 2 101 0
 282 001a 2749     		ldr	r1, .L19+8
 283 001c 274B     		ldr	r3, .L19+12
 284 001e 1868     		ldr	r0, [r3]
 285              	.LVL17:
 286 0020 FFF7FEFF 		bl	Ft_Gpu_Hal_WrCmd32
 287              	.LVL18:
 102:FT_Esd_Framework/FT_Esd_Dl.h **** #if FT_ESD_OPTIMIZE_DISPLAYLIST
 103:FT_Esd_Framework/FT_Esd_Dl.h **** 		FT_ESD_STATE.ColorA = alpha;
 288              		.loc 2 103 0
 289 0024 224B     		ldr	r3, .L19
 290 0026 1A78     		ldrb	r2, [r3]	@ zero_extendqisi2
 291 0028 224B     		ldr	r3, .L19+4
 292 002a 03EB0213 		add	r3, r3, r2, lsl #4
 293 002e FF22     		movs	r2, #255
 294 0030 1A72     		strb	r2, [r3, #8]
 295              	.L13:
 296              	.LVL19:
 297              	.LBE11:
 298              	.LBE10:
  43:FT_Esd_Widgets/Ft_Esd_NumericLabel__Generated.c **** 	ft_uint8_t alpha = 255;
  44:FT_Esd_Widgets/Ft_Esd_NumericLabel__Generated.c **** 	Ft_Esd_Dl_COLOR_A(alpha);
  45:FT_Esd_Widgets/Ft_Esd_NumericLabel__Generated.c **** 	Ft_Esd_Theme * theme = context->Theme(parent);
 299              		.loc 1 45 0
 300 0032 6368     		ldr	r3, [r4, #4]
 301 0034 2846     		mov	r0, r5
 302 0036 9847     		blx	r3
 303              	.LVL20:
 304              	.LBB12:
 305              	.LBB13:
 306              		.file 3 "FT_Esd_Widgets/FT_Esd_Theme.h"
   1:FT_Esd_Widgets/FT_Esd_Theme.h **** 
   2:FT_Esd_Widgets/FT_Esd_Theme.h **** #ifndef FT_ESD_THEME_H
   3:FT_Esd_Widgets/FT_Esd_Theme.h **** #define FT_ESD_THEME_H
   4:FT_Esd_Widgets/FT_Esd_Theme.h **** #include "FT_DataTypes.h"
   5:FT_Esd_Widgets/FT_Esd_Theme.h **** #include "Ft_Esd.h"
   6:FT_Esd_Widgets/FT_Esd_Theme.h **** 
   7:FT_Esd_Widgets/FT_Esd_Theme.h **** ESD_CATEGORY(EsdTheme, DisplayName = "ESD Theme")
   8:FT_Esd_Widgets/FT_Esd_Theme.h **** ESD_CATEGORY(EsdTheme_Themes, DisplayName = "Themes", Category = EsdTheme)
   9:FT_Esd_Widgets/FT_Esd_Theme.h **** 
  10:FT_Esd_Widgets/FT_Esd_Theme.h **** typedef unsigned int ft_uint32_t;
  11:FT_Esd_Widgets/FT_Esd_Theme.h **** 
  12:FT_Esd_Widgets/FT_Esd_Theme.h **** typedef struct
  13:FT_Esd_Widgets/FT_Esd_Theme.h **** {
  14:FT_Esd_Widgets/FT_Esd_Theme.h **** 	ft_rgb32_t ClearColor;
  15:FT_Esd_Widgets/FT_Esd_Theme.h **** 	ft_rgb32_t BackColor;
  16:FT_Esd_Widgets/FT_Esd_Theme.h **** 	ft_rgb32_t TextColor;
  17:FT_Esd_Widgets/FT_Esd_Theme.h **** 	ft_rgb32_t ButtonTextColor;
ARM GAS  /var/folders/n8/cvzdcwlj0vl4g_wtyz1ffy300000gn/T//ccWKMHJc.s 			page 9


  18:FT_Esd_Widgets/FT_Esd_Theme.h **** 	ft_rgb32_t DefaultColor;
  19:FT_Esd_Widgets/FT_Esd_Theme.h **** 	ft_rgb32_t PrimaryColor;
  20:FT_Esd_Widgets/FT_Esd_Theme.h **** } Ft_Esd_Theme;
  21:FT_Esd_Widgets/FT_Esd_Theme.h **** 
  22:FT_Esd_Widgets/FT_Esd_Theme.h **** ESD_TYPE(Ft_Esd_Theme *, Native = Pointer, Edit = Library)
  23:FT_Esd_Widgets/FT_Esd_Theme.h **** 
  24:FT_Esd_Widgets/FT_Esd_Theme.h **** ESD_RENDER(Ft_Esd_Theme_SetCurrent, DisplayName = "Set Current Theme", Category = EsdTheme, Include
  25:FT_Esd_Widgets/FT_Esd_Theme.h **** ESD_PARAMETER(theme, Type = Ft_Esd_Theme *)
  26:FT_Esd_Widgets/FT_Esd_Theme.h **** void Ft_Esd_Theme_SetCurrent(Ft_Esd_Theme *theme);
  27:FT_Esd_Widgets/FT_Esd_Theme.h **** 
  28:FT_Esd_Widgets/FT_Esd_Theme.h **** ESD_FUNCTION(Ft_Esd_Theme_GetCurrent, DisplayName = "Current Theme", Category = EsdTheme, Type = Ft
  29:FT_Esd_Widgets/FT_Esd_Theme.h **** Ft_Esd_Theme *Ft_Esd_Theme_GetCurrent();
  30:FT_Esd_Widgets/FT_Esd_Theme.h **** 
  31:FT_Esd_Widgets/FT_Esd_Theme.h **** ESD_FUNCTION(Ft_Esd_Theme_GetClearColor, DisplayName = "Get Clear Color", Category = EsdTheme, Type
  32:FT_Esd_Widgets/FT_Esd_Theme.h **** ESD_PARAMETER(theme, Type = Ft_Esd_Theme *, Default = Ft_Esd_Theme_GetCurrent)
  33:FT_Esd_Widgets/FT_Esd_Theme.h **** inline static ft_rgb32_t Ft_Esd_Theme_GetClearColor(Ft_Esd_Theme *theme) { if (!theme) return Ft_Es
  34:FT_Esd_Widgets/FT_Esd_Theme.h **** 
  35:FT_Esd_Widgets/FT_Esd_Theme.h **** ESD_FUNCTION(Ft_Esd_Theme_GetBackColor, DisplayName = "Get Back Color", Category = EsdTheme, Type =
  36:FT_Esd_Widgets/FT_Esd_Theme.h **** ESD_PARAMETER(theme, Type = Ft_Esd_Theme *, Default = Ft_Esd_Theme_GetCurrent)
  37:FT_Esd_Widgets/FT_Esd_Theme.h **** inline static ft_rgb32_t Ft_Esd_Theme_GetBackColor(Ft_Esd_Theme *theme) { if (!theme) return Ft_Esd
  38:FT_Esd_Widgets/FT_Esd_Theme.h **** 
  39:FT_Esd_Widgets/FT_Esd_Theme.h **** ESD_FUNCTION(Ft_Esd_Theme_GetTextColor, DisplayName = "Get Text Color", Category = EsdTheme, Type =
  40:FT_Esd_Widgets/FT_Esd_Theme.h **** ESD_PARAMETER(theme, Type = Ft_Esd_Theme *, Default = Ft_Esd_Theme_GetCurrent)
  41:FT_Esd_Widgets/FT_Esd_Theme.h **** inline static ft_rgb32_t Ft_Esd_Theme_GetTextColor(Ft_Esd_Theme *theme) { if (!theme) return Ft_Esd
 307              		.loc 3 41 0
 308 0038 0028     		cmp	r0, #0
 309 003a 34D0     		beq	.L18
 310 003c 8668     		ldr	r6, [r0, #8]
 311              	.LVL21:
 312              	.L15:
 313              	.LBE13:
 314              	.LBE12:
 315              	.LBB15:
 316              	.LBB16:
  82:FT_Esd_Framework/FT_Esd_Dl.h **** 	if (rgb != FT_ESD_STATE.ColorRGB)
 317              		.loc 2 82 0
 318 003e 26F07F46 		bic	r6, r6, #-16777216
 319              	.LVL22:
  83:FT_Esd_Framework/FT_Esd_Dl.h **** 	{
 320              		.loc 2 83 0
 321 0042 1B4B     		ldr	r3, .L19
 322 0044 1A78     		ldrb	r2, [r3]	@ zero_extendqisi2
 323 0046 1B4B     		ldr	r3, .L19+4
 324 0048 03EB0213 		add	r3, r3, r2, lsl #4
 325 004c 5B68     		ldr	r3, [r3, #4]
 326 004e 9E42     		cmp	r6, r3
 327 0050 0BD0     		beq	.L16
  86:FT_Esd_Framework/FT_Esd_Dl.h **** #if FT_ESD_OPTIMIZE_DISPLAYLIST
 328              		.loc 2 86 0
 329 0052 46F08061 		orr	r1, r6, #67108864
 330 0056 194B     		ldr	r3, .L19+12
 331 0058 1868     		ldr	r0, [r3]
 332 005a FFF7FEFF 		bl	Ft_Gpu_Hal_WrCmd32
 333              	.LVL23:
  88:FT_Esd_Framework/FT_Esd_Dl.h **** 	}
 334              		.loc 2 88 0
 335 005e 144B     		ldr	r3, .L19
ARM GAS  /var/folders/n8/cvzdcwlj0vl4g_wtyz1ffy300000gn/T//ccWKMHJc.s 			page 10


 336 0060 1A78     		ldrb	r2, [r3]	@ zero_extendqisi2
 337 0062 144B     		ldr	r3, .L19+4
 338 0064 03EB0213 		add	r3, r3, r2, lsl #4
 339 0068 5E60     		str	r6, [r3, #4]
 340              	.L16:
 341              	.LVL24:
 342              	.LBE16:
 343              	.LBE15:
  46:FT_Esd_Widgets/Ft_Esd_NumericLabel__Generated.c **** 	ft_rgb32_t c = Ft_Esd_Theme_GetTextColor(theme);
  47:FT_Esd_Widgets/Ft_Esd_NumericLabel__Generated.c **** 	Ft_Esd_Dl_COLOR_RGB(c);
  48:FT_Esd_Widgets/Ft_Esd_NumericLabel__Generated.c **** 	Ft_Gpu_Hal_Context_t * phost = Ft_Esd_GetHost();
 344              		.loc 1 48 0
 345 006a FFF7FEFF 		bl	Ft_Esd_GetHost
 346              	.LVL25:
 347 006e 0646     		mov	r6, r0
 348              	.LVL26:
  49:FT_Esd_Widgets/Ft_Esd_NumericLabel__Generated.c **** 	ft_int16_t x = context->X(parent);
 349              		.loc 1 49 0
 350 0070 A368     		ldr	r3, [r4, #8]
 351 0072 2846     		mov	r0, r5
 352              	.LVL27:
 353 0074 9847     		blx	r3
 354              	.LVL28:
 355 0076 0746     		mov	r7, r0
 356              	.LVL29:
  50:FT_Esd_Widgets/Ft_Esd_NumericLabel__Generated.c **** 	ft_int16_t y = context->Y(parent);
 357              		.loc 1 50 0
 358 0078 E368     		ldr	r3, [r4, #12]
 359 007a 2846     		mov	r0, r5
 360 007c 9847     		blx	r3
 361              	.LVL30:
 362 007e 8046     		mov	r8, r0
 363              	.LVL31:
  51:FT_Esd_Widgets/Ft_Esd_NumericLabel__Generated.c **** 	ft_int16_t font = context->Font(parent);
 364              		.loc 1 51 0
 365 0080 A369     		ldr	r3, [r4, #24]
 366 0082 2846     		mov	r0, r5
 367 0084 9847     		blx	r3
 368              	.LVL32:
 369 0086 8146     		mov	r9, r0
 370              	.LVL33:
  52:FT_Esd_Widgets/Ft_Esd_NumericLabel__Generated.c **** 	ft_uint16_t options = 0;
  53:FT_Esd_Widgets/Ft_Esd_NumericLabel__Generated.c **** 	ft_int32_t n = context->Value(parent);
 371              		.loc 1 53 0
 372 0088 E369     		ldr	r3, [r4, #28]
 373 008a 2846     		mov	r0, r5
 374 008c 9847     		blx	r3
 375              	.LVL34:
  54:FT_Esd_Widgets/Ft_Esd_NumericLabel__Generated.c **** 	Ft_Gpu_CoCmd_Number(phost, x, y, font, options, n);
 376              		.loc 1 54 0
 377 008e 0190     		str	r0, [sp, #4]
 378 0090 0023     		movs	r3, #0
 379 0092 0093     		str	r3, [sp]
 380 0094 4B46     		mov	r3, r9
 381 0096 4246     		mov	r2, r8
 382 0098 3946     		mov	r1, r7
 383 009a 3046     		mov	r0, r6
ARM GAS  /var/folders/n8/cvzdcwlj0vl4g_wtyz1ffy300000gn/T//ccWKMHJc.s 			page 11


 384              	.LVL35:
 385 009c FFF7FEFF 		bl	Ft_Gpu_CoCmd_Number
 386              	.LVL36:
  55:FT_Esd_Widgets/Ft_Esd_NumericLabel__Generated.c **** }
 387              		.loc 1 55 0
 388 00a0 03B0     		add	sp, sp, #12
 389              	.LCFI3:
 390              		.cfi_remember_state
 391              		.cfi_def_cfa_offset 28
 392              		@ sp needed
 393 00a2 BDE8F083 		pop	{r4, r5, r6, r7, r8, r9, pc}
 394              	.LVL37:
 395              	.L18:
 396              	.LCFI4:
 397              		.cfi_restore_state
 398              	.LBB17:
 399              	.LBB14:
 400              		.loc 3 41 0
 401 00a6 FFF7FEFF 		bl	Ft_Esd_Theme_GetCurrent
 402              	.LVL38:
 403 00aa 8668     		ldr	r6, [r0, #8]
 404 00ac C7E7     		b	.L15
 405              	.L20:
 406 00ae 00BF     		.align	2
 407              	.L19:
 408 00b0 00000000 		.word	Ft_Esd_GpuState_I
 409 00b4 00000000 		.word	Ft_Esd_GpuState
 410 00b8 FF000010 		.word	268435711
 411 00bc 00000000 		.word	Ft_Esd_Host
 412              	.LBE14:
 413              	.LBE17:
 414              		.cfi_endproc
 415              	.LFE31:
 417              		.text
 418              	.Letext0:
 419              		.file 4 "FT_Eve_Hal/FT_DataTypes.h"
 420              		.file 5 "/usr/local/Cellar/arm-none-eabi-gcc/20180627/arm-none-eabi/include/sys/lock.h"
 421              		.file 6 "/usr/local/Cellar/arm-none-eabi-gcc/20180627/arm-none-eabi/include/sys/_types.h"
 422              		.file 7 "/usr/local/Cellar/arm-none-eabi-gcc/20180627/lib/gcc/arm-none-eabi/7.3.1/include/stddef.h
 423              		.file 8 "/usr/local/Cellar/arm-none-eabi-gcc/20180627/arm-none-eabi/include/sys/unistd.h"
 424              		.file 9 "/usr/local/Cellar/arm-none-eabi-gcc/20180627/arm-none-eabi/include/sys/reent.h"
 425              		.file 10 "/usr/local/Cellar/arm-none-eabi-gcc/20180627/arm-none-eabi/include/stdlib.h"
 426              		.file 11 "FT_Eve_Hal/FT_Gpu_Hal.h"
 427              		.file 12 "FT_Esd_Framework/Ft_Esd.h"
 428              		.file 13 "FT_Esd_Widgets/Ft_Esd_DefaultTheme.h"
 429              		.file 14 "FT_Esd_Widgets/Ft_Esd_NumericLabel.h"
 430              		.file 15 "FT_Esd_Framework/FT_Esd_CoPro_Cmds.h"
ARM GAS  /var/folders/n8/cvzdcwlj0vl4g_wtyz1ffy300000gn/T//ccWKMHJc.s 			page 12

