ARM GAS  /var/folders/n8/cvzdcwlj0vl4g_wtyz1ffy300000gn/T//ccVTzMSt.s 			page 1


   1              		.cpu cortex-m7
   2              		.eabi_attribute 27, 1
   3              		.eabi_attribute 28, 1
   4              		.eabi_attribute 20, 1
   5              		.eabi_attribute 21, 1
   6              		.eabi_attribute 23, 3
   7              		.eabi_attribute 24, 1
   8              		.eabi_attribute 25, 1
   9              		.eabi_attribute 26, 1
  10              		.eabi_attribute 30, 1
  11              		.eabi_attribute 34, 1
  12              		.eabi_attribute 18, 4
  13              		.file	"Ft_Esd_Rectangle__Generated.c"
  14              		.text
  15              	.Ltext0:
  16              		.cfi_sections	.debug_frame
  17              		.section	.text.Ft_Esd_Rectangle_X__Default,"ax",%progbits
  18              		.align	1
  19              		.global	Ft_Esd_Rectangle_X__Default
  20              		.syntax unified
  21              		.thumb
  22              		.thumb_func
  23              		.fpu fpv5-sp-d16
  25              	Ft_Esd_Rectangle_X__Default:
  26              	.LFB26:
  27              		.file 1 "FT_Esd_Widgets/Ft_Esd_Rectangle__Generated.c"
   1:FT_Esd_Widgets/Ft_Esd_Rectangle__Generated.c **** /*
   2:FT_Esd_Widgets/Ft_Esd_Rectangle__Generated.c **** This file is automatically generated
   3:FT_Esd_Widgets/Ft_Esd_Rectangle__Generated.c **** Ft_Esd_Rectangle
   4:FT_Esd_Widgets/Ft_Esd_Rectangle__Generated.c **** C Source
   5:FT_Esd_Widgets/Ft_Esd_Rectangle__Generated.c **** */
   6:FT_Esd_Widgets/Ft_Esd_Rectangle__Generated.c **** 
   7:FT_Esd_Widgets/Ft_Esd_Rectangle__Generated.c **** #include "Ft_Esd_Rectangle.h"
   8:FT_Esd_Widgets/Ft_Esd_Rectangle__Generated.c **** 
   9:FT_Esd_Widgets/Ft_Esd_Rectangle__Generated.c **** #include "FT_Esd_Primitives.h"
  10:FT_Esd_Widgets/Ft_Esd_Rectangle__Generated.c **** 
  11:FT_Esd_Widgets/Ft_Esd_Rectangle__Generated.c **** extern void Ft_Esd_Noop(void *context);
  12:FT_Esd_Widgets/Ft_Esd_Rectangle__Generated.c **** ft_int16_t Ft_Esd_Rectangle_X__Default(void *context) { return 0; }
  28              		.loc 1 12 0
  29              		.cfi_startproc
  30              		@ args = 0, pretend = 0, frame = 0
  31              		@ frame_needed = 0, uses_anonymous_args = 0
  32              		@ link register save eliminated.
  33              	.LVL0:
  34              		.loc 1 12 0
  35 0000 0020     		movs	r0, #0
  36              	.LVL1:
  37 0002 7047     		bx	lr
  38              		.cfi_endproc
  39              	.LFE26:
  41              		.section	.text.Ft_Esd_Rectangle_Y__Default,"ax",%progbits
  42              		.align	1
  43              		.global	Ft_Esd_Rectangle_Y__Default
  44              		.syntax unified
  45              		.thumb
  46              		.thumb_func
  47              		.fpu fpv5-sp-d16
ARM GAS  /var/folders/n8/cvzdcwlj0vl4g_wtyz1ffy300000gn/T//ccVTzMSt.s 			page 2


  49              	Ft_Esd_Rectangle_Y__Default:
  50              	.LFB27:
  13:FT_Esd_Widgets/Ft_Esd_Rectangle__Generated.c **** ft_int16_t Ft_Esd_Rectangle_Y__Default(void *context) { return 0; }
  51              		.loc 1 13 0
  52              		.cfi_startproc
  53              		@ args = 0, pretend = 0, frame = 0
  54              		@ frame_needed = 0, uses_anonymous_args = 0
  55              		@ link register save eliminated.
  56              	.LVL2:
  57              		.loc 1 13 0
  58 0000 0020     		movs	r0, #0
  59              	.LVL3:
  60 0002 7047     		bx	lr
  61              		.cfi_endproc
  62              	.LFE27:
  64              		.section	.text.Ft_Esd_Rectangle_Width__Default,"ax",%progbits
  65              		.align	1
  66              		.global	Ft_Esd_Rectangle_Width__Default
  67              		.syntax unified
  68              		.thumb
  69              		.thumb_func
  70              		.fpu fpv5-sp-d16
  72              	Ft_Esd_Rectangle_Width__Default:
  73              	.LFB28:
  14:FT_Esd_Widgets/Ft_Esd_Rectangle__Generated.c **** ft_int16_t Ft_Esd_Rectangle_Width__Default(void *context) { return 80; }
  74              		.loc 1 14 0
  75              		.cfi_startproc
  76              		@ args = 0, pretend = 0, frame = 0
  77              		@ frame_needed = 0, uses_anonymous_args = 0
  78              		@ link register save eliminated.
  79              	.LVL4:
  80              		.loc 1 14 0
  81 0000 5020     		movs	r0, #80
  82              	.LVL5:
  83 0002 7047     		bx	lr
  84              		.cfi_endproc
  85              	.LFE28:
  87              		.section	.text.Ft_Esd_Rectangle_Height__Default,"ax",%progbits
  88              		.align	1
  89              		.global	Ft_Esd_Rectangle_Height__Default
  90              		.syntax unified
  91              		.thumb
  92              		.thumb_func
  93              		.fpu fpv5-sp-d16
  95              	Ft_Esd_Rectangle_Height__Default:
  96              	.LFB29:
  15:FT_Esd_Widgets/Ft_Esd_Rectangle__Generated.c **** ft_int16_t Ft_Esd_Rectangle_Height__Default(void *context) { return 36; }
  97              		.loc 1 15 0
  98              		.cfi_startproc
  99              		@ args = 0, pretend = 0, frame = 0
 100              		@ frame_needed = 0, uses_anonymous_args = 0
 101              		@ link register save eliminated.
 102              	.LVL6:
 103              		.loc 1 15 0
 104 0000 2420     		movs	r0, #36
 105              	.LVL7:
 106 0002 7047     		bx	lr
ARM GAS  /var/folders/n8/cvzdcwlj0vl4g_wtyz1ffy300000gn/T//ccVTzMSt.s 			page 3


 107              		.cfi_endproc
 108              	.LFE29:
 110              		.section	.text.Ft_Esd_Rectangle_Radius__Default,"ax",%progbits
 111              		.align	1
 112              		.global	Ft_Esd_Rectangle_Radius__Default
 113              		.syntax unified
 114              		.thumb
 115              		.thumb_func
 116              		.fpu fpv5-sp-d16
 118              	Ft_Esd_Rectangle_Radius__Default:
 119              	.LFB30:
  16:FT_Esd_Widgets/Ft_Esd_Rectangle__Generated.c **** ft_int16_t Ft_Esd_Rectangle_Radius__Default(void *context) { return 4; }
 120              		.loc 1 16 0
 121              		.cfi_startproc
 122              		@ args = 0, pretend = 0, frame = 0
 123              		@ frame_needed = 0, uses_anonymous_args = 0
 124              		@ link register save eliminated.
 125              	.LVL8:
 126              		.loc 1 16 0
 127 0000 0420     		movs	r0, #4
 128              	.LVL9:
 129 0002 7047     		bx	lr
 130              		.cfi_endproc
 131              	.LFE30:
 133              		.section	.text.Ft_Esd_Rectangle_Color__Default,"ax",%progbits
 134              		.align	1
 135              		.global	Ft_Esd_Rectangle_Color__Default
 136              		.syntax unified
 137              		.thumb
 138              		.thumb_func
 139              		.fpu fpv5-sp-d16
 141              	Ft_Esd_Rectangle_Color__Default:
 142              	.LFB31:
  17:FT_Esd_Widgets/Ft_Esd_Rectangle__Generated.c **** ft_argb32_t Ft_Esd_Rectangle_Color__Default(void *context) { return 0xffffffffUL; }
 143              		.loc 1 17 0
 144              		.cfi_startproc
 145              		@ args = 0, pretend = 0, frame = 0
 146              		@ frame_needed = 0, uses_anonymous_args = 0
 147              		@ link register save eliminated.
 148              	.LVL10:
 149              		.loc 1 17 0
 150 0000 4FF0FF30 		mov	r0, #-1
 151              	.LVL11:
 152 0004 7047     		bx	lr
 153              		.cfi_endproc
 154              	.LFE31:
 156              		.section	.text.Ft_Esd_Rectangle__Initializer,"ax",%progbits
 157              		.align	1
 158              		.global	Ft_Esd_Rectangle__Initializer
 159              		.syntax unified
 160              		.thumb
 161              		.thumb_func
 162              		.fpu fpv5-sp-d16
 164              	Ft_Esd_Rectangle__Initializer:
 165              	.LFB32:
  18:FT_Esd_Widgets/Ft_Esd_Rectangle__Generated.c **** 
  19:FT_Esd_Widgets/Ft_Esd_Rectangle__Generated.c **** 
ARM GAS  /var/folders/n8/cvzdcwlj0vl4g_wtyz1ffy300000gn/T//ccVTzMSt.s 			page 4


  20:FT_Esd_Widgets/Ft_Esd_Rectangle__Generated.c **** 
  21:FT_Esd_Widgets/Ft_Esd_Rectangle__Generated.c **** void Ft_Esd_Rectangle__Initializer(Ft_Esd_Rectangle *context)
  22:FT_Esd_Widgets/Ft_Esd_Rectangle__Generated.c **** {
 166              		.loc 1 22 0
 167              		.cfi_startproc
 168              		@ args = 0, pretend = 0, frame = 0
 169              		@ frame_needed = 0, uses_anonymous_args = 0
 170              		@ link register save eliminated.
 171              	.LVL12:
  23:FT_Esd_Widgets/Ft_Esd_Rectangle__Generated.c **** 	context->Parent = 0;
 172              		.loc 1 23 0
 173 0000 0023     		movs	r3, #0
 174 0002 0360     		str	r3, [r0]
  24:FT_Esd_Widgets/Ft_Esd_Rectangle__Generated.c **** 	context->X = Ft_Esd_Rectangle_X__Default;
 175              		.loc 1 24 0
 176 0004 064B     		ldr	r3, .L8
 177 0006 4360     		str	r3, [r0, #4]
  25:FT_Esd_Widgets/Ft_Esd_Rectangle__Generated.c **** 	context->Y = Ft_Esd_Rectangle_Y__Default;
 178              		.loc 1 25 0
 179 0008 064B     		ldr	r3, .L8+4
 180 000a 8360     		str	r3, [r0, #8]
  26:FT_Esd_Widgets/Ft_Esd_Rectangle__Generated.c **** 	context->Width = Ft_Esd_Rectangle_Width__Default;
 181              		.loc 1 26 0
 182 000c 064B     		ldr	r3, .L8+8
 183 000e C360     		str	r3, [r0, #12]
  27:FT_Esd_Widgets/Ft_Esd_Rectangle__Generated.c **** 	context->Height = Ft_Esd_Rectangle_Height__Default;
 184              		.loc 1 27 0
 185 0010 064B     		ldr	r3, .L8+12
 186 0012 0361     		str	r3, [r0, #16]
  28:FT_Esd_Widgets/Ft_Esd_Rectangle__Generated.c **** 	context->Radius = Ft_Esd_Rectangle_Radius__Default;
 187              		.loc 1 28 0
 188 0014 064B     		ldr	r3, .L8+16
 189 0016 4361     		str	r3, [r0, #20]
  29:FT_Esd_Widgets/Ft_Esd_Rectangle__Generated.c **** 	context->Color = Ft_Esd_Rectangle_Color__Default;
 190              		.loc 1 29 0
 191 0018 064B     		ldr	r3, .L8+20
 192 001a 8361     		str	r3, [r0, #24]
  30:FT_Esd_Widgets/Ft_Esd_Rectangle__Generated.c **** }
 193              		.loc 1 30 0
 194 001c 7047     		bx	lr
 195              	.L9:
 196 001e 00BF     		.align	2
 197              	.L8:
 198 0020 00000000 		.word	Ft_Esd_Rectangle_X__Default
 199 0024 00000000 		.word	Ft_Esd_Rectangle_Y__Default
 200 0028 00000000 		.word	Ft_Esd_Rectangle_Width__Default
 201 002c 00000000 		.word	Ft_Esd_Rectangle_Height__Default
 202 0030 00000000 		.word	Ft_Esd_Rectangle_Radius__Default
 203 0034 00000000 		.word	Ft_Esd_Rectangle_Color__Default
 204              		.cfi_endproc
 205              	.LFE32:
 207              		.section	.text.Ft_Esd_Rectangle_Render,"ax",%progbits
 208              		.align	1
 209              		.global	Ft_Esd_Rectangle_Render
 210              		.syntax unified
 211              		.thumb
 212              		.thumb_func
ARM GAS  /var/folders/n8/cvzdcwlj0vl4g_wtyz1ffy300000gn/T//ccVTzMSt.s 			page 5


 213              		.fpu fpv5-sp-d16
 215              	Ft_Esd_Rectangle_Render:
 216              	.LFB33:
  31:FT_Esd_Widgets/Ft_Esd_Rectangle__Generated.c **** 
  32:FT_Esd_Widgets/Ft_Esd_Rectangle__Generated.c **** 
  33:FT_Esd_Widgets/Ft_Esd_Rectangle__Generated.c **** void Ft_Esd_Rectangle_Render(Ft_Esd_Rectangle *context)
  34:FT_Esd_Widgets/Ft_Esd_Rectangle__Generated.c **** {
 217              		.loc 1 34 0
 218              		.cfi_startproc
 219              		@ args = 0, pretend = 0, frame = 0
 220              		@ frame_needed = 0, uses_anonymous_args = 0
 221              	.LVL13:
 222 0000 2DE9F043 		push	{r4, r5, r6, r7, r8, r9, lr}
 223              	.LCFI0:
 224              		.cfi_def_cfa_offset 28
 225              		.cfi_offset 4, -28
 226              		.cfi_offset 5, -24
 227              		.cfi_offset 6, -20
 228              		.cfi_offset 7, -16
 229              		.cfi_offset 8, -12
 230              		.cfi_offset 9, -8
 231              		.cfi_offset 14, -4
 232 0004 83B0     		sub	sp, sp, #12
 233              	.LCFI1:
 234              		.cfi_def_cfa_offset 40
 235 0006 0446     		mov	r4, r0
  35:FT_Esd_Widgets/Ft_Esd_Rectangle__Generated.c **** 	void *parent = context->Parent;
 236              		.loc 1 35 0
 237 0008 0568     		ldr	r5, [r0]
 238              	.LVL14:
  36:FT_Esd_Widgets/Ft_Esd_Rectangle__Generated.c **** 	ft_int16_t x = context->X(parent);
 239              		.loc 1 36 0
 240 000a 4368     		ldr	r3, [r0, #4]
 241 000c 2846     		mov	r0, r5
 242              	.LVL15:
 243 000e 9847     		blx	r3
 244              	.LVL16:
 245 0010 0646     		mov	r6, r0
 246              	.LVL17:
  37:FT_Esd_Widgets/Ft_Esd_Rectangle__Generated.c **** 	ft_int16_t y = context->Y(parent);
 247              		.loc 1 37 0
 248 0012 A368     		ldr	r3, [r4, #8]
 249 0014 2846     		mov	r0, r5
 250 0016 9847     		blx	r3
 251              	.LVL18:
 252 0018 0746     		mov	r7, r0
 253              	.LVL19:
  38:FT_Esd_Widgets/Ft_Esd_Rectangle__Generated.c **** 	ft_int16_t width = context->Width(parent);
 254              		.loc 1 38 0
 255 001a E368     		ldr	r3, [r4, #12]
 256 001c 2846     		mov	r0, r5
 257 001e 9847     		blx	r3
 258              	.LVL20:
 259 0020 8046     		mov	r8, r0
 260              	.LVL21:
  39:FT_Esd_Widgets/Ft_Esd_Rectangle__Generated.c **** 	ft_int16_t height = context->Height(parent);
 261              		.loc 1 39 0
ARM GAS  /var/folders/n8/cvzdcwlj0vl4g_wtyz1ffy300000gn/T//ccVTzMSt.s 			page 6


 262 0022 2369     		ldr	r3, [r4, #16]
 263 0024 2846     		mov	r0, r5
 264 0026 9847     		blx	r3
 265              	.LVL22:
 266 0028 8146     		mov	r9, r0
 267              	.LVL23:
  40:FT_Esd_Widgets/Ft_Esd_Rectangle__Generated.c **** 	ft_int32_t radius = 4L;
  41:FT_Esd_Widgets/Ft_Esd_Rectangle__Generated.c **** 	ft_argb32_t color = context->Color(parent);
 268              		.loc 1 41 0
 269 002a A369     		ldr	r3, [r4, #24]
 270 002c 2846     		mov	r0, r5
 271 002e 9847     		blx	r3
 272              	.LVL24:
 273              	.LBB4:
 274              	.LBB5:
 275              		.file 2 "FT_Esd_Framework/FT_Esd_Primitives.h"
   1:FT_Esd_Framework/FT_Esd_Primitives.h **** 
   2:FT_Esd_Framework/FT_Esd_Primitives.h **** #ifndef FT_ESD_PRIMITIVES_H
   3:FT_Esd_Framework/FT_Esd_Primitives.h **** #define FT_ESD_PRIMITIVES_H
   4:FT_Esd_Framework/FT_Esd_Primitives.h **** 
   5:FT_Esd_Framework/FT_Esd_Primitives.h **** #include "Ft_Esd.h"
   6:FT_Esd_Framework/FT_Esd_Primitives.h **** #include "Ft_Esd_Theme.h"
   7:FT_Esd_Framework/FT_Esd_Primitives.h **** #include "Ft_Esd_DefaultTheme.h"
   8:FT_Esd_Framework/FT_Esd_Primitives.h **** #include "Ft_Esd_BitmapInfo.h"
   9:FT_Esd_Framework/FT_Esd_Primitives.h **** 
  10:FT_Esd_Framework/FT_Esd_Primitives.h **** // Ft_Esd_Render_Rectangle
  11:FT_Esd_Framework/FT_Esd_Primitives.h **** // Ft_Esd_Render_Line
  12:FT_Esd_Framework/FT_Esd_Primitives.h **** // Ft_Esd_Render_Point
  13:FT_Esd_Framework/FT_Esd_Primitives.h **** // Ft_Esd_Render_Bitmap
  14:FT_Esd_Framework/FT_Esd_Primitives.h **** // Ft_Esd_Render_LineStrip
  15:FT_Esd_Framework/FT_Esd_Primitives.h **** // Ft_Esd_Render_EdgeStrip
  16:FT_Esd_Framework/FT_Esd_Primitives.h **** 
  17:FT_Esd_Framework/FT_Esd_Primitives.h **** ESD_CATEGORY(EsdWidgets, DisplayName = "ESD Widgets")
  18:FT_Esd_Framework/FT_Esd_Primitives.h **** ESD_CATEGORY(EsdElements, DisplayName = "Elements", Category = EsdWidgets)
  19:FT_Esd_Framework/FT_Esd_Primitives.h **** ESD_CATEGORY(EsdPrimitives, DisplayName = "ESD Primitives")
  20:FT_Esd_Framework/FT_Esd_Primitives.h **** 
  21:FT_Esd_Framework/FT_Esd_Primitives.h **** // TODO: Hooking RGB to ARGB should automatically 0xFF the alpha channel in the code generation
  22:FT_Esd_Framework/FT_Esd_Primitives.h **** ESD_FUNCTION(Ft_Esd_ColorARGB_Combine, Type = ft_argb32_t, DisplayName = "Color A+RGB Combine", Cat
  23:FT_Esd_Framework/FT_Esd_Primitives.h **** ESD_PARAMETER(rgb, Type = ft_rgb32_t, Default = #FFFFFF)
  24:FT_Esd_Framework/FT_Esd_Primitives.h **** ESD_PARAMETER(a, Type = ft_uint8_t, Default = 255)
  25:FT_Esd_Framework/FT_Esd_Primitives.h **** static inline ft_argb32_t Ft_Esd_ColorARGB_Combine(ft_rgb32_t rgb, ft_uint8_t a)
  26:FT_Esd_Framework/FT_Esd_Primitives.h **** { return (rgb & 0xFFFFFF) | (((ft_argb32_t)a) << 24); }
  27:FT_Esd_Framework/FT_Esd_Primitives.h **** 
  28:FT_Esd_Framework/FT_Esd_Primitives.h **** // Basic bitmap rendering
  29:FT_Esd_Framework/FT_Esd_Primitives.h **** ESD_RENDER(Ft_Esd_Render_Bitmap, Type = ft_void_t, DisplayName = "ESD Bitmap", Category = EsdPrimit
  30:FT_Esd_Framework/FT_Esd_Primitives.h **** ESD_PARAMETER(x, Type = ft_int16_t, Default = 0)
  31:FT_Esd_Framework/FT_Esd_Primitives.h **** ESD_PARAMETER(y, Type = ft_int16_t, Default = 0)
  32:FT_Esd_Framework/FT_Esd_Primitives.h **** ESD_PARAMETER(bitmapCell, Type = Ft_Esd_BitmapCell *, DisplayName = "Bitmap Cell")
  33:FT_Esd_Framework/FT_Esd_Primitives.h **** // Color to be multiplied with bitmap color, can be used for alpha fade for example
  34:FT_Esd_Framework/FT_Esd_Primitives.h **** ESD_PARAMETER(c, Type = ft_argb32_t, DisplayName = "Color", Default = #FFFFFFFF)
  35:FT_Esd_Framework/FT_Esd_Primitives.h **** ft_void_t Ft_Esd_Render_Bitmap(ft_int16_t x, ft_int16_t y, Ft_Esd_BitmapCell *bitmapCell, ft_argb32
  36:FT_Esd_Framework/FT_Esd_Primitives.h **** 
  37:FT_Esd_Framework/FT_Esd_Primitives.h **** // Scaled bitmap rendering
  38:FT_Esd_Framework/FT_Esd_Primitives.h **** ESD_RENDER(Ft_Esd_Render_BitmapScaled, Type = ft_void_t, DisplayName = "ESD Bitmap Scaled", Categor
  39:FT_Esd_Framework/FT_Esd_Primitives.h **** ESD_PARAMETER(x, Type = ft_int16_t, Default = 0)
  40:FT_Esd_Framework/FT_Esd_Primitives.h **** ESD_PARAMETER(y, Type = ft_int16_t, Default = 0)
  41:FT_Esd_Framework/FT_Esd_Primitives.h **** ESD_PARAMETER(bitmapCell, Type = Ft_Esd_BitmapCell *, DisplayName = "Bitmap Cell")
ARM GAS  /var/folders/n8/cvzdcwlj0vl4g_wtyz1ffy300000gn/T//ccVTzMSt.s 			page 7


  42:FT_Esd_Framework/FT_Esd_Primitives.h **** // Color to be multiplied with bitmap color, can be used for alpha fade for example
  43:FT_Esd_Framework/FT_Esd_Primitives.h **** ESD_PARAMETER(c, Type = ft_argb32_t, DisplayName = "Color", Default = #FFFFFFFF)
  44:FT_Esd_Framework/FT_Esd_Primitives.h **** // Horizontal scaling factor
  45:FT_Esd_Framework/FT_Esd_Primitives.h **** ESD_PARAMETER(xscale, Type = ft_int32_f16_t, DisplayName = "Horizontal Scale", Default = 1)
  46:FT_Esd_Framework/FT_Esd_Primitives.h **** // Vertical scaling factor
  47:FT_Esd_Framework/FT_Esd_Primitives.h **** ESD_PARAMETER(yscale, Type = ft_int32_f16_t, DisplayName = "Vertical Scale", Default = 1)
  48:FT_Esd_Framework/FT_Esd_Primitives.h **** // Horizontal offset
  49:FT_Esd_Framework/FT_Esd_Primitives.h **** ESD_PARAMETER(xoffset, Type = ft_int32_f16_t, DisplayName = "X Offset", Default = 0)
  50:FT_Esd_Framework/FT_Esd_Primitives.h **** // Vertical offset
  51:FT_Esd_Framework/FT_Esd_Primitives.h **** ESD_PARAMETER(yoffset, Type = ft_int32_f16_t, DisplayName = "Y Offset", Default = 0)
  52:FT_Esd_Framework/FT_Esd_Primitives.h **** // Width used as rendering boundary
  53:FT_Esd_Framework/FT_Esd_Primitives.h **** ESD_PARAMETER(width, Type = ft_int16_t, DisplayName = "Render Width", Default = 200)
  54:FT_Esd_Framework/FT_Esd_Primitives.h **** // Height used as rendering boundary
  55:FT_Esd_Framework/FT_Esd_Primitives.h **** ESD_PARAMETER(height, Type = ft_int16_t, DisplayName = "Render Height", Default = 100)
  56:FT_Esd_Framework/FT_Esd_Primitives.h **** ft_void_t Ft_Esd_Render_BitmapScaled(ft_int16_t x, ft_int16_t y, Ft_Esd_BitmapCell *bitmapCell, ft_
  57:FT_Esd_Framework/FT_Esd_Primitives.h **** 
  58:FT_Esd_Framework/FT_Esd_Primitives.h **** 
  59:FT_Esd_Framework/FT_Esd_Primitives.h **** // Rotated bitmap rendering
  60:FT_Esd_Framework/FT_Esd_Primitives.h **** ESD_RENDER(Ft_Esd_Render_BitmapRotate, Type = ft_void_t, DisplayName = "ESD Bitmap Rotated", Catego
  61:FT_Esd_Framework/FT_Esd_Primitives.h **** ESD_PARAMETER(x, Type = ft_int16_t, Default = 0)
  62:FT_Esd_Framework/FT_Esd_Primitives.h **** ESD_PARAMETER(y, Type = ft_int16_t, Default = 0)
  63:FT_Esd_Framework/FT_Esd_Primitives.h **** ESD_PARAMETER(bitmapCell, Type = Ft_Esd_BitmapCell *, DisplayName = "Bitmap Cell")
  64:FT_Esd_Framework/FT_Esd_Primitives.h **** // Color to be multiplied with bitmap color, can be used for alpha fade for example
  65:FT_Esd_Framework/FT_Esd_Primitives.h **** ESD_PARAMETER(c, Type = ft_argb32_t, DisplayName = "Color", Default = #FFFFFFFF)
  66:FT_Esd_Framework/FT_Esd_Primitives.h **** //rotation parameter
  67:FT_Esd_Framework/FT_Esd_Primitives.h **** ESD_PARAMETER(rotateEffi, Type = ft_int32_t, DisplayName = "rotation angle", Default = 0)
  68:FT_Esd_Framework/FT_Esd_Primitives.h **** // center point X 
  69:FT_Esd_Framework/FT_Esd_Primitives.h **** ESD_PARAMETER(x_center, Type = ft_int32_f16_t, DisplayName = "X of center point", Default = 0)
  70:FT_Esd_Framework/FT_Esd_Primitives.h **** // certer point y
  71:FT_Esd_Framework/FT_Esd_Primitives.h **** ESD_PARAMETER(y_center, Type = ft_int32_f16_t, DisplayName = "Y of center point", Default = 0)
  72:FT_Esd_Framework/FT_Esd_Primitives.h **** // Width used as rendering boundary
  73:FT_Esd_Framework/FT_Esd_Primitives.h **** ESD_PARAMETER(width, Type = ft_int16_t, DisplayName = "Render Width", Default = 200)
  74:FT_Esd_Framework/FT_Esd_Primitives.h **** // Height used as rendering boundary
  75:FT_Esd_Framework/FT_Esd_Primitives.h **** ESD_PARAMETER(height, Type = ft_int16_t, DisplayName = "Render Height", Default = 100)
  76:FT_Esd_Framework/FT_Esd_Primitives.h **** //radius of needle
  77:FT_Esd_Framework/FT_Esd_Primitives.h **** ESD_PARAMETER(radius, Type = ft_int16_t, DisplayName = "rotation radius", Default = 0)
  78:FT_Esd_Framework/FT_Esd_Primitives.h **** ft_void_t Ft_Esd_Render_BitmapRotate(ft_int16_t x, ft_int16_t y, Ft_Esd_BitmapCell *bitmapCell, ft_
  79:FT_Esd_Framework/FT_Esd_Primitives.h **** 
  80:FT_Esd_Framework/FT_Esd_Primitives.h **** 
  81:FT_Esd_Framework/FT_Esd_Primitives.h **** ESD_RENDER(Ft_Esd_Render_RectangleF, Type = ft_void_t, DisplayName = "ESD Rectangle (Fixed Point)",
  82:FT_Esd_Framework/FT_Esd_Primitives.h **** ESD_PARAMETER(x, Type = ft_int32_f4_t, Default = 0)
  83:FT_Esd_Framework/FT_Esd_Primitives.h **** ESD_PARAMETER(y, Type = ft_int32_f4_t, Default = 0)
  84:FT_Esd_Framework/FT_Esd_Primitives.h **** ESD_PARAMETER(width, Type = ft_int32_f4_t, Default = 60)
  85:FT_Esd_Framework/FT_Esd_Primitives.h **** ESD_PARAMETER(height, Type = ft_int32_f4_t, Default = 20)
  86:FT_Esd_Framework/FT_Esd_Primitives.h **** ESD_PARAMETER(radius, Type = ft_int32_f4_t, Default = 4)
  87:FT_Esd_Framework/FT_Esd_Primitives.h **** ESD_PARAMETER(color, Type = ft_argb32_t, DisplayName = "Color", Default = #FFFFFFFF)
  88:FT_Esd_Framework/FT_Esd_Primitives.h **** ft_void_t Ft_Esd_Render_RectangleF(ft_int32_f4_t x, ft_int32_f4_t y, ft_int32_f4_t w, ft_int32_f4_t
  89:FT_Esd_Framework/FT_Esd_Primitives.h **** 
  90:FT_Esd_Framework/FT_Esd_Primitives.h **** // Basic rectangle rendering
  91:FT_Esd_Framework/FT_Esd_Primitives.h **** ESD_RENDER(Ft_Esd_Render_Rectangle, Type = ft_void_t, DisplayName = "ESD Rectangle (Integer)", Incl
  92:FT_Esd_Framework/FT_Esd_Primitives.h **** ESD_PARAMETER(x, Type = ft_int32_t, Default = 0)
  93:FT_Esd_Framework/FT_Esd_Primitives.h **** ESD_PARAMETER(y, Type = ft_int32_t, Default = 0)
  94:FT_Esd_Framework/FT_Esd_Primitives.h **** ESD_PARAMETER(width, Type = ft_int32_t, Default = 60)
  95:FT_Esd_Framework/FT_Esd_Primitives.h **** ESD_PARAMETER(height, Type = ft_int32_t, Default = 20)
  96:FT_Esd_Framework/FT_Esd_Primitives.h **** ESD_PARAMETER(radius, Type = ft_int32_t, Default = 4)
  97:FT_Esd_Framework/FT_Esd_Primitives.h **** ESD_PARAMETER(color, Type = ft_argb32_t, DisplayName = "Color", Default = #FFFFFFFF)
  98:FT_Esd_Framework/FT_Esd_Primitives.h **** static inline ft_void_t Ft_Esd_Render_Rectangle(ft_int32_t x, ft_int32_t y, ft_int32_f4_t w, ft_int
ARM GAS  /var/folders/n8/cvzdcwlj0vl4g_wtyz1ffy300000gn/T//ccVTzMSt.s 			page 8


  99:FT_Esd_Framework/FT_Esd_Primitives.h **** { Ft_Esd_Render_RectangleF(x << 4, y << 4, w << 4, h << 4, radius << 4, color); }
 276              		.loc 2 99 0
 277 0030 0190     		str	r0, [sp, #4]
 278 0032 4023     		movs	r3, #64
 279 0034 0093     		str	r3, [sp]
 280 0036 4FEA0913 		lsl	r3, r9, #4
 281 003a 4FEA0812 		lsl	r2, r8, #4
 282 003e 3901     		lsls	r1, r7, #4
 283 0040 3001     		lsls	r0, r6, #4
 284              	.LVL25:
 285 0042 FFF7FEFF 		bl	Ft_Esd_Render_RectangleF
 286              	.LVL26:
 287              	.LBE5:
 288              	.LBE4:
  42:FT_Esd_Widgets/Ft_Esd_Rectangle__Generated.c **** 	Ft_Esd_Render_Rectangle(x, y, width, height, radius, color);
  43:FT_Esd_Widgets/Ft_Esd_Rectangle__Generated.c **** }
 289              		.loc 1 43 0
 290 0046 03B0     		add	sp, sp, #12
 291              	.LCFI2:
 292              		.cfi_def_cfa_offset 28
 293              		@ sp needed
 294 0048 BDE8F083 		pop	{r4, r5, r6, r7, r8, r9, pc}
 295              		.cfi_endproc
 296              	.LFE33:
 298              		.text
 299              	.Letext0:
 300              		.file 3 "FT_Eve_Hal/FT_DataTypes.h"
 301              		.file 4 "/usr/local/Cellar/arm-none-eabi-gcc/20180627/arm-none-eabi/include/sys/lock.h"
 302              		.file 5 "/usr/local/Cellar/arm-none-eabi-gcc/20180627/arm-none-eabi/include/sys/_types.h"
 303              		.file 6 "/usr/local/Cellar/arm-none-eabi-gcc/20180627/lib/gcc/arm-none-eabi/7.3.1/include/stddef.h
 304              		.file 7 "/usr/local/Cellar/arm-none-eabi-gcc/20180627/arm-none-eabi/include/sys/unistd.h"
 305              		.file 8 "/usr/local/Cellar/arm-none-eabi-gcc/20180627/arm-none-eabi/include/sys/reent.h"
 306              		.file 9 "/usr/local/Cellar/arm-none-eabi-gcc/20180627/arm-none-eabi/include/stdlib.h"
 307              		.file 10 "FT_Eve_Hal/FT_Gpu_Hal.h"
 308              		.file 11 "FT_Esd_Framework/Ft_Esd.h"
 309              		.file 12 "FT_Esd_Framework/FT_Esd_Dl.h"
 310              		.file 13 "FT_Esd_Widgets/Ft_Esd_Rectangle.h"
 311              		.file 14 "FT_Esd_Widgets/Ft_Esd_Theme.h"
 312              		.file 15 "FT_Esd_Widgets/Ft_Esd_DefaultTheme.h"
ARM GAS  /var/folders/n8/cvzdcwlj0vl4g_wtyz1ffy300000gn/T//ccVTzMSt.s 			page 9

