ARM GAS  /var/folders/n8/cvzdcwlj0vl4g_wtyz1ffy300000gn/T//cc76HYRV.s 			page 1


   1              		.cpu cortex-m7
   2              		.eabi_attribute 27, 1
   3              		.eabi_attribute 28, 1
   4              		.eabi_attribute 20, 1
   5              		.eabi_attribute 21, 1
   6              		.eabi_attribute 23, 3
   7              		.eabi_attribute 24, 1
   8              		.eabi_attribute 25, 1
   9              		.eabi_attribute 26, 1
  10              		.eabi_attribute 30, 1
  11              		.eabi_attribute 34, 1
  12              		.eabi_attribute 18, 4
  13              		.file	"Ft_Esd_TouchArea.c"
  14              		.text
  15              	.Ltext0:
  16              		.cfi_sections	.debug_frame
  17              		.section	.text.Ft_Esd_TouchArea_IsInBounds,"ax",%progbits
  18              		.align	1
  19              		.global	Ft_Esd_TouchArea_IsInBounds
  20              		.syntax unified
  21              		.thumb
  22              		.thumb_func
  23              		.fpu fpv5-sp-d16
  25              	Ft_Esd_TouchArea_IsInBounds:
  26              	.LFB3:
  27              		.file 1 "FT_Esd_Framework/Ft_Esd_TouchArea.c"
   1:FT_Esd_Framework/Ft_Esd_TouchArea.c **** #include "Ft_Esd.h"
   2:FT_Esd_Framework/Ft_Esd_TouchArea.c **** #include "Ft_Esd_TouchArea.h"
   3:FT_Esd_Framework/Ft_Esd_TouchArea.c **** #include "Ft_Esd_TouchTag.h"
   4:FT_Esd_Framework/Ft_Esd_TouchArea.c **** 
   5:FT_Esd_Framework/Ft_Esd_TouchArea.c **** ESD_METHOD(Ft_Esd_TouchArea_IsInBounds, Context = Ft_Esd_TouchArea, Type = ft_bool_t)
   6:FT_Esd_Framework/Ft_Esd_TouchArea.c **** ft_bool_t Ft_Esd_TouchArea_IsInBounds(Ft_Esd_TouchArea *context)
   7:FT_Esd_Framework/Ft_Esd_TouchArea.c **** {
  28              		.loc 1 7 0
  29              		.cfi_startproc
  30              		@ args = 0, pretend = 0, frame = 0
  31              		@ frame_needed = 0, uses_anonymous_args = 0
  32              	.LVL0:
  33 0000 70B5     		push	{r4, r5, r6, lr}
  34              	.LCFI0:
  35              		.cfi_def_cfa_offset 16
  36              		.cfi_offset 4, -16
  37              		.cfi_offset 5, -12
  38              		.cfi_offset 6, -8
  39              		.cfi_offset 14, -4
  40 0002 0446     		mov	r4, r0
   8:FT_Esd_Framework/Ft_Esd_TouchArea.c **** 	ft_int16_t x = Ft_Esd_TouchTag_TouchX(0);
  41              		.loc 1 8 0
  42 0004 0020     		movs	r0, #0
  43              	.LVL1:
  44 0006 FFF7FEFF 		bl	Ft_Esd_TouchTag_TouchX
  45              	.LVL2:
  46 000a 0646     		mov	r6, r0
  47              	.LVL3:
   9:FT_Esd_Framework/Ft_Esd_TouchArea.c **** 	int boundX = context->X(context->Parent);
  48              		.loc 1 9 0
  49 000c 6369     		ldr	r3, [r4, #20]
ARM GAS  /var/folders/n8/cvzdcwlj0vl4g_wtyz1ffy300000gn/T//cc76HYRV.s 			page 2


  50 000e 2068     		ldr	r0, [r4]
  51 0010 9847     		blx	r3
  52              	.LVL4:
  10:FT_Esd_Framework/Ft_Esd_TouchArea.c **** 	if (x >= boundX && x < (boundX + context->Width(context->Parent)))
  53              		.loc 1 10 0
  54 0012 8642     		cmp	r6, r0
  55 0014 1CDB     		blt	.L3
  56 0016 0546     		mov	r5, r0
  57              		.loc 1 10 0 is_stmt 0 discriminator 1
  58 0018 E369     		ldr	r3, [r4, #28]
  59 001a 2068     		ldr	r0, [r4]
  60              	.LVL5:
  61 001c 9847     		blx	r3
  62              	.LVL6:
  63 001e 2844     		add	r0, r0, r5
  64 0020 8642     		cmp	r6, r0
  65 0022 01DB     		blt	.L8
  11:FT_Esd_Framework/Ft_Esd_TouchArea.c **** 	{
  12:FT_Esd_Framework/Ft_Esd_TouchArea.c **** 		ft_int16_t y = Ft_Esd_TouchTag_TouchY(0);
  13:FT_Esd_Framework/Ft_Esd_TouchArea.c **** 		int boundY = context->Y(context->Parent);
  14:FT_Esd_Framework/Ft_Esd_TouchArea.c **** 		if (y > boundY && y < (boundY + context->Height(context->Parent)))
  15:FT_Esd_Framework/Ft_Esd_TouchArea.c **** 		{
  16:FT_Esd_Framework/Ft_Esd_TouchArea.c **** 			return 1;
  17:FT_Esd_Framework/Ft_Esd_TouchArea.c **** 		}
  18:FT_Esd_Framework/Ft_Esd_TouchArea.c **** 	}
  19:FT_Esd_Framework/Ft_Esd_TouchArea.c **** 	return 0;
  66              		.loc 1 19 0 is_stmt 1
  67 0024 0020     		movs	r0, #0
  68              	.LVL7:
  69              	.L2:
  20:FT_Esd_Framework/Ft_Esd_TouchArea.c **** }
  70              		.loc 1 20 0
  71 0026 70BD     		pop	{r4, r5, r6, pc}
  72              	.LVL8:
  73              	.L8:
  74              	.LBB2:
  12:FT_Esd_Framework/Ft_Esd_TouchArea.c **** 		int boundY = context->Y(context->Parent);
  75              		.loc 1 12 0
  76 0028 0020     		movs	r0, #0
  77 002a FFF7FEFF 		bl	Ft_Esd_TouchTag_TouchY
  78              	.LVL9:
  79 002e 0646     		mov	r6, r0
  80              	.LVL10:
  13:FT_Esd_Framework/Ft_Esd_TouchArea.c **** 		if (y > boundY && y < (boundY + context->Height(context->Parent)))
  81              		.loc 1 13 0
  82 0030 A369     		ldr	r3, [r4, #24]
  83 0032 2068     		ldr	r0, [r4]
  84 0034 9847     		blx	r3
  85              	.LVL11:
  86 0036 0546     		mov	r5, r0
  87              	.LVL12:
  14:FT_Esd_Framework/Ft_Esd_TouchArea.c **** 		{
  88              		.loc 1 14 0
  89 0038 8642     		cmp	r6, r0
  90 003a 0BDD     		ble	.L5
  14:FT_Esd_Framework/Ft_Esd_TouchArea.c **** 		{
  91              		.loc 1 14 0 is_stmt 0 discriminator 1
ARM GAS  /var/folders/n8/cvzdcwlj0vl4g_wtyz1ffy300000gn/T//cc76HYRV.s 			page 3


  92 003c 236A     		ldr	r3, [r4, #32]
  93 003e 2068     		ldr	r0, [r4]
  94              	.LVL13:
  95 0040 9847     		blx	r3
  96              	.LVL14:
  97 0042 2844     		add	r0, r0, r5
  98 0044 8642     		cmp	r6, r0
  99 0046 01DB     		blt	.L9
 100              	.LBE2:
  19:FT_Esd_Framework/Ft_Esd_TouchArea.c **** }
 101              		.loc 1 19 0 is_stmt 1
 102 0048 0020     		movs	r0, #0
 103 004a ECE7     		b	.L2
 104              	.L9:
 105              	.LBB3:
  16:FT_Esd_Framework/Ft_Esd_TouchArea.c **** 		}
 106              		.loc 1 16 0
 107 004c 0120     		movs	r0, #1
 108 004e EAE7     		b	.L2
 109              	.LVL15:
 110              	.L3:
 111              	.LBE3:
  19:FT_Esd_Framework/Ft_Esd_TouchArea.c **** }
 112              		.loc 1 19 0
 113 0050 0020     		movs	r0, #0
 114              	.LVL16:
 115 0052 E8E7     		b	.L2
 116              	.LVL17:
 117              	.L5:
 118 0054 0020     		movs	r0, #0
 119              	.LVL18:
 120 0056 E6E7     		b	.L2
 121              		.cfi_endproc
 122              	.LFE3:
 124              		.section	.text.Ft_Esd_TouchArea_Update_TouchTag,"ax",%progbits
 125              		.align	1
 126              		.global	Ft_Esd_TouchArea_Update_TouchTag
 127              		.syntax unified
 128              		.thumb
 129              		.thumb_func
 130              		.fpu fpv5-sp-d16
 132              	Ft_Esd_TouchArea_Update_TouchTag:
 133              	.LFB4:
  21:FT_Esd_Framework/Ft_Esd_TouchArea.c **** 
  22:FT_Esd_Framework/Ft_Esd_TouchArea.c **** ESD_METHOD(Ft_Esd_TouchArea_Update_TouchTag, Context = Ft_Esd_TouchArea)
  23:FT_Esd_Framework/Ft_Esd_TouchArea.c **** void Ft_Esd_TouchArea_Update_TouchTag(Ft_Esd_TouchArea *context)
  24:FT_Esd_Framework/Ft_Esd_TouchArea.c **** {
 134              		.loc 1 24 0
 135              		.cfi_startproc
 136              		@ args = 0, pretend = 0, frame = 0
 137              		@ frame_needed = 0, uses_anonymous_args = 0
 138              	.LVL19:
 139 0000 08B5     		push	{r3, lr}
 140              	.LCFI1:
 141              		.cfi_def_cfa_offset 8
 142              		.cfi_offset 3, -8
 143              		.cfi_offset 14, -4
ARM GAS  /var/folders/n8/cvzdcwlj0vl4g_wtyz1ffy300000gn/T//cc76HYRV.s 			page 4


  25:FT_Esd_Framework/Ft_Esd_TouchArea.c **** 	Ft_Esd_TouchTag_Update(0);
 144              		.loc 1 25 0
 145 0002 0020     		movs	r0, #0
 146              	.LVL20:
 147 0004 FFF7FEFF 		bl	Ft_Esd_TouchTag_Update
 148              	.LVL21:
  26:FT_Esd_Framework/Ft_Esd_TouchArea.c **** }
 149              		.loc 1 26 0
 150 0008 08BD     		pop	{r3, pc}
 151              		.cfi_endproc
 152              	.LFE4:
 154              		.text
 155              	.Letext0:
 156              		.file 2 "FT_Eve_Hal/FT_DataTypes.h"
 157              		.file 3 "/usr/local/Cellar/arm-none-eabi-gcc/20180627/arm-none-eabi/include/sys/lock.h"
 158              		.file 4 "/usr/local/Cellar/arm-none-eabi-gcc/20180627/arm-none-eabi/include/sys/_types.h"
 159              		.file 5 "/usr/local/Cellar/arm-none-eabi-gcc/20180627/lib/gcc/arm-none-eabi/7.3.1/include/stddef.h
 160              		.file 6 "/usr/local/Cellar/arm-none-eabi-gcc/20180627/arm-none-eabi/include/sys/unistd.h"
 161              		.file 7 "/usr/local/Cellar/arm-none-eabi-gcc/20180627/arm-none-eabi/include/sys/reent.h"
 162              		.file 8 "/usr/local/Cellar/arm-none-eabi-gcc/20180627/arm-none-eabi/include/stdlib.h"
 163              		.file 9 "FT_Esd_Framework/Ft_Esd_TouchArea.h"
 164              		.file 10 "FT_Esd_Framework/Ft_Esd_TouchTag.h"
ARM GAS  /var/folders/n8/cvzdcwlj0vl4g_wtyz1ffy300000gn/T//cc76HYRV.s 			page 5

