ARM GAS  /var/folders/n8/cvzdcwlj0vl4g_wtyz1ffy300000gn/T//cc5LMZrl.s 			page 1


   1              		.cpu cortex-m7
   2              		.eabi_attribute 27, 1
   3              		.eabi_attribute 28, 1
   4              		.eabi_attribute 20, 1
   5              		.eabi_attribute 21, 1
   6              		.eabi_attribute 23, 3
   7              		.eabi_attribute 24, 1
   8              		.eabi_attribute 25, 1
   9              		.eabi_attribute 26, 1
  10              		.eabi_attribute 30, 1
  11              		.eabi_attribute 34, 1
  12              		.eabi_attribute 18, 4
  13              		.file	"Ft_Esd_RadioGroup__Generated.c"
  14              		.text
  15              	.Ltext0:
  16              		.cfi_sections	.debug_frame
  17              		.section	.text.Ft_Esd_RadioGroup__Initializer,"ax",%progbits
  18              		.align	1
  19              		.global	Ft_Esd_RadioGroup__Initializer
  20              		.syntax unified
  21              		.thumb
  22              		.thumb_func
  23              		.fpu fpv5-sp-d16
  25              	Ft_Esd_RadioGroup__Initializer:
  26              	.LFB3:
  27              		.file 1 "FT_Esd_Widgets/Ft_Esd_RadioGroup__Generated.c"
   1:FT_Esd_Widgets/Ft_Esd_RadioGroup__Generated.c **** /*
   2:FT_Esd_Widgets/Ft_Esd_RadioGroup__Generated.c **** This file is automatically generated
   3:FT_Esd_Widgets/Ft_Esd_RadioGroup__Generated.c **** Ft_Esd_RadioGroup
   4:FT_Esd_Widgets/Ft_Esd_RadioGroup__Generated.c **** C Source
   5:FT_Esd_Widgets/Ft_Esd_RadioGroup__Generated.c **** */
   6:FT_Esd_Widgets/Ft_Esd_RadioGroup__Generated.c **** 
   7:FT_Esd_Widgets/Ft_Esd_RadioGroup__Generated.c **** #include "Ft_Esd_RadioGroup.h"
   8:FT_Esd_Widgets/Ft_Esd_RadioGroup__Generated.c **** 
   9:FT_Esd_Widgets/Ft_Esd_RadioGroup__Generated.c **** 
  10:FT_Esd_Widgets/Ft_Esd_RadioGroup__Generated.c **** extern void Ft_Esd_Noop(void *context);
  11:FT_Esd_Widgets/Ft_Esd_RadioGroup__Generated.c **** 
  12:FT_Esd_Widgets/Ft_Esd_RadioGroup__Generated.c **** 
  13:FT_Esd_Widgets/Ft_Esd_RadioGroup__Generated.c **** 
  14:FT_Esd_Widgets/Ft_Esd_RadioGroup__Generated.c **** void Ft_Esd_RadioGroup__Initializer(Ft_Esd_RadioGroup *context)
  15:FT_Esd_Widgets/Ft_Esd_RadioGroup__Generated.c **** {
  28              		.loc 1 15 0
  29              		.cfi_startproc
  30              		@ args = 0, pretend = 0, frame = 0
  31              		@ frame_needed = 0, uses_anonymous_args = 0
  32              		@ link register save eliminated.
  33              	.LVL0:
  16:FT_Esd_Widgets/Ft_Esd_RadioGroup__Generated.c **** 	context->Parent = 0;
  34              		.loc 1 16 0
  35 0000 0023     		movs	r3, #0
  36 0002 0360     		str	r3, [r0]
  17:FT_Esd_Widgets/Ft_Esd_RadioGroup__Generated.c **** 	context->Checked = 0x0;
  37              		.loc 1 17 0
  38 0004 4360     		str	r3, [r0, #4]
  18:FT_Esd_Widgets/Ft_Esd_RadioGroup__Generated.c **** }
  39              		.loc 1 18 0
  40 0006 7047     		bx	lr
ARM GAS  /var/folders/n8/cvzdcwlj0vl4g_wtyz1ffy300000gn/T//cc5LMZrl.s 			page 2


  41              		.cfi_endproc
  42              	.LFE3:
  44              		.section	.text.Ft_Esd_RadioGroup_Reset,"ax",%progbits
  45              		.align	1
  46              		.global	Ft_Esd_RadioGroup_Reset
  47              		.syntax unified
  48              		.thumb
  49              		.thumb_func
  50              		.fpu fpv5-sp-d16
  52              	Ft_Esd_RadioGroup_Reset:
  53              	.LFB4:
  19:FT_Esd_Widgets/Ft_Esd_RadioGroup__Generated.c **** 
  20:FT_Esd_Widgets/Ft_Esd_RadioGroup__Generated.c **** void Ft_Esd_RadioGroup_Reset_Signal(Ft_Esd_RadioGroup *context);
  21:FT_Esd_Widgets/Ft_Esd_RadioGroup__Generated.c **** Ft_Esd_RadioGroup * Ft_Esd_RadioGroup_GetPointer(Ft_Esd_RadioGroup *context);
  22:FT_Esd_Widgets/Ft_Esd_RadioGroup__Generated.c **** 
  23:FT_Esd_Widgets/Ft_Esd_RadioGroup__Generated.c **** void Ft_Esd_RadioGroup_Reset(Ft_Esd_RadioGroup *context)
  24:FT_Esd_Widgets/Ft_Esd_RadioGroup__Generated.c **** {
  54              		.loc 1 24 0
  55              		.cfi_startproc
  56              		@ args = 0, pretend = 0, frame = 0
  57              		@ frame_needed = 0, uses_anonymous_args = 0
  58              	.LVL1:
  59 0000 08B5     		push	{r3, lr}
  60              	.LCFI0:
  61              		.cfi_def_cfa_offset 8
  62              		.cfi_offset 3, -8
  63              		.cfi_offset 14, -4
  64              	.LVL2:
  25:FT_Esd_Widgets/Ft_Esd_RadioGroup__Generated.c **** 	void *parent = context->Parent;
  26:FT_Esd_Widgets/Ft_Esd_RadioGroup__Generated.c **** 	Ft_Esd_RadioGroup_Reset_Signal(context);
  65              		.loc 1 26 0
  66 0002 FFF7FEFF 		bl	Ft_Esd_RadioGroup_Reset_Signal
  67              	.LVL3:
  27:FT_Esd_Widgets/Ft_Esd_RadioGroup__Generated.c **** }
  68              		.loc 1 27 0
  69 0006 08BD     		pop	{r3, pc}
  70              		.cfi_endproc
  71              	.LFE4:
  73              		.section	.text.Ft_Esd_RadioGroup_Pointer,"ax",%progbits
  74              		.align	1
  75              		.global	Ft_Esd_RadioGroup_Pointer
  76              		.syntax unified
  77              		.thumb
  78              		.thumb_func
  79              		.fpu fpv5-sp-d16
  81              	Ft_Esd_RadioGroup_Pointer:
  82              	.LFB5:
  28:FT_Esd_Widgets/Ft_Esd_RadioGroup__Generated.c **** 
  29:FT_Esd_Widgets/Ft_Esd_RadioGroup__Generated.c **** Ft_Esd_RadioGroup * Ft_Esd_RadioGroup_Pointer(Ft_Esd_RadioGroup *context)
  30:FT_Esd_Widgets/Ft_Esd_RadioGroup__Generated.c **** {
  83              		.loc 1 30 0
  84              		.cfi_startproc
  85              		@ args = 0, pretend = 0, frame = 0
  86              		@ frame_needed = 0, uses_anonymous_args = 0
  87              	.LVL4:
  88 0000 08B5     		push	{r3, lr}
  89              	.LCFI1:
ARM GAS  /var/folders/n8/cvzdcwlj0vl4g_wtyz1ffy300000gn/T//cc5LMZrl.s 			page 3


  90              		.cfi_def_cfa_offset 8
  91              		.cfi_offset 3, -8
  92              		.cfi_offset 14, -4
  93              	.LVL5:
  31:FT_Esd_Widgets/Ft_Esd_RadioGroup__Generated.c **** 	void *parent = context->Parent;
  32:FT_Esd_Widgets/Ft_Esd_RadioGroup__Generated.c **** 	return Ft_Esd_RadioGroup_GetPointer(context);
  94              		.loc 1 32 0
  95 0002 FFF7FEFF 		bl	Ft_Esd_RadioGroup_GetPointer
  96              	.LVL6:
  33:FT_Esd_Widgets/Ft_Esd_RadioGroup__Generated.c **** }
  97              		.loc 1 33 0
  98 0006 08BD     		pop	{r3, pc}
  99              		.cfi_endproc
 100              	.LFE5:
 102              		.text
 103              	.Letext0:
 104              		.file 2 "/usr/local/Cellar/arm-none-eabi-gcc/20180627/arm-none-eabi/include/sys/lock.h"
 105              		.file 3 "/usr/local/Cellar/arm-none-eabi-gcc/20180627/arm-none-eabi/include/sys/_types.h"
 106              		.file 4 "/usr/local/Cellar/arm-none-eabi-gcc/20180627/lib/gcc/arm-none-eabi/7.3.1/include/stddef.h
 107              		.file 5 "/usr/local/Cellar/arm-none-eabi-gcc/20180627/arm-none-eabi/include/sys/unistd.h"
 108              		.file 6 "/usr/local/Cellar/arm-none-eabi-gcc/20180627/arm-none-eabi/include/sys/reent.h"
 109              		.file 7 "/usr/local/Cellar/arm-none-eabi-gcc/20180627/arm-none-eabi/include/stdlib.h"
 110              		.file 8 "FT_Esd_Widgets/Ft_Esd_RadioGroup.h"
ARM GAS  /var/folders/n8/cvzdcwlj0vl4g_wtyz1ffy300000gn/T//cc5LMZrl.s 			page 4

