ARM GAS  /var/folders/n8/cvzdcwlj0vl4g_wtyz1ffy300000gn/T//ccvfY2hT.s 			page 1


   1              		.cpu cortex-m7
   2              		.eabi_attribute 27, 1
   3              		.eabi_attribute 28, 1
   4              		.eabi_attribute 20, 1
   5              		.eabi_attribute 21, 1
   6              		.eabi_attribute 23, 3
   7              		.eabi_attribute 24, 1
   8              		.eabi_attribute 25, 1
   9              		.eabi_attribute 26, 1
  10              		.eabi_attribute 30, 1
  11              		.eabi_attribute 34, 1
  12              		.eabi_attribute 18, 4
  13              		.file	"Ft_Esd_LabelButton__Generated.c"
  14              		.text
  15              	.Ltext0:
  16              		.cfi_sections	.debug_frame
  17              		.section	.text.Ft_Esd_LabelButton_X__Default,"ax",%progbits
  18              		.align	1
  19              		.global	Ft_Esd_LabelButton_X__Default
  20              		.syntax unified
  21              		.thumb
  22              		.thumb_func
  23              		.fpu fpv5-sp-d16
  25              	Ft_Esd_LabelButton_X__Default:
  26              	.LFB24:
  27              		.file 1 "FT_Esd_Widgets/Ft_Esd_LabelButton__Generated.c"
   1:FT_Esd_Widgets/Ft_Esd_LabelButton__Generated.c **** /*
   2:FT_Esd_Widgets/Ft_Esd_LabelButton__Generated.c **** This file is automatically generated
   3:FT_Esd_Widgets/Ft_Esd_LabelButton__Generated.c **** Ft_Esd_LabelButton
   4:FT_Esd_Widgets/Ft_Esd_LabelButton__Generated.c **** C Source
   5:FT_Esd_Widgets/Ft_Esd_LabelButton__Generated.c **** */
   6:FT_Esd_Widgets/Ft_Esd_LabelButton__Generated.c **** 
   7:FT_Esd_Widgets/Ft_Esd_LabelButton__Generated.c **** #include "Ft_Esd_LabelButton.h"
   8:FT_Esd_Widgets/Ft_Esd_LabelButton__Generated.c **** 
   9:FT_Esd_Widgets/Ft_Esd_LabelButton__Generated.c **** #include "FT_Esd_CoPro_Cmds.h"
  10:FT_Esd_Widgets/Ft_Esd_LabelButton__Generated.c **** #include "FT_Esd_Dl.h"
  11:FT_Esd_Widgets/Ft_Esd_LabelButton__Generated.c **** #include "FT_Gpu.h"
  12:FT_Esd_Widgets/Ft_Esd_LabelButton__Generated.c **** 
  13:FT_Esd_Widgets/Ft_Esd_LabelButton__Generated.c **** extern void Ft_Esd_Noop(void *context);
  14:FT_Esd_Widgets/Ft_Esd_LabelButton__Generated.c **** Ft_Esd_Theme * Ft_Esd_LabelButton_Theme__Default(void *context) { return Ft_Esd_Theme_GetCurrent();
  15:FT_Esd_Widgets/Ft_Esd_LabelButton__Generated.c **** ft_int16_t Ft_Esd_LabelButton_X__Default(void *context) { return 0; }
  28              		.loc 1 15 0
  29              		.cfi_startproc
  30              		@ args = 0, pretend = 0, frame = 0
  31              		@ frame_needed = 0, uses_anonymous_args = 0
  32              		@ link register save eliminated.
  33              	.LVL0:
  34              		.loc 1 15 0
  35 0000 0020     		movs	r0, #0
  36              	.LVL1:
  37 0002 7047     		bx	lr
  38              		.cfi_endproc
  39              	.LFE24:
  41              		.section	.text.Ft_Esd_LabelButton_Y__Default,"ax",%progbits
  42              		.align	1
  43              		.global	Ft_Esd_LabelButton_Y__Default
  44              		.syntax unified
ARM GAS  /var/folders/n8/cvzdcwlj0vl4g_wtyz1ffy300000gn/T//ccvfY2hT.s 			page 2


  45              		.thumb
  46              		.thumb_func
  47              		.fpu fpv5-sp-d16
  49              	Ft_Esd_LabelButton_Y__Default:
  50              	.LFB25:
  16:FT_Esd_Widgets/Ft_Esd_LabelButton__Generated.c **** ft_int16_t Ft_Esd_LabelButton_Y__Default(void *context) { return 0; }
  51              		.loc 1 16 0
  52              		.cfi_startproc
  53              		@ args = 0, pretend = 0, frame = 0
  54              		@ frame_needed = 0, uses_anonymous_args = 0
  55              		@ link register save eliminated.
  56              	.LVL2:
  57              		.loc 1 16 0
  58 0000 0020     		movs	r0, #0
  59              	.LVL3:
  60 0002 7047     		bx	lr
  61              		.cfi_endproc
  62              	.LFE25:
  64              		.section	.text.Ft_Esd_LabelButton_Width__Default,"ax",%progbits
  65              		.align	1
  66              		.global	Ft_Esd_LabelButton_Width__Default
  67              		.syntax unified
  68              		.thumb
  69              		.thumb_func
  70              		.fpu fpv5-sp-d16
  72              	Ft_Esd_LabelButton_Width__Default:
  73              	.LFB26:
  17:FT_Esd_Widgets/Ft_Esd_LabelButton__Generated.c **** ft_int16_t Ft_Esd_LabelButton_Width__Default(void *context) { return 120; }
  74              		.loc 1 17 0
  75              		.cfi_startproc
  76              		@ args = 0, pretend = 0, frame = 0
  77              		@ frame_needed = 0, uses_anonymous_args = 0
  78              		@ link register save eliminated.
  79              	.LVL4:
  80              		.loc 1 17 0
  81 0000 7820     		movs	r0, #120
  82              	.LVL5:
  83 0002 7047     		bx	lr
  84              		.cfi_endproc
  85              	.LFE26:
  87              		.section	.text.Ft_Esd_LabelButton_Height__Default,"ax",%progbits
  88              		.align	1
  89              		.global	Ft_Esd_LabelButton_Height__Default
  90              		.syntax unified
  91              		.thumb
  92              		.thumb_func
  93              		.fpu fpv5-sp-d16
  95              	Ft_Esd_LabelButton_Height__Default:
  96              	.LFB27:
  18:FT_Esd_Widgets/Ft_Esd_LabelButton__Generated.c **** ft_int16_t Ft_Esd_LabelButton_Height__Default(void *context) { return 36; }
  97              		.loc 1 18 0
  98              		.cfi_startproc
  99              		@ args = 0, pretend = 0, frame = 0
 100              		@ frame_needed = 0, uses_anonymous_args = 0
 101              		@ link register save eliminated.
 102              	.LVL6:
 103              		.loc 1 18 0
ARM GAS  /var/folders/n8/cvzdcwlj0vl4g_wtyz1ffy300000gn/T//ccvfY2hT.s 			page 3


 104 0000 2420     		movs	r0, #36
 105              	.LVL7:
 106 0002 7047     		bx	lr
 107              		.cfi_endproc
 108              	.LFE27:
 110              		.section	.text.Ft_Esd_LabelButton_Font__Default,"ax",%progbits
 111              		.align	1
 112              		.global	Ft_Esd_LabelButton_Font__Default
 113              		.syntax unified
 114              		.thumb
 115              		.thumb_func
 116              		.fpu fpv5-sp-d16
 118              	Ft_Esd_LabelButton_Font__Default:
 119              	.LFB28:
  19:FT_Esd_Widgets/Ft_Esd_LabelButton__Generated.c **** ft_int16_t Ft_Esd_LabelButton_Font__Default(void *context) { return 27; }
 120              		.loc 1 19 0
 121              		.cfi_startproc
 122              		@ args = 0, pretend = 0, frame = 0
 123              		@ frame_needed = 0, uses_anonymous_args = 0
 124              		@ link register save eliminated.
 125              	.LVL8:
 126              		.loc 1 19 0
 127 0000 1B20     		movs	r0, #27
 128              	.LVL9:
 129 0002 7047     		bx	lr
 130              		.cfi_endproc
 131              	.LFE28:
 133              		.section	.text.Ft_Esd_LabelButton_Text__Default,"ax",%progbits
 134              		.align	1
 135              		.global	Ft_Esd_LabelButton_Text__Default
 136              		.syntax unified
 137              		.thumb
 138              		.thumb_func
 139              		.fpu fpv5-sp-d16
 141              	Ft_Esd_LabelButton_Text__Default:
 142              	.LFB29:
  20:FT_Esd_Widgets/Ft_Esd_LabelButton__Generated.c **** const char * Ft_Esd_LabelButton_Text__Default(void *context) { return "Label Button"; }
 143              		.loc 1 20 0
 144              		.cfi_startproc
 145              		@ args = 0, pretend = 0, frame = 0
 146              		@ frame_needed = 0, uses_anonymous_args = 0
 147              		@ link register save eliminated.
 148              	.LVL10:
 149              		.loc 1 20 0
 150 0000 0048     		ldr	r0, .L7
 151              	.LVL11:
 152 0002 7047     		bx	lr
 153              	.L8:
 154              		.align	2
 155              	.L7:
 156 0004 00000000 		.word	.LC0
 157              		.cfi_endproc
 158              	.LFE29:
 160              		.section	.text.Ft_Esd_LabelButton_Primary__Default,"ax",%progbits
 161              		.align	1
 162              		.global	Ft_Esd_LabelButton_Primary__Default
 163              		.syntax unified
ARM GAS  /var/folders/n8/cvzdcwlj0vl4g_wtyz1ffy300000gn/T//ccvfY2hT.s 			page 4


 164              		.thumb
 165              		.thumb_func
 166              		.fpu fpv5-sp-d16
 168              	Ft_Esd_LabelButton_Primary__Default:
 169              	.LFB30:
  21:FT_Esd_Widgets/Ft_Esd_LabelButton__Generated.c **** ft_bool_t Ft_Esd_LabelButton_Primary__Default(void *context) { return 1; }
 170              		.loc 1 21 0
 171              		.cfi_startproc
 172              		@ args = 0, pretend = 0, frame = 0
 173              		@ frame_needed = 0, uses_anonymous_args = 0
 174              		@ link register save eliminated.
 175              	.LVL12:
 176              		.loc 1 21 0
 177 0000 0120     		movs	r0, #1
 178              	.LVL13:
 179 0002 7047     		bx	lr
 180              		.cfi_endproc
 181              	.LFE30:
 183              		.section	.text.Ft_Esd_LabelButton_Touch_Tag_Tap__Signal,"ax",%progbits
 184              		.align	1
 185              		.syntax unified
 186              		.thumb
 187              		.thumb_func
 188              		.fpu fpv5-sp-d16
 190              	Ft_Esd_LabelButton_Touch_Tag_Tap__Signal:
 191              	.LFB33:
  22:FT_Esd_Widgets/Ft_Esd_LabelButton__Generated.c **** 
  23:FT_Esd_Widgets/Ft_Esd_LabelButton__Generated.c **** Ft_Esd_Theme * Ft_Esd_Theme_GetCurrent();
  24:FT_Esd_Widgets/Ft_Esd_LabelButton__Generated.c **** Ft_Gpu_Hal_Context_t * Ft_Esd_GetHost();
  25:FT_Esd_Widgets/Ft_Esd_LabelButton__Generated.c **** 
  26:FT_Esd_Widgets/Ft_Esd_LabelButton__Generated.c **** static void Ft_Esd_LabelButton_Touch_Tag_Tap__Signal(void *context);
  27:FT_Esd_Widgets/Ft_Esd_LabelButton__Generated.c **** 
  28:FT_Esd_Widgets/Ft_Esd_LabelButton__Generated.c **** void Ft_Esd_LabelButton__Initializer(Ft_Esd_LabelButton *context)
  29:FT_Esd_Widgets/Ft_Esd_LabelButton__Generated.c **** {
  30:FT_Esd_Widgets/Ft_Esd_LabelButton__Generated.c **** 	context->Parent = 0;
  31:FT_Esd_Widgets/Ft_Esd_LabelButton__Generated.c **** 	Ft_Esd_TouchTag__Initializer(&context->Touch_Tag);
  32:FT_Esd_Widgets/Ft_Esd_LabelButton__Generated.c **** 	context->Touch_Tag.Parent = context;
  33:FT_Esd_Widgets/Ft_Esd_LabelButton__Generated.c **** 	context->Touch_Tag.Tap = Ft_Esd_LabelButton_Touch_Tag_Tap__Signal;
  34:FT_Esd_Widgets/Ft_Esd_LabelButton__Generated.c **** 	context->Pushed = Ft_Esd_Noop;
  35:FT_Esd_Widgets/Ft_Esd_LabelButton__Generated.c **** 	context->Theme = Ft_Esd_LabelButton_Theme__Default;
  36:FT_Esd_Widgets/Ft_Esd_LabelButton__Generated.c **** 	context->X = Ft_Esd_LabelButton_X__Default;
  37:FT_Esd_Widgets/Ft_Esd_LabelButton__Generated.c **** 	context->Y = Ft_Esd_LabelButton_Y__Default;
  38:FT_Esd_Widgets/Ft_Esd_LabelButton__Generated.c **** 	context->Width = Ft_Esd_LabelButton_Width__Default;
  39:FT_Esd_Widgets/Ft_Esd_LabelButton__Generated.c **** 	context->Height = Ft_Esd_LabelButton_Height__Default;
  40:FT_Esd_Widgets/Ft_Esd_LabelButton__Generated.c **** 	context->Font = Ft_Esd_LabelButton_Font__Default;
  41:FT_Esd_Widgets/Ft_Esd_LabelButton__Generated.c **** 	context->Text = Ft_Esd_LabelButton_Text__Default;
  42:FT_Esd_Widgets/Ft_Esd_LabelButton__Generated.c **** 	context->Primary = Ft_Esd_LabelButton_Primary__Default;
  43:FT_Esd_Widgets/Ft_Esd_LabelButton__Generated.c **** }
  44:FT_Esd_Widgets/Ft_Esd_LabelButton__Generated.c **** 
  45:FT_Esd_Widgets/Ft_Esd_LabelButton__Generated.c **** ft_void_t Ft_Gpu_CoCmd_Text(Ft_Gpu_Hal_Context_t *, ft_int16_t, ft_int16_t, ft_int16_t, ft_uint16_t
  46:FT_Esd_Widgets/Ft_Esd_LabelButton__Generated.c **** 
  47:FT_Esd_Widgets/Ft_Esd_LabelButton__Generated.c **** void Ft_Esd_LabelButton_Start(Ft_Esd_LabelButton *context)
  48:FT_Esd_Widgets/Ft_Esd_LabelButton__Generated.c **** {
  49:FT_Esd_Widgets/Ft_Esd_LabelButton__Generated.c **** 	void *parent = context->Parent;
  50:FT_Esd_Widgets/Ft_Esd_LabelButton__Generated.c **** 	Ft_Esd_TouchTag_Start(&context->Touch_Tag);
  51:FT_Esd_Widgets/Ft_Esd_LabelButton__Generated.c **** }
  52:FT_Esd_Widgets/Ft_Esd_LabelButton__Generated.c **** 
ARM GAS  /var/folders/n8/cvzdcwlj0vl4g_wtyz1ffy300000gn/T//ccvfY2hT.s 			page 5


  53:FT_Esd_Widgets/Ft_Esd_LabelButton__Generated.c **** void Ft_Esd_LabelButton_Touch_Tag_Tap__Signal(void *c)
  54:FT_Esd_Widgets/Ft_Esd_LabelButton__Generated.c **** {
 192              		.loc 1 54 0
 193              		.cfi_startproc
 194              		@ args = 0, pretend = 0, frame = 0
 195              		@ frame_needed = 0, uses_anonymous_args = 0
 196              	.LVL14:
 197 0000 08B5     		push	{r3, lr}
 198              	.LCFI0:
 199              		.cfi_def_cfa_offset 8
 200              		.cfi_offset 3, -8
 201              		.cfi_offset 14, -4
 202              	.LVL15:
  55:FT_Esd_Widgets/Ft_Esd_LabelButton__Generated.c **** 	Ft_Esd_LabelButton *context = (Ft_Esd_LabelButton *)c;
  56:FT_Esd_Widgets/Ft_Esd_LabelButton__Generated.c **** 	void *parent = context->Parent;
  57:FT_Esd_Widgets/Ft_Esd_LabelButton__Generated.c **** 	context->Pushed(parent);
 203              		.loc 1 57 0
 204 0002 C369     		ldr	r3, [r0, #28]
 205 0004 0068     		ldr	r0, [r0]
 206              	.LVL16:
 207 0006 9847     		blx	r3
 208              	.LVL17:
  58:FT_Esd_Widgets/Ft_Esd_LabelButton__Generated.c **** }
 209              		.loc 1 58 0
 210 0008 08BD     		pop	{r3, pc}
 211              		.cfi_endproc
 212              	.LFE33:
 214              		.section	.text.Ft_Esd_LabelButton_Theme__Default,"ax",%progbits
 215              		.align	1
 216              		.global	Ft_Esd_LabelButton_Theme__Default
 217              		.syntax unified
 218              		.thumb
 219              		.thumb_func
 220              		.fpu fpv5-sp-d16
 222              	Ft_Esd_LabelButton_Theme__Default:
 223              	.LFB23:
  14:FT_Esd_Widgets/Ft_Esd_LabelButton__Generated.c **** ft_int16_t Ft_Esd_LabelButton_X__Default(void *context) { return 0; }
 224              		.loc 1 14 0
 225              		.cfi_startproc
 226              		@ args = 0, pretend = 0, frame = 0
 227              		@ frame_needed = 0, uses_anonymous_args = 0
 228              	.LVL18:
 229 0000 08B5     		push	{r3, lr}
 230              	.LCFI1:
 231              		.cfi_def_cfa_offset 8
 232              		.cfi_offset 3, -8
 233              		.cfi_offset 14, -4
  14:FT_Esd_Widgets/Ft_Esd_LabelButton__Generated.c **** ft_int16_t Ft_Esd_LabelButton_X__Default(void *context) { return 0; }
 234              		.loc 1 14 0
 235 0002 FFF7FEFF 		bl	Ft_Esd_Theme_GetCurrent
 236              	.LVL19:
 237 0006 08BD     		pop	{r3, pc}
 238              		.cfi_endproc
 239              	.LFE23:
 241              		.section	.text.Ft_Esd_LabelButton__Initializer,"ax",%progbits
 242              		.align	1
 243              		.global	Ft_Esd_LabelButton__Initializer
ARM GAS  /var/folders/n8/cvzdcwlj0vl4g_wtyz1ffy300000gn/T//ccvfY2hT.s 			page 6


 244              		.syntax unified
 245              		.thumb
 246              		.thumb_func
 247              		.fpu fpv5-sp-d16
 249              	Ft_Esd_LabelButton__Initializer:
 250              	.LFB31:
  29:FT_Esd_Widgets/Ft_Esd_LabelButton__Generated.c **** 	context->Parent = 0;
 251              		.loc 1 29 0
 252              		.cfi_startproc
 253              		@ args = 0, pretend = 0, frame = 0
 254              		@ frame_needed = 0, uses_anonymous_args = 0
 255              	.LVL20:
 256 0000 10B5     		push	{r4, lr}
 257              	.LCFI2:
 258              		.cfi_def_cfa_offset 8
 259              		.cfi_offset 4, -8
 260              		.cfi_offset 14, -4
 261 0002 0446     		mov	r4, r0
  30:FT_Esd_Widgets/Ft_Esd_LabelButton__Generated.c **** 	Ft_Esd_TouchTag__Initializer(&context->Touch_Tag);
 262              		.loc 1 30 0
 263 0004 0023     		movs	r3, #0
 264 0006 40F8043B 		str	r3, [r0], #4
 265              	.LVL21:
  31:FT_Esd_Widgets/Ft_Esd_LabelButton__Generated.c **** 	context->Touch_Tag.Parent = context;
 266              		.loc 1 31 0
 267 000a FFF7FEFF 		bl	Ft_Esd_TouchTag__Initializer
 268              	.LVL22:
  32:FT_Esd_Widgets/Ft_Esd_LabelButton__Generated.c **** 	context->Touch_Tag.Tap = Ft_Esd_LabelButton_Touch_Tag_Tap__Signal;
 269              		.loc 1 32 0
 270 000e 6460     		str	r4, [r4, #4]
  33:FT_Esd_Widgets/Ft_Esd_LabelButton__Generated.c **** 	context->Pushed = Ft_Esd_Noop;
 271              		.loc 1 33 0
 272 0010 0A4B     		ldr	r3, .L16
 273 0012 2361     		str	r3, [r4, #16]
  34:FT_Esd_Widgets/Ft_Esd_LabelButton__Generated.c **** 	context->Theme = Ft_Esd_LabelButton_Theme__Default;
 274              		.loc 1 34 0
 275 0014 0A4B     		ldr	r3, .L16+4
 276 0016 E361     		str	r3, [r4, #28]
  35:FT_Esd_Widgets/Ft_Esd_LabelButton__Generated.c **** 	context->X = Ft_Esd_LabelButton_X__Default;
 277              		.loc 1 35 0
 278 0018 0A4B     		ldr	r3, .L16+8
 279 001a 2362     		str	r3, [r4, #32]
  36:FT_Esd_Widgets/Ft_Esd_LabelButton__Generated.c **** 	context->Y = Ft_Esd_LabelButton_Y__Default;
 280              		.loc 1 36 0
 281 001c 0A4B     		ldr	r3, .L16+12
 282 001e 6362     		str	r3, [r4, #36]
  37:FT_Esd_Widgets/Ft_Esd_LabelButton__Generated.c **** 	context->Width = Ft_Esd_LabelButton_Width__Default;
 283              		.loc 1 37 0
 284 0020 0A4B     		ldr	r3, .L16+16
 285 0022 A362     		str	r3, [r4, #40]
  38:FT_Esd_Widgets/Ft_Esd_LabelButton__Generated.c **** 	context->Height = Ft_Esd_LabelButton_Height__Default;
 286              		.loc 1 38 0
 287 0024 0A4B     		ldr	r3, .L16+20
 288 0026 E362     		str	r3, [r4, #44]
  39:FT_Esd_Widgets/Ft_Esd_LabelButton__Generated.c **** 	context->Font = Ft_Esd_LabelButton_Font__Default;
 289              		.loc 1 39 0
 290 0028 0A4B     		ldr	r3, .L16+24
ARM GAS  /var/folders/n8/cvzdcwlj0vl4g_wtyz1ffy300000gn/T//ccvfY2hT.s 			page 7


 291 002a 2363     		str	r3, [r4, #48]
  40:FT_Esd_Widgets/Ft_Esd_LabelButton__Generated.c **** 	context->Text = Ft_Esd_LabelButton_Text__Default;
 292              		.loc 1 40 0
 293 002c 0A4B     		ldr	r3, .L16+28
 294 002e 6363     		str	r3, [r4, #52]
  41:FT_Esd_Widgets/Ft_Esd_LabelButton__Generated.c **** 	context->Primary = Ft_Esd_LabelButton_Primary__Default;
 295              		.loc 1 41 0
 296 0030 0A4B     		ldr	r3, .L16+32
 297 0032 A363     		str	r3, [r4, #56]
  42:FT_Esd_Widgets/Ft_Esd_LabelButton__Generated.c **** }
 298              		.loc 1 42 0
 299 0034 0A4B     		ldr	r3, .L16+36
 300 0036 E363     		str	r3, [r4, #60]
  43:FT_Esd_Widgets/Ft_Esd_LabelButton__Generated.c **** 
 301              		.loc 1 43 0
 302 0038 10BD     		pop	{r4, pc}
 303              	.LVL23:
 304              	.L17:
 305 003a 00BF     		.align	2
 306              	.L16:
 307 003c 00000000 		.word	Ft_Esd_LabelButton_Touch_Tag_Tap__Signal
 308 0040 00000000 		.word	Ft_Esd_Noop
 309 0044 00000000 		.word	Ft_Esd_LabelButton_Theme__Default
 310 0048 00000000 		.word	Ft_Esd_LabelButton_X__Default
 311 004c 00000000 		.word	Ft_Esd_LabelButton_Y__Default
 312 0050 00000000 		.word	Ft_Esd_LabelButton_Width__Default
 313 0054 00000000 		.word	Ft_Esd_LabelButton_Height__Default
 314 0058 00000000 		.word	Ft_Esd_LabelButton_Font__Default
 315 005c 00000000 		.word	Ft_Esd_LabelButton_Text__Default
 316 0060 00000000 		.word	Ft_Esd_LabelButton_Primary__Default
 317              		.cfi_endproc
 318              	.LFE31:
 320              		.section	.text.Ft_Esd_LabelButton_Start,"ax",%progbits
 321              		.align	1
 322              		.global	Ft_Esd_LabelButton_Start
 323              		.syntax unified
 324              		.thumb
 325              		.thumb_func
 326              		.fpu fpv5-sp-d16
 328              	Ft_Esd_LabelButton_Start:
 329              	.LFB32:
  48:FT_Esd_Widgets/Ft_Esd_LabelButton__Generated.c **** 	void *parent = context->Parent;
 330              		.loc 1 48 0
 331              		.cfi_startproc
 332              		@ args = 0, pretend = 0, frame = 0
 333              		@ frame_needed = 0, uses_anonymous_args = 0
 334              	.LVL24:
 335 0000 08B5     		push	{r3, lr}
 336              	.LCFI3:
 337              		.cfi_def_cfa_offset 8
 338              		.cfi_offset 3, -8
 339              		.cfi_offset 14, -4
 340              	.LVL25:
  50:FT_Esd_Widgets/Ft_Esd_LabelButton__Generated.c **** }
 341              		.loc 1 50 0
 342 0002 0430     		adds	r0, r0, #4
 343              	.LVL26:
ARM GAS  /var/folders/n8/cvzdcwlj0vl4g_wtyz1ffy300000gn/T//ccvfY2hT.s 			page 8


 344 0004 FFF7FEFF 		bl	Ft_Esd_TouchTag_Start
 345              	.LVL27:
  51:FT_Esd_Widgets/Ft_Esd_LabelButton__Generated.c **** 
 346              		.loc 1 51 0
 347 0008 08BD     		pop	{r3, pc}
 348              		.cfi_endproc
 349              	.LFE32:
 351              		.section	.text.Ft_Esd_LabelButton_Update,"ax",%progbits
 352              		.align	1
 353              		.global	Ft_Esd_LabelButton_Update
 354              		.syntax unified
 355              		.thumb
 356              		.thumb_func
 357              		.fpu fpv5-sp-d16
 359              	Ft_Esd_LabelButton_Update:
 360              	.LFB34:
  59:FT_Esd_Widgets/Ft_Esd_LabelButton__Generated.c **** 
  60:FT_Esd_Widgets/Ft_Esd_LabelButton__Generated.c **** void Ft_Esd_LabelButton_Update(Ft_Esd_LabelButton *context)
  61:FT_Esd_Widgets/Ft_Esd_LabelButton__Generated.c **** {
 361              		.loc 1 61 0
 362              		.cfi_startproc
 363              		@ args = 0, pretend = 0, frame = 0
 364              		@ frame_needed = 0, uses_anonymous_args = 0
 365              	.LVL28:
 366 0000 08B5     		push	{r3, lr}
 367              	.LCFI4:
 368              		.cfi_def_cfa_offset 8
 369              		.cfi_offset 3, -8
 370              		.cfi_offset 14, -4
 371              	.LVL29:
  62:FT_Esd_Widgets/Ft_Esd_LabelButton__Generated.c **** 	void *parent = context->Parent;
  63:FT_Esd_Widgets/Ft_Esd_LabelButton__Generated.c **** 	Ft_Esd_TouchTag_Update(&context->Touch_Tag);
 372              		.loc 1 63 0
 373 0002 0430     		adds	r0, r0, #4
 374              	.LVL30:
 375 0004 FFF7FEFF 		bl	Ft_Esd_TouchTag_Update
 376              	.LVL31:
  64:FT_Esd_Widgets/Ft_Esd_LabelButton__Generated.c **** }
 377              		.loc 1 64 0
 378 0008 08BD     		pop	{r3, pc}
 379              		.cfi_endproc
 380              	.LFE34:
 382              		.section	.text.Ft_Esd_LabelButton_End,"ax",%progbits
 383              		.align	1
 384              		.global	Ft_Esd_LabelButton_End
 385              		.syntax unified
 386              		.thumb
 387              		.thumb_func
 388              		.fpu fpv5-sp-d16
 390              	Ft_Esd_LabelButton_End:
 391              	.LFB35:
  65:FT_Esd_Widgets/Ft_Esd_LabelButton__Generated.c **** 
  66:FT_Esd_Widgets/Ft_Esd_LabelButton__Generated.c **** void Ft_Esd_LabelButton_End(Ft_Esd_LabelButton *context)
  67:FT_Esd_Widgets/Ft_Esd_LabelButton__Generated.c **** {
 392              		.loc 1 67 0
 393              		.cfi_startproc
 394              		@ args = 0, pretend = 0, frame = 0
ARM GAS  /var/folders/n8/cvzdcwlj0vl4g_wtyz1ffy300000gn/T//ccvfY2hT.s 			page 9


 395              		@ frame_needed = 0, uses_anonymous_args = 0
 396              	.LVL32:
 397 0000 08B5     		push	{r3, lr}
 398              	.LCFI5:
 399              		.cfi_def_cfa_offset 8
 400              		.cfi_offset 3, -8
 401              		.cfi_offset 14, -4
 402              	.LVL33:
  68:FT_Esd_Widgets/Ft_Esd_LabelButton__Generated.c **** 	void *parent = context->Parent;
  69:FT_Esd_Widgets/Ft_Esd_LabelButton__Generated.c **** 	Ft_Esd_TouchTag_End(&context->Touch_Tag);
 403              		.loc 1 69 0
 404 0002 0430     		adds	r0, r0, #4
 405              	.LVL34:
 406 0004 FFF7FEFF 		bl	Ft_Esd_TouchTag_End
 407              	.LVL35:
  70:FT_Esd_Widgets/Ft_Esd_LabelButton__Generated.c **** }
 408              		.loc 1 70 0
 409 0008 08BD     		pop	{r3, pc}
 410              		.cfi_endproc
 411              	.LFE35:
 413              		.section	.text.Ft_Esd_LabelButton_Render,"ax",%progbits
 414              		.align	1
 415              		.global	Ft_Esd_LabelButton_Render
 416              		.syntax unified
 417              		.thumb
 418              		.thumb_func
 419              		.fpu fpv5-sp-d16
 421              	Ft_Esd_LabelButton_Render:
 422              	.LFB36:
  71:FT_Esd_Widgets/Ft_Esd_LabelButton__Generated.c **** 
  72:FT_Esd_Widgets/Ft_Esd_LabelButton__Generated.c **** void Ft_Esd_LabelButton_Render(Ft_Esd_LabelButton *context)
  73:FT_Esd_Widgets/Ft_Esd_LabelButton__Generated.c **** {
 423              		.loc 1 73 0
 424              		.cfi_startproc
 425              		@ args = 0, pretend = 0, frame = 0
 426              		@ frame_needed = 0, uses_anonymous_args = 0
 427              	.LVL36:
 428 0000 2DE9F043 		push	{r4, r5, r6, r7, r8, r9, lr}
 429              	.LCFI6:
 430              		.cfi_def_cfa_offset 28
 431              		.cfi_offset 4, -28
 432              		.cfi_offset 5, -24
 433              		.cfi_offset 6, -20
 434              		.cfi_offset 7, -16
 435              		.cfi_offset 8, -12
 436              		.cfi_offset 9, -8
 437              		.cfi_offset 14, -4
 438 0004 83B0     		sub	sp, sp, #12
 439              	.LCFI7:
 440              		.cfi_def_cfa_offset 40
 441 0006 0446     		mov	r4, r0
  74:FT_Esd_Widgets/Ft_Esd_LabelButton__Generated.c **** 	void *parent = context->Parent;
 442              		.loc 1 74 0
 443 0008 0568     		ldr	r5, [r0]
 444              	.LVL37:
 445              	.LBB34:
 446              	.LBB35:
ARM GAS  /var/folders/n8/cvzdcwlj0vl4g_wtyz1ffy300000gn/T//ccvfY2hT.s 			page 10


 447              		.file 2 "FT_Esd_Framework/FT_Esd_Dl.h"
   1:FT_Esd_Framework/FT_Esd_Dl.h **** 
   2:FT_Esd_Framework/FT_Esd_Dl.h **** #ifndef FT_ESD_DL_H
   3:FT_Esd_Framework/FT_Esd_Dl.h **** #define FT_ESD_DL_H
   4:FT_Esd_Framework/FT_Esd_Dl.h **** 
   5:FT_Esd_Framework/FT_Esd_Dl.h **** #include "FT_DataTypes.h"
   6:FT_Esd_Framework/FT_Esd_Dl.h **** #include "FT_Platform.h"
   7:FT_Esd_Framework/FT_Esd_Dl.h **** #include "Ft_Esd.h"
   8:FT_Esd_Framework/FT_Esd_Dl.h **** #include "FT_Gpu.h"
   9:FT_Esd_Framework/FT_Esd_Dl.h **** #include "Ft_Esd_BitmapInfo.h"
  10:FT_Esd_Framework/FT_Esd_Dl.h **** 
  11:FT_Esd_Framework/FT_Esd_Dl.h **** ESD_CATEGORY(EsdUtilities, DisplayName = "ESD Utilities")
  12:FT_Esd_Framework/FT_Esd_Dl.h **** ESD_CATEGORY(EveRenderFunctions, DisplayName = "EVE Render Functions")
  13:FT_Esd_Framework/FT_Esd_Dl.h **** 
  14:FT_Esd_Framework/FT_Esd_Dl.h **** ESD_TYPE(Ft_Gpu_Hal_Context_t *, Native = Pointer, Edit = Library)
  15:FT_Esd_Framework/FT_Esd_Dl.h **** 
  16:FT_Esd_Framework/FT_Esd_Dl.h **** // Keep cache of displaylist values that don't often change but are generally set by every widget t
  17:FT_Esd_Framework/FT_Esd_Dl.h **** #define FT_ESD_OPTIMIZE_DISPLAYLIST 1
  18:FT_Esd_Framework/FT_Esd_Dl.h **** #define FT_ESD_STATE_STACK_SIZE 5
  19:FT_Esd_Framework/FT_Esd_Dl.h **** 
  20:FT_Esd_Framework/FT_Esd_Dl.h **** #define FT_ESD_BITMAPHANDLE_INVALID 255
  21:FT_Esd_Framework/FT_Esd_Dl.h **** 
  22:FT_Esd_Framework/FT_Esd_Dl.h **** //
  23:FT_Esd_Framework/FT_Esd_Dl.h **** // Structs
  24:FT_Esd_Framework/FT_Esd_Dl.h **** //
  25:FT_Esd_Framework/FT_Esd_Dl.h **** #ifdef FT_ESD_OPTIMIZE_DISPLAYLIST
  26:FT_Esd_Framework/FT_Esd_Dl.h **** #define FT_ESD_STATE Ft_Esd_GpuState[Ft_Esd_GpuState_I]
  27:FT_Esd_Framework/FT_Esd_Dl.h **** typedef struct
  28:FT_Esd_Framework/FT_Esd_Dl.h **** {
  29:FT_Esd_Framework/FT_Esd_Dl.h **** 	// Keep to a minimum
  30:FT_Esd_Framework/FT_Esd_Dl.h **** #ifdef FT_81X_ENABLE
  31:FT_Esd_Framework/FT_Esd_Dl.h **** 	ft_uint32_t PaletteSource;
  32:FT_Esd_Framework/FT_Esd_Dl.h **** #endif
  33:FT_Esd_Framework/FT_Esd_Dl.h **** 	ft_uint32_t ColorRGB;
  34:FT_Esd_Framework/FT_Esd_Dl.h **** 	ft_uint8_t ColorA;
  35:FT_Esd_Framework/FT_Esd_Dl.h **** 	ft_uint8_t Handle;         // Current handle
  36:FT_Esd_Framework/FT_Esd_Dl.h **** 	ft_uint8_t Cell;           // Current cell
  37:FT_Esd_Framework/FT_Esd_Dl.h **** 	ft_bool_t BitmapTransform; // BitmapTransform other than default is set
  38:FT_Esd_Framework/FT_Esd_Dl.h **** #ifdef FT_81X_ENABLE
  39:FT_Esd_Framework/FT_Esd_Dl.h **** 	ft_uint8_t VertexFormat;   // Current vertex format
  40:FT_Esd_Framework/FT_Esd_Dl.h **** #endif
  41:FT_Esd_Framework/FT_Esd_Dl.h **** } Ft_Esd_GpuState_T;
  42:FT_Esd_Framework/FT_Esd_Dl.h **** #endif
  43:FT_Esd_Framework/FT_Esd_Dl.h **** 
  44:FT_Esd_Framework/FT_Esd_Dl.h **** //
  45:FT_Esd_Framework/FT_Esd_Dl.h **** // Globals
  46:FT_Esd_Framework/FT_Esd_Dl.h **** //
  47:FT_Esd_Framework/FT_Esd_Dl.h **** extern Ft_Gpu_Hal_Context_t *Ft_Esd_Host;
  48:FT_Esd_Framework/FT_Esd_Dl.h **** extern ft_uint16_t Ft_Esd_FontHeight[32];
  49:FT_Esd_Framework/FT_Esd_Dl.h **** #ifdef FT_ESD_OPTIMIZE_DISPLAYLIST
  50:FT_Esd_Framework/FT_Esd_Dl.h **** extern Ft_Esd_GpuState_T Ft_Esd_GpuState[FT_ESD_STATE_STACK_SIZE];
  51:FT_Esd_Framework/FT_Esd_Dl.h **** extern ft_uint8_t Ft_Esd_GpuState_I;
  52:FT_Esd_Framework/FT_Esd_Dl.h **** extern ft_uint32_t Ft_Esd_CoFgColor;
  53:FT_Esd_Framework/FT_Esd_Dl.h **** extern ft_uint32_t Ft_Esd_CoBgColor;
  54:FT_Esd_Framework/FT_Esd_Dl.h **** #endif
  55:FT_Esd_Framework/FT_Esd_Dl.h **** 
  56:FT_Esd_Framework/FT_Esd_Dl.h **** //Get the height of builtin font
ARM GAS  /var/folders/n8/cvzdcwlj0vl4g_wtyz1ffy300000gn/T//ccvfY2hT.s 			page 11


  57:FT_Esd_Framework/FT_Esd_Dl.h **** ESD_FUNCTION(Ft_Esd_GetFontHeight, Type = ft_uint16_t ,DisplayName = "Get Font Height", Category = 
  58:FT_Esd_Framework/FT_Esd_Dl.h **** ESD_PARAMETER(i, Type = int, DisplayName = "Bitmap Handle", Default = 0, Min = 0, Max = 31)
  59:FT_Esd_Framework/FT_Esd_Dl.h **** // inline static ft_uint16_t Ft_Esd_GetFontHeight(int i) { return Ft_Esd_FontHeight[i]; }
  60:FT_Esd_Framework/FT_Esd_Dl.h **** #define Ft_Esd_GetFontHeight(i) (Ft_Esd_FontHeight[i]);
  61:FT_Esd_Framework/FT_Esd_Dl.h **** 
  62:FT_Esd_Framework/FT_Esd_Dl.h **** // Reset any cached state
  63:FT_Esd_Framework/FT_Esd_Dl.h **** void Ft_Esd_ResetGpuState();
  64:FT_Esd_Framework/FT_Esd_Dl.h **** void Ft_Esd_ResetCoState();
  65:FT_Esd_Framework/FT_Esd_Dl.h **** 
  66:FT_Esd_Framework/FT_Esd_Dl.h **** ft_uint32_t Ft_Esd_BitmapHandle_GetTotalUsed();
  67:FT_Esd_Framework/FT_Esd_Dl.h **** ft_uint32_t Ft_Esd_BitmapHandle_GetTotal();
  68:FT_Esd_Framework/FT_Esd_Dl.h **** 
  69:FT_Esd_Framework/FT_Esd_Dl.h **** /// Set current tag. Must be returned to 255 after usage, to ensure next widgets don't draw with in
  70:FT_Esd_Framework/FT_Esd_Dl.h **** ESD_FUNCTION(Ft_Esd_Dl_TAG, Type = ft_void_t, Category = EveRenderFunctions, Inline)
  71:FT_Esd_Framework/FT_Esd_Dl.h **** ESD_PARAMETER(s, Type = ft_uint8_t, DisplayName = "Tag", Default = 255, Min = 0, Max = 255)
  72:FT_Esd_Framework/FT_Esd_Dl.h **** inline static ft_void_t Ft_Esd_Dl_TAG(ft_uint8_t s)
  73:FT_Esd_Framework/FT_Esd_Dl.h **** {
  74:FT_Esd_Framework/FT_Esd_Dl.h **** 	Ft_Gpu_Hal_WrCmd32(Ft_Esd_Host, TAG(s));
  75:FT_Esd_Framework/FT_Esd_Dl.h **** }
  76:FT_Esd_Framework/FT_Esd_Dl.h **** //Specify color RGB
  77:FT_Esd_Framework/FT_Esd_Dl.h **** ESD_FUNCTION(Ft_Esd_Dl_COLOR_RGB, Type = ft_void_t, Category = EveRenderFunctions, Inline)
  78:FT_Esd_Framework/FT_Esd_Dl.h **** ESD_PARAMETER(c, Type = ft_rgb32_t, DisplayName = "Color")
  79:FT_Esd_Framework/FT_Esd_Dl.h **** inline static ft_void_t Ft_Esd_Dl_COLOR_RGB(ft_rgb32_t c)
  80:FT_Esd_Framework/FT_Esd_Dl.h **** {
  81:FT_Esd_Framework/FT_Esd_Dl.h **** #if FT_ESD_OPTIMIZE_DISPLAYLIST
  82:FT_Esd_Framework/FT_Esd_Dl.h **** 	ft_rgb32_t rgb = c & 0xFFFFFF;
  83:FT_Esd_Framework/FT_Esd_Dl.h **** 	if (rgb != FT_ESD_STATE.ColorRGB)
  84:FT_Esd_Framework/FT_Esd_Dl.h **** 	{
  85:FT_Esd_Framework/FT_Esd_Dl.h **** #endif
  86:FT_Esd_Framework/FT_Esd_Dl.h **** 		Ft_Gpu_Hal_WrCmd32(Ft_Esd_Host, (4UL << 24) | (rgb));
  87:FT_Esd_Framework/FT_Esd_Dl.h **** #if FT_ESD_OPTIMIZE_DISPLAYLIST
  88:FT_Esd_Framework/FT_Esd_Dl.h **** 		FT_ESD_STATE.ColorRGB = rgb;
  89:FT_Esd_Framework/FT_Esd_Dl.h **** 	}
  90:FT_Esd_Framework/FT_Esd_Dl.h **** #endif
  91:FT_Esd_Framework/FT_Esd_Dl.h **** }
  92:FT_Esd_Framework/FT_Esd_Dl.h **** //Specify alpha channel
  93:FT_Esd_Framework/FT_Esd_Dl.h **** ESD_FUNCTION(Ft_Esd_Dl_COLOR_A, Type = ft_void_t, Category = EveRenderFunctions, Inline)
  94:FT_Esd_Framework/FT_Esd_Dl.h **** ESD_PARAMETER(alpha, Type = ft_uint8_t, Default = 255, Min = 0, Max = 255)
  95:FT_Esd_Framework/FT_Esd_Dl.h **** inline static ft_void_t Ft_Esd_Dl_COLOR_A(ft_uint8_t alpha)
  96:FT_Esd_Framework/FT_Esd_Dl.h **** {
  97:FT_Esd_Framework/FT_Esd_Dl.h **** #if FT_ESD_OPTIMIZE_DISPLAYLIST
  98:FT_Esd_Framework/FT_Esd_Dl.h **** 	if (alpha != FT_ESD_STATE.ColorA)
 448              		.loc 2 98 0
 449 000a 3F4B     		ldr	r3, .L37
 450 000c 1A78     		ldrb	r2, [r3]	@ zero_extendqisi2
 451 000e 3F4B     		ldr	r3, .L37+4
 452 0010 03EB0213 		add	r3, r3, r2, lsl #4
 453 0014 1B7A     		ldrb	r3, [r3, #8]	@ zero_extendqisi2
 454 0016 FF2B     		cmp	r3, #255
 455 0018 0BD0     		beq	.L25
  99:FT_Esd_Framework/FT_Esd_Dl.h **** 	{
 100:FT_Esd_Framework/FT_Esd_Dl.h **** #endif
 101:FT_Esd_Framework/FT_Esd_Dl.h **** 		Ft_Gpu_Hal_WrCmd32(Ft_Esd_Host, COLOR_A(alpha));
 456              		.loc 2 101 0
 457 001a 3D49     		ldr	r1, .L37+8
 458 001c 3D4B     		ldr	r3, .L37+12
 459 001e 1868     		ldr	r0, [r3]
ARM GAS  /var/folders/n8/cvzdcwlj0vl4g_wtyz1ffy300000gn/T//ccvfY2hT.s 			page 12


 460              	.LVL38:
 461 0020 FFF7FEFF 		bl	Ft_Gpu_Hal_WrCmd32
 462              	.LVL39:
 102:FT_Esd_Framework/FT_Esd_Dl.h **** #if FT_ESD_OPTIMIZE_DISPLAYLIST
 103:FT_Esd_Framework/FT_Esd_Dl.h **** 		FT_ESD_STATE.ColorA = alpha;
 463              		.loc 2 103 0
 464 0024 384B     		ldr	r3, .L37
 465 0026 1A78     		ldrb	r2, [r3]	@ zero_extendqisi2
 466 0028 384B     		ldr	r3, .L37+4
 467 002a 03EB0213 		add	r3, r3, r2, lsl #4
 468 002e FF22     		movs	r2, #255
 469 0030 1A72     		strb	r2, [r3, #8]
 470              	.L25:
 471              	.LVL40:
 472              	.LBE35:
 473              	.LBE34:
  75:FT_Esd_Widgets/Ft_Esd_LabelButton__Generated.c **** 	ft_uint8_t alpha = 255;
  76:FT_Esd_Widgets/Ft_Esd_LabelButton__Generated.c **** 	Ft_Esd_Dl_COLOR_A(alpha);
  77:FT_Esd_Widgets/Ft_Esd_LabelButton__Generated.c **** 	ft_uint8_t s = Ft_Esd_TouchTag_Tag(&context->Touch_Tag);
 474              		.loc 1 77 0
 475 0032 261D     		adds	r6, r4, #4
 476 0034 3046     		mov	r0, r6
 477 0036 FFF7FEFF 		bl	Ft_Esd_TouchTag_Tag
 478              	.LVL41:
 479              	.LBB36:
 480              	.LBB37:
  74:FT_Esd_Framework/FT_Esd_Dl.h **** }
 481              		.loc 2 74 0
 482 003a 40F04071 		orr	r1, r0, #50331648
 483 003e 354B     		ldr	r3, .L37+12
 484 0040 1868     		ldr	r0, [r3]
 485              	.LVL42:
 486 0042 FFF7FEFF 		bl	Ft_Gpu_Hal_WrCmd32
 487              	.LVL43:
 488              	.LBE37:
 489              	.LBE36:
  78:FT_Esd_Widgets/Ft_Esd_LabelButton__Generated.c **** 	Ft_Esd_Dl_TAG(s);
  79:FT_Esd_Widgets/Ft_Esd_LabelButton__Generated.c **** 	ft_bool_t if_1 = Ft_Esd_TouchTag_Inside(&context->Touch_Tag);
 490              		.loc 1 79 0
 491 0046 3046     		mov	r0, r6
 492 0048 FFF7FEFF 		bl	Ft_Esd_TouchTag_Inside
 493              	.LVL44:
  80:FT_Esd_Widgets/Ft_Esd_LabelButton__Generated.c **** 	ft_rgb32_t c;
  81:FT_Esd_Widgets/Ft_Esd_LabelButton__Generated.c **** 	if (if_1)
 494              		.loc 1 81 0
 495 004c 0028     		cmp	r0, #0
 496 004e 42D0     		beq	.L26
 497              	.LBB38:
  82:FT_Esd_Widgets/Ft_Esd_LabelButton__Generated.c **** 	{
  83:FT_Esd_Widgets/Ft_Esd_LabelButton__Generated.c **** 		Ft_Esd_Theme * theme = context->Theme(parent);
 498              		.loc 1 83 0
 499 0050 236A     		ldr	r3, [r4, #32]
 500 0052 2846     		mov	r0, r5
 501              	.LVL45:
 502 0054 9847     		blx	r3
 503              	.LVL46:
 504              	.LBB39:
ARM GAS  /var/folders/n8/cvzdcwlj0vl4g_wtyz1ffy300000gn/T//ccvfY2hT.s 			page 13


 505              	.LBB40:
 506              		.file 3 "FT_Esd_Widgets/FT_Esd_Theme.h"
   1:FT_Esd_Widgets/FT_Esd_Theme.h **** 
   2:FT_Esd_Widgets/FT_Esd_Theme.h **** #ifndef FT_ESD_THEME_H
   3:FT_Esd_Widgets/FT_Esd_Theme.h **** #define FT_ESD_THEME_H
   4:FT_Esd_Widgets/FT_Esd_Theme.h **** #include "FT_DataTypes.h"
   5:FT_Esd_Widgets/FT_Esd_Theme.h **** #include "Ft_Esd.h"
   6:FT_Esd_Widgets/FT_Esd_Theme.h **** 
   7:FT_Esd_Widgets/FT_Esd_Theme.h **** ESD_CATEGORY(EsdTheme, DisplayName = "ESD Theme")
   8:FT_Esd_Widgets/FT_Esd_Theme.h **** ESD_CATEGORY(EsdTheme_Themes, DisplayName = "Themes", Category = EsdTheme)
   9:FT_Esd_Widgets/FT_Esd_Theme.h **** 
  10:FT_Esd_Widgets/FT_Esd_Theme.h **** typedef unsigned int ft_uint32_t;
  11:FT_Esd_Widgets/FT_Esd_Theme.h **** 
  12:FT_Esd_Widgets/FT_Esd_Theme.h **** typedef struct
  13:FT_Esd_Widgets/FT_Esd_Theme.h **** {
  14:FT_Esd_Widgets/FT_Esd_Theme.h **** 	ft_rgb32_t ClearColor;
  15:FT_Esd_Widgets/FT_Esd_Theme.h **** 	ft_rgb32_t BackColor;
  16:FT_Esd_Widgets/FT_Esd_Theme.h **** 	ft_rgb32_t TextColor;
  17:FT_Esd_Widgets/FT_Esd_Theme.h **** 	ft_rgb32_t ButtonTextColor;
  18:FT_Esd_Widgets/FT_Esd_Theme.h **** 	ft_rgb32_t DefaultColor;
  19:FT_Esd_Widgets/FT_Esd_Theme.h **** 	ft_rgb32_t PrimaryColor;
  20:FT_Esd_Widgets/FT_Esd_Theme.h **** } Ft_Esd_Theme;
  21:FT_Esd_Widgets/FT_Esd_Theme.h **** 
  22:FT_Esd_Widgets/FT_Esd_Theme.h **** ESD_TYPE(Ft_Esd_Theme *, Native = Pointer, Edit = Library)
  23:FT_Esd_Widgets/FT_Esd_Theme.h **** 
  24:FT_Esd_Widgets/FT_Esd_Theme.h **** ESD_RENDER(Ft_Esd_Theme_SetCurrent, DisplayName = "Set Current Theme", Category = EsdTheme, Include
  25:FT_Esd_Widgets/FT_Esd_Theme.h **** ESD_PARAMETER(theme, Type = Ft_Esd_Theme *)
  26:FT_Esd_Widgets/FT_Esd_Theme.h **** void Ft_Esd_Theme_SetCurrent(Ft_Esd_Theme *theme);
  27:FT_Esd_Widgets/FT_Esd_Theme.h **** 
  28:FT_Esd_Widgets/FT_Esd_Theme.h **** ESD_FUNCTION(Ft_Esd_Theme_GetCurrent, DisplayName = "Current Theme", Category = EsdTheme, Type = Ft
  29:FT_Esd_Widgets/FT_Esd_Theme.h **** Ft_Esd_Theme *Ft_Esd_Theme_GetCurrent();
  30:FT_Esd_Widgets/FT_Esd_Theme.h **** 
  31:FT_Esd_Widgets/FT_Esd_Theme.h **** ESD_FUNCTION(Ft_Esd_Theme_GetClearColor, DisplayName = "Get Clear Color", Category = EsdTheme, Type
  32:FT_Esd_Widgets/FT_Esd_Theme.h **** ESD_PARAMETER(theme, Type = Ft_Esd_Theme *, Default = Ft_Esd_Theme_GetCurrent)
  33:FT_Esd_Widgets/FT_Esd_Theme.h **** inline static ft_rgb32_t Ft_Esd_Theme_GetClearColor(Ft_Esd_Theme *theme) { if (!theme) return Ft_Es
  34:FT_Esd_Widgets/FT_Esd_Theme.h **** 
  35:FT_Esd_Widgets/FT_Esd_Theme.h **** ESD_FUNCTION(Ft_Esd_Theme_GetBackColor, DisplayName = "Get Back Color", Category = EsdTheme, Type =
  36:FT_Esd_Widgets/FT_Esd_Theme.h **** ESD_PARAMETER(theme, Type = Ft_Esd_Theme *, Default = Ft_Esd_Theme_GetCurrent)
  37:FT_Esd_Widgets/FT_Esd_Theme.h **** inline static ft_rgb32_t Ft_Esd_Theme_GetBackColor(Ft_Esd_Theme *theme) { if (!theme) return Ft_Esd
  38:FT_Esd_Widgets/FT_Esd_Theme.h **** 
  39:FT_Esd_Widgets/FT_Esd_Theme.h **** ESD_FUNCTION(Ft_Esd_Theme_GetTextColor, DisplayName = "Get Text Color", Category = EsdTheme, Type =
  40:FT_Esd_Widgets/FT_Esd_Theme.h **** ESD_PARAMETER(theme, Type = Ft_Esd_Theme *, Default = Ft_Esd_Theme_GetCurrent)
  41:FT_Esd_Widgets/FT_Esd_Theme.h **** inline static ft_rgb32_t Ft_Esd_Theme_GetTextColor(Ft_Esd_Theme *theme) { if (!theme) return Ft_Esd
 507              		.loc 3 41 0
 508 0056 0028     		cmp	r0, #0
 509 0058 39D0     		beq	.L34
 510 005a 8668     		ldr	r6, [r0, #8]
 511              	.LVL47:
 512              	.L28:
 513              	.LBE40:
 514              	.LBE39:
 515              	.LBE38:
 516              	.LBB43:
 517              	.LBB44:
  82:FT_Esd_Framework/FT_Esd_Dl.h **** 	if (rgb != FT_ESD_STATE.ColorRGB)
 518              		.loc 2 82 0
 519 005c 26F07F46 		bic	r6, r6, #-16777216
ARM GAS  /var/folders/n8/cvzdcwlj0vl4g_wtyz1ffy300000gn/T//ccvfY2hT.s 			page 14


 520              	.LVL48:
  83:FT_Esd_Framework/FT_Esd_Dl.h **** 	{
 521              		.loc 2 83 0
 522 0060 294B     		ldr	r3, .L37
 523 0062 1A78     		ldrb	r2, [r3]	@ zero_extendqisi2
 524 0064 294B     		ldr	r3, .L37+4
 525 0066 03EB0213 		add	r3, r3, r2, lsl #4
 526 006a 5B68     		ldr	r3, [r3, #4]
 527 006c B342     		cmp	r3, r6
 528 006e 0BD0     		beq	.L32
  86:FT_Esd_Framework/FT_Esd_Dl.h **** #if FT_ESD_OPTIMIZE_DISPLAYLIST
 529              		.loc 2 86 0
 530 0070 46F08061 		orr	r1, r6, #67108864
 531 0074 274B     		ldr	r3, .L37+12
 532 0076 1868     		ldr	r0, [r3]
 533 0078 FFF7FEFF 		bl	Ft_Gpu_Hal_WrCmd32
 534              	.LVL49:
  88:FT_Esd_Framework/FT_Esd_Dl.h **** 	}
 535              		.loc 2 88 0
 536 007c 224B     		ldr	r3, .L37
 537 007e 1A78     		ldrb	r2, [r3]	@ zero_extendqisi2
 538 0080 224B     		ldr	r3, .L37+4
 539 0082 03EB0213 		add	r3, r3, r2, lsl #4
 540 0086 5E60     		str	r6, [r3, #4]
 541              	.L32:
 542              	.LVL50:
 543              	.LBE44:
 544              	.LBE43:
  84:FT_Esd_Widgets/Ft_Esd_LabelButton__Generated.c **** 		c = Ft_Esd_Theme_GetTextColor(theme);
  85:FT_Esd_Widgets/Ft_Esd_LabelButton__Generated.c **** 	}
  86:FT_Esd_Widgets/Ft_Esd_LabelButton__Generated.c **** 	else
  87:FT_Esd_Widgets/Ft_Esd_LabelButton__Generated.c **** 	{
  88:FT_Esd_Widgets/Ft_Esd_LabelButton__Generated.c **** 		ft_bool_t if_2 = context->Primary(parent);
  89:FT_Esd_Widgets/Ft_Esd_LabelButton__Generated.c **** 		if (if_2)
  90:FT_Esd_Widgets/Ft_Esd_LabelButton__Generated.c **** 		{
  91:FT_Esd_Widgets/Ft_Esd_LabelButton__Generated.c **** 			Ft_Esd_Theme * theme_1 = context->Theme(parent);
  92:FT_Esd_Widgets/Ft_Esd_LabelButton__Generated.c **** 			c = Ft_Esd_Theme_GetPrimaryColor(theme_1);
  93:FT_Esd_Widgets/Ft_Esd_LabelButton__Generated.c **** 		}
  94:FT_Esd_Widgets/Ft_Esd_LabelButton__Generated.c **** 		else
  95:FT_Esd_Widgets/Ft_Esd_LabelButton__Generated.c **** 		{
  96:FT_Esd_Widgets/Ft_Esd_LabelButton__Generated.c **** 			Ft_Esd_Theme * theme_2 = context->Theme(parent);
  97:FT_Esd_Widgets/Ft_Esd_LabelButton__Generated.c **** 			c = Ft_Esd_Theme_GetCurrentColor(theme_2);
  98:FT_Esd_Widgets/Ft_Esd_LabelButton__Generated.c **** 		}
  99:FT_Esd_Widgets/Ft_Esd_LabelButton__Generated.c **** 	}
 100:FT_Esd_Widgets/Ft_Esd_LabelButton__Generated.c **** 	Ft_Esd_Dl_COLOR_RGB(c);
 101:FT_Esd_Widgets/Ft_Esd_LabelButton__Generated.c **** 	Ft_Gpu_Hal_Context_t * phost = Ft_Esd_GetHost();
 545              		.loc 1 101 0
 546 0088 FFF7FEFF 		bl	Ft_Esd_GetHost
 547              	.LVL51:
 548 008c 0646     		mov	r6, r0
 549              	.LVL52:
 102:FT_Esd_Widgets/Ft_Esd_LabelButton__Generated.c **** 	ft_int16_t x = context->X(parent);
 550              		.loc 1 102 0
 551 008e 636A     		ldr	r3, [r4, #36]
 552 0090 2846     		mov	r0, r5
 553              	.LVL53:
 554 0092 9847     		blx	r3
ARM GAS  /var/folders/n8/cvzdcwlj0vl4g_wtyz1ffy300000gn/T//ccvfY2hT.s 			page 15


 555              	.LVL54:
 556 0094 0746     		mov	r7, r0
 557              	.LVL55:
 103:FT_Esd_Widgets/Ft_Esd_LabelButton__Generated.c **** 	ft_int16_t y = context->Y(parent);
 558              		.loc 1 103 0
 559 0096 A36A     		ldr	r3, [r4, #40]
 560 0098 2846     		mov	r0, r5
 561 009a 9847     		blx	r3
 562              	.LVL56:
 563 009c 8046     		mov	r8, r0
 564              	.LVL57:
 104:FT_Esd_Widgets/Ft_Esd_LabelButton__Generated.c **** 	ft_int16_t font = context->Font(parent);
 565              		.loc 1 104 0
 566 009e 636B     		ldr	r3, [r4, #52]
 567 00a0 2846     		mov	r0, r5
 568 00a2 9847     		blx	r3
 569              	.LVL58:
 570 00a4 8146     		mov	r9, r0
 571              	.LVL59:
 105:FT_Esd_Widgets/Ft_Esd_LabelButton__Generated.c **** 	ft_uint16_t options = 0;
 106:FT_Esd_Widgets/Ft_Esd_LabelButton__Generated.c **** 	const char * s_1 = context->Text(parent);
 572              		.loc 1 106 0
 573 00a6 A36B     		ldr	r3, [r4, #56]
 574 00a8 2846     		mov	r0, r5
 575 00aa 9847     		blx	r3
 576              	.LVL60:
 107:FT_Esd_Widgets/Ft_Esd_LabelButton__Generated.c **** 	Ft_Gpu_CoCmd_Text(phost, x, y, font, options, s_1);
 577              		.loc 1 107 0
 578 00ac 0190     		str	r0, [sp, #4]
 579 00ae 0023     		movs	r3, #0
 580 00b0 0093     		str	r3, [sp]
 581 00b2 4B46     		mov	r3, r9
 582 00b4 4246     		mov	r2, r8
 583 00b6 3946     		mov	r1, r7
 584 00b8 3046     		mov	r0, r6
 585              	.LVL61:
 586 00ba FFF7FEFF 		bl	Ft_Gpu_CoCmd_Text
 587              	.LVL62:
 588              	.LBB45:
 589              	.LBB46:
  74:FT_Esd_Framework/FT_Esd_Dl.h **** }
 590              		.loc 2 74 0
 591 00be 1649     		ldr	r1, .L37+16
 592 00c0 144B     		ldr	r3, .L37+12
 593 00c2 1868     		ldr	r0, [r3]
 594 00c4 FFF7FEFF 		bl	Ft_Gpu_Hal_WrCmd32
 595              	.LVL63:
 596              	.LBE46:
 597              	.LBE45:
 108:FT_Esd_Widgets/Ft_Esd_LabelButton__Generated.c **** 	ft_uint8_t s_2 = 255;
 109:FT_Esd_Widgets/Ft_Esd_LabelButton__Generated.c **** 	Ft_Esd_Dl_TAG(s_2);
 110:FT_Esd_Widgets/Ft_Esd_LabelButton__Generated.c **** }
 598              		.loc 1 110 0
 599 00c8 03B0     		add	sp, sp, #12
 600              	.LCFI8:
 601              		.cfi_remember_state
 602              		.cfi_def_cfa_offset 28
ARM GAS  /var/folders/n8/cvzdcwlj0vl4g_wtyz1ffy300000gn/T//ccvfY2hT.s 			page 16


 603              		@ sp needed
 604 00ca BDE8F083 		pop	{r4, r5, r6, r7, r8, r9, pc}
 605              	.LVL64:
 606              	.L34:
 607              	.LCFI9:
 608              		.cfi_restore_state
 609              	.LBB47:
 610              	.LBB42:
 611              	.LBB41:
 612              		.loc 3 41 0
 613 00ce FFF7FEFF 		bl	Ft_Esd_Theme_GetCurrent
 614              	.LVL65:
 615 00d2 8668     		ldr	r6, [r0, #8]
 616 00d4 C2E7     		b	.L28
 617              	.LVL66:
 618              	.L26:
 619              	.LBE41:
 620              	.LBE42:
 621              	.LBE47:
 622              	.LBB48:
  88:FT_Esd_Widgets/Ft_Esd_LabelButton__Generated.c **** 		if (if_2)
 623              		.loc 1 88 0
 624 00d6 E36B     		ldr	r3, [r4, #60]
 625 00d8 2846     		mov	r0, r5
 626              	.LVL67:
 627 00da 9847     		blx	r3
 628              	.LVL68:
  89:FT_Esd_Widgets/Ft_Esd_LabelButton__Generated.c **** 		{
 629              		.loc 1 89 0
 630 00dc 48B1     		cbz	r0, .L29
 631              	.LBB49:
  91:FT_Esd_Widgets/Ft_Esd_LabelButton__Generated.c **** 			c = Ft_Esd_Theme_GetPrimaryColor(theme_1);
 632              		.loc 1 91 0
 633 00de 236A     		ldr	r3, [r4, #32]
 634 00e0 2846     		mov	r0, r5
 635              	.LVL69:
 636 00e2 9847     		blx	r3
 637              	.LVL70:
 638              	.LBB50:
 639              	.LBB51:
  42:FT_Esd_Widgets/FT_Esd_Theme.h **** 
  43:FT_Esd_Widgets/FT_Esd_Theme.h **** ESD_FUNCTION(Ft_Esd_Theme_GetButtonTextColor, DisplayName = "Get Button Text Color", Category = Esd
  44:FT_Esd_Widgets/FT_Esd_Theme.h **** ESD_PARAMETER(theme, Type = Ft_Esd_Theme *, Default = Ft_Esd_Theme_GetCurrent)
  45:FT_Esd_Widgets/FT_Esd_Theme.h **** inline static ft_rgb32_t Ft_Esd_Theme_GetButtonTextColor(Ft_Esd_Theme *theme) { if (!theme) return 
  46:FT_Esd_Widgets/FT_Esd_Theme.h **** 
  47:FT_Esd_Widgets/FT_Esd_Theme.h **** ESD_FUNCTION(Ft_Esd_Theme_GetCurrentColor, DisplayName = "Get Default Color", Category = EsdTheme, 
  48:FT_Esd_Widgets/FT_Esd_Theme.h **** ESD_PARAMETER(theme, Type = Ft_Esd_Theme *, Default = Ft_Esd_Theme_GetCurrent)
  49:FT_Esd_Widgets/FT_Esd_Theme.h **** inline static ft_rgb32_t Ft_Esd_Theme_GetCurrentColor(Ft_Esd_Theme *theme) { if (!theme) return Ft_
  50:FT_Esd_Widgets/FT_Esd_Theme.h **** 
  51:FT_Esd_Widgets/FT_Esd_Theme.h **** ESD_FUNCTION(Ft_Esd_Theme_GetPrimaryColor, DisplayName = "Get Primary Color", Category = EsdTheme, 
  52:FT_Esd_Widgets/FT_Esd_Theme.h **** ESD_PARAMETER(theme, Type = Ft_Esd_Theme *, Default = Ft_Esd_Theme_GetCurrent)
  53:FT_Esd_Widgets/FT_Esd_Theme.h **** inline static ft_rgb32_t Ft_Esd_Theme_GetPrimaryColor(Ft_Esd_Theme *theme) { if (!theme) return Ft_
 640              		.loc 3 53 0
 641 00e4 08B1     		cbz	r0, .L35
 642 00e6 4669     		ldr	r6, [r0, #20]
 643 00e8 B8E7     		b	.L28
 644              	.L35:
ARM GAS  /var/folders/n8/cvzdcwlj0vl4g_wtyz1ffy300000gn/T//ccvfY2hT.s 			page 17


 645 00ea FFF7FEFF 		bl	Ft_Esd_Theme_GetCurrent
 646              	.LVL71:
 647 00ee 4669     		ldr	r6, [r0, #20]
 648 00f0 B4E7     		b	.L28
 649              	.LVL72:
 650              	.L29:
 651              	.LBE51:
 652              	.LBE50:
 653              	.LBE49:
 654              	.LBB52:
  96:FT_Esd_Widgets/Ft_Esd_LabelButton__Generated.c **** 			c = Ft_Esd_Theme_GetCurrentColor(theme_2);
 655              		.loc 1 96 0
 656 00f2 236A     		ldr	r3, [r4, #32]
 657 00f4 2846     		mov	r0, r5
 658              	.LVL73:
 659 00f6 9847     		blx	r3
 660              	.LVL74:
 661              	.LBB53:
 662              	.LBB54:
  49:FT_Esd_Widgets/FT_Esd_Theme.h **** 
 663              		.loc 3 49 0
 664 00f8 08B1     		cbz	r0, .L36
 665 00fa 0669     		ldr	r6, [r0, #16]
 666 00fc AEE7     		b	.L28
 667              	.L36:
 668 00fe FFF7FEFF 		bl	Ft_Esd_Theme_GetCurrent
 669              	.LVL75:
 670 0102 0669     		ldr	r6, [r0, #16]
 671 0104 AAE7     		b	.L28
 672              	.L38:
 673 0106 00BF     		.align	2
 674              	.L37:
 675 0108 00000000 		.word	Ft_Esd_GpuState_I
 676 010c 00000000 		.word	Ft_Esd_GpuState
 677 0110 FF000010 		.word	268435711
 678 0114 00000000 		.word	Ft_Esd_Host
 679 0118 FF000003 		.word	50331903
 680              	.LBE54:
 681              	.LBE53:
 682              	.LBE52:
 683              	.LBE48:
 684              		.cfi_endproc
 685              	.LFE36:
 687              		.section	.rodata.Ft_Esd_LabelButton_Text__Default.str1.4,"aMS",%progbits,1
 688              		.align	2
 689              	.LC0:
 690 0000 4C616265 		.ascii	"Label Button\000"
 690      6C204275 
 690      74746F6E 
 690      00
 691              		.text
 692              	.Letext0:
 693              		.file 4 "FT_Eve_Hal/FT_DataTypes.h"
 694              		.file 5 "/usr/local/Cellar/arm-none-eabi-gcc/20180627/arm-none-eabi/include/sys/lock.h"
 695              		.file 6 "/usr/local/Cellar/arm-none-eabi-gcc/20180627/arm-none-eabi/include/sys/_types.h"
 696              		.file 7 "/usr/local/Cellar/arm-none-eabi-gcc/20180627/lib/gcc/arm-none-eabi/7.3.1/include/stddef.h
 697              		.file 8 "/usr/local/Cellar/arm-none-eabi-gcc/20180627/arm-none-eabi/include/sys/unistd.h"
ARM GAS  /var/folders/n8/cvzdcwlj0vl4g_wtyz1ffy300000gn/T//ccvfY2hT.s 			page 18


 698              		.file 9 "/usr/local/Cellar/arm-none-eabi-gcc/20180627/arm-none-eabi/include/sys/reent.h"
 699              		.file 10 "/usr/local/Cellar/arm-none-eabi-gcc/20180627/arm-none-eabi/include/stdlib.h"
 700              		.file 11 "FT_Eve_Hal/FT_Gpu_Hal.h"
 701              		.file 12 "FT_Esd_Framework/Ft_Esd.h"
 702              		.file 13 "FT_Esd_Widgets/Ft_Esd_DefaultTheme.h"
 703              		.file 14 "FT_Esd_Framework/Ft_Esd_TouchTag.h"
 704              		.file 15 "FT_Esd_Widgets/Ft_Esd_LabelButton.h"
 705              		.file 16 "FT_Esd_Framework/FT_Esd_CoPro_Cmds.h"
ARM GAS  /var/folders/n8/cvzdcwlj0vl4g_wtyz1ffy300000gn/T//ccvfY2hT.s 			page 19

