ARM GAS  /var/folders/n8/cvzdcwlj0vl4g_wtyz1ffy300000gn/T//ccSdcywG.s 			page 1


   1              		.cpu cortex-m7
   2              		.eabi_attribute 27, 1
   3              		.eabi_attribute 28, 1
   4              		.eabi_attribute 20, 1
   5              		.eabi_attribute 21, 1
   6              		.eabi_attribute 23, 3
   7              		.eabi_attribute 24, 1
   8              		.eabi_attribute 25, 1
   9              		.eabi_attribute 26, 1
  10              		.eabi_attribute 30, 1
  11              		.eabi_attribute 34, 1
  12              		.eabi_attribute 18, 4
  13              		.file	"Ft_Esd_ProgressBar__Generated.c"
  14              		.text
  15              	.Ltext0:
  16              		.cfi_sections	.debug_frame
  17              		.section	.text.Ft_Esd_ProgressBar_Theme__Default,"ax",%progbits
  18              		.align	1
  19              		.global	Ft_Esd_ProgressBar_Theme__Default
  20              		.syntax unified
  21              		.thumb
  22              		.thumb_func
  23              		.fpu fpv5-sp-d16
  25              	Ft_Esd_ProgressBar_Theme__Default:
  26              	.LFB23:
  27              		.file 1 "FT_Esd_Widgets/Ft_Esd_ProgressBar__Generated.c"
   1:FT_Esd_Widgets/Ft_Esd_ProgressBar__Generated.c **** /*
   2:FT_Esd_Widgets/Ft_Esd_ProgressBar__Generated.c **** This file is automatically generated
   3:FT_Esd_Widgets/Ft_Esd_ProgressBar__Generated.c **** Ft_Esd_ProgressBar
   4:FT_Esd_Widgets/Ft_Esd_ProgressBar__Generated.c **** C Source
   5:FT_Esd_Widgets/Ft_Esd_ProgressBar__Generated.c **** */
   6:FT_Esd_Widgets/Ft_Esd_ProgressBar__Generated.c **** 
   7:FT_Esd_Widgets/Ft_Esd_ProgressBar__Generated.c **** #include "Ft_Esd_ProgressBar.h"
   8:FT_Esd_Widgets/Ft_Esd_ProgressBar__Generated.c **** 
   9:FT_Esd_Widgets/Ft_Esd_ProgressBar__Generated.c **** #include "FT_Esd_CoPro_Cmds.h"
  10:FT_Esd_Widgets/Ft_Esd_ProgressBar__Generated.c **** #include "FT_Esd_Dl.h"
  11:FT_Esd_Widgets/Ft_Esd_ProgressBar__Generated.c **** #include "FT_Gpu.h"
  12:FT_Esd_Widgets/Ft_Esd_ProgressBar__Generated.c **** 
  13:FT_Esd_Widgets/Ft_Esd_ProgressBar__Generated.c **** extern void Ft_Esd_Noop(void *context);
  14:FT_Esd_Widgets/Ft_Esd_ProgressBar__Generated.c **** Ft_Esd_Theme * Ft_Esd_ProgressBar_Theme__Default(void *context) { return 0; }
  28              		.loc 1 14 0
  29              		.cfi_startproc
  30              		@ args = 0, pretend = 0, frame = 0
  31              		@ frame_needed = 0, uses_anonymous_args = 0
  32              		@ link register save eliminated.
  33              	.LVL0:
  34              		.loc 1 14 0
  35 0000 0020     		movs	r0, #0
  36              	.LVL1:
  37 0002 7047     		bx	lr
  38              		.cfi_endproc
  39              	.LFE23:
  41              		.section	.text.Ft_Esd_ProgressBar_X__Default,"ax",%progbits
  42              		.align	1
  43              		.global	Ft_Esd_ProgressBar_X__Default
  44              		.syntax unified
  45              		.thumb
ARM GAS  /var/folders/n8/cvzdcwlj0vl4g_wtyz1ffy300000gn/T//ccSdcywG.s 			page 2


  46              		.thumb_func
  47              		.fpu fpv5-sp-d16
  49              	Ft_Esd_ProgressBar_X__Default:
  50              	.LFB24:
  15:FT_Esd_Widgets/Ft_Esd_ProgressBar__Generated.c **** ft_int16_t Ft_Esd_ProgressBar_X__Default(void *context) { return 50; }
  51              		.loc 1 15 0
  52              		.cfi_startproc
  53              		@ args = 0, pretend = 0, frame = 0
  54              		@ frame_needed = 0, uses_anonymous_args = 0
  55              		@ link register save eliminated.
  56              	.LVL2:
  57              		.loc 1 15 0
  58 0000 3220     		movs	r0, #50
  59              	.LVL3:
  60 0002 7047     		bx	lr
  61              		.cfi_endproc
  62              	.LFE24:
  64              		.section	.text.Ft_Esd_ProgressBar_Y__Default,"ax",%progbits
  65              		.align	1
  66              		.global	Ft_Esd_ProgressBar_Y__Default
  67              		.syntax unified
  68              		.thumb
  69              		.thumb_func
  70              		.fpu fpv5-sp-d16
  72              	Ft_Esd_ProgressBar_Y__Default:
  73              	.LFB25:
  16:FT_Esd_Widgets/Ft_Esd_ProgressBar__Generated.c **** ft_int16_t Ft_Esd_ProgressBar_Y__Default(void *context) { return 50; }
  74              		.loc 1 16 0
  75              		.cfi_startproc
  76              		@ args = 0, pretend = 0, frame = 0
  77              		@ frame_needed = 0, uses_anonymous_args = 0
  78              		@ link register save eliminated.
  79              	.LVL4:
  80              		.loc 1 16 0
  81 0000 3220     		movs	r0, #50
  82              	.LVL5:
  83 0002 7047     		bx	lr
  84              		.cfi_endproc
  85              	.LFE25:
  87              		.section	.text.Ft_Esd_ProgressBar_Width__Default,"ax",%progbits
  88              		.align	1
  89              		.global	Ft_Esd_ProgressBar_Width__Default
  90              		.syntax unified
  91              		.thumb
  92              		.thumb_func
  93              		.fpu fpv5-sp-d16
  95              	Ft_Esd_ProgressBar_Width__Default:
  96              	.LFB26:
  17:FT_Esd_Widgets/Ft_Esd_ProgressBar__Generated.c **** ft_int16_t Ft_Esd_ProgressBar_Width__Default(void *context) { return 180; }
  97              		.loc 1 17 0
  98              		.cfi_startproc
  99              		@ args = 0, pretend = 0, frame = 0
 100              		@ frame_needed = 0, uses_anonymous_args = 0
 101              		@ link register save eliminated.
 102              	.LVL6:
 103              		.loc 1 17 0
 104 0000 B420     		movs	r0, #180
ARM GAS  /var/folders/n8/cvzdcwlj0vl4g_wtyz1ffy300000gn/T//ccSdcywG.s 			page 3


 105              	.LVL7:
 106 0002 7047     		bx	lr
 107              		.cfi_endproc
 108              	.LFE26:
 110              		.section	.text.Ft_Esd_ProgressBar_Height__Default,"ax",%progbits
 111              		.align	1
 112              		.global	Ft_Esd_ProgressBar_Height__Default
 113              		.syntax unified
 114              		.thumb
 115              		.thumb_func
 116              		.fpu fpv5-sp-d16
 118              	Ft_Esd_ProgressBar_Height__Default:
 119              	.LFB27:
  18:FT_Esd_Widgets/Ft_Esd_ProgressBar__Generated.c **** ft_int16_t Ft_Esd_ProgressBar_Height__Default(void *context) { return 24; }
 120              		.loc 1 18 0
 121              		.cfi_startproc
 122              		@ args = 0, pretend = 0, frame = 0
 123              		@ frame_needed = 0, uses_anonymous_args = 0
 124              		@ link register save eliminated.
 125              	.LVL8:
 126              		.loc 1 18 0
 127 0000 1820     		movs	r0, #24
 128              	.LVL9:
 129 0002 7047     		bx	lr
 130              		.cfi_endproc
 131              	.LFE27:
 133              		.section	.text.Ft_Esd_ProgressBar_Val__Default,"ax",%progbits
 134              		.align	1
 135              		.global	Ft_Esd_ProgressBar_Val__Default
 136              		.syntax unified
 137              		.thumb
 138              		.thumb_func
 139              		.fpu fpv5-sp-d16
 141              	Ft_Esd_ProgressBar_Val__Default:
 142              	.LFB28:
  19:FT_Esd_Widgets/Ft_Esd_ProgressBar__Generated.c **** ft_uint16_t Ft_Esd_ProgressBar_Val__Default(void *context) { return 0U; }
 143              		.loc 1 19 0
 144              		.cfi_startproc
 145              		@ args = 0, pretend = 0, frame = 0
 146              		@ frame_needed = 0, uses_anonymous_args = 0
 147              		@ link register save eliminated.
 148              	.LVL10:
 149              		.loc 1 19 0
 150 0000 0020     		movs	r0, #0
 151              	.LVL11:
 152 0002 7047     		bx	lr
 153              		.cfi_endproc
 154              	.LFE28:
 156              		.section	.text.Ft_Esd_ProgressBar_Range__Default,"ax",%progbits
 157              		.align	1
 158              		.global	Ft_Esd_ProgressBar_Range__Default
 159              		.syntax unified
 160              		.thumb
 161              		.thumb_func
 162              		.fpu fpv5-sp-d16
 164              	Ft_Esd_ProgressBar_Range__Default:
 165              	.LFB29:
ARM GAS  /var/folders/n8/cvzdcwlj0vl4g_wtyz1ffy300000gn/T//ccSdcywG.s 			page 4


  20:FT_Esd_Widgets/Ft_Esd_ProgressBar__Generated.c **** ft_uint16_t Ft_Esd_ProgressBar_Range__Default(void *context) { return 65535U; }
 166              		.loc 1 20 0
 167              		.cfi_startproc
 168              		@ args = 0, pretend = 0, frame = 0
 169              		@ frame_needed = 0, uses_anonymous_args = 0
 170              		@ link register save eliminated.
 171              	.LVL12:
 172              		.loc 1 20 0
 173 0000 4FF6FF70 		movw	r0, #65535
 174              	.LVL13:
 175 0004 7047     		bx	lr
 176              		.cfi_endproc
 177              	.LFE29:
 179              		.section	.text.Ft_Esd_ProgressBar__Initializer,"ax",%progbits
 180              		.align	1
 181              		.global	Ft_Esd_ProgressBar__Initializer
 182              		.syntax unified
 183              		.thumb
 184              		.thumb_func
 185              		.fpu fpv5-sp-d16
 187              	Ft_Esd_ProgressBar__Initializer:
 188              	.LFB30:
  21:FT_Esd_Widgets/Ft_Esd_ProgressBar__Generated.c **** 
  22:FT_Esd_Widgets/Ft_Esd_ProgressBar__Generated.c **** Ft_Esd_Theme * Ft_Esd_Theme_GetCurrent();
  23:FT_Esd_Widgets/Ft_Esd_ProgressBar__Generated.c **** Ft_Gpu_Hal_Context_t * Ft_Esd_GetHost();
  24:FT_Esd_Widgets/Ft_Esd_ProgressBar__Generated.c **** 
  25:FT_Esd_Widgets/Ft_Esd_ProgressBar__Generated.c **** 
  26:FT_Esd_Widgets/Ft_Esd_ProgressBar__Generated.c **** void Ft_Esd_ProgressBar__Initializer(Ft_Esd_ProgressBar *context)
  27:FT_Esd_Widgets/Ft_Esd_ProgressBar__Generated.c **** {
 189              		.loc 1 27 0
 190              		.cfi_startproc
 191              		@ args = 0, pretend = 0, frame = 0
 192              		@ frame_needed = 0, uses_anonymous_args = 0
 193              		@ link register save eliminated.
 194              	.LVL14:
  28:FT_Esd_Widgets/Ft_Esd_ProgressBar__Generated.c **** 	context->Parent = 0;
 195              		.loc 1 28 0
 196 0000 0023     		movs	r3, #0
 197 0002 0360     		str	r3, [r0]
  29:FT_Esd_Widgets/Ft_Esd_ProgressBar__Generated.c **** 	context->Theme = Ft_Esd_ProgressBar_Theme__Default;
 198              		.loc 1 29 0
 199 0004 074B     		ldr	r3, .L9
 200 0006 4360     		str	r3, [r0, #4]
  30:FT_Esd_Widgets/Ft_Esd_ProgressBar__Generated.c **** 	context->X = Ft_Esd_ProgressBar_X__Default;
 201              		.loc 1 30 0
 202 0008 074B     		ldr	r3, .L9+4
 203 000a 8360     		str	r3, [r0, #8]
  31:FT_Esd_Widgets/Ft_Esd_ProgressBar__Generated.c **** 	context->Y = Ft_Esd_ProgressBar_Y__Default;
 204              		.loc 1 31 0
 205 000c 074B     		ldr	r3, .L9+8
 206 000e C360     		str	r3, [r0, #12]
  32:FT_Esd_Widgets/Ft_Esd_ProgressBar__Generated.c **** 	context->Width = Ft_Esd_ProgressBar_Width__Default;
 207              		.loc 1 32 0
 208 0010 074B     		ldr	r3, .L9+12
 209 0012 0361     		str	r3, [r0, #16]
  33:FT_Esd_Widgets/Ft_Esd_ProgressBar__Generated.c **** 	context->Height = Ft_Esd_ProgressBar_Height__Default;
 210              		.loc 1 33 0
ARM GAS  /var/folders/n8/cvzdcwlj0vl4g_wtyz1ffy300000gn/T//ccSdcywG.s 			page 5


 211 0014 074B     		ldr	r3, .L9+16
 212 0016 4361     		str	r3, [r0, #20]
  34:FT_Esd_Widgets/Ft_Esd_ProgressBar__Generated.c **** 	context->Val = Ft_Esd_ProgressBar_Val__Default;
 213              		.loc 1 34 0
 214 0018 074B     		ldr	r3, .L9+20
 215 001a 8361     		str	r3, [r0, #24]
  35:FT_Esd_Widgets/Ft_Esd_ProgressBar__Generated.c **** 	context->Range = Ft_Esd_ProgressBar_Range__Default;
 216              		.loc 1 35 0
 217 001c 074B     		ldr	r3, .L9+24
 218 001e C361     		str	r3, [r0, #28]
  36:FT_Esd_Widgets/Ft_Esd_ProgressBar__Generated.c **** }
 219              		.loc 1 36 0
 220 0020 7047     		bx	lr
 221              	.L10:
 222 0022 00BF     		.align	2
 223              	.L9:
 224 0024 00000000 		.word	Ft_Esd_ProgressBar_Theme__Default
 225 0028 00000000 		.word	Ft_Esd_ProgressBar_X__Default
 226 002c 00000000 		.word	Ft_Esd_ProgressBar_Y__Default
 227 0030 00000000 		.word	Ft_Esd_ProgressBar_Width__Default
 228 0034 00000000 		.word	Ft_Esd_ProgressBar_Height__Default
 229 0038 00000000 		.word	Ft_Esd_ProgressBar_Val__Default
 230 003c 00000000 		.word	Ft_Esd_ProgressBar_Range__Default
 231              		.cfi_endproc
 232              	.LFE30:
 234              		.section	.text.Ft_Esd_ProgressBar_Render,"ax",%progbits
 235              		.align	1
 236              		.global	Ft_Esd_ProgressBar_Render
 237              		.syntax unified
 238              		.thumb
 239              		.thumb_func
 240              		.fpu fpv5-sp-d16
 242              	Ft_Esd_ProgressBar_Render:
 243              	.LFB31:
  37:FT_Esd_Widgets/Ft_Esd_ProgressBar__Generated.c **** 
  38:FT_Esd_Widgets/Ft_Esd_ProgressBar__Generated.c **** ft_void_t Ft_Gpu_CoCmd_BgColor(Ft_Gpu_Hal_Context_t *, ft_rgb32_t);
  39:FT_Esd_Widgets/Ft_Esd_ProgressBar__Generated.c **** ft_void_t Ft_Gpu_CoCmd_Progress(Ft_Gpu_Hal_Context_t *, ft_int16_t, ft_int16_t, ft_int16_t, ft_int1
  40:FT_Esd_Widgets/Ft_Esd_ProgressBar__Generated.c **** 
  41:FT_Esd_Widgets/Ft_Esd_ProgressBar__Generated.c **** void Ft_Esd_ProgressBar_Render(Ft_Esd_ProgressBar *context)
  42:FT_Esd_Widgets/Ft_Esd_ProgressBar__Generated.c **** {
 244              		.loc 1 42 0
 245              		.cfi_startproc
 246              		@ args = 0, pretend = 0, frame = 0
 247              		@ frame_needed = 0, uses_anonymous_args = 0
 248              	.LVL15:
 249 0000 2DE9F04F 		push	{r4, r5, r6, r7, r8, r9, r10, fp, lr}
 250              	.LCFI0:
 251              		.cfi_def_cfa_offset 36
 252              		.cfi_offset 4, -36
 253              		.cfi_offset 5, -32
 254              		.cfi_offset 6, -28
 255              		.cfi_offset 7, -24
 256              		.cfi_offset 8, -20
 257              		.cfi_offset 9, -16
 258              		.cfi_offset 10, -12
 259              		.cfi_offset 11, -8
 260              		.cfi_offset 14, -4
ARM GAS  /var/folders/n8/cvzdcwlj0vl4g_wtyz1ffy300000gn/T//ccSdcywG.s 			page 6


 261 0004 85B0     		sub	sp, sp, #20
 262              	.LCFI1:
 263              		.cfi_def_cfa_offset 56
 264 0006 0446     		mov	r4, r0
  43:FT_Esd_Widgets/Ft_Esd_ProgressBar__Generated.c **** 	void *parent = context->Parent;
 265              		.loc 1 43 0
 266 0008 0568     		ldr	r5, [r0]
 267              	.LVL16:
 268              	.LBB14:
 269              	.LBB15:
 270              		.file 2 "FT_Esd_Framework/FT_Esd_Dl.h"
   1:FT_Esd_Framework/FT_Esd_Dl.h **** 
   2:FT_Esd_Framework/FT_Esd_Dl.h **** #ifndef FT_ESD_DL_H
   3:FT_Esd_Framework/FT_Esd_Dl.h **** #define FT_ESD_DL_H
   4:FT_Esd_Framework/FT_Esd_Dl.h **** 
   5:FT_Esd_Framework/FT_Esd_Dl.h **** #include "FT_DataTypes.h"
   6:FT_Esd_Framework/FT_Esd_Dl.h **** #include "FT_Platform.h"
   7:FT_Esd_Framework/FT_Esd_Dl.h **** #include "Ft_Esd.h"
   8:FT_Esd_Framework/FT_Esd_Dl.h **** #include "FT_Gpu.h"
   9:FT_Esd_Framework/FT_Esd_Dl.h **** #include "Ft_Esd_BitmapInfo.h"
  10:FT_Esd_Framework/FT_Esd_Dl.h **** 
  11:FT_Esd_Framework/FT_Esd_Dl.h **** ESD_CATEGORY(EsdUtilities, DisplayName = "ESD Utilities")
  12:FT_Esd_Framework/FT_Esd_Dl.h **** ESD_CATEGORY(EveRenderFunctions, DisplayName = "EVE Render Functions")
  13:FT_Esd_Framework/FT_Esd_Dl.h **** 
  14:FT_Esd_Framework/FT_Esd_Dl.h **** ESD_TYPE(Ft_Gpu_Hal_Context_t *, Native = Pointer, Edit = Library)
  15:FT_Esd_Framework/FT_Esd_Dl.h **** 
  16:FT_Esd_Framework/FT_Esd_Dl.h **** // Keep cache of displaylist values that don't often change but are generally set by every widget t
  17:FT_Esd_Framework/FT_Esd_Dl.h **** #define FT_ESD_OPTIMIZE_DISPLAYLIST 1
  18:FT_Esd_Framework/FT_Esd_Dl.h **** #define FT_ESD_STATE_STACK_SIZE 5
  19:FT_Esd_Framework/FT_Esd_Dl.h **** 
  20:FT_Esd_Framework/FT_Esd_Dl.h **** #define FT_ESD_BITMAPHANDLE_INVALID 255
  21:FT_Esd_Framework/FT_Esd_Dl.h **** 
  22:FT_Esd_Framework/FT_Esd_Dl.h **** //
  23:FT_Esd_Framework/FT_Esd_Dl.h **** // Structs
  24:FT_Esd_Framework/FT_Esd_Dl.h **** //
  25:FT_Esd_Framework/FT_Esd_Dl.h **** #ifdef FT_ESD_OPTIMIZE_DISPLAYLIST
  26:FT_Esd_Framework/FT_Esd_Dl.h **** #define FT_ESD_STATE Ft_Esd_GpuState[Ft_Esd_GpuState_I]
  27:FT_Esd_Framework/FT_Esd_Dl.h **** typedef struct
  28:FT_Esd_Framework/FT_Esd_Dl.h **** {
  29:FT_Esd_Framework/FT_Esd_Dl.h **** 	// Keep to a minimum
  30:FT_Esd_Framework/FT_Esd_Dl.h **** #ifdef FT_81X_ENABLE
  31:FT_Esd_Framework/FT_Esd_Dl.h **** 	ft_uint32_t PaletteSource;
  32:FT_Esd_Framework/FT_Esd_Dl.h **** #endif
  33:FT_Esd_Framework/FT_Esd_Dl.h **** 	ft_uint32_t ColorRGB;
  34:FT_Esd_Framework/FT_Esd_Dl.h **** 	ft_uint8_t ColorA;
  35:FT_Esd_Framework/FT_Esd_Dl.h **** 	ft_uint8_t Handle;         // Current handle
  36:FT_Esd_Framework/FT_Esd_Dl.h **** 	ft_uint8_t Cell;           // Current cell
  37:FT_Esd_Framework/FT_Esd_Dl.h **** 	ft_bool_t BitmapTransform; // BitmapTransform other than default is set
  38:FT_Esd_Framework/FT_Esd_Dl.h **** #ifdef FT_81X_ENABLE
  39:FT_Esd_Framework/FT_Esd_Dl.h **** 	ft_uint8_t VertexFormat;   // Current vertex format
  40:FT_Esd_Framework/FT_Esd_Dl.h **** #endif
  41:FT_Esd_Framework/FT_Esd_Dl.h **** } Ft_Esd_GpuState_T;
  42:FT_Esd_Framework/FT_Esd_Dl.h **** #endif
  43:FT_Esd_Framework/FT_Esd_Dl.h **** 
  44:FT_Esd_Framework/FT_Esd_Dl.h **** //
  45:FT_Esd_Framework/FT_Esd_Dl.h **** // Globals
  46:FT_Esd_Framework/FT_Esd_Dl.h **** //
ARM GAS  /var/folders/n8/cvzdcwlj0vl4g_wtyz1ffy300000gn/T//ccSdcywG.s 			page 7


  47:FT_Esd_Framework/FT_Esd_Dl.h **** extern Ft_Gpu_Hal_Context_t *Ft_Esd_Host;
  48:FT_Esd_Framework/FT_Esd_Dl.h **** extern ft_uint16_t Ft_Esd_FontHeight[32];
  49:FT_Esd_Framework/FT_Esd_Dl.h **** #ifdef FT_ESD_OPTIMIZE_DISPLAYLIST
  50:FT_Esd_Framework/FT_Esd_Dl.h **** extern Ft_Esd_GpuState_T Ft_Esd_GpuState[FT_ESD_STATE_STACK_SIZE];
  51:FT_Esd_Framework/FT_Esd_Dl.h **** extern ft_uint8_t Ft_Esd_GpuState_I;
  52:FT_Esd_Framework/FT_Esd_Dl.h **** extern ft_uint32_t Ft_Esd_CoFgColor;
  53:FT_Esd_Framework/FT_Esd_Dl.h **** extern ft_uint32_t Ft_Esd_CoBgColor;
  54:FT_Esd_Framework/FT_Esd_Dl.h **** #endif
  55:FT_Esd_Framework/FT_Esd_Dl.h **** 
  56:FT_Esd_Framework/FT_Esd_Dl.h **** //Get the height of builtin font
  57:FT_Esd_Framework/FT_Esd_Dl.h **** ESD_FUNCTION(Ft_Esd_GetFontHeight, Type = ft_uint16_t ,DisplayName = "Get Font Height", Category = 
  58:FT_Esd_Framework/FT_Esd_Dl.h **** ESD_PARAMETER(i, Type = int, DisplayName = "Bitmap Handle", Default = 0, Min = 0, Max = 31)
  59:FT_Esd_Framework/FT_Esd_Dl.h **** // inline static ft_uint16_t Ft_Esd_GetFontHeight(int i) { return Ft_Esd_FontHeight[i]; }
  60:FT_Esd_Framework/FT_Esd_Dl.h **** #define Ft_Esd_GetFontHeight(i) (Ft_Esd_FontHeight[i]);
  61:FT_Esd_Framework/FT_Esd_Dl.h **** 
  62:FT_Esd_Framework/FT_Esd_Dl.h **** // Reset any cached state
  63:FT_Esd_Framework/FT_Esd_Dl.h **** void Ft_Esd_ResetGpuState();
  64:FT_Esd_Framework/FT_Esd_Dl.h **** void Ft_Esd_ResetCoState();
  65:FT_Esd_Framework/FT_Esd_Dl.h **** 
  66:FT_Esd_Framework/FT_Esd_Dl.h **** ft_uint32_t Ft_Esd_BitmapHandle_GetTotalUsed();
  67:FT_Esd_Framework/FT_Esd_Dl.h **** ft_uint32_t Ft_Esd_BitmapHandle_GetTotal();
  68:FT_Esd_Framework/FT_Esd_Dl.h **** 
  69:FT_Esd_Framework/FT_Esd_Dl.h **** /// Set current tag. Must be returned to 255 after usage, to ensure next widgets don't draw with in
  70:FT_Esd_Framework/FT_Esd_Dl.h **** ESD_FUNCTION(Ft_Esd_Dl_TAG, Type = ft_void_t, Category = EveRenderFunctions, Inline)
  71:FT_Esd_Framework/FT_Esd_Dl.h **** ESD_PARAMETER(s, Type = ft_uint8_t, DisplayName = "Tag", Default = 255, Min = 0, Max = 255)
  72:FT_Esd_Framework/FT_Esd_Dl.h **** inline static ft_void_t Ft_Esd_Dl_TAG(ft_uint8_t s)
  73:FT_Esd_Framework/FT_Esd_Dl.h **** {
  74:FT_Esd_Framework/FT_Esd_Dl.h **** 	Ft_Gpu_Hal_WrCmd32(Ft_Esd_Host, TAG(s));
  75:FT_Esd_Framework/FT_Esd_Dl.h **** }
  76:FT_Esd_Framework/FT_Esd_Dl.h **** //Specify color RGB
  77:FT_Esd_Framework/FT_Esd_Dl.h **** ESD_FUNCTION(Ft_Esd_Dl_COLOR_RGB, Type = ft_void_t, Category = EveRenderFunctions, Inline)
  78:FT_Esd_Framework/FT_Esd_Dl.h **** ESD_PARAMETER(c, Type = ft_rgb32_t, DisplayName = "Color")
  79:FT_Esd_Framework/FT_Esd_Dl.h **** inline static ft_void_t Ft_Esd_Dl_COLOR_RGB(ft_rgb32_t c)
  80:FT_Esd_Framework/FT_Esd_Dl.h **** {
  81:FT_Esd_Framework/FT_Esd_Dl.h **** #if FT_ESD_OPTIMIZE_DISPLAYLIST
  82:FT_Esd_Framework/FT_Esd_Dl.h **** 	ft_rgb32_t rgb = c & 0xFFFFFF;
  83:FT_Esd_Framework/FT_Esd_Dl.h **** 	if (rgb != FT_ESD_STATE.ColorRGB)
  84:FT_Esd_Framework/FT_Esd_Dl.h **** 	{
  85:FT_Esd_Framework/FT_Esd_Dl.h **** #endif
  86:FT_Esd_Framework/FT_Esd_Dl.h **** 		Ft_Gpu_Hal_WrCmd32(Ft_Esd_Host, (4UL << 24) | (rgb));
  87:FT_Esd_Framework/FT_Esd_Dl.h **** #if FT_ESD_OPTIMIZE_DISPLAYLIST
  88:FT_Esd_Framework/FT_Esd_Dl.h **** 		FT_ESD_STATE.ColorRGB = rgb;
  89:FT_Esd_Framework/FT_Esd_Dl.h **** 	}
  90:FT_Esd_Framework/FT_Esd_Dl.h **** #endif
  91:FT_Esd_Framework/FT_Esd_Dl.h **** }
  92:FT_Esd_Framework/FT_Esd_Dl.h **** //Specify alpha channel
  93:FT_Esd_Framework/FT_Esd_Dl.h **** ESD_FUNCTION(Ft_Esd_Dl_COLOR_A, Type = ft_void_t, Category = EveRenderFunctions, Inline)
  94:FT_Esd_Framework/FT_Esd_Dl.h **** ESD_PARAMETER(alpha, Type = ft_uint8_t, Default = 255, Min = 0, Max = 255)
  95:FT_Esd_Framework/FT_Esd_Dl.h **** inline static ft_void_t Ft_Esd_Dl_COLOR_A(ft_uint8_t alpha)
  96:FT_Esd_Framework/FT_Esd_Dl.h **** {
  97:FT_Esd_Framework/FT_Esd_Dl.h **** #if FT_ESD_OPTIMIZE_DISPLAYLIST
  98:FT_Esd_Framework/FT_Esd_Dl.h **** 	if (alpha != FT_ESD_STATE.ColorA)
 271              		.loc 2 98 0
 272 000a 3F4B     		ldr	r3, .L23
 273 000c 1A78     		ldrb	r2, [r3]	@ zero_extendqisi2
 274 000e 3F4B     		ldr	r3, .L23+4
 275 0010 03EB0213 		add	r3, r3, r2, lsl #4
ARM GAS  /var/folders/n8/cvzdcwlj0vl4g_wtyz1ffy300000gn/T//ccSdcywG.s 			page 8


 276 0014 1B7A     		ldrb	r3, [r3, #8]	@ zero_extendqisi2
 277 0016 FF2B     		cmp	r3, #255
 278 0018 0BD0     		beq	.L12
  99:FT_Esd_Framework/FT_Esd_Dl.h **** 	{
 100:FT_Esd_Framework/FT_Esd_Dl.h **** #endif
 101:FT_Esd_Framework/FT_Esd_Dl.h **** 		Ft_Gpu_Hal_WrCmd32(Ft_Esd_Host, COLOR_A(alpha));
 279              		.loc 2 101 0
 280 001a 3D49     		ldr	r1, .L23+8
 281 001c 3D4B     		ldr	r3, .L23+12
 282 001e 1868     		ldr	r0, [r3]
 283              	.LVL17:
 284 0020 FFF7FEFF 		bl	Ft_Gpu_Hal_WrCmd32
 285              	.LVL18:
 102:FT_Esd_Framework/FT_Esd_Dl.h **** #if FT_ESD_OPTIMIZE_DISPLAYLIST
 103:FT_Esd_Framework/FT_Esd_Dl.h **** 		FT_ESD_STATE.ColorA = alpha;
 286              		.loc 2 103 0
 287 0024 384B     		ldr	r3, .L23
 288 0026 1A78     		ldrb	r2, [r3]	@ zero_extendqisi2
 289 0028 384B     		ldr	r3, .L23+4
 290 002a 03EB0213 		add	r3, r3, r2, lsl #4
 291 002e FF22     		movs	r2, #255
 292 0030 1A72     		strb	r2, [r3, #8]
 293              	.L12:
 294              	.LVL19:
 295              	.LBE15:
 296              	.LBE14:
  44:FT_Esd_Widgets/Ft_Esd_ProgressBar__Generated.c **** 	ft_uint8_t alpha = 255;
  45:FT_Esd_Widgets/Ft_Esd_ProgressBar__Generated.c **** 	Ft_Esd_Dl_COLOR_A(alpha);
  46:FT_Esd_Widgets/Ft_Esd_ProgressBar__Generated.c **** 	Ft_Gpu_Hal_Context_t * phost = Ft_Esd_GetHost();
 297              		.loc 1 46 0
 298 0032 FFF7FEFF 		bl	Ft_Esd_GetHost
 299              	.LVL20:
 300 0036 0646     		mov	r6, r0
 301              	.LVL21:
  47:FT_Esd_Widgets/Ft_Esd_ProgressBar__Generated.c **** 	Ft_Esd_Theme * theme = context->Theme(parent);
 302              		.loc 1 47 0
 303 0038 6368     		ldr	r3, [r4, #4]
 304 003a 2846     		mov	r0, r5
 305              	.LVL22:
 306 003c 9847     		blx	r3
 307              	.LVL23:
 308              	.LBB16:
 309              	.LBB17:
 310              		.file 3 "FT_Esd_Widgets/FT_Esd_Theme.h"
   1:FT_Esd_Widgets/FT_Esd_Theme.h **** 
   2:FT_Esd_Widgets/FT_Esd_Theme.h **** #ifndef FT_ESD_THEME_H
   3:FT_Esd_Widgets/FT_Esd_Theme.h **** #define FT_ESD_THEME_H
   4:FT_Esd_Widgets/FT_Esd_Theme.h **** #include "FT_DataTypes.h"
   5:FT_Esd_Widgets/FT_Esd_Theme.h **** #include "Ft_Esd.h"
   6:FT_Esd_Widgets/FT_Esd_Theme.h **** 
   7:FT_Esd_Widgets/FT_Esd_Theme.h **** ESD_CATEGORY(EsdTheme, DisplayName = "ESD Theme")
   8:FT_Esd_Widgets/FT_Esd_Theme.h **** ESD_CATEGORY(EsdTheme_Themes, DisplayName = "Themes", Category = EsdTheme)
   9:FT_Esd_Widgets/FT_Esd_Theme.h **** 
  10:FT_Esd_Widgets/FT_Esd_Theme.h **** typedef unsigned int ft_uint32_t;
  11:FT_Esd_Widgets/FT_Esd_Theme.h **** 
  12:FT_Esd_Widgets/FT_Esd_Theme.h **** typedef struct
  13:FT_Esd_Widgets/FT_Esd_Theme.h **** {
ARM GAS  /var/folders/n8/cvzdcwlj0vl4g_wtyz1ffy300000gn/T//ccSdcywG.s 			page 9


  14:FT_Esd_Widgets/FT_Esd_Theme.h **** 	ft_rgb32_t ClearColor;
  15:FT_Esd_Widgets/FT_Esd_Theme.h **** 	ft_rgb32_t BackColor;
  16:FT_Esd_Widgets/FT_Esd_Theme.h **** 	ft_rgb32_t TextColor;
  17:FT_Esd_Widgets/FT_Esd_Theme.h **** 	ft_rgb32_t ButtonTextColor;
  18:FT_Esd_Widgets/FT_Esd_Theme.h **** 	ft_rgb32_t DefaultColor;
  19:FT_Esd_Widgets/FT_Esd_Theme.h **** 	ft_rgb32_t PrimaryColor;
  20:FT_Esd_Widgets/FT_Esd_Theme.h **** } Ft_Esd_Theme;
  21:FT_Esd_Widgets/FT_Esd_Theme.h **** 
  22:FT_Esd_Widgets/FT_Esd_Theme.h **** ESD_TYPE(Ft_Esd_Theme *, Native = Pointer, Edit = Library)
  23:FT_Esd_Widgets/FT_Esd_Theme.h **** 
  24:FT_Esd_Widgets/FT_Esd_Theme.h **** ESD_RENDER(Ft_Esd_Theme_SetCurrent, DisplayName = "Set Current Theme", Category = EsdTheme, Include
  25:FT_Esd_Widgets/FT_Esd_Theme.h **** ESD_PARAMETER(theme, Type = Ft_Esd_Theme *)
  26:FT_Esd_Widgets/FT_Esd_Theme.h **** void Ft_Esd_Theme_SetCurrent(Ft_Esd_Theme *theme);
  27:FT_Esd_Widgets/FT_Esd_Theme.h **** 
  28:FT_Esd_Widgets/FT_Esd_Theme.h **** ESD_FUNCTION(Ft_Esd_Theme_GetCurrent, DisplayName = "Current Theme", Category = EsdTheme, Type = Ft
  29:FT_Esd_Widgets/FT_Esd_Theme.h **** Ft_Esd_Theme *Ft_Esd_Theme_GetCurrent();
  30:FT_Esd_Widgets/FT_Esd_Theme.h **** 
  31:FT_Esd_Widgets/FT_Esd_Theme.h **** ESD_FUNCTION(Ft_Esd_Theme_GetClearColor, DisplayName = "Get Clear Color", Category = EsdTheme, Type
  32:FT_Esd_Widgets/FT_Esd_Theme.h **** ESD_PARAMETER(theme, Type = Ft_Esd_Theme *, Default = Ft_Esd_Theme_GetCurrent)
  33:FT_Esd_Widgets/FT_Esd_Theme.h **** inline static ft_rgb32_t Ft_Esd_Theme_GetClearColor(Ft_Esd_Theme *theme) { if (!theme) return Ft_Es
  34:FT_Esd_Widgets/FT_Esd_Theme.h **** 
  35:FT_Esd_Widgets/FT_Esd_Theme.h **** ESD_FUNCTION(Ft_Esd_Theme_GetBackColor, DisplayName = "Get Back Color", Category = EsdTheme, Type =
  36:FT_Esd_Widgets/FT_Esd_Theme.h **** ESD_PARAMETER(theme, Type = Ft_Esd_Theme *, Default = Ft_Esd_Theme_GetCurrent)
  37:FT_Esd_Widgets/FT_Esd_Theme.h **** inline static ft_rgb32_t Ft_Esd_Theme_GetBackColor(Ft_Esd_Theme *theme) { if (!theme) return Ft_Esd
 311              		.loc 3 37 0
 312 003e 0028     		cmp	r0, #0
 313 0040 57D0     		beq	.L20
 314 0042 4168     		ldr	r1, [r0, #4]
 315              	.LVL24:
 316              	.L14:
 317              	.LBE17:
 318              	.LBE16:
  48:FT_Esd_Widgets/Ft_Esd_ProgressBar__Generated.c **** 	ft_rgb32_t c = Ft_Esd_Theme_GetBackColor(theme);
  49:FT_Esd_Widgets/Ft_Esd_ProgressBar__Generated.c **** 	Ft_Gpu_CoCmd_BgColor(phost, c);
 319              		.loc 1 49 0
 320 0044 3046     		mov	r0, r6
 321 0046 FFF7FEFF 		bl	Ft_Gpu_CoCmd_BgColor
 322              	.LVL25:
  50:FT_Esd_Widgets/Ft_Esd_ProgressBar__Generated.c **** 	Ft_Esd_Theme * theme_1 = context->Theme(parent);
 323              		.loc 1 50 0
 324 004a 6368     		ldr	r3, [r4, #4]
 325 004c 2846     		mov	r0, r5
 326 004e 9847     		blx	r3
 327              	.LVL26:
 328              	.LBB19:
 329              	.LBB20:
  38:FT_Esd_Widgets/FT_Esd_Theme.h **** 
  39:FT_Esd_Widgets/FT_Esd_Theme.h **** ESD_FUNCTION(Ft_Esd_Theme_GetTextColor, DisplayName = "Get Text Color", Category = EsdTheme, Type =
  40:FT_Esd_Widgets/FT_Esd_Theme.h **** ESD_PARAMETER(theme, Type = Ft_Esd_Theme *, Default = Ft_Esd_Theme_GetCurrent)
  41:FT_Esd_Widgets/FT_Esd_Theme.h **** inline static ft_rgb32_t Ft_Esd_Theme_GetTextColor(Ft_Esd_Theme *theme) { if (!theme) return Ft_Esd
  42:FT_Esd_Widgets/FT_Esd_Theme.h **** 
  43:FT_Esd_Widgets/FT_Esd_Theme.h **** ESD_FUNCTION(Ft_Esd_Theme_GetButtonTextColor, DisplayName = "Get Button Text Color", Category = Esd
  44:FT_Esd_Widgets/FT_Esd_Theme.h **** ESD_PARAMETER(theme, Type = Ft_Esd_Theme *, Default = Ft_Esd_Theme_GetCurrent)
  45:FT_Esd_Widgets/FT_Esd_Theme.h **** inline static ft_rgb32_t Ft_Esd_Theme_GetButtonTextColor(Ft_Esd_Theme *theme) { if (!theme) return 
  46:FT_Esd_Widgets/FT_Esd_Theme.h **** 
  47:FT_Esd_Widgets/FT_Esd_Theme.h **** ESD_FUNCTION(Ft_Esd_Theme_GetCurrentColor, DisplayName = "Get Default Color", Category = EsdTheme, 
  48:FT_Esd_Widgets/FT_Esd_Theme.h **** ESD_PARAMETER(theme, Type = Ft_Esd_Theme *, Default = Ft_Esd_Theme_GetCurrent)
ARM GAS  /var/folders/n8/cvzdcwlj0vl4g_wtyz1ffy300000gn/T//ccSdcywG.s 			page 10


  49:FT_Esd_Widgets/FT_Esd_Theme.h **** inline static ft_rgb32_t Ft_Esd_Theme_GetCurrentColor(Ft_Esd_Theme *theme) { if (!theme) return Ft_
  50:FT_Esd_Widgets/FT_Esd_Theme.h **** 
  51:FT_Esd_Widgets/FT_Esd_Theme.h **** ESD_FUNCTION(Ft_Esd_Theme_GetPrimaryColor, DisplayName = "Get Primary Color", Category = EsdTheme, 
  52:FT_Esd_Widgets/FT_Esd_Theme.h **** ESD_PARAMETER(theme, Type = Ft_Esd_Theme *, Default = Ft_Esd_Theme_GetCurrent)
  53:FT_Esd_Widgets/FT_Esd_Theme.h **** inline static ft_rgb32_t Ft_Esd_Theme_GetPrimaryColor(Ft_Esd_Theme *theme) { if (!theme) return Ft_
 330              		.loc 3 53 0
 331 0050 0028     		cmp	r0, #0
 332 0052 52D0     		beq	.L21
 333 0054 4669     		ldr	r6, [r0, #20]
 334              	.LVL27:
 335              	.L16:
 336              	.LBE20:
 337              	.LBE19:
 338              	.LBB22:
 339              	.LBB23:
  82:FT_Esd_Framework/FT_Esd_Dl.h **** 	if (rgb != FT_ESD_STATE.ColorRGB)
 340              		.loc 2 82 0
 341 0056 26F07F46 		bic	r6, r6, #-16777216
 342              	.LVL28:
  83:FT_Esd_Framework/FT_Esd_Dl.h **** 	{
 343              		.loc 2 83 0
 344 005a 2B4B     		ldr	r3, .L23
 345 005c 1A78     		ldrb	r2, [r3]	@ zero_extendqisi2
 346 005e 2B4B     		ldr	r3, .L23+4
 347 0060 03EB0213 		add	r3, r3, r2, lsl #4
 348 0064 5B68     		ldr	r3, [r3, #4]
 349 0066 9E42     		cmp	r6, r3
 350 0068 0BD0     		beq	.L17
  86:FT_Esd_Framework/FT_Esd_Dl.h **** #if FT_ESD_OPTIMIZE_DISPLAYLIST
 351              		.loc 2 86 0
 352 006a 46F08061 		orr	r1, r6, #67108864
 353 006e 294B     		ldr	r3, .L23+12
 354 0070 1868     		ldr	r0, [r3]
 355 0072 FFF7FEFF 		bl	Ft_Gpu_Hal_WrCmd32
 356              	.LVL29:
  88:FT_Esd_Framework/FT_Esd_Dl.h **** 	}
 357              		.loc 2 88 0
 358 0076 244B     		ldr	r3, .L23
 359 0078 1A78     		ldrb	r2, [r3]	@ zero_extendqisi2
 360 007a 244B     		ldr	r3, .L23+4
 361 007c 03EB0213 		add	r3, r3, r2, lsl #4
 362 0080 5E60     		str	r6, [r3, #4]
 363              	.L17:
 364              	.LVL30:
 365              	.LBE23:
 366              	.LBE22:
  51:FT_Esd_Widgets/Ft_Esd_ProgressBar__Generated.c **** 	ft_rgb32_t c_1 = Ft_Esd_Theme_GetPrimaryColor(theme_1);
  52:FT_Esd_Widgets/Ft_Esd_ProgressBar__Generated.c **** 	Ft_Esd_Dl_COLOR_RGB(c_1);
  53:FT_Esd_Widgets/Ft_Esd_ProgressBar__Generated.c **** 	Ft_Gpu_Hal_Context_t * phost_1 = Ft_Esd_GetHost();
 367              		.loc 1 53 0
 368 0082 FFF7FEFF 		bl	Ft_Esd_GetHost
 369              	.LVL31:
 370 0086 8046     		mov	r8, r0
 371              	.LVL32:
  54:FT_Esd_Widgets/Ft_Esd_ProgressBar__Generated.c **** 	ft_int16_t left = context->X(parent);
 372              		.loc 1 54 0
 373 0088 A368     		ldr	r3, [r4, #8]
ARM GAS  /var/folders/n8/cvzdcwlj0vl4g_wtyz1ffy300000gn/T//ccSdcywG.s 			page 11


 374 008a 2846     		mov	r0, r5
 375              	.LVL33:
 376 008c 9847     		blx	r3
 377              	.LVL34:
 378 008e 0646     		mov	r6, r0
 379              	.LVL35:
  55:FT_Esd_Widgets/Ft_Esd_ProgressBar__Generated.c **** 	ft_int16_t left_1 = context->Height(parent);
 380              		.loc 1 55 0
 381 0090 6369     		ldr	r3, [r4, #20]
 382 0092 2846     		mov	r0, r5
 383 0094 9847     		blx	r3
 384              	.LVL36:
  56:FT_Esd_Widgets/Ft_Esd_ProgressBar__Generated.c **** 	ft_int16_t right_1 = 2;
  57:FT_Esd_Widgets/Ft_Esd_ProgressBar__Generated.c **** 	ft_int16_t right = left_1 / right_1;
 385              		.loc 1 57 0
 386 0096 0346     		mov	r3, r0
 387 0098 0028     		cmp	r0, #0
 388 009a 32DB     		blt	.L22
 389              	.L18:
 390              	.LVL37:
  58:FT_Esd_Widgets/Ft_Esd_ProgressBar__Generated.c **** 	ft_int16_t x = left + right;
 391              		.loc 1 58 0
 392 009c 06EB6306 		add	r6, r6, r3, asr #1
 393              	.LVL38:
 394 00a0 36B2     		sxth	r6, r6
 395              	.LVL39:
  59:FT_Esd_Widgets/Ft_Esd_ProgressBar__Generated.c **** 	ft_int16_t y = context->Y(parent);
 396              		.loc 1 59 0
 397 00a2 E368     		ldr	r3, [r4, #12]
 398              	.LVL40:
 399 00a4 2846     		mov	r0, r5
 400              	.LVL41:
 401 00a6 9847     		blx	r3
 402              	.LVL42:
 403 00a8 8146     		mov	r9, r0
 404              	.LVL43:
  60:FT_Esd_Widgets/Ft_Esd_ProgressBar__Generated.c **** 	ft_int16_t left_2 = context->Width(parent);
 405              		.loc 1 60 0
 406 00aa 2369     		ldr	r3, [r4, #16]
 407 00ac 2846     		mov	r0, r5
 408 00ae 9847     		blx	r3
 409              	.LVL44:
 410 00b0 0746     		mov	r7, r0
 411              	.LVL45:
  61:FT_Esd_Widgets/Ft_Esd_ProgressBar__Generated.c **** 	ft_int16_t right_2 = context->Height(parent);
 412              		.loc 1 61 0
 413 00b2 6369     		ldr	r3, [r4, #20]
 414 00b4 2846     		mov	r0, r5
 415 00b6 9847     		blx	r3
 416              	.LVL46:
  62:FT_Esd_Widgets/Ft_Esd_ProgressBar__Generated.c **** 	ft_int16_t width = left_2 - right_2;
 417              		.loc 1 62 0
 418 00b8 3F1A     		subs	r7, r7, r0
 419              	.LVL47:
 420 00ba 3FB2     		sxth	r7, r7
 421              	.LVL48:
  63:FT_Esd_Widgets/Ft_Esd_ProgressBar__Generated.c **** 	ft_int16_t height = context->Height(parent);
ARM GAS  /var/folders/n8/cvzdcwlj0vl4g_wtyz1ffy300000gn/T//ccSdcywG.s 			page 12


 422              		.loc 1 63 0
 423 00bc 6369     		ldr	r3, [r4, #20]
 424 00be 2846     		mov	r0, r5
 425              	.LVL49:
 426 00c0 9847     		blx	r3
 427              	.LVL50:
 428 00c2 8246     		mov	r10, r0
 429              	.LVL51:
  64:FT_Esd_Widgets/Ft_Esd_ProgressBar__Generated.c **** 	ft_uint16_t options = 0;
  65:FT_Esd_Widgets/Ft_Esd_ProgressBar__Generated.c **** 	ft_uint16_t val = context->Val(parent);
 430              		.loc 1 65 0
 431 00c4 A369     		ldr	r3, [r4, #24]
 432 00c6 2846     		mov	r0, r5
 433 00c8 9847     		blx	r3
 434              	.LVL52:
 435 00ca 8346     		mov	fp, r0
 436              	.LVL53:
  66:FT_Esd_Widgets/Ft_Esd_ProgressBar__Generated.c **** 	ft_uint16_t range = context->Range(parent);
 437              		.loc 1 66 0
 438 00cc E369     		ldr	r3, [r4, #28]
 439 00ce 2846     		mov	r0, r5
 440 00d0 9847     		blx	r3
 441              	.LVL54:
  67:FT_Esd_Widgets/Ft_Esd_ProgressBar__Generated.c **** 	Ft_Gpu_CoCmd_Progress(phost_1, x, y, width, height, options, val, range);
 442              		.loc 1 67 0
 443 00d2 0390     		str	r0, [sp, #12]
 444 00d4 CDF808B0 		str	fp, [sp, #8]
 445 00d8 0023     		movs	r3, #0
 446 00da 0193     		str	r3, [sp, #4]
 447 00dc CDF800A0 		str	r10, [sp]
 448 00e0 3B46     		mov	r3, r7
 449 00e2 4A46     		mov	r2, r9
 450 00e4 3146     		mov	r1, r6
 451 00e6 4046     		mov	r0, r8
 452              	.LVL55:
 453 00e8 FFF7FEFF 		bl	Ft_Gpu_CoCmd_Progress
 454              	.LVL56:
  68:FT_Esd_Widgets/Ft_Esd_ProgressBar__Generated.c **** }
 455              		.loc 1 68 0
 456 00ec 05B0     		add	sp, sp, #20
 457              	.LCFI2:
 458              		.cfi_remember_state
 459              		.cfi_def_cfa_offset 36
 460              		@ sp needed
 461 00ee BDE8F08F 		pop	{r4, r5, r6, r7, r8, r9, r10, fp, pc}
 462              	.LVL57:
 463              	.L20:
 464              	.LCFI3:
 465              		.cfi_restore_state
 466              	.LBB24:
 467              	.LBB18:
  37:FT_Esd_Widgets/FT_Esd_Theme.h **** 
 468              		.loc 3 37 0
 469 00f2 FFF7FEFF 		bl	Ft_Esd_Theme_GetCurrent
 470              	.LVL58:
 471 00f6 4168     		ldr	r1, [r0, #4]
 472 00f8 A4E7     		b	.L14
ARM GAS  /var/folders/n8/cvzdcwlj0vl4g_wtyz1ffy300000gn/T//ccSdcywG.s 			page 13


 473              	.LVL59:
 474              	.L21:
 475              	.LBE18:
 476              	.LBE24:
 477              	.LBB25:
 478              	.LBB21:
 479              		.loc 3 53 0
 480 00fa FFF7FEFF 		bl	Ft_Esd_Theme_GetCurrent
 481              	.LVL60:
 482 00fe 4669     		ldr	r6, [r0, #20]
 483              	.LVL61:
 484 0100 A9E7     		b	.L16
 485              	.LVL62:
 486              	.L22:
 487              	.LBE21:
 488              	.LBE25:
  57:FT_Esd_Widgets/Ft_Esd_ProgressBar__Generated.c **** 	ft_int16_t x = left + right;
 489              		.loc 1 57 0
 490 0102 431C     		adds	r3, r0, #1
 491 0104 CAE7     		b	.L18
 492              	.L24:
 493 0106 00BF     		.align	2
 494              	.L23:
 495 0108 00000000 		.word	Ft_Esd_GpuState_I
 496 010c 00000000 		.word	Ft_Esd_GpuState
 497 0110 FF000010 		.word	268435711
 498 0114 00000000 		.word	Ft_Esd_Host
 499              		.cfi_endproc
 500              	.LFE31:
 502              		.text
 503              	.Letext0:
 504              		.file 4 "FT_Eve_Hal/FT_DataTypes.h"
 505              		.file 5 "/usr/local/Cellar/arm-none-eabi-gcc/20180627/arm-none-eabi/include/sys/lock.h"
 506              		.file 6 "/usr/local/Cellar/arm-none-eabi-gcc/20180627/arm-none-eabi/include/sys/_types.h"
 507              		.file 7 "/usr/local/Cellar/arm-none-eabi-gcc/20180627/lib/gcc/arm-none-eabi/7.3.1/include/stddef.h
 508              		.file 8 "/usr/local/Cellar/arm-none-eabi-gcc/20180627/arm-none-eabi/include/sys/unistd.h"
 509              		.file 9 "/usr/local/Cellar/arm-none-eabi-gcc/20180627/arm-none-eabi/include/sys/reent.h"
 510              		.file 10 "/usr/local/Cellar/arm-none-eabi-gcc/20180627/arm-none-eabi/include/stdlib.h"
 511              		.file 11 "FT_Eve_Hal/FT_Gpu_Hal.h"
 512              		.file 12 "FT_Esd_Framework/Ft_Esd.h"
 513              		.file 13 "FT_Esd_Widgets/Ft_Esd_DefaultTheme.h"
 514              		.file 14 "FT_Esd_Widgets/Ft_Esd_ProgressBar.h"
 515              		.file 15 "FT_Esd_Framework/FT_Esd_CoPro_Cmds.h"
ARM GAS  /var/folders/n8/cvzdcwlj0vl4g_wtyz1ffy300000gn/T//ccSdcywG.s 			page 14

