ARM GAS  /var/folders/n8/cvzdcwlj0vl4g_wtyz1ffy300000gn/T//ccAQSt7v.s 			page 1


   1              		.cpu cortex-m7
   2              		.eabi_attribute 27, 1
   3              		.eabi_attribute 28, 1
   4              		.eabi_attribute 20, 1
   5              		.eabi_attribute 21, 1
   6              		.eabi_attribute 23, 3
   7              		.eabi_attribute 24, 1
   8              		.eabi_attribute 25, 1
   9              		.eabi_attribute 26, 1
  10              		.eabi_attribute 30, 1
  11              		.eabi_attribute 34, 1
  12              		.eabi_attribute 18, 4
  13              		.file	"Ft_Esd_Slider__Generated.c"
  14              		.text
  15              	.Ltext0:
  16              		.cfi_sections	.debug_frame
  17              		.section	.text.Ft_Esd_Slider_X__Default,"ax",%progbits
  18              		.align	1
  19              		.global	Ft_Esd_Slider_X__Default
  20              		.syntax unified
  21              		.thumb
  22              		.thumb_func
  23              		.fpu fpv5-sp-d16
  25              	Ft_Esd_Slider_X__Default:
  26              	.LFB24:
  27              		.file 1 "FT_Esd_Widgets/Ft_Esd_Slider__Generated.c"
   1:FT_Esd_Widgets/Ft_Esd_Slider__Generated.c **** /*
   2:FT_Esd_Widgets/Ft_Esd_Slider__Generated.c **** This file is automatically generated
   3:FT_Esd_Widgets/Ft_Esd_Slider__Generated.c **** Ft_Esd_Slider
   4:FT_Esd_Widgets/Ft_Esd_Slider__Generated.c **** C Source
   5:FT_Esd_Widgets/Ft_Esd_Slider__Generated.c **** */
   6:FT_Esd_Widgets/Ft_Esd_Slider__Generated.c **** 
   7:FT_Esd_Widgets/Ft_Esd_Slider__Generated.c **** #include "Ft_Esd_Slider.h"
   8:FT_Esd_Widgets/Ft_Esd_Slider__Generated.c **** 
   9:FT_Esd_Widgets/Ft_Esd_Slider__Generated.c **** #include "FT_Esd_CoPro_Cmds.h"
  10:FT_Esd_Widgets/Ft_Esd_Slider__Generated.c **** #include "FT_Esd_Dl.h"
  11:FT_Esd_Widgets/Ft_Esd_Slider__Generated.c **** #include "FT_Gpu.h"
  12:FT_Esd_Widgets/Ft_Esd_Slider__Generated.c **** 
  13:FT_Esd_Widgets/Ft_Esd_Slider__Generated.c **** extern void Ft_Esd_Noop(void *context);
  14:FT_Esd_Widgets/Ft_Esd_Slider__Generated.c **** Ft_Esd_Theme * Ft_Esd_Slider_Theme__Default(void *context) { return Ft_Esd_Theme_GetCurrent(); }
  15:FT_Esd_Widgets/Ft_Esd_Slider__Generated.c **** ft_int16_t Ft_Esd_Slider_X__Default(void *context) { return 10; }
  28              		.loc 1 15 0
  29              		.cfi_startproc
  30              		@ args = 0, pretend = 0, frame = 0
  31              		@ frame_needed = 0, uses_anonymous_args = 0
  32              		@ link register save eliminated.
  33              	.LVL0:
  34              		.loc 1 15 0
  35 0000 0A20     		movs	r0, #10
  36              	.LVL1:
  37 0002 7047     		bx	lr
  38              		.cfi_endproc
  39              	.LFE24:
  41              		.section	.text.Ft_Esd_Slider_Y__Default,"ax",%progbits
  42              		.align	1
  43              		.global	Ft_Esd_Slider_Y__Default
  44              		.syntax unified
ARM GAS  /var/folders/n8/cvzdcwlj0vl4g_wtyz1ffy300000gn/T//ccAQSt7v.s 			page 2


  45              		.thumb
  46              		.thumb_func
  47              		.fpu fpv5-sp-d16
  49              	Ft_Esd_Slider_Y__Default:
  50              	.LFB25:
  16:FT_Esd_Widgets/Ft_Esd_Slider__Generated.c **** ft_int16_t Ft_Esd_Slider_Y__Default(void *context) { return 10; }
  51              		.loc 1 16 0
  52              		.cfi_startproc
  53              		@ args = 0, pretend = 0, frame = 0
  54              		@ frame_needed = 0, uses_anonymous_args = 0
  55              		@ link register save eliminated.
  56              	.LVL2:
  57              		.loc 1 16 0
  58 0000 0A20     		movs	r0, #10
  59              	.LVL3:
  60 0002 7047     		bx	lr
  61              		.cfi_endproc
  62              	.LFE25:
  64              		.section	.text.Ft_Esd_Slider_Width__Default,"ax",%progbits
  65              		.align	1
  66              		.global	Ft_Esd_Slider_Width__Default
  67              		.syntax unified
  68              		.thumb
  69              		.thumb_func
  70              		.fpu fpv5-sp-d16
  72              	Ft_Esd_Slider_Width__Default:
  73              	.LFB26:
  17:FT_Esd_Widgets/Ft_Esd_Slider__Generated.c **** ft_int16_t Ft_Esd_Slider_Width__Default(void *context) { return 160; }
  74              		.loc 1 17 0
  75              		.cfi_startproc
  76              		@ args = 0, pretend = 0, frame = 0
  77              		@ frame_needed = 0, uses_anonymous_args = 0
  78              		@ link register save eliminated.
  79              	.LVL4:
  80              		.loc 1 17 0
  81 0000 A020     		movs	r0, #160
  82              	.LVL5:
  83 0002 7047     		bx	lr
  84              		.cfi_endproc
  85              	.LFE26:
  87              		.section	.text.Ft_Esd_Slider_Height__Default,"ax",%progbits
  88              		.align	1
  89              		.global	Ft_Esd_Slider_Height__Default
  90              		.syntax unified
  91              		.thumb
  92              		.thumb_func
  93              		.fpu fpv5-sp-d16
  95              	Ft_Esd_Slider_Height__Default:
  96              	.LFB27:
  18:FT_Esd_Widgets/Ft_Esd_Slider__Generated.c **** ft_int16_t Ft_Esd_Slider_Height__Default(void *context) { return 20; }
  97              		.loc 1 18 0
  98              		.cfi_startproc
  99              		@ args = 0, pretend = 0, frame = 0
 100              		@ frame_needed = 0, uses_anonymous_args = 0
 101              		@ link register save eliminated.
 102              	.LVL6:
 103              		.loc 1 18 0
ARM GAS  /var/folders/n8/cvzdcwlj0vl4g_wtyz1ffy300000gn/T//ccAQSt7v.s 			page 3


 104 0000 1420     		movs	r0, #20
 105              	.LVL7:
 106 0002 7047     		bx	lr
 107              		.cfi_endproc
 108              	.LFE27:
 110              		.section	.text.Ft_Esd_Slider_Alpha__Default,"ax",%progbits
 111              		.align	1
 112              		.global	Ft_Esd_Slider_Alpha__Default
 113              		.syntax unified
 114              		.thumb
 115              		.thumb_func
 116              		.fpu fpv5-sp-d16
 118              	Ft_Esd_Slider_Alpha__Default:
 119              	.LFB28:
  19:FT_Esd_Widgets/Ft_Esd_Slider__Generated.c **** ft_uint8_t Ft_Esd_Slider_Alpha__Default(void *context) { return 255; }
 120              		.loc 1 19 0
 121              		.cfi_startproc
 122              		@ args = 0, pretend = 0, frame = 0
 123              		@ frame_needed = 0, uses_anonymous_args = 0
 124              		@ link register save eliminated.
 125              	.LVL8:
 126              		.loc 1 19 0
 127 0000 FF20     		movs	r0, #255
 128              	.LVL9:
 129 0002 7047     		bx	lr
 130              		.cfi_endproc
 131              	.LFE28:
 133              		.section	.text.Ft_Esd_Slider_Changed__Noop,"ax",%progbits
 134              		.align	1
 135              		.global	Ft_Esd_Slider_Changed__Noop
 136              		.syntax unified
 137              		.thumb
 138              		.thumb_func
 139              		.fpu fpv5-sp-d16
 141              	Ft_Esd_Slider_Changed__Noop:
 142              	.LFB29:
  20:FT_Esd_Widgets/Ft_Esd_Slider__Generated.c **** void Ft_Esd_Slider_Changed__Noop(void *context, int value) { }
 143              		.loc 1 20 0
 144              		.cfi_startproc
 145              		@ args = 0, pretend = 0, frame = 0
 146              		@ frame_needed = 0, uses_anonymous_args = 0
 147              		@ link register save eliminated.
 148              	.LVL10:
 149              		.loc 1 20 0
 150 0000 7047     		bx	lr
 151              		.cfi_endproc
 152              	.LFE29:
 154              		.section	.text.Ft_Esd_Slider_Range__Default,"ax",%progbits
 155              		.align	1
 156              		.global	Ft_Esd_Slider_Range__Default
 157              		.syntax unified
 158              		.thumb
 159              		.thumb_func
 160              		.fpu fpv5-sp-d16
 162              	Ft_Esd_Slider_Range__Default:
 163              	.LFB30:
  21:FT_Esd_Widgets/Ft_Esd_Slider__Generated.c **** ft_int16_t Ft_Esd_Slider_Range__Default(void *context) { return 100; }
ARM GAS  /var/folders/n8/cvzdcwlj0vl4g_wtyz1ffy300000gn/T//ccAQSt7v.s 			page 4


 164              		.loc 1 21 0
 165              		.cfi_startproc
 166              		@ args = 0, pretend = 0, frame = 0
 167              		@ frame_needed = 0, uses_anonymous_args = 0
 168              		@ link register save eliminated.
 169              	.LVL11:
 170              		.loc 1 21 0
 171 0000 6420     		movs	r0, #100
 172              	.LVL12:
 173 0002 7047     		bx	lr
 174              		.cfi_endproc
 175              	.LFE30:
 177              		.section	.text.Ft_Esd_Slider_Theme__Default,"ax",%progbits
 178              		.align	1
 179              		.global	Ft_Esd_Slider_Theme__Default
 180              		.syntax unified
 181              		.thumb
 182              		.thumb_func
 183              		.fpu fpv5-sp-d16
 185              	Ft_Esd_Slider_Theme__Default:
 186              	.LFB23:
  14:FT_Esd_Widgets/Ft_Esd_Slider__Generated.c **** ft_int16_t Ft_Esd_Slider_X__Default(void *context) { return 10; }
 187              		.loc 1 14 0
 188              		.cfi_startproc
 189              		@ args = 0, pretend = 0, frame = 0
 190              		@ frame_needed = 0, uses_anonymous_args = 0
 191              	.LVL13:
 192 0000 08B5     		push	{r3, lr}
 193              	.LCFI0:
 194              		.cfi_def_cfa_offset 8
 195              		.cfi_offset 3, -8
 196              		.cfi_offset 14, -4
  14:FT_Esd_Widgets/Ft_Esd_Slider__Generated.c **** ft_int16_t Ft_Esd_Slider_X__Default(void *context) { return 10; }
 197              		.loc 1 14 0
 198 0002 FFF7FEFF 		bl	Ft_Esd_Theme_GetCurrent
 199              	.LVL14:
 200 0006 08BD     		pop	{r3, pc}
 201              		.cfi_endproc
 202              	.LFE23:
 204              		.section	.text.Ft_Esd_Slider_Get_Primary_Color__return,"ax",%progbits
 205              		.align	1
 206              		.syntax unified
 207              		.thumb
 208              		.thumb_func
 209              		.fpu fpv5-sp-d16
 211              	Ft_Esd_Slider_Get_Primary_Color__return:
 212              	.LFB36:
  22:FT_Esd_Widgets/Ft_Esd_Slider__Generated.c **** 
  23:FT_Esd_Widgets/Ft_Esd_Slider__Generated.c **** Ft_Esd_Theme * Ft_Esd_Theme_GetCurrent();
  24:FT_Esd_Widgets/Ft_Esd_Slider__Generated.c **** Ft_Gpu_Hal_Context_t * Ft_Esd_GetHost();
  25:FT_Esd_Widgets/Ft_Esd_Slider__Generated.c **** 
  26:FT_Esd_Widgets/Ft_Esd_Slider__Generated.c **** static void Ft_Esd_Slider_TouchTag_Down__Signal(void *context);
  27:FT_Esd_Widgets/Ft_Esd_Slider__Generated.c **** 
  28:FT_Esd_Widgets/Ft_Esd_Slider__Generated.c **** void Ft_Esd_Slider__Initializer(Ft_Esd_Slider *context)
  29:FT_Esd_Widgets/Ft_Esd_Slider__Generated.c **** {
  30:FT_Esd_Widgets/Ft_Esd_Slider__Generated.c **** 	context->Parent = 0;
  31:FT_Esd_Widgets/Ft_Esd_Slider__Generated.c **** 	context->Theme = Ft_Esd_Slider_Theme__Default;
ARM GAS  /var/folders/n8/cvzdcwlj0vl4g_wtyz1ffy300000gn/T//ccAQSt7v.s 			page 5


  32:FT_Esd_Widgets/Ft_Esd_Slider__Generated.c **** 	Ft_Esd_TouchTag__Initializer(&context->TouchTag);
  33:FT_Esd_Widgets/Ft_Esd_Slider__Generated.c **** 	context->TouchTag.Parent = context;
  34:FT_Esd_Widgets/Ft_Esd_Slider__Generated.c **** 	context->TouchTag.Down = Ft_Esd_Slider_TouchTag_Down__Signal;
  35:FT_Esd_Widgets/Ft_Esd_Slider__Generated.c **** 	context->X = Ft_Esd_Slider_X__Default;
  36:FT_Esd_Widgets/Ft_Esd_Slider__Generated.c **** 	context->Y = Ft_Esd_Slider_Y__Default;
  37:FT_Esd_Widgets/Ft_Esd_Slider__Generated.c **** 	context->Width = Ft_Esd_Slider_Width__Default;
  38:FT_Esd_Widgets/Ft_Esd_Slider__Generated.c **** 	context->Height = Ft_Esd_Slider_Height__Default;
  39:FT_Esd_Widgets/Ft_Esd_Slider__Generated.c **** 	context->Alpha = Ft_Esd_Slider_Alpha__Default;
  40:FT_Esd_Widgets/Ft_Esd_Slider__Generated.c **** 	context->Value = 0;
  41:FT_Esd_Widgets/Ft_Esd_Slider__Generated.c **** 	context->Changed = Ft_Esd_Slider_Changed__Noop;
  42:FT_Esd_Widgets/Ft_Esd_Slider__Generated.c **** 	context->PreviousValue = 0;
  43:FT_Esd_Widgets/Ft_Esd_Slider__Generated.c **** 	context->PreviousX = 0;
  44:FT_Esd_Widgets/Ft_Esd_Slider__Generated.c **** 	context->Range = Ft_Esd_Slider_Range__Default;
  45:FT_Esd_Widgets/Ft_Esd_Slider__Generated.c **** 	context->PreviousY = 0;
  46:FT_Esd_Widgets/Ft_Esd_Slider__Generated.c **** }
  47:FT_Esd_Widgets/Ft_Esd_Slider__Generated.c **** 
  48:FT_Esd_Widgets/Ft_Esd_Slider__Generated.c **** static ft_rgb32_t Ft_Esd_Slider_Get_Primary_Color__return(Ft_Esd_Slider *context);
  49:FT_Esd_Widgets/Ft_Esd_Slider__Generated.c **** static ft_int16_t Ft_Esd_Slider_Ft_Esd_Slider_ClampedValue__return(Ft_Esd_Slider *context);
  50:FT_Esd_Widgets/Ft_Esd_Slider__Generated.c **** 
  51:FT_Esd_Widgets/Ft_Esd_Slider__Generated.c **** ft_void_t Ft_Gpu_CoCmd_BgColor(Ft_Gpu_Hal_Context_t *, ft_rgb32_t);
  52:FT_Esd_Widgets/Ft_Esd_Slider__Generated.c **** ft_void_t Ft_Gpu_CoCmd_FgColor(Ft_Gpu_Hal_Context_t *, ft_rgb32_t);
  53:FT_Esd_Widgets/Ft_Esd_Slider__Generated.c **** void Ft_Esd_Slider_Update_Signal(Ft_Esd_Slider *context);
  54:FT_Esd_Widgets/Ft_Esd_Slider__Generated.c **** ft_int16_t Ft_Esd_Slider_ClampedValue(Ft_Esd_Slider *context);
  55:FT_Esd_Widgets/Ft_Esd_Slider__Generated.c **** ft_void_t Ft_Gpu_CoCmd_Slider(Ft_Gpu_Hal_Context_t *, ft_int16_t, ft_int16_t, ft_int16_t, ft_int16_
  56:FT_Esd_Widgets/Ft_Esd_Slider__Generated.c **** 
  57:FT_Esd_Widgets/Ft_Esd_Slider__Generated.c **** void Ft_Esd_Slider_Render(Ft_Esd_Slider *context)
  58:FT_Esd_Widgets/Ft_Esd_Slider__Generated.c **** {
  59:FT_Esd_Widgets/Ft_Esd_Slider__Generated.c **** 	void *parent = context->Parent;
  60:FT_Esd_Widgets/Ft_Esd_Slider__Generated.c **** 	ft_uint8_t alpha = context->Alpha(parent);
  61:FT_Esd_Widgets/Ft_Esd_Slider__Generated.c **** 	Ft_Esd_Dl_COLOR_A(alpha);
  62:FT_Esd_Widgets/Ft_Esd_Slider__Generated.c **** 	ft_bool_t if_1 = Ft_Esd_TouchTag_Touching(&context->TouchTag);
  63:FT_Esd_Widgets/Ft_Esd_Slider__Generated.c **** 	ft_rgb32_t c;
  64:FT_Esd_Widgets/Ft_Esd_Slider__Generated.c **** 	if (if_1)
  65:FT_Esd_Widgets/Ft_Esd_Slider__Generated.c **** 	{
  66:FT_Esd_Widgets/Ft_Esd_Slider__Generated.c **** 		c = Ft_Esd_Slider_Get_Primary_Color__return(context);
  67:FT_Esd_Widgets/Ft_Esd_Slider__Generated.c **** 	}
  68:FT_Esd_Widgets/Ft_Esd_Slider__Generated.c **** 	else
  69:FT_Esd_Widgets/Ft_Esd_Slider__Generated.c **** 	{
  70:FT_Esd_Widgets/Ft_Esd_Slider__Generated.c **** 		Ft_Esd_Theme * theme = context->Theme(parent);
  71:FT_Esd_Widgets/Ft_Esd_Slider__Generated.c **** 		c = Ft_Esd_Theme_GetCurrentColor(theme);
  72:FT_Esd_Widgets/Ft_Esd_Slider__Generated.c **** 	}
  73:FT_Esd_Widgets/Ft_Esd_Slider__Generated.c **** 	Ft_Esd_Dl_COLOR_RGB(c);
  74:FT_Esd_Widgets/Ft_Esd_Slider__Generated.c **** 	Ft_Gpu_Hal_Context_t * phost = Ft_Esd_GetHost();
  75:FT_Esd_Widgets/Ft_Esd_Slider__Generated.c **** 	Ft_Esd_Theme * theme_1 = context->Theme(parent);
  76:FT_Esd_Widgets/Ft_Esd_Slider__Generated.c **** 	ft_rgb32_t c_1 = Ft_Esd_Theme_GetBackColor(theme_1);
  77:FT_Esd_Widgets/Ft_Esd_Slider__Generated.c **** 	Ft_Gpu_CoCmd_BgColor(phost, c_1);
  78:FT_Esd_Widgets/Ft_Esd_Slider__Generated.c **** 	Ft_Gpu_Hal_Context_t * phost_1 = Ft_Esd_GetHost();
  79:FT_Esd_Widgets/Ft_Esd_Slider__Generated.c **** 	ft_rgb32_t c_2 = Ft_Esd_Slider_Get_Primary_Color__return(context);
  80:FT_Esd_Widgets/Ft_Esd_Slider__Generated.c **** 	Ft_Gpu_CoCmd_FgColor(phost_1, c_2);
  81:FT_Esd_Widgets/Ft_Esd_Slider__Generated.c **** 	ft_uint8_t s = Ft_Esd_TouchTag_Tag(&context->TouchTag);
  82:FT_Esd_Widgets/Ft_Esd_Slider__Generated.c **** 	Ft_Esd_Dl_TAG(s);
  83:FT_Esd_Widgets/Ft_Esd_Slider__Generated.c **** 	Ft_Gpu_Hal_Context_t * phost_2 = Ft_Esd_GetHost();
  84:FT_Esd_Widgets/Ft_Esd_Slider__Generated.c **** 	ft_int16_t left = context->X(parent);
  85:FT_Esd_Widgets/Ft_Esd_Slider__Generated.c **** 	ft_int16_t left_1 = context->Height(parent);
  86:FT_Esd_Widgets/Ft_Esd_Slider__Generated.c **** 	ft_int16_t right_1 = 2;
  87:FT_Esd_Widgets/Ft_Esd_Slider__Generated.c **** 	ft_int16_t right = left_1 / right_1;
  88:FT_Esd_Widgets/Ft_Esd_Slider__Generated.c **** 	ft_int16_t x = left + right;
ARM GAS  /var/folders/n8/cvzdcwlj0vl4g_wtyz1ffy300000gn/T//ccAQSt7v.s 			page 6


  89:FT_Esd_Widgets/Ft_Esd_Slider__Generated.c **** 	ft_int16_t y = context->Y(parent);
  90:FT_Esd_Widgets/Ft_Esd_Slider__Generated.c **** 	ft_int16_t left_2 = context->Width(parent);
  91:FT_Esd_Widgets/Ft_Esd_Slider__Generated.c **** 	ft_int16_t right_2 = context->Height(parent);
  92:FT_Esd_Widgets/Ft_Esd_Slider__Generated.c **** 	ft_int16_t width = left_2 - right_2;
  93:FT_Esd_Widgets/Ft_Esd_Slider__Generated.c **** 	ft_int16_t height = context->Height(parent);
  94:FT_Esd_Widgets/Ft_Esd_Slider__Generated.c **** 	ft_uint16_t options = 0;
  95:FT_Esd_Widgets/Ft_Esd_Slider__Generated.c **** 	ft_int16_t val = Ft_Esd_Slider_Ft_Esd_Slider_ClampedValue__return(context);
  96:FT_Esd_Widgets/Ft_Esd_Slider__Generated.c **** 	ft_int16_t range = context->Range(parent);
  97:FT_Esd_Widgets/Ft_Esd_Slider__Generated.c **** 	Ft_Gpu_CoCmd_Slider(phost_2, x, y, width, height, options, val, range);
  98:FT_Esd_Widgets/Ft_Esd_Slider__Generated.c **** 	ft_uint8_t s_1 = 255;
  99:FT_Esd_Widgets/Ft_Esd_Slider__Generated.c **** 	Ft_Esd_Dl_TAG(s_1);
 100:FT_Esd_Widgets/Ft_Esd_Slider__Generated.c **** }
 101:FT_Esd_Widgets/Ft_Esd_Slider__Generated.c **** 
 102:FT_Esd_Widgets/Ft_Esd_Slider__Generated.c **** void Ft_Esd_Slider_Start(Ft_Esd_Slider *context)
 103:FT_Esd_Widgets/Ft_Esd_Slider__Generated.c **** {
 104:FT_Esd_Widgets/Ft_Esd_Slider__Generated.c **** 	void *parent = context->Parent;
 105:FT_Esd_Widgets/Ft_Esd_Slider__Generated.c **** 	Ft_Esd_TouchTag_Start(&context->TouchTag);
 106:FT_Esd_Widgets/Ft_Esd_Slider__Generated.c **** }
 107:FT_Esd_Widgets/Ft_Esd_Slider__Generated.c **** 
 108:FT_Esd_Widgets/Ft_Esd_Slider__Generated.c **** void Ft_Esd_Slider_Update(Ft_Esd_Slider *context)
 109:FT_Esd_Widgets/Ft_Esd_Slider__Generated.c **** {
 110:FT_Esd_Widgets/Ft_Esd_Slider__Generated.c **** 	void *parent = context->Parent;
 111:FT_Esd_Widgets/Ft_Esd_Slider__Generated.c **** 	Ft_Esd_TouchTag_Update(&context->TouchTag);
 112:FT_Esd_Widgets/Ft_Esd_Slider__Generated.c **** 	Ft_Esd_Slider_Update_Signal(context);
 113:FT_Esd_Widgets/Ft_Esd_Slider__Generated.c **** }
 114:FT_Esd_Widgets/Ft_Esd_Slider__Generated.c **** 
 115:FT_Esd_Widgets/Ft_Esd_Slider__Generated.c **** void Ft_Esd_Slider_End(Ft_Esd_Slider *context)
 116:FT_Esd_Widgets/Ft_Esd_Slider__Generated.c **** {
 117:FT_Esd_Widgets/Ft_Esd_Slider__Generated.c **** 	void *parent = context->Parent;
 118:FT_Esd_Widgets/Ft_Esd_Slider__Generated.c **** 	Ft_Esd_TouchTag_End(&context->TouchTag);
 119:FT_Esd_Widgets/Ft_Esd_Slider__Generated.c **** }
 120:FT_Esd_Widgets/Ft_Esd_Slider__Generated.c **** 
 121:FT_Esd_Widgets/Ft_Esd_Slider__Generated.c **** ft_rgb32_t Ft_Esd_Slider_Get_Primary_Color__return(Ft_Esd_Slider *context)
 122:FT_Esd_Widgets/Ft_Esd_Slider__Generated.c **** {
 213              		.loc 1 122 0
 214              		.cfi_startproc
 215              		@ args = 0, pretend = 0, frame = 0
 216              		@ frame_needed = 0, uses_anonymous_args = 0
 217              	.LVL15:
 218 0000 08B5     		push	{r3, lr}
 219              	.LCFI1:
 220              		.cfi_def_cfa_offset 8
 221              		.cfi_offset 3, -8
 222              		.cfi_offset 14, -4
 223              	.LVL16:
 123:FT_Esd_Widgets/Ft_Esd_Slider__Generated.c **** 	void *parent = context->Parent;
 124:FT_Esd_Widgets/Ft_Esd_Slider__Generated.c **** 	Ft_Esd_Theme * theme_2 = context->Theme(parent);
 224              		.loc 1 124 0
 225 0002 4368     		ldr	r3, [r0, #4]
 226 0004 0068     		ldr	r0, [r0]
 227              	.LVL17:
 228 0006 9847     		blx	r3
 229              	.LVL18:
 230              	.LBB13:
 231              	.LBB14:
 232              		.file 2 "FT_Esd_Widgets/Ft_Esd_Theme.h"
   1:FT_Esd_Widgets/Ft_Esd_Theme.h **** 
ARM GAS  /var/folders/n8/cvzdcwlj0vl4g_wtyz1ffy300000gn/T//ccAQSt7v.s 			page 7


   2:FT_Esd_Widgets/Ft_Esd_Theme.h **** #ifndef FT_ESD_THEME_H
   3:FT_Esd_Widgets/Ft_Esd_Theme.h **** #define FT_ESD_THEME_H
   4:FT_Esd_Widgets/Ft_Esd_Theme.h **** #include "FT_DataTypes.h"
   5:FT_Esd_Widgets/Ft_Esd_Theme.h **** #include "Ft_Esd.h"
   6:FT_Esd_Widgets/Ft_Esd_Theme.h **** 
   7:FT_Esd_Widgets/Ft_Esd_Theme.h **** ESD_CATEGORY(EsdTheme, DisplayName = "ESD Theme")
   8:FT_Esd_Widgets/Ft_Esd_Theme.h **** ESD_CATEGORY(EsdTheme_Themes, DisplayName = "Themes", Category = EsdTheme)
   9:FT_Esd_Widgets/Ft_Esd_Theme.h **** 
  10:FT_Esd_Widgets/Ft_Esd_Theme.h **** typedef unsigned int ft_uint32_t;
  11:FT_Esd_Widgets/Ft_Esd_Theme.h **** 
  12:FT_Esd_Widgets/Ft_Esd_Theme.h **** typedef struct
  13:FT_Esd_Widgets/Ft_Esd_Theme.h **** {
  14:FT_Esd_Widgets/Ft_Esd_Theme.h **** 	ft_rgb32_t ClearColor;
  15:FT_Esd_Widgets/Ft_Esd_Theme.h **** 	ft_rgb32_t BackColor;
  16:FT_Esd_Widgets/Ft_Esd_Theme.h **** 	ft_rgb32_t TextColor;
  17:FT_Esd_Widgets/Ft_Esd_Theme.h **** 	ft_rgb32_t ButtonTextColor;
  18:FT_Esd_Widgets/Ft_Esd_Theme.h **** 	ft_rgb32_t DefaultColor;
  19:FT_Esd_Widgets/Ft_Esd_Theme.h **** 	ft_rgb32_t PrimaryColor;
  20:FT_Esd_Widgets/Ft_Esd_Theme.h **** } Ft_Esd_Theme;
  21:FT_Esd_Widgets/Ft_Esd_Theme.h **** 
  22:FT_Esd_Widgets/Ft_Esd_Theme.h **** ESD_TYPE(Ft_Esd_Theme *, Native = Pointer, Edit = Library)
  23:FT_Esd_Widgets/Ft_Esd_Theme.h **** 
  24:FT_Esd_Widgets/Ft_Esd_Theme.h **** ESD_RENDER(Ft_Esd_Theme_SetCurrent, DisplayName = "Set Current Theme", Category = EsdTheme, Include
  25:FT_Esd_Widgets/Ft_Esd_Theme.h **** ESD_PARAMETER(theme, Type = Ft_Esd_Theme *)
  26:FT_Esd_Widgets/Ft_Esd_Theme.h **** void Ft_Esd_Theme_SetCurrent(Ft_Esd_Theme *theme);
  27:FT_Esd_Widgets/Ft_Esd_Theme.h **** 
  28:FT_Esd_Widgets/Ft_Esd_Theme.h **** ESD_FUNCTION(Ft_Esd_Theme_GetCurrent, DisplayName = "Current Theme", Category = EsdTheme, Type = Ft
  29:FT_Esd_Widgets/Ft_Esd_Theme.h **** Ft_Esd_Theme *Ft_Esd_Theme_GetCurrent();
  30:FT_Esd_Widgets/Ft_Esd_Theme.h **** 
  31:FT_Esd_Widgets/Ft_Esd_Theme.h **** ESD_FUNCTION(Ft_Esd_Theme_GetClearColor, DisplayName = "Get Clear Color", Category = EsdTheme, Type
  32:FT_Esd_Widgets/Ft_Esd_Theme.h **** ESD_PARAMETER(theme, Type = Ft_Esd_Theme *, Default = Ft_Esd_Theme_GetCurrent)
  33:FT_Esd_Widgets/Ft_Esd_Theme.h **** inline static ft_rgb32_t Ft_Esd_Theme_GetClearColor(Ft_Esd_Theme *theme) { if (!theme) return Ft_Es
  34:FT_Esd_Widgets/Ft_Esd_Theme.h **** 
  35:FT_Esd_Widgets/Ft_Esd_Theme.h **** ESD_FUNCTION(Ft_Esd_Theme_GetBackColor, DisplayName = "Get Back Color", Category = EsdTheme, Type =
  36:FT_Esd_Widgets/Ft_Esd_Theme.h **** ESD_PARAMETER(theme, Type = Ft_Esd_Theme *, Default = Ft_Esd_Theme_GetCurrent)
  37:FT_Esd_Widgets/Ft_Esd_Theme.h **** inline static ft_rgb32_t Ft_Esd_Theme_GetBackColor(Ft_Esd_Theme *theme) { if (!theme) return Ft_Esd
  38:FT_Esd_Widgets/Ft_Esd_Theme.h **** 
  39:FT_Esd_Widgets/Ft_Esd_Theme.h **** ESD_FUNCTION(Ft_Esd_Theme_GetTextColor, DisplayName = "Get Text Color", Category = EsdTheme, Type =
  40:FT_Esd_Widgets/Ft_Esd_Theme.h **** ESD_PARAMETER(theme, Type = Ft_Esd_Theme *, Default = Ft_Esd_Theme_GetCurrent)
  41:FT_Esd_Widgets/Ft_Esd_Theme.h **** inline static ft_rgb32_t Ft_Esd_Theme_GetTextColor(Ft_Esd_Theme *theme) { if (!theme) return Ft_Esd
  42:FT_Esd_Widgets/Ft_Esd_Theme.h **** 
  43:FT_Esd_Widgets/Ft_Esd_Theme.h **** ESD_FUNCTION(Ft_Esd_Theme_GetButtonTextColor, DisplayName = "Get Button Text Color", Category = Esd
  44:FT_Esd_Widgets/Ft_Esd_Theme.h **** ESD_PARAMETER(theme, Type = Ft_Esd_Theme *, Default = Ft_Esd_Theme_GetCurrent)
  45:FT_Esd_Widgets/Ft_Esd_Theme.h **** inline static ft_rgb32_t Ft_Esd_Theme_GetButtonTextColor(Ft_Esd_Theme *theme) { if (!theme) return 
  46:FT_Esd_Widgets/Ft_Esd_Theme.h **** 
  47:FT_Esd_Widgets/Ft_Esd_Theme.h **** ESD_FUNCTION(Ft_Esd_Theme_GetCurrentColor, DisplayName = "Get Default Color", Category = EsdTheme, 
  48:FT_Esd_Widgets/Ft_Esd_Theme.h **** ESD_PARAMETER(theme, Type = Ft_Esd_Theme *, Default = Ft_Esd_Theme_GetCurrent)
  49:FT_Esd_Widgets/Ft_Esd_Theme.h **** inline static ft_rgb32_t Ft_Esd_Theme_GetCurrentColor(Ft_Esd_Theme *theme) { if (!theme) return Ft_
  50:FT_Esd_Widgets/Ft_Esd_Theme.h **** 
  51:FT_Esd_Widgets/Ft_Esd_Theme.h **** ESD_FUNCTION(Ft_Esd_Theme_GetPrimaryColor, DisplayName = "Get Primary Color", Category = EsdTheme, 
  52:FT_Esd_Widgets/Ft_Esd_Theme.h **** ESD_PARAMETER(theme, Type = Ft_Esd_Theme *, Default = Ft_Esd_Theme_GetCurrent)
  53:FT_Esd_Widgets/Ft_Esd_Theme.h **** inline static ft_rgb32_t Ft_Esd_Theme_GetPrimaryColor(Ft_Esd_Theme *theme) { if (!theme) return Ft_
 233              		.loc 2 53 0
 234 0008 08B1     		cbz	r0, .L14
 235 000a 4069     		ldr	r0, [r0, #20]
 236              	.LVL19:
 237              	.L10:
ARM GAS  /var/folders/n8/cvzdcwlj0vl4g_wtyz1ffy300000gn/T//ccAQSt7v.s 			page 8


 238              	.LBE14:
 239              	.LBE13:
 125:FT_Esd_Widgets/Ft_Esd_Slider__Generated.c **** 	return Ft_Esd_Theme_GetPrimaryColor(theme_2);
 126:FT_Esd_Widgets/Ft_Esd_Slider__Generated.c **** }
 240              		.loc 1 126 0
 241 000c 08BD     		pop	{r3, pc}
 242              	.LVL20:
 243              	.L14:
 244              	.LBB16:
 245              	.LBB15:
 246              		.loc 2 53 0
 247 000e FFF7FEFF 		bl	Ft_Esd_Theme_GetCurrent
 248              	.LVL21:
 249 0012 4069     		ldr	r0, [r0, #20]
 250 0014 FAE7     		b	.L10
 251              	.LBE15:
 252              	.LBE16:
 253              		.cfi_endproc
 254              	.LFE36:
 256              		.section	.text.Ft_Esd_Slider_Ft_Esd_Slider_ClampedValue__return,"ax",%progbits
 257              		.align	1
 258              		.syntax unified
 259              		.thumb
 260              		.thumb_func
 261              		.fpu fpv5-sp-d16
 263              	Ft_Esd_Slider_Ft_Esd_Slider_ClampedValue__return:
 264              	.LFB38:
 127:FT_Esd_Widgets/Ft_Esd_Slider__Generated.c **** 
 128:FT_Esd_Widgets/Ft_Esd_Slider__Generated.c **** void Ft_Esd_Slider_TouchTag_Down__Signal(void *c)
 129:FT_Esd_Widgets/Ft_Esd_Slider__Generated.c **** {
 130:FT_Esd_Widgets/Ft_Esd_Slider__Generated.c **** 	Ft_Esd_Slider *context = (Ft_Esd_Slider *)c;
 131:FT_Esd_Widgets/Ft_Esd_Slider__Generated.c **** 	void *parent = context->Parent;
 132:FT_Esd_Widgets/Ft_Esd_Slider__Generated.c **** 	ft_int16_t set_variable = Ft_Esd_Slider_Ft_Esd_Slider_ClampedValue__return(context);
 133:FT_Esd_Widgets/Ft_Esd_Slider__Generated.c **** 	context->PreviousValue = set_variable;
 134:FT_Esd_Widgets/Ft_Esd_Slider__Generated.c **** 	ft_int16_t set_variable_1 = Ft_Esd_TouchTag_TouchX(&context->TouchTag);
 135:FT_Esd_Widgets/Ft_Esd_Slider__Generated.c **** 	context->PreviousX = set_variable_1;
 136:FT_Esd_Widgets/Ft_Esd_Slider__Generated.c **** 	ft_int16_t set_variable_2 = Ft_Esd_TouchTag_TouchY(&context->TouchTag);
 137:FT_Esd_Widgets/Ft_Esd_Slider__Generated.c **** 	context->PreviousY = set_variable_2;
 138:FT_Esd_Widgets/Ft_Esd_Slider__Generated.c **** }
 139:FT_Esd_Widgets/Ft_Esd_Slider__Generated.c **** 
 140:FT_Esd_Widgets/Ft_Esd_Slider__Generated.c **** ft_int16_t Ft_Esd_Slider_Ft_Esd_Slider_ClampedValue__return(Ft_Esd_Slider *context)
 141:FT_Esd_Widgets/Ft_Esd_Slider__Generated.c **** {
 265              		.loc 1 141 0
 266              		.cfi_startproc
 267              		@ args = 0, pretend = 0, frame = 0
 268              		@ frame_needed = 0, uses_anonymous_args = 0
 269              	.LVL22:
 270 0000 08B5     		push	{r3, lr}
 271              	.LCFI2:
 272              		.cfi_def_cfa_offset 8
 273              		.cfi_offset 3, -8
 274              		.cfi_offset 14, -4
 275              	.LVL23:
 142:FT_Esd_Widgets/Ft_Esd_Slider__Generated.c **** 	void *parent = context->Parent;
 143:FT_Esd_Widgets/Ft_Esd_Slider__Generated.c **** 	return Ft_Esd_Slider_ClampedValue(context);
 276              		.loc 1 143 0
 277 0002 FFF7FEFF 		bl	Ft_Esd_Slider_ClampedValue
ARM GAS  /var/folders/n8/cvzdcwlj0vl4g_wtyz1ffy300000gn/T//ccAQSt7v.s 			page 9


 278              	.LVL24:
 144:FT_Esd_Widgets/Ft_Esd_Slider__Generated.c **** }
 279              		.loc 1 144 0
 280 0006 08BD     		pop	{r3, pc}
 281              		.cfi_endproc
 282              	.LFE38:
 284              		.section	.text.Ft_Esd_Slider_TouchTag_Down__Signal,"ax",%progbits
 285              		.align	1
 286              		.syntax unified
 287              		.thumb
 288              		.thumb_func
 289              		.fpu fpv5-sp-d16
 291              	Ft_Esd_Slider_TouchTag_Down__Signal:
 292              	.LFB37:
 129:FT_Esd_Widgets/Ft_Esd_Slider__Generated.c **** 	Ft_Esd_Slider *context = (Ft_Esd_Slider *)c;
 293              		.loc 1 129 0
 294              		.cfi_startproc
 295              		@ args = 0, pretend = 0, frame = 0
 296              		@ frame_needed = 0, uses_anonymous_args = 0
 297              	.LVL25:
 298 0000 38B5     		push	{r3, r4, r5, lr}
 299              	.LCFI3:
 300              		.cfi_def_cfa_offset 16
 301              		.cfi_offset 3, -16
 302              		.cfi_offset 4, -12
 303              		.cfi_offset 5, -8
 304              		.cfi_offset 14, -4
 305 0002 0446     		mov	r4, r0
 306              	.LVL26:
 132:FT_Esd_Widgets/Ft_Esd_Slider__Generated.c **** 	context->PreviousValue = set_variable;
 307              		.loc 1 132 0
 308 0004 FFF7FEFF 		bl	Ft_Esd_Slider_Ft_Esd_Slider_ClampedValue__return
 309              	.LVL27:
 133:FT_Esd_Widgets/Ft_Esd_Slider__Generated.c **** 	ft_int16_t set_variable_1 = Ft_Esd_TouchTag_TouchX(&context->TouchTag);
 310              		.loc 1 133 0
 311 0008 A087     		strh	r0, [r4, #60]	@ movhi
 134:FT_Esd_Widgets/Ft_Esd_Slider__Generated.c **** 	context->PreviousX = set_variable_1;
 312              		.loc 1 134 0
 313 000a 04F10805 		add	r5, r4, #8
 314 000e 2846     		mov	r0, r5
 315              	.LVL28:
 316 0010 FFF7FEFF 		bl	Ft_Esd_TouchTag_TouchX
 317              	.LVL29:
 135:FT_Esd_Widgets/Ft_Esd_Slider__Generated.c **** 	ft_int16_t set_variable_2 = Ft_Esd_TouchTag_TouchY(&context->TouchTag);
 318              		.loc 1 135 0
 319 0014 E087     		strh	r0, [r4, #62]	@ movhi
 136:FT_Esd_Widgets/Ft_Esd_Slider__Generated.c **** 	context->PreviousY = set_variable_2;
 320              		.loc 1 136 0
 321 0016 2846     		mov	r0, r5
 322              	.LVL30:
 323 0018 FFF7FEFF 		bl	Ft_Esd_TouchTag_TouchY
 324              	.LVL31:
 137:FT_Esd_Widgets/Ft_Esd_Slider__Generated.c **** }
 325              		.loc 1 137 0
 326 001c A4F84400 		strh	r0, [r4, #68]	@ movhi
 138:FT_Esd_Widgets/Ft_Esd_Slider__Generated.c **** 
 327              		.loc 1 138 0
ARM GAS  /var/folders/n8/cvzdcwlj0vl4g_wtyz1ffy300000gn/T//ccAQSt7v.s 			page 10


 328 0020 38BD     		pop	{r3, r4, r5, pc}
 329              		.cfi_endproc
 330              	.LFE37:
 332              		.section	.text.Ft_Esd_Slider__Initializer,"ax",%progbits
 333              		.align	1
 334              		.global	Ft_Esd_Slider__Initializer
 335              		.syntax unified
 336              		.thumb
 337              		.thumb_func
 338              		.fpu fpv5-sp-d16
 340              	Ft_Esd_Slider__Initializer:
 341              	.LFB31:
  29:FT_Esd_Widgets/Ft_Esd_Slider__Generated.c **** 	context->Parent = 0;
 342              		.loc 1 29 0
 343              		.cfi_startproc
 344              		@ args = 0, pretend = 0, frame = 0
 345              		@ frame_needed = 0, uses_anonymous_args = 0
 346              	.LVL32:
 347 0000 38B5     		push	{r3, r4, r5, lr}
 348              	.LCFI4:
 349              		.cfi_def_cfa_offset 16
 350              		.cfi_offset 3, -16
 351              		.cfi_offset 4, -12
 352              		.cfi_offset 5, -8
 353              		.cfi_offset 14, -4
 354 0002 0446     		mov	r4, r0
  30:FT_Esd_Widgets/Ft_Esd_Slider__Generated.c **** 	context->Theme = Ft_Esd_Slider_Theme__Default;
 355              		.loc 1 30 0
 356 0004 0025     		movs	r5, #0
 357 0006 0560     		str	r5, [r0]
  31:FT_Esd_Widgets/Ft_Esd_Slider__Generated.c **** 	Ft_Esd_TouchTag__Initializer(&context->TouchTag);
 358              		.loc 1 31 0
 359 0008 0D4B     		ldr	r3, .L21
 360 000a 4360     		str	r3, [r0, #4]
  32:FT_Esd_Widgets/Ft_Esd_Slider__Generated.c **** 	context->TouchTag.Parent = context;
 361              		.loc 1 32 0
 362 000c 0830     		adds	r0, r0, #8
 363              	.LVL33:
 364 000e FFF7FEFF 		bl	Ft_Esd_TouchTag__Initializer
 365              	.LVL34:
  33:FT_Esd_Widgets/Ft_Esd_Slider__Generated.c **** 	context->TouchTag.Down = Ft_Esd_Slider_TouchTag_Down__Signal;
 366              		.loc 1 33 0
 367 0012 A460     		str	r4, [r4, #8]
  34:FT_Esd_Widgets/Ft_Esd_Slider__Generated.c **** 	context->X = Ft_Esd_Slider_X__Default;
 368              		.loc 1 34 0
 369 0014 0B4B     		ldr	r3, .L21+4
 370 0016 E360     		str	r3, [r4, #12]
  35:FT_Esd_Widgets/Ft_Esd_Slider__Generated.c **** 	context->Y = Ft_Esd_Slider_Y__Default;
 371              		.loc 1 35 0
 372 0018 0B4B     		ldr	r3, .L21+8
 373 001a 2362     		str	r3, [r4, #32]
  36:FT_Esd_Widgets/Ft_Esd_Slider__Generated.c **** 	context->Width = Ft_Esd_Slider_Width__Default;
 374              		.loc 1 36 0
 375 001c 0B4B     		ldr	r3, .L21+12
 376 001e 6362     		str	r3, [r4, #36]
  37:FT_Esd_Widgets/Ft_Esd_Slider__Generated.c **** 	context->Height = Ft_Esd_Slider_Height__Default;
 377              		.loc 1 37 0
ARM GAS  /var/folders/n8/cvzdcwlj0vl4g_wtyz1ffy300000gn/T//ccAQSt7v.s 			page 11


 378 0020 0B4B     		ldr	r3, .L21+16
 379 0022 A362     		str	r3, [r4, #40]
  38:FT_Esd_Widgets/Ft_Esd_Slider__Generated.c **** 	context->Alpha = Ft_Esd_Slider_Alpha__Default;
 380              		.loc 1 38 0
 381 0024 0B4B     		ldr	r3, .L21+20
 382 0026 E362     		str	r3, [r4, #44]
  39:FT_Esd_Widgets/Ft_Esd_Slider__Generated.c **** 	context->Value = 0;
 383              		.loc 1 39 0
 384 0028 0B4B     		ldr	r3, .L21+24
 385 002a 2363     		str	r3, [r4, #48]
  40:FT_Esd_Widgets/Ft_Esd_Slider__Generated.c **** 	context->Changed = Ft_Esd_Slider_Changed__Noop;
 386              		.loc 1 40 0
 387 002c A586     		strh	r5, [r4, #52]	@ movhi
  41:FT_Esd_Widgets/Ft_Esd_Slider__Generated.c **** 	context->PreviousValue = 0;
 388              		.loc 1 41 0
 389 002e 0B4B     		ldr	r3, .L21+28
 390 0030 A363     		str	r3, [r4, #56]
  42:FT_Esd_Widgets/Ft_Esd_Slider__Generated.c **** 	context->PreviousX = 0;
 391              		.loc 1 42 0
 392 0032 A587     		strh	r5, [r4, #60]	@ movhi
  43:FT_Esd_Widgets/Ft_Esd_Slider__Generated.c **** 	context->Range = Ft_Esd_Slider_Range__Default;
 393              		.loc 1 43 0
 394 0034 E587     		strh	r5, [r4, #62]	@ movhi
  44:FT_Esd_Widgets/Ft_Esd_Slider__Generated.c **** 	context->PreviousY = 0;
 395              		.loc 1 44 0
 396 0036 0A4B     		ldr	r3, .L21+32
 397 0038 2364     		str	r3, [r4, #64]
  45:FT_Esd_Widgets/Ft_Esd_Slider__Generated.c **** }
 398              		.loc 1 45 0
 399 003a A4F84450 		strh	r5, [r4, #68]	@ movhi
  46:FT_Esd_Widgets/Ft_Esd_Slider__Generated.c **** 
 400              		.loc 1 46 0
 401 003e 38BD     		pop	{r3, r4, r5, pc}
 402              	.LVL35:
 403              	.L22:
 404              		.align	2
 405              	.L21:
 406 0040 00000000 		.word	Ft_Esd_Slider_Theme__Default
 407 0044 00000000 		.word	Ft_Esd_Slider_TouchTag_Down__Signal
 408 0048 00000000 		.word	Ft_Esd_Slider_X__Default
 409 004c 00000000 		.word	Ft_Esd_Slider_Y__Default
 410 0050 00000000 		.word	Ft_Esd_Slider_Width__Default
 411 0054 00000000 		.word	Ft_Esd_Slider_Height__Default
 412 0058 00000000 		.word	Ft_Esd_Slider_Alpha__Default
 413 005c 00000000 		.word	Ft_Esd_Slider_Changed__Noop
 414 0060 00000000 		.word	Ft_Esd_Slider_Range__Default
 415              		.cfi_endproc
 416              	.LFE31:
 418              		.section	.text.Ft_Esd_Slider_Render,"ax",%progbits
 419              		.align	1
 420              		.global	Ft_Esd_Slider_Render
 421              		.syntax unified
 422              		.thumb
 423              		.thumb_func
 424              		.fpu fpv5-sp-d16
 426              	Ft_Esd_Slider_Render:
 427              	.LFB32:
ARM GAS  /var/folders/n8/cvzdcwlj0vl4g_wtyz1ffy300000gn/T//ccAQSt7v.s 			page 12


  58:FT_Esd_Widgets/Ft_Esd_Slider__Generated.c **** 	void *parent = context->Parent;
 428              		.loc 1 58 0
 429              		.cfi_startproc
 430              		@ args = 0, pretend = 0, frame = 0
 431              		@ frame_needed = 0, uses_anonymous_args = 0
 432              	.LVL36:
 433 0000 2DE9F04F 		push	{r4, r5, r6, r7, r8, r9, r10, fp, lr}
 434              	.LCFI5:
 435              		.cfi_def_cfa_offset 36
 436              		.cfi_offset 4, -36
 437              		.cfi_offset 5, -32
 438              		.cfi_offset 6, -28
 439              		.cfi_offset 7, -24
 440              		.cfi_offset 8, -20
 441              		.cfi_offset 9, -16
 442              		.cfi_offset 10, -12
 443              		.cfi_offset 11, -8
 444              		.cfi_offset 14, -4
 445 0004 85B0     		sub	sp, sp, #20
 446              	.LCFI6:
 447              		.cfi_def_cfa_offset 56
 448 0006 0446     		mov	r4, r0
  59:FT_Esd_Widgets/Ft_Esd_Slider__Generated.c **** 	ft_uint8_t alpha = context->Alpha(parent);
 449              		.loc 1 59 0
 450 0008 0568     		ldr	r5, [r0]
 451              	.LVL37:
  60:FT_Esd_Widgets/Ft_Esd_Slider__Generated.c **** 	Ft_Esd_Dl_COLOR_A(alpha);
 452              		.loc 1 60 0
 453 000a 036B     		ldr	r3, [r0, #48]
 454 000c 2846     		mov	r0, r5
 455              	.LVL38:
 456 000e 9847     		blx	r3
 457              	.LVL39:
 458              	.LBB30:
 459              	.LBB31:
 460              		.file 3 "FT_Esd_Framework/FT_Esd_Dl.h"
   1:FT_Esd_Framework/FT_Esd_Dl.h **** 
   2:FT_Esd_Framework/FT_Esd_Dl.h **** #ifndef FT_ESD_DL_H
   3:FT_Esd_Framework/FT_Esd_Dl.h **** #define FT_ESD_DL_H
   4:FT_Esd_Framework/FT_Esd_Dl.h **** 
   5:FT_Esd_Framework/FT_Esd_Dl.h **** #include "FT_DataTypes.h"
   6:FT_Esd_Framework/FT_Esd_Dl.h **** #include "FT_Platform.h"
   7:FT_Esd_Framework/FT_Esd_Dl.h **** #include "Ft_Esd.h"
   8:FT_Esd_Framework/FT_Esd_Dl.h **** #include "FT_Gpu.h"
   9:FT_Esd_Framework/FT_Esd_Dl.h **** #include "Ft_Esd_BitmapInfo.h"
  10:FT_Esd_Framework/FT_Esd_Dl.h **** 
  11:FT_Esd_Framework/FT_Esd_Dl.h **** ESD_CATEGORY(EsdUtilities, DisplayName = "ESD Utilities")
  12:FT_Esd_Framework/FT_Esd_Dl.h **** ESD_CATEGORY(EveRenderFunctions, DisplayName = "EVE Render Functions")
  13:FT_Esd_Framework/FT_Esd_Dl.h **** 
  14:FT_Esd_Framework/FT_Esd_Dl.h **** ESD_TYPE(Ft_Gpu_Hal_Context_t *, Native = Pointer, Edit = Library)
  15:FT_Esd_Framework/FT_Esd_Dl.h **** 
  16:FT_Esd_Framework/FT_Esd_Dl.h **** // Keep cache of displaylist values that don't often change but are generally set by every widget t
  17:FT_Esd_Framework/FT_Esd_Dl.h **** #define FT_ESD_OPTIMIZE_DISPLAYLIST 1
  18:FT_Esd_Framework/FT_Esd_Dl.h **** #define FT_ESD_STATE_STACK_SIZE 5
  19:FT_Esd_Framework/FT_Esd_Dl.h **** 
  20:FT_Esd_Framework/FT_Esd_Dl.h **** #define FT_ESD_BITMAPHANDLE_INVALID 255
  21:FT_Esd_Framework/FT_Esd_Dl.h **** 
ARM GAS  /var/folders/n8/cvzdcwlj0vl4g_wtyz1ffy300000gn/T//ccAQSt7v.s 			page 13


  22:FT_Esd_Framework/FT_Esd_Dl.h **** //
  23:FT_Esd_Framework/FT_Esd_Dl.h **** // Structs
  24:FT_Esd_Framework/FT_Esd_Dl.h **** //
  25:FT_Esd_Framework/FT_Esd_Dl.h **** #ifdef FT_ESD_OPTIMIZE_DISPLAYLIST
  26:FT_Esd_Framework/FT_Esd_Dl.h **** #define FT_ESD_STATE Ft_Esd_GpuState[Ft_Esd_GpuState_I]
  27:FT_Esd_Framework/FT_Esd_Dl.h **** typedef struct
  28:FT_Esd_Framework/FT_Esd_Dl.h **** {
  29:FT_Esd_Framework/FT_Esd_Dl.h **** 	// Keep to a minimum
  30:FT_Esd_Framework/FT_Esd_Dl.h **** #ifdef FT_81X_ENABLE
  31:FT_Esd_Framework/FT_Esd_Dl.h **** 	ft_uint32_t PaletteSource;
  32:FT_Esd_Framework/FT_Esd_Dl.h **** #endif
  33:FT_Esd_Framework/FT_Esd_Dl.h **** 	ft_uint32_t ColorRGB;
  34:FT_Esd_Framework/FT_Esd_Dl.h **** 	ft_uint8_t ColorA;
  35:FT_Esd_Framework/FT_Esd_Dl.h **** 	ft_uint8_t Handle;         // Current handle
  36:FT_Esd_Framework/FT_Esd_Dl.h **** 	ft_uint8_t Cell;           // Current cell
  37:FT_Esd_Framework/FT_Esd_Dl.h **** 	ft_bool_t BitmapTransform; // BitmapTransform other than default is set
  38:FT_Esd_Framework/FT_Esd_Dl.h **** #ifdef FT_81X_ENABLE
  39:FT_Esd_Framework/FT_Esd_Dl.h **** 	ft_uint8_t VertexFormat;   // Current vertex format
  40:FT_Esd_Framework/FT_Esd_Dl.h **** #endif
  41:FT_Esd_Framework/FT_Esd_Dl.h **** } Ft_Esd_GpuState_T;
  42:FT_Esd_Framework/FT_Esd_Dl.h **** #endif
  43:FT_Esd_Framework/FT_Esd_Dl.h **** 
  44:FT_Esd_Framework/FT_Esd_Dl.h **** //
  45:FT_Esd_Framework/FT_Esd_Dl.h **** // Globals
  46:FT_Esd_Framework/FT_Esd_Dl.h **** //
  47:FT_Esd_Framework/FT_Esd_Dl.h **** extern Ft_Gpu_Hal_Context_t *Ft_Esd_Host;
  48:FT_Esd_Framework/FT_Esd_Dl.h **** extern ft_uint16_t Ft_Esd_FontHeight[32];
  49:FT_Esd_Framework/FT_Esd_Dl.h **** #ifdef FT_ESD_OPTIMIZE_DISPLAYLIST
  50:FT_Esd_Framework/FT_Esd_Dl.h **** extern Ft_Esd_GpuState_T Ft_Esd_GpuState[FT_ESD_STATE_STACK_SIZE];
  51:FT_Esd_Framework/FT_Esd_Dl.h **** extern ft_uint8_t Ft_Esd_GpuState_I;
  52:FT_Esd_Framework/FT_Esd_Dl.h **** extern ft_uint32_t Ft_Esd_CoFgColor;
  53:FT_Esd_Framework/FT_Esd_Dl.h **** extern ft_uint32_t Ft_Esd_CoBgColor;
  54:FT_Esd_Framework/FT_Esd_Dl.h **** #endif
  55:FT_Esd_Framework/FT_Esd_Dl.h **** 
  56:FT_Esd_Framework/FT_Esd_Dl.h **** //Get the height of builtin font
  57:FT_Esd_Framework/FT_Esd_Dl.h **** ESD_FUNCTION(Ft_Esd_GetFontHeight, Type = ft_uint16_t ,DisplayName = "Get Font Height", Category = 
  58:FT_Esd_Framework/FT_Esd_Dl.h **** ESD_PARAMETER(i, Type = int, DisplayName = "Bitmap Handle", Default = 0, Min = 0, Max = 31)
  59:FT_Esd_Framework/FT_Esd_Dl.h **** // inline static ft_uint16_t Ft_Esd_GetFontHeight(int i) { return Ft_Esd_FontHeight[i]; }
  60:FT_Esd_Framework/FT_Esd_Dl.h **** #define Ft_Esd_GetFontHeight(i) (Ft_Esd_FontHeight[i]);
  61:FT_Esd_Framework/FT_Esd_Dl.h **** 
  62:FT_Esd_Framework/FT_Esd_Dl.h **** // Reset any cached state
  63:FT_Esd_Framework/FT_Esd_Dl.h **** void Ft_Esd_ResetGpuState();
  64:FT_Esd_Framework/FT_Esd_Dl.h **** void Ft_Esd_ResetCoState();
  65:FT_Esd_Framework/FT_Esd_Dl.h **** 
  66:FT_Esd_Framework/FT_Esd_Dl.h **** ft_uint32_t Ft_Esd_BitmapHandle_GetTotalUsed();
  67:FT_Esd_Framework/FT_Esd_Dl.h **** ft_uint32_t Ft_Esd_BitmapHandle_GetTotal();
  68:FT_Esd_Framework/FT_Esd_Dl.h **** 
  69:FT_Esd_Framework/FT_Esd_Dl.h **** /// Set current tag. Must be returned to 255 after usage, to ensure next widgets don't draw with in
  70:FT_Esd_Framework/FT_Esd_Dl.h **** ESD_FUNCTION(Ft_Esd_Dl_TAG, Type = ft_void_t, Category = EveRenderFunctions, Inline)
  71:FT_Esd_Framework/FT_Esd_Dl.h **** ESD_PARAMETER(s, Type = ft_uint8_t, DisplayName = "Tag", Default = 255, Min = 0, Max = 255)
  72:FT_Esd_Framework/FT_Esd_Dl.h **** inline static ft_void_t Ft_Esd_Dl_TAG(ft_uint8_t s)
  73:FT_Esd_Framework/FT_Esd_Dl.h **** {
  74:FT_Esd_Framework/FT_Esd_Dl.h **** 	Ft_Gpu_Hal_WrCmd32(Ft_Esd_Host, TAG(s));
  75:FT_Esd_Framework/FT_Esd_Dl.h **** }
  76:FT_Esd_Framework/FT_Esd_Dl.h **** //Specify color RGB
  77:FT_Esd_Framework/FT_Esd_Dl.h **** ESD_FUNCTION(Ft_Esd_Dl_COLOR_RGB, Type = ft_void_t, Category = EveRenderFunctions, Inline)
  78:FT_Esd_Framework/FT_Esd_Dl.h **** ESD_PARAMETER(c, Type = ft_rgb32_t, DisplayName = "Color")
ARM GAS  /var/folders/n8/cvzdcwlj0vl4g_wtyz1ffy300000gn/T//ccAQSt7v.s 			page 14


  79:FT_Esd_Framework/FT_Esd_Dl.h **** inline static ft_void_t Ft_Esd_Dl_COLOR_RGB(ft_rgb32_t c)
  80:FT_Esd_Framework/FT_Esd_Dl.h **** {
  81:FT_Esd_Framework/FT_Esd_Dl.h **** #if FT_ESD_OPTIMIZE_DISPLAYLIST
  82:FT_Esd_Framework/FT_Esd_Dl.h **** 	ft_rgb32_t rgb = c & 0xFFFFFF;
  83:FT_Esd_Framework/FT_Esd_Dl.h **** 	if (rgb != FT_ESD_STATE.ColorRGB)
  84:FT_Esd_Framework/FT_Esd_Dl.h **** 	{
  85:FT_Esd_Framework/FT_Esd_Dl.h **** #endif
  86:FT_Esd_Framework/FT_Esd_Dl.h **** 		Ft_Gpu_Hal_WrCmd32(Ft_Esd_Host, (4UL << 24) | (rgb));
  87:FT_Esd_Framework/FT_Esd_Dl.h **** #if FT_ESD_OPTIMIZE_DISPLAYLIST
  88:FT_Esd_Framework/FT_Esd_Dl.h **** 		FT_ESD_STATE.ColorRGB = rgb;
  89:FT_Esd_Framework/FT_Esd_Dl.h **** 	}
  90:FT_Esd_Framework/FT_Esd_Dl.h **** #endif
  91:FT_Esd_Framework/FT_Esd_Dl.h **** }
  92:FT_Esd_Framework/FT_Esd_Dl.h **** //Specify alpha channel
  93:FT_Esd_Framework/FT_Esd_Dl.h **** ESD_FUNCTION(Ft_Esd_Dl_COLOR_A, Type = ft_void_t, Category = EveRenderFunctions, Inline)
  94:FT_Esd_Framework/FT_Esd_Dl.h **** ESD_PARAMETER(alpha, Type = ft_uint8_t, Default = 255, Min = 0, Max = 255)
  95:FT_Esd_Framework/FT_Esd_Dl.h **** inline static ft_void_t Ft_Esd_Dl_COLOR_A(ft_uint8_t alpha)
  96:FT_Esd_Framework/FT_Esd_Dl.h **** {
  97:FT_Esd_Framework/FT_Esd_Dl.h **** #if FT_ESD_OPTIMIZE_DISPLAYLIST
  98:FT_Esd_Framework/FT_Esd_Dl.h **** 	if (alpha != FT_ESD_STATE.ColorA)
 461              		.loc 3 98 0
 462 0010 514B     		ldr	r3, .L37
 463 0012 1A78     		ldrb	r2, [r3]	@ zero_extendqisi2
 464 0014 514B     		ldr	r3, .L37+4
 465 0016 03EB0213 		add	r3, r3, r2, lsl #4
 466 001a 1B7A     		ldrb	r3, [r3, #8]	@ zero_extendqisi2
 467 001c 9842     		cmp	r0, r3
 468 001e 0CD0     		beq	.L24
 469 0020 0646     		mov	r6, r0
  99:FT_Esd_Framework/FT_Esd_Dl.h **** 	{
 100:FT_Esd_Framework/FT_Esd_Dl.h **** #endif
 101:FT_Esd_Framework/FT_Esd_Dl.h **** 		Ft_Gpu_Hal_WrCmd32(Ft_Esd_Host, COLOR_A(alpha));
 470              		.loc 3 101 0
 471 0022 40F08051 		orr	r1, r0, #268435456
 472 0026 4E4B     		ldr	r3, .L37+8
 473 0028 1868     		ldr	r0, [r3]
 474              	.LVL40:
 475 002a FFF7FEFF 		bl	Ft_Gpu_Hal_WrCmd32
 476              	.LVL41:
 102:FT_Esd_Framework/FT_Esd_Dl.h **** #if FT_ESD_OPTIMIZE_DISPLAYLIST
 103:FT_Esd_Framework/FT_Esd_Dl.h **** 		FT_ESD_STATE.ColorA = alpha;
 477              		.loc 3 103 0
 478 002e 4A4B     		ldr	r3, .L37
 479 0030 1A78     		ldrb	r2, [r3]	@ zero_extendqisi2
 480 0032 4A4B     		ldr	r3, .L37+4
 481 0034 03EB0213 		add	r3, r3, r2, lsl #4
 482 0038 1E72     		strb	r6, [r3, #8]
 483              	.L24:
 484              	.LBE31:
 485              	.LBE30:
  62:FT_Esd_Widgets/Ft_Esd_Slider__Generated.c **** 	ft_rgb32_t c;
 486              		.loc 1 62 0
 487 003a 04F10807 		add	r7, r4, #8
 488 003e 3846     		mov	r0, r7
 489 0040 FFF7FEFF 		bl	Ft_Esd_TouchTag_Touching
 490              	.LVL42:
  64:FT_Esd_Widgets/Ft_Esd_Slider__Generated.c **** 	{
ARM GAS  /var/folders/n8/cvzdcwlj0vl4g_wtyz1ffy300000gn/T//ccAQSt7v.s 			page 15


 491              		.loc 1 64 0
 492 0044 0028     		cmp	r0, #0
 493 0046 79D1     		bne	.L33
 494              	.LBB32:
  70:FT_Esd_Widgets/Ft_Esd_Slider__Generated.c **** 		c = Ft_Esd_Theme_GetCurrentColor(theme);
 495              		.loc 1 70 0
 496 0048 6368     		ldr	r3, [r4, #4]
 497 004a 2846     		mov	r0, r5
 498              	.LVL43:
 499 004c 9847     		blx	r3
 500              	.LVL44:
 501              	.LBB33:
 502              	.LBB34:
  49:FT_Esd_Widgets/Ft_Esd_Theme.h **** 
 503              		.loc 2 49 0
 504 004e 0028     		cmp	r0, #0
 505 0050 78D0     		beq	.L34
 506 0052 0069     		ldr	r0, [r0, #16]
 507              	.LVL45:
 508              	.L26:
 509              	.LBE34:
 510              	.LBE33:
 511              	.LBE32:
 512              	.LBB37:
 513              	.LBB38:
  82:FT_Esd_Framework/FT_Esd_Dl.h **** 	if (rgb != FT_ESD_STATE.ColorRGB)
 514              		.loc 3 82 0
 515 0054 20F07F46 		bic	r6, r0, #-16777216
 516              	.LVL46:
  83:FT_Esd_Framework/FT_Esd_Dl.h **** 	{
 517              		.loc 3 83 0
 518 0058 3F4B     		ldr	r3, .L37
 519 005a 1A78     		ldrb	r2, [r3]	@ zero_extendqisi2
 520 005c 3F4B     		ldr	r3, .L37+4
 521 005e 03EB0213 		add	r3, r3, r2, lsl #4
 522 0062 5B68     		ldr	r3, [r3, #4]
 523 0064 9E42     		cmp	r6, r3
 524 0066 0BD0     		beq	.L28
  86:FT_Esd_Framework/FT_Esd_Dl.h **** #if FT_ESD_OPTIMIZE_DISPLAYLIST
 525              		.loc 3 86 0
 526 0068 46F08061 		orr	r1, r6, #67108864
 527 006c 3C4B     		ldr	r3, .L37+8
 528 006e 1868     		ldr	r0, [r3]
 529              	.LVL47:
 530 0070 FFF7FEFF 		bl	Ft_Gpu_Hal_WrCmd32
 531              	.LVL48:
  88:FT_Esd_Framework/FT_Esd_Dl.h **** 	}
 532              		.loc 3 88 0
 533 0074 384B     		ldr	r3, .L37
 534 0076 1A78     		ldrb	r2, [r3]	@ zero_extendqisi2
 535 0078 384B     		ldr	r3, .L37+4
 536 007a 03EB0213 		add	r3, r3, r2, lsl #4
 537 007e 5E60     		str	r6, [r3, #4]
 538              	.L28:
 539              	.LVL49:
 540              	.LBE38:
 541              	.LBE37:
ARM GAS  /var/folders/n8/cvzdcwlj0vl4g_wtyz1ffy300000gn/T//ccAQSt7v.s 			page 16


  74:FT_Esd_Widgets/Ft_Esd_Slider__Generated.c **** 	Ft_Esd_Theme * theme_1 = context->Theme(parent);
 542              		.loc 1 74 0
 543 0080 FFF7FEFF 		bl	Ft_Esd_GetHost
 544              	.LVL50:
 545 0084 0646     		mov	r6, r0
 546              	.LVL51:
  75:FT_Esd_Widgets/Ft_Esd_Slider__Generated.c **** 	ft_rgb32_t c_1 = Ft_Esd_Theme_GetBackColor(theme_1);
 547              		.loc 1 75 0
 548 0086 6368     		ldr	r3, [r4, #4]
 549 0088 2846     		mov	r0, r5
 550              	.LVL52:
 551 008a 9847     		blx	r3
 552              	.LVL53:
 553              	.LBB39:
 554              	.LBB40:
  37:FT_Esd_Widgets/Ft_Esd_Theme.h **** 
 555              		.loc 2 37 0
 556 008c 0028     		cmp	r0, #0
 557 008e 5DD0     		beq	.L35
 558 0090 4168     		ldr	r1, [r0, #4]
 559              	.LVL54:
 560              	.L30:
 561              	.LBE40:
 562              	.LBE39:
  77:FT_Esd_Widgets/Ft_Esd_Slider__Generated.c **** 	Ft_Gpu_Hal_Context_t * phost_1 = Ft_Esd_GetHost();
 563              		.loc 1 77 0
 564 0092 3046     		mov	r0, r6
 565 0094 FFF7FEFF 		bl	Ft_Gpu_CoCmd_BgColor
 566              	.LVL55:
  78:FT_Esd_Widgets/Ft_Esd_Slider__Generated.c **** 	ft_rgb32_t c_2 = Ft_Esd_Slider_Get_Primary_Color__return(context);
 567              		.loc 1 78 0
 568 0098 FFF7FEFF 		bl	Ft_Esd_GetHost
 569              	.LVL56:
 570 009c 0646     		mov	r6, r0
 571              	.LVL57:
  79:FT_Esd_Widgets/Ft_Esd_Slider__Generated.c **** 	Ft_Gpu_CoCmd_FgColor(phost_1, c_2);
 572              		.loc 1 79 0
 573 009e 2046     		mov	r0, r4
 574              	.LVL58:
 575 00a0 FFF7FEFF 		bl	Ft_Esd_Slider_Get_Primary_Color__return
 576              	.LVL59:
  80:FT_Esd_Widgets/Ft_Esd_Slider__Generated.c **** 	ft_uint8_t s = Ft_Esd_TouchTag_Tag(&context->TouchTag);
 577              		.loc 1 80 0
 578 00a4 0146     		mov	r1, r0
 579 00a6 3046     		mov	r0, r6
 580              	.LVL60:
 581 00a8 FFF7FEFF 		bl	Ft_Gpu_CoCmd_FgColor
 582              	.LVL61:
  81:FT_Esd_Widgets/Ft_Esd_Slider__Generated.c **** 	Ft_Esd_Dl_TAG(s);
 583              		.loc 1 81 0
 584 00ac 3846     		mov	r0, r7
 585 00ae FFF7FEFF 		bl	Ft_Esd_TouchTag_Tag
 586              	.LVL62:
 587              	.LBB42:
 588              	.LBB43:
  74:FT_Esd_Framework/FT_Esd_Dl.h **** }
 589              		.loc 3 74 0
ARM GAS  /var/folders/n8/cvzdcwlj0vl4g_wtyz1ffy300000gn/T//ccAQSt7v.s 			page 17


 590 00b2 40F04071 		orr	r1, r0, #50331648
 591 00b6 2A4B     		ldr	r3, .L37+8
 592 00b8 1868     		ldr	r0, [r3]
 593              	.LVL63:
 594 00ba FFF7FEFF 		bl	Ft_Gpu_Hal_WrCmd32
 595              	.LVL64:
 596              	.LBE43:
 597              	.LBE42:
  83:FT_Esd_Widgets/Ft_Esd_Slider__Generated.c **** 	ft_int16_t left = context->X(parent);
 598              		.loc 1 83 0
 599 00be FFF7FEFF 		bl	Ft_Esd_GetHost
 600              	.LVL65:
 601 00c2 8146     		mov	r9, r0
 602              	.LVL66:
  84:FT_Esd_Widgets/Ft_Esd_Slider__Generated.c **** 	ft_int16_t left_1 = context->Height(parent);
 603              		.loc 1 84 0
 604 00c4 236A     		ldr	r3, [r4, #32]
 605 00c6 2846     		mov	r0, r5
 606              	.LVL67:
 607 00c8 9847     		blx	r3
 608              	.LVL68:
 609 00ca 0646     		mov	r6, r0
 610              	.LVL69:
  85:FT_Esd_Widgets/Ft_Esd_Slider__Generated.c **** 	ft_int16_t right_1 = 2;
 611              		.loc 1 85 0
 612 00cc E36A     		ldr	r3, [r4, #44]
 613 00ce 2846     		mov	r0, r5
 614 00d0 9847     		blx	r3
 615              	.LVL70:
  87:FT_Esd_Widgets/Ft_Esd_Slider__Generated.c **** 	ft_int16_t x = left + right;
 616              		.loc 1 87 0
 617 00d2 0346     		mov	r3, r0
 618 00d4 0028     		cmp	r0, #0
 619 00d6 3DDB     		blt	.L36
 620              	.L31:
 621              	.LVL71:
  88:FT_Esd_Widgets/Ft_Esd_Slider__Generated.c **** 	ft_int16_t y = context->Y(parent);
 622              		.loc 1 88 0
 623 00d8 06EB6306 		add	r6, r6, r3, asr #1
 624              	.LVL72:
 625 00dc 36B2     		sxth	r6, r6
 626              	.LVL73:
  89:FT_Esd_Widgets/Ft_Esd_Slider__Generated.c **** 	ft_int16_t left_2 = context->Width(parent);
 627              		.loc 1 89 0
 628 00de 636A     		ldr	r3, [r4, #36]
 629              	.LVL74:
 630 00e0 2846     		mov	r0, r5
 631              	.LVL75:
 632 00e2 9847     		blx	r3
 633              	.LVL76:
 634 00e4 8246     		mov	r10, r0
 635              	.LVL77:
  90:FT_Esd_Widgets/Ft_Esd_Slider__Generated.c **** 	ft_int16_t right_2 = context->Height(parent);
 636              		.loc 1 90 0
 637 00e6 A36A     		ldr	r3, [r4, #40]
 638 00e8 2846     		mov	r0, r5
 639 00ea 9847     		blx	r3
ARM GAS  /var/folders/n8/cvzdcwlj0vl4g_wtyz1ffy300000gn/T//ccAQSt7v.s 			page 18


 640              	.LVL78:
 641 00ec 0746     		mov	r7, r0
 642              	.LVL79:
  91:FT_Esd_Widgets/Ft_Esd_Slider__Generated.c **** 	ft_int16_t width = left_2 - right_2;
 643              		.loc 1 91 0
 644 00ee E36A     		ldr	r3, [r4, #44]
 645 00f0 2846     		mov	r0, r5
 646 00f2 9847     		blx	r3
 647              	.LVL80:
  92:FT_Esd_Widgets/Ft_Esd_Slider__Generated.c **** 	ft_int16_t height = context->Height(parent);
 648              		.loc 1 92 0
 649 00f4 3F1A     		subs	r7, r7, r0
 650              	.LVL81:
 651 00f6 3FB2     		sxth	r7, r7
 652              	.LVL82:
  93:FT_Esd_Widgets/Ft_Esd_Slider__Generated.c **** 	ft_uint16_t options = 0;
 653              		.loc 1 93 0
 654 00f8 E36A     		ldr	r3, [r4, #44]
 655 00fa 2846     		mov	r0, r5
 656              	.LVL83:
 657 00fc 9847     		blx	r3
 658              	.LVL84:
 659 00fe 8346     		mov	fp, r0
 660              	.LVL85:
  95:FT_Esd_Widgets/Ft_Esd_Slider__Generated.c **** 	ft_int16_t range = context->Range(parent);
 661              		.loc 1 95 0
 662 0100 2046     		mov	r0, r4
 663 0102 FFF7FEFF 		bl	Ft_Esd_Slider_Ft_Esd_Slider_ClampedValue__return
 664              	.LVL86:
 665 0106 8046     		mov	r8, r0
 666              	.LVL87:
  96:FT_Esd_Widgets/Ft_Esd_Slider__Generated.c **** 	Ft_Gpu_CoCmd_Slider(phost_2, x, y, width, height, options, val, range);
 667              		.loc 1 96 0
 668 0108 236C     		ldr	r3, [r4, #64]
 669 010a 2846     		mov	r0, r5
 670 010c 9847     		blx	r3
 671              	.LVL88:
  97:FT_Esd_Widgets/Ft_Esd_Slider__Generated.c **** 	ft_uint8_t s_1 = 255;
 672              		.loc 1 97 0
 673 010e 80B2     		uxth	r0, r0
 674 0110 0390     		str	r0, [sp, #12]
 675 0112 1FFA88F3 		uxth	r3, r8
 676 0116 0293     		str	r3, [sp, #8]
 677 0118 0023     		movs	r3, #0
 678 011a 0193     		str	r3, [sp, #4]
 679 011c CDF800B0 		str	fp, [sp]
 680 0120 3B46     		mov	r3, r7
 681 0122 5246     		mov	r2, r10
 682 0124 3146     		mov	r1, r6
 683 0126 4846     		mov	r0, r9
 684              	.LVL89:
 685 0128 FFF7FEFF 		bl	Ft_Gpu_CoCmd_Slider
 686              	.LVL90:
 687              	.LBB44:
 688              	.LBB45:
  74:FT_Esd_Framework/FT_Esd_Dl.h **** }
 689              		.loc 3 74 0
ARM GAS  /var/folders/n8/cvzdcwlj0vl4g_wtyz1ffy300000gn/T//ccAQSt7v.s 			page 19


 690 012c 0D49     		ldr	r1, .L37+12
 691 012e 0C4B     		ldr	r3, .L37+8
 692 0130 1868     		ldr	r0, [r3]
 693 0132 FFF7FEFF 		bl	Ft_Gpu_Hal_WrCmd32
 694              	.LVL91:
 695              	.LBE45:
 696              	.LBE44:
 100:FT_Esd_Widgets/Ft_Esd_Slider__Generated.c **** 
 697              		.loc 1 100 0
 698 0136 05B0     		add	sp, sp, #20
 699              	.LCFI7:
 700              		.cfi_remember_state
 701              		.cfi_def_cfa_offset 36
 702              		@ sp needed
 703 0138 BDE8F08F 		pop	{r4, r5, r6, r7, r8, r9, r10, fp, pc}
 704              	.LVL92:
 705              	.L33:
 706              	.LCFI8:
 707              		.cfi_restore_state
  66:FT_Esd_Widgets/Ft_Esd_Slider__Generated.c **** 	}
 708              		.loc 1 66 0
 709 013c 2046     		mov	r0, r4
 710              	.LVL93:
 711 013e FFF7FEFF 		bl	Ft_Esd_Slider_Get_Primary_Color__return
 712              	.LVL94:
 713 0142 87E7     		b	.L26
 714              	.LVL95:
 715              	.L34:
 716              	.LBB46:
 717              	.LBB36:
 718              	.LBB35:
  49:FT_Esd_Widgets/Ft_Esd_Theme.h **** 
 719              		.loc 2 49 0
 720 0144 FFF7FEFF 		bl	Ft_Esd_Theme_GetCurrent
 721              	.LVL96:
 722 0148 0069     		ldr	r0, [r0, #16]
 723 014a 83E7     		b	.L26
 724              	.LVL97:
 725              	.L35:
 726              	.LBE35:
 727              	.LBE36:
 728              	.LBE46:
 729              	.LBB47:
 730              	.LBB41:
  37:FT_Esd_Widgets/Ft_Esd_Theme.h **** 
 731              		.loc 2 37 0
 732 014c FFF7FEFF 		bl	Ft_Esd_Theme_GetCurrent
 733              	.LVL98:
 734 0150 4168     		ldr	r1, [r0, #4]
 735 0152 9EE7     		b	.L30
 736              	.LVL99:
 737              	.L36:
 738              	.LBE41:
 739              	.LBE47:
  87:FT_Esd_Widgets/Ft_Esd_Slider__Generated.c **** 	ft_int16_t x = left + right;
 740              		.loc 1 87 0
 741 0154 431C     		adds	r3, r0, #1
ARM GAS  /var/folders/n8/cvzdcwlj0vl4g_wtyz1ffy300000gn/T//ccAQSt7v.s 			page 20


 742 0156 BFE7     		b	.L31
 743              	.L38:
 744              		.align	2
 745              	.L37:
 746 0158 00000000 		.word	Ft_Esd_GpuState_I
 747 015c 00000000 		.word	Ft_Esd_GpuState
 748 0160 00000000 		.word	Ft_Esd_Host
 749 0164 FF000003 		.word	50331903
 750              		.cfi_endproc
 751              	.LFE32:
 753              		.section	.text.Ft_Esd_Slider_Start,"ax",%progbits
 754              		.align	1
 755              		.global	Ft_Esd_Slider_Start
 756              		.syntax unified
 757              		.thumb
 758              		.thumb_func
 759              		.fpu fpv5-sp-d16
 761              	Ft_Esd_Slider_Start:
 762              	.LFB33:
 103:FT_Esd_Widgets/Ft_Esd_Slider__Generated.c **** 	void *parent = context->Parent;
 763              		.loc 1 103 0
 764              		.cfi_startproc
 765              		@ args = 0, pretend = 0, frame = 0
 766              		@ frame_needed = 0, uses_anonymous_args = 0
 767              	.LVL100:
 768 0000 08B5     		push	{r3, lr}
 769              	.LCFI9:
 770              		.cfi_def_cfa_offset 8
 771              		.cfi_offset 3, -8
 772              		.cfi_offset 14, -4
 773              	.LVL101:
 105:FT_Esd_Widgets/Ft_Esd_Slider__Generated.c **** }
 774              		.loc 1 105 0
 775 0002 0830     		adds	r0, r0, #8
 776              	.LVL102:
 777 0004 FFF7FEFF 		bl	Ft_Esd_TouchTag_Start
 778              	.LVL103:
 106:FT_Esd_Widgets/Ft_Esd_Slider__Generated.c **** 
 779              		.loc 1 106 0
 780 0008 08BD     		pop	{r3, pc}
 781              		.cfi_endproc
 782              	.LFE33:
 784              		.section	.text.Ft_Esd_Slider_Update,"ax",%progbits
 785              		.align	1
 786              		.global	Ft_Esd_Slider_Update
 787              		.syntax unified
 788              		.thumb
 789              		.thumb_func
 790              		.fpu fpv5-sp-d16
 792              	Ft_Esd_Slider_Update:
 793              	.LFB34:
 109:FT_Esd_Widgets/Ft_Esd_Slider__Generated.c **** 	void *parent = context->Parent;
 794              		.loc 1 109 0
 795              		.cfi_startproc
 796              		@ args = 0, pretend = 0, frame = 0
 797              		@ frame_needed = 0, uses_anonymous_args = 0
 798              	.LVL104:
ARM GAS  /var/folders/n8/cvzdcwlj0vl4g_wtyz1ffy300000gn/T//ccAQSt7v.s 			page 21


 799 0000 10B5     		push	{r4, lr}
 800              	.LCFI10:
 801              		.cfi_def_cfa_offset 8
 802              		.cfi_offset 4, -8
 803              		.cfi_offset 14, -4
 804 0002 0446     		mov	r4, r0
 805              	.LVL105:
 111:FT_Esd_Widgets/Ft_Esd_Slider__Generated.c **** 	Ft_Esd_Slider_Update_Signal(context);
 806              		.loc 1 111 0
 807 0004 0830     		adds	r0, r0, #8
 808              	.LVL106:
 809 0006 FFF7FEFF 		bl	Ft_Esd_TouchTag_Update
 810              	.LVL107:
 112:FT_Esd_Widgets/Ft_Esd_Slider__Generated.c **** }
 811              		.loc 1 112 0
 812 000a 2046     		mov	r0, r4
 813 000c FFF7FEFF 		bl	Ft_Esd_Slider_Update_Signal
 814              	.LVL108:
 113:FT_Esd_Widgets/Ft_Esd_Slider__Generated.c **** 
 815              		.loc 1 113 0
 816 0010 10BD     		pop	{r4, pc}
 817              		.cfi_endproc
 818              	.LFE34:
 820              		.section	.text.Ft_Esd_Slider_End,"ax",%progbits
 821              		.align	1
 822              		.global	Ft_Esd_Slider_End
 823              		.syntax unified
 824              		.thumb
 825              		.thumb_func
 826              		.fpu fpv5-sp-d16
 828              	Ft_Esd_Slider_End:
 829              	.LFB35:
 116:FT_Esd_Widgets/Ft_Esd_Slider__Generated.c **** 	void *parent = context->Parent;
 830              		.loc 1 116 0
 831              		.cfi_startproc
 832              		@ args = 0, pretend = 0, frame = 0
 833              		@ frame_needed = 0, uses_anonymous_args = 0
 834              	.LVL109:
 835 0000 08B5     		push	{r3, lr}
 836              	.LCFI11:
 837              		.cfi_def_cfa_offset 8
 838              		.cfi_offset 3, -8
 839              		.cfi_offset 14, -4
 840              	.LVL110:
 118:FT_Esd_Widgets/Ft_Esd_Slider__Generated.c **** }
 841              		.loc 1 118 0
 842 0002 0830     		adds	r0, r0, #8
 843              	.LVL111:
 844 0004 FFF7FEFF 		bl	Ft_Esd_TouchTag_End
 845              	.LVL112:
 119:FT_Esd_Widgets/Ft_Esd_Slider__Generated.c **** 
 846              		.loc 1 119 0
 847 0008 08BD     		pop	{r3, pc}
 848              		.cfi_endproc
 849              	.LFE35:
 851              		.text
 852              	.Letext0:
ARM GAS  /var/folders/n8/cvzdcwlj0vl4g_wtyz1ffy300000gn/T//ccAQSt7v.s 			page 22


 853              		.file 4 "FT_Eve_Hal/FT_DataTypes.h"
 854              		.file 5 "/usr/local/Cellar/arm-none-eabi-gcc/20180627/arm-none-eabi/include/sys/lock.h"
 855              		.file 6 "/usr/local/Cellar/arm-none-eabi-gcc/20180627/arm-none-eabi/include/sys/_types.h"
 856              		.file 7 "/usr/local/Cellar/arm-none-eabi-gcc/20180627/lib/gcc/arm-none-eabi/7.3.1/include/stddef.h
 857              		.file 8 "/usr/local/Cellar/arm-none-eabi-gcc/20180627/arm-none-eabi/include/sys/unistd.h"
 858              		.file 9 "/usr/local/Cellar/arm-none-eabi-gcc/20180627/arm-none-eabi/include/sys/reent.h"
 859              		.file 10 "/usr/local/Cellar/arm-none-eabi-gcc/20180627/arm-none-eabi/include/stdlib.h"
 860              		.file 11 "FT_Eve_Hal/FT_Gpu_Hal.h"
 861              		.file 12 "FT_Esd_Framework/Ft_Esd.h"
 862              		.file 13 "FT_Esd_Framework/Ft_Esd_TouchTag.h"
 863              		.file 14 "FT_Esd_Widgets/Ft_Esd_Slider.h"
 864              		.file 15 "FT_Esd_Framework/FT_Esd_CoPro_Cmds.h"
ARM GAS  /var/folders/n8/cvzdcwlj0vl4g_wtyz1ffy300000gn/T//ccAQSt7v.s 			page 23

