ARM GAS  /var/folders/n8/cvzdcwlj0vl4g_wtyz1ffy300000gn/T//cc5yS6bx.s 			page 1


   1              		.cpu cortex-m7
   2              		.eabi_attribute 27, 1
   3              		.eabi_attribute 28, 1
   4              		.eabi_attribute 20, 1
   5              		.eabi_attribute 21, 1
   6              		.eabi_attribute 23, 3
   7              		.eabi_attribute 24, 1
   8              		.eabi_attribute 25, 1
   9              		.eabi_attribute 26, 1
  10              		.eabi_attribute 30, 1
  11              		.eabi_attribute 34, 1
  12              		.eabi_attribute 18, 4
  13              		.file	"Ft_Esd_Gauge__Generated.c"
  14              		.text
  15              	.Ltext0:
  16              		.cfi_sections	.debug_frame
  17              		.section	.text.Ft_Esd_Gauge_X__Default,"ax",%progbits
  18              		.align	1
  19              		.global	Ft_Esd_Gauge_X__Default
  20              		.syntax unified
  21              		.thumb
  22              		.thumb_func
  23              		.fpu fpv5-sp-d16
  25              	Ft_Esd_Gauge_X__Default:
  26              	.LFB24:
  27              		.file 1 "FT_Esd_Widgets/Ft_Esd_Gauge__Generated.c"
   1:FT_Esd_Widgets/Ft_Esd_Gauge__Generated.c **** /*
   2:FT_Esd_Widgets/Ft_Esd_Gauge__Generated.c **** This file is automatically generated
   3:FT_Esd_Widgets/Ft_Esd_Gauge__Generated.c **** Ft_Esd_Gauge
   4:FT_Esd_Widgets/Ft_Esd_Gauge__Generated.c **** C Source
   5:FT_Esd_Widgets/Ft_Esd_Gauge__Generated.c **** */
   6:FT_Esd_Widgets/Ft_Esd_Gauge__Generated.c **** 
   7:FT_Esd_Widgets/Ft_Esd_Gauge__Generated.c **** #include "Ft_Esd_Gauge.h"
   8:FT_Esd_Widgets/Ft_Esd_Gauge__Generated.c **** 
   9:FT_Esd_Widgets/Ft_Esd_Gauge__Generated.c **** #include "FT_Esd_CoPro_Cmds.h"
  10:FT_Esd_Widgets/Ft_Esd_Gauge__Generated.c **** #include "FT_Esd_Dl.h"
  11:FT_Esd_Widgets/Ft_Esd_Gauge__Generated.c **** #include "FT_Gpu.h"
  12:FT_Esd_Widgets/Ft_Esd_Gauge__Generated.c **** 
  13:FT_Esd_Widgets/Ft_Esd_Gauge__Generated.c **** extern void Ft_Esd_Noop(void *context);
  14:FT_Esd_Widgets/Ft_Esd_Gauge__Generated.c **** Ft_Esd_Theme * Ft_Esd_Gauge_Theme__Default(void *context) { return Ft_Esd_Theme_GetCurrent(); }
  15:FT_Esd_Widgets/Ft_Esd_Gauge__Generated.c **** ft_int16_t Ft_Esd_Gauge_X__Default(void *context) { return 0; }
  28              		.loc 1 15 0
  29              		.cfi_startproc
  30              		@ args = 0, pretend = 0, frame = 0
  31              		@ frame_needed = 0, uses_anonymous_args = 0
  32              		@ link register save eliminated.
  33              	.LVL0:
  34              		.loc 1 15 0
  35 0000 0020     		movs	r0, #0
  36              	.LVL1:
  37 0002 7047     		bx	lr
  38              		.cfi_endproc
  39              	.LFE24:
  41              		.section	.text.Ft_Esd_Gauge_Y__Default,"ax",%progbits
  42              		.align	1
  43              		.global	Ft_Esd_Gauge_Y__Default
  44              		.syntax unified
ARM GAS  /var/folders/n8/cvzdcwlj0vl4g_wtyz1ffy300000gn/T//cc5yS6bx.s 			page 2


  45              		.thumb
  46              		.thumb_func
  47              		.fpu fpv5-sp-d16
  49              	Ft_Esd_Gauge_Y__Default:
  50              	.LFB25:
  16:FT_Esd_Widgets/Ft_Esd_Gauge__Generated.c **** ft_int16_t Ft_Esd_Gauge_Y__Default(void *context) { return 0; }
  51              		.loc 1 16 0
  52              		.cfi_startproc
  53              		@ args = 0, pretend = 0, frame = 0
  54              		@ frame_needed = 0, uses_anonymous_args = 0
  55              		@ link register save eliminated.
  56              	.LVL2:
  57              		.loc 1 16 0
  58 0000 0020     		movs	r0, #0
  59              	.LVL3:
  60 0002 7047     		bx	lr
  61              		.cfi_endproc
  62              	.LFE25:
  64              		.section	.text.Ft_Esd_Gauge_Width__Default,"ax",%progbits
  65              		.align	1
  66              		.global	Ft_Esd_Gauge_Width__Default
  67              		.syntax unified
  68              		.thumb
  69              		.thumb_func
  70              		.fpu fpv5-sp-d16
  72              	Ft_Esd_Gauge_Width__Default:
  73              	.LFB26:
  17:FT_Esd_Widgets/Ft_Esd_Gauge__Generated.c **** ft_int16_t Ft_Esd_Gauge_Width__Default(void *context) { return 144; }
  74              		.loc 1 17 0
  75              		.cfi_startproc
  76              		@ args = 0, pretend = 0, frame = 0
  77              		@ frame_needed = 0, uses_anonymous_args = 0
  78              		@ link register save eliminated.
  79              	.LVL4:
  80              		.loc 1 17 0
  81 0000 9020     		movs	r0, #144
  82              	.LVL5:
  83 0002 7047     		bx	lr
  84              		.cfi_endproc
  85              	.LFE26:
  87              		.section	.text.Ft_Esd_Gauge_Height__Default,"ax",%progbits
  88              		.align	1
  89              		.global	Ft_Esd_Gauge_Height__Default
  90              		.syntax unified
  91              		.thumb
  92              		.thumb_func
  93              		.fpu fpv5-sp-d16
  95              	Ft_Esd_Gauge_Height__Default:
  96              	.LFB27:
  18:FT_Esd_Widgets/Ft_Esd_Gauge__Generated.c **** ft_int16_t Ft_Esd_Gauge_Height__Default(void *context) { return 144; }
  97              		.loc 1 18 0
  98              		.cfi_startproc
  99              		@ args = 0, pretend = 0, frame = 0
 100              		@ frame_needed = 0, uses_anonymous_args = 0
 101              		@ link register save eliminated.
 102              	.LVL6:
 103              		.loc 1 18 0
ARM GAS  /var/folders/n8/cvzdcwlj0vl4g_wtyz1ffy300000gn/T//cc5yS6bx.s 			page 3


 104 0000 9020     		movs	r0, #144
 105              	.LVL7:
 106 0002 7047     		bx	lr
 107              		.cfi_endproc
 108              	.LFE27:
 110              		.section	.text.Ft_Esd_Gauge_Alpha__Default,"ax",%progbits
 111              		.align	1
 112              		.global	Ft_Esd_Gauge_Alpha__Default
 113              		.syntax unified
 114              		.thumb
 115              		.thumb_func
 116              		.fpu fpv5-sp-d16
 118              	Ft_Esd_Gauge_Alpha__Default:
 119              	.LFB28:
  19:FT_Esd_Widgets/Ft_Esd_Gauge__Generated.c **** ft_uint8_t Ft_Esd_Gauge_Alpha__Default(void *context) { return 255; }
 120              		.loc 1 19 0
 121              		.cfi_startproc
 122              		@ args = 0, pretend = 0, frame = 0
 123              		@ frame_needed = 0, uses_anonymous_args = 0
 124              		@ link register save eliminated.
 125              	.LVL8:
 126              		.loc 1 19 0
 127 0000 FF20     		movs	r0, #255
 128              	.LVL9:
 129 0002 7047     		bx	lr
 130              		.cfi_endproc
 131              	.LFE28:
 133              		.section	.text.Ft_Esd_Gauge_Val__Default,"ax",%progbits
 134              		.align	1
 135              		.global	Ft_Esd_Gauge_Val__Default
 136              		.syntax unified
 137              		.thumb
 138              		.thumb_func
 139              		.fpu fpv5-sp-d16
 141              	Ft_Esd_Gauge_Val__Default:
 142              	.LFB29:
  20:FT_Esd_Widgets/Ft_Esd_Gauge__Generated.c **** ft_uint16_t Ft_Esd_Gauge_Val__Default(void *context) { return 0U; }
 143              		.loc 1 20 0
 144              		.cfi_startproc
 145              		@ args = 0, pretend = 0, frame = 0
 146              		@ frame_needed = 0, uses_anonymous_args = 0
 147              		@ link register save eliminated.
 148              	.LVL10:
 149              		.loc 1 20 0
 150 0000 0020     		movs	r0, #0
 151              	.LVL11:
 152 0002 7047     		bx	lr
 153              		.cfi_endproc
 154              	.LFE29:
 156              		.section	.text.Ft_Esd_Gauge_Range__Default,"ax",%progbits
 157              		.align	1
 158              		.global	Ft_Esd_Gauge_Range__Default
 159              		.syntax unified
 160              		.thumb
 161              		.thumb_func
 162              		.fpu fpv5-sp-d16
 164              	Ft_Esd_Gauge_Range__Default:
ARM GAS  /var/folders/n8/cvzdcwlj0vl4g_wtyz1ffy300000gn/T//cc5yS6bx.s 			page 4


 165              	.LFB30:
  21:FT_Esd_Widgets/Ft_Esd_Gauge__Generated.c **** ft_uint16_t Ft_Esd_Gauge_Range__Default(void *context) { return 0U; }
 166              		.loc 1 21 0
 167              		.cfi_startproc
 168              		@ args = 0, pretend = 0, frame = 0
 169              		@ frame_needed = 0, uses_anonymous_args = 0
 170              		@ link register save eliminated.
 171              	.LVL12:
 172              		.loc 1 21 0
 173 0000 0020     		movs	r0, #0
 174              	.LVL13:
 175 0002 7047     		bx	lr
 176              		.cfi_endproc
 177              	.LFE30:
 179              		.section	.text.Ft_Esd_Gauge_Major__Default,"ax",%progbits
 180              		.align	1
 181              		.global	Ft_Esd_Gauge_Major__Default
 182              		.syntax unified
 183              		.thumb
 184              		.thumb_func
 185              		.fpu fpv5-sp-d16
 187              	Ft_Esd_Gauge_Major__Default:
 188              	.LFB31:
  22:FT_Esd_Widgets/Ft_Esd_Gauge__Generated.c **** ft_uint16_t Ft_Esd_Gauge_Major__Default(void *context) { return 4U; }
 189              		.loc 1 22 0
 190              		.cfi_startproc
 191              		@ args = 0, pretend = 0, frame = 0
 192              		@ frame_needed = 0, uses_anonymous_args = 0
 193              		@ link register save eliminated.
 194              	.LVL14:
 195              		.loc 1 22 0
 196 0000 0420     		movs	r0, #4
 197              	.LVL15:
 198 0002 7047     		bx	lr
 199              		.cfi_endproc
 200              	.LFE31:
 202              		.section	.text.Ft_Esd_Gauge_Minor__Default,"ax",%progbits
 203              		.align	1
 204              		.global	Ft_Esd_Gauge_Minor__Default
 205              		.syntax unified
 206              		.thumb
 207              		.thumb_func
 208              		.fpu fpv5-sp-d16
 210              	Ft_Esd_Gauge_Minor__Default:
 211              	.LFB32:
  23:FT_Esd_Widgets/Ft_Esd_Gauge__Generated.c **** ft_uint16_t Ft_Esd_Gauge_Minor__Default(void *context) { return 16U; }
 212              		.loc 1 23 0
 213              		.cfi_startproc
 214              		@ args = 0, pretend = 0, frame = 0
 215              		@ frame_needed = 0, uses_anonymous_args = 0
 216              		@ link register save eliminated.
 217              	.LVL16:
 218              		.loc 1 23 0
 219 0000 1020     		movs	r0, #16
 220              	.LVL17:
 221 0002 7047     		bx	lr
 222              		.cfi_endproc
ARM GAS  /var/folders/n8/cvzdcwlj0vl4g_wtyz1ffy300000gn/T//cc5yS6bx.s 			page 5


 223              	.LFE32:
 225              		.section	.text.Ft_Esd_Gauge_Ft_Esd_PosSizeToRadius_X__Property,"ax",%progbits
 226              		.align	1
 227              		.syntax unified
 228              		.thumb
 229              		.thumb_func
 230              		.fpu fpv5-sp-d16
 232              	Ft_Esd_Gauge_Ft_Esd_PosSizeToRadius_X__Property:
 233              	.LFB35:
  24:FT_Esd_Widgets/Ft_Esd_Gauge__Generated.c **** 
  25:FT_Esd_Widgets/Ft_Esd_Gauge__Generated.c **** Ft_Gpu_Hal_Context_t * Ft_Esd_GetHost();
  26:FT_Esd_Widgets/Ft_Esd_Gauge__Generated.c **** Ft_Esd_Theme * Ft_Esd_Theme_GetCurrent();
  27:FT_Esd_Widgets/Ft_Esd_Gauge__Generated.c **** static ft_int16_t Ft_Esd_Gauge_Ft_Esd_PosSizeToRadius_X__Property(void *context);
  28:FT_Esd_Widgets/Ft_Esd_Gauge__Generated.c **** static ft_int16_t Ft_Esd_Gauge_Ft_Esd_PosSizeToRadius_Y__Property(void *context);
  29:FT_Esd_Widgets/Ft_Esd_Gauge__Generated.c **** static ft_int16_t Ft_Esd_Gauge_Ft_Esd_PosSizeToRadius_Width__Property(void *context);
  30:FT_Esd_Widgets/Ft_Esd_Gauge__Generated.c **** static ft_int16_t Ft_Esd_Gauge_Ft_Esd_PosSizeToRadius_Height__Property(void *context);
  31:FT_Esd_Widgets/Ft_Esd_Gauge__Generated.c **** 
  32:FT_Esd_Widgets/Ft_Esd_Gauge__Generated.c **** 
  33:FT_Esd_Widgets/Ft_Esd_Gauge__Generated.c **** void Ft_Esd_Gauge__Initializer(Ft_Esd_Gauge *context)
  34:FT_Esd_Widgets/Ft_Esd_Gauge__Generated.c **** {
  35:FT_Esd_Widgets/Ft_Esd_Gauge__Generated.c **** 	context->Parent = 0;
  36:FT_Esd_Widgets/Ft_Esd_Gauge__Generated.c **** 	context->Theme = Ft_Esd_Gauge_Theme__Default;
  37:FT_Esd_Widgets/Ft_Esd_Gauge__Generated.c **** 	context->X = Ft_Esd_Gauge_X__Default;
  38:FT_Esd_Widgets/Ft_Esd_Gauge__Generated.c **** 	context->Y = Ft_Esd_Gauge_Y__Default;
  39:FT_Esd_Widgets/Ft_Esd_Gauge__Generated.c **** 	context->Width = Ft_Esd_Gauge_Width__Default;
  40:FT_Esd_Widgets/Ft_Esd_Gauge__Generated.c **** 	context->Height = Ft_Esd_Gauge_Height__Default;
  41:FT_Esd_Widgets/Ft_Esd_Gauge__Generated.c **** 	Ft_Esd_PosSizeToRadius__Initializer(&context->Ft_Esd_PosSizeToRadius);
  42:FT_Esd_Widgets/Ft_Esd_Gauge__Generated.c **** 	context->Ft_Esd_PosSizeToRadius.Parent = context;
  43:FT_Esd_Widgets/Ft_Esd_Gauge__Generated.c **** 	context->Ft_Esd_PosSizeToRadius.X = Ft_Esd_Gauge_Ft_Esd_PosSizeToRadius_X__Property;
  44:FT_Esd_Widgets/Ft_Esd_Gauge__Generated.c **** 	context->Ft_Esd_PosSizeToRadius.Y = Ft_Esd_Gauge_Ft_Esd_PosSizeToRadius_Y__Property;
  45:FT_Esd_Widgets/Ft_Esd_Gauge__Generated.c **** 	context->Ft_Esd_PosSizeToRadius.Width = Ft_Esd_Gauge_Ft_Esd_PosSizeToRadius_Width__Property;
  46:FT_Esd_Widgets/Ft_Esd_Gauge__Generated.c **** 	context->Ft_Esd_PosSizeToRadius.Height = Ft_Esd_Gauge_Ft_Esd_PosSizeToRadius_Height__Property;
  47:FT_Esd_Widgets/Ft_Esd_Gauge__Generated.c **** 	context->Alpha = Ft_Esd_Gauge_Alpha__Default;
  48:FT_Esd_Widgets/Ft_Esd_Gauge__Generated.c **** 	context->Val = Ft_Esd_Gauge_Val__Default;
  49:FT_Esd_Widgets/Ft_Esd_Gauge__Generated.c **** 	context->Range = Ft_Esd_Gauge_Range__Default;
  50:FT_Esd_Widgets/Ft_Esd_Gauge__Generated.c **** 	context->Major = Ft_Esd_Gauge_Major__Default;
  51:FT_Esd_Widgets/Ft_Esd_Gauge__Generated.c **** 	context->Minor = Ft_Esd_Gauge_Minor__Default;
  52:FT_Esd_Widgets/Ft_Esd_Gauge__Generated.c **** }
  53:FT_Esd_Widgets/Ft_Esd_Gauge__Generated.c **** 
  54:FT_Esd_Widgets/Ft_Esd_Gauge__Generated.c **** ft_void_t Ft_Gpu_CoCmd_BgColor(Ft_Gpu_Hal_Context_t *, ft_rgb32_t);
  55:FT_Esd_Widgets/Ft_Esd_Gauge__Generated.c **** ft_void_t Ft_Gpu_CoCmd_Gauge(Ft_Gpu_Hal_Context_t *, ft_int16_t, ft_int16_t, ft_int16_t, ft_uint16_
  56:FT_Esd_Widgets/Ft_Esd_Gauge__Generated.c **** 
  57:FT_Esd_Widgets/Ft_Esd_Gauge__Generated.c **** void Ft_Esd_Gauge_Render(Ft_Esd_Gauge *context)
  58:FT_Esd_Widgets/Ft_Esd_Gauge__Generated.c **** {
  59:FT_Esd_Widgets/Ft_Esd_Gauge__Generated.c **** 	void *parent = context->Parent;
  60:FT_Esd_Widgets/Ft_Esd_Gauge__Generated.c **** 	ft_uint8_t alpha = context->Alpha(parent);
  61:FT_Esd_Widgets/Ft_Esd_Gauge__Generated.c **** 	Ft_Esd_Dl_COLOR_A(alpha);
  62:FT_Esd_Widgets/Ft_Esd_Gauge__Generated.c **** 	Ft_Gpu_Hal_Context_t * phost = Ft_Esd_GetHost();
  63:FT_Esd_Widgets/Ft_Esd_Gauge__Generated.c **** 	Ft_Esd_Theme * theme = context->Theme(parent);
  64:FT_Esd_Widgets/Ft_Esd_Gauge__Generated.c **** 	ft_rgb32_t c = Ft_Esd_Theme_GetBackColor(theme);
  65:FT_Esd_Widgets/Ft_Esd_Gauge__Generated.c **** 	Ft_Gpu_CoCmd_BgColor(phost, c);
  66:FT_Esd_Widgets/Ft_Esd_Gauge__Generated.c **** 	Ft_Esd_Theme * theme_1 = context->Theme(parent);
  67:FT_Esd_Widgets/Ft_Esd_Gauge__Generated.c **** 	ft_rgb32_t c_1 = Ft_Esd_Theme_GetTextColor(theme_1);
  68:FT_Esd_Widgets/Ft_Esd_Gauge__Generated.c **** 	Ft_Esd_Dl_COLOR_RGB(c_1);
  69:FT_Esd_Widgets/Ft_Esd_Gauge__Generated.c **** 	Ft_Gpu_Hal_Context_t * phost_1 = Ft_Esd_GetHost();
  70:FT_Esd_Widgets/Ft_Esd_Gauge__Generated.c **** 	ft_int16_t x = Ft_Esd_PosSizeToRadius_CenterX(&context->Ft_Esd_PosSizeToRadius);
  71:FT_Esd_Widgets/Ft_Esd_Gauge__Generated.c **** 	ft_int16_t y = Ft_Esd_PosSizeToRadius_CenterY(&context->Ft_Esd_PosSizeToRadius);
ARM GAS  /var/folders/n8/cvzdcwlj0vl4g_wtyz1ffy300000gn/T//cc5yS6bx.s 			page 6


  72:FT_Esd_Widgets/Ft_Esd_Gauge__Generated.c **** 	ft_int16_t r = Ft_Esd_PosSizeToRadius_Radius(&context->Ft_Esd_PosSizeToRadius);
  73:FT_Esd_Widgets/Ft_Esd_Gauge__Generated.c **** 	ft_uint16_t options = 0;
  74:FT_Esd_Widgets/Ft_Esd_Gauge__Generated.c **** 	ft_uint16_t major = context->Major(parent);
  75:FT_Esd_Widgets/Ft_Esd_Gauge__Generated.c **** 	ft_uint16_t minor = context->Minor(parent);
  76:FT_Esd_Widgets/Ft_Esd_Gauge__Generated.c **** 	ft_uint16_t val = context->Val(parent);
  77:FT_Esd_Widgets/Ft_Esd_Gauge__Generated.c **** 	ft_uint16_t range = context->Range(parent);
  78:FT_Esd_Widgets/Ft_Esd_Gauge__Generated.c **** 	Ft_Gpu_CoCmd_Gauge(phost_1, x, y, r, options, major, minor, val, range);
  79:FT_Esd_Widgets/Ft_Esd_Gauge__Generated.c **** }
  80:FT_Esd_Widgets/Ft_Esd_Gauge__Generated.c **** 
  81:FT_Esd_Widgets/Ft_Esd_Gauge__Generated.c **** ft_int16_t Ft_Esd_Gauge_Ft_Esd_PosSizeToRadius_X__Property(void *c)
  82:FT_Esd_Widgets/Ft_Esd_Gauge__Generated.c **** {
 234              		.loc 1 82 0
 235              		.cfi_startproc
 236              		@ args = 0, pretend = 0, frame = 0
 237              		@ frame_needed = 0, uses_anonymous_args = 0
 238              	.LVL18:
 239 0000 08B5     		push	{r3, lr}
 240              	.LCFI0:
 241              		.cfi_def_cfa_offset 8
 242              		.cfi_offset 3, -8
 243              		.cfi_offset 14, -4
 244              	.LVL19:
  83:FT_Esd_Widgets/Ft_Esd_Gauge__Generated.c **** 	Ft_Esd_Gauge *context = (Ft_Esd_Gauge *)c;
  84:FT_Esd_Widgets/Ft_Esd_Gauge__Generated.c **** 	void *parent = context->Parent;
  85:FT_Esd_Widgets/Ft_Esd_Gauge__Generated.c **** 	return context->X(parent);
 245              		.loc 1 85 0
 246 0002 8368     		ldr	r3, [r0, #8]
 247 0004 0068     		ldr	r0, [r0]
 248              	.LVL20:
 249 0006 9847     		blx	r3
 250              	.LVL21:
  86:FT_Esd_Widgets/Ft_Esd_Gauge__Generated.c **** }
 251              		.loc 1 86 0
 252 0008 08BD     		pop	{r3, pc}
 253              		.cfi_endproc
 254              	.LFE35:
 256              		.section	.text.Ft_Esd_Gauge_Ft_Esd_PosSizeToRadius_Y__Property,"ax",%progbits
 257              		.align	1
 258              		.syntax unified
 259              		.thumb
 260              		.thumb_func
 261              		.fpu fpv5-sp-d16
 263              	Ft_Esd_Gauge_Ft_Esd_PosSizeToRadius_Y__Property:
 264              	.LFB36:
  87:FT_Esd_Widgets/Ft_Esd_Gauge__Generated.c **** 
  88:FT_Esd_Widgets/Ft_Esd_Gauge__Generated.c **** ft_int16_t Ft_Esd_Gauge_Ft_Esd_PosSizeToRadius_Y__Property(void *c)
  89:FT_Esd_Widgets/Ft_Esd_Gauge__Generated.c **** {
 265              		.loc 1 89 0
 266              		.cfi_startproc
 267              		@ args = 0, pretend = 0, frame = 0
 268              		@ frame_needed = 0, uses_anonymous_args = 0
 269              	.LVL22:
 270 0000 08B5     		push	{r3, lr}
 271              	.LCFI1:
 272              		.cfi_def_cfa_offset 8
 273              		.cfi_offset 3, -8
 274              		.cfi_offset 14, -4
ARM GAS  /var/folders/n8/cvzdcwlj0vl4g_wtyz1ffy300000gn/T//cc5yS6bx.s 			page 7


 275              	.LVL23:
  90:FT_Esd_Widgets/Ft_Esd_Gauge__Generated.c **** 	Ft_Esd_Gauge *context = (Ft_Esd_Gauge *)c;
  91:FT_Esd_Widgets/Ft_Esd_Gauge__Generated.c **** 	void *parent = context->Parent;
  92:FT_Esd_Widgets/Ft_Esd_Gauge__Generated.c **** 	return context->Y(parent);
 276              		.loc 1 92 0
 277 0002 C368     		ldr	r3, [r0, #12]
 278 0004 0068     		ldr	r0, [r0]
 279              	.LVL24:
 280 0006 9847     		blx	r3
 281              	.LVL25:
  93:FT_Esd_Widgets/Ft_Esd_Gauge__Generated.c **** }
 282              		.loc 1 93 0
 283 0008 08BD     		pop	{r3, pc}
 284              		.cfi_endproc
 285              	.LFE36:
 287              		.section	.text.Ft_Esd_Gauge_Ft_Esd_PosSizeToRadius_Width__Property,"ax",%progbits
 288              		.align	1
 289              		.syntax unified
 290              		.thumb
 291              		.thumb_func
 292              		.fpu fpv5-sp-d16
 294              	Ft_Esd_Gauge_Ft_Esd_PosSizeToRadius_Width__Property:
 295              	.LFB37:
  94:FT_Esd_Widgets/Ft_Esd_Gauge__Generated.c **** 
  95:FT_Esd_Widgets/Ft_Esd_Gauge__Generated.c **** ft_int16_t Ft_Esd_Gauge_Ft_Esd_PosSizeToRadius_Width__Property(void *c)
  96:FT_Esd_Widgets/Ft_Esd_Gauge__Generated.c **** {
 296              		.loc 1 96 0
 297              		.cfi_startproc
 298              		@ args = 0, pretend = 0, frame = 0
 299              		@ frame_needed = 0, uses_anonymous_args = 0
 300              	.LVL26:
 301 0000 08B5     		push	{r3, lr}
 302              	.LCFI2:
 303              		.cfi_def_cfa_offset 8
 304              		.cfi_offset 3, -8
 305              		.cfi_offset 14, -4
 306              	.LVL27:
  97:FT_Esd_Widgets/Ft_Esd_Gauge__Generated.c **** 	Ft_Esd_Gauge *context = (Ft_Esd_Gauge *)c;
  98:FT_Esd_Widgets/Ft_Esd_Gauge__Generated.c **** 	void *parent = context->Parent;
  99:FT_Esd_Widgets/Ft_Esd_Gauge__Generated.c **** 	return context->Width(parent);
 307              		.loc 1 99 0
 308 0002 0369     		ldr	r3, [r0, #16]
 309 0004 0068     		ldr	r0, [r0]
 310              	.LVL28:
 311 0006 9847     		blx	r3
 312              	.LVL29:
 100:FT_Esd_Widgets/Ft_Esd_Gauge__Generated.c **** }
 313              		.loc 1 100 0
 314 0008 08BD     		pop	{r3, pc}
 315              		.cfi_endproc
 316              	.LFE37:
 318              		.section	.text.Ft_Esd_Gauge_Ft_Esd_PosSizeToRadius_Height__Property,"ax",%progbits
 319              		.align	1
 320              		.syntax unified
 321              		.thumb
 322              		.thumb_func
 323              		.fpu fpv5-sp-d16
ARM GAS  /var/folders/n8/cvzdcwlj0vl4g_wtyz1ffy300000gn/T//cc5yS6bx.s 			page 8


 325              	Ft_Esd_Gauge_Ft_Esd_PosSizeToRadius_Height__Property:
 326              	.LFB38:
 101:FT_Esd_Widgets/Ft_Esd_Gauge__Generated.c **** 
 102:FT_Esd_Widgets/Ft_Esd_Gauge__Generated.c **** ft_int16_t Ft_Esd_Gauge_Ft_Esd_PosSizeToRadius_Height__Property(void *c)
 103:FT_Esd_Widgets/Ft_Esd_Gauge__Generated.c **** {
 327              		.loc 1 103 0
 328              		.cfi_startproc
 329              		@ args = 0, pretend = 0, frame = 0
 330              		@ frame_needed = 0, uses_anonymous_args = 0
 331              	.LVL30:
 332 0000 08B5     		push	{r3, lr}
 333              	.LCFI3:
 334              		.cfi_def_cfa_offset 8
 335              		.cfi_offset 3, -8
 336              		.cfi_offset 14, -4
 337              	.LVL31:
 104:FT_Esd_Widgets/Ft_Esd_Gauge__Generated.c **** 	Ft_Esd_Gauge *context = (Ft_Esd_Gauge *)c;
 105:FT_Esd_Widgets/Ft_Esd_Gauge__Generated.c **** 	void *parent = context->Parent;
 106:FT_Esd_Widgets/Ft_Esd_Gauge__Generated.c **** 	return context->Height(parent);
 338              		.loc 1 106 0
 339 0002 4369     		ldr	r3, [r0, #20]
 340 0004 0068     		ldr	r0, [r0]
 341              	.LVL32:
 342 0006 9847     		blx	r3
 343              	.LVL33:
 107:FT_Esd_Widgets/Ft_Esd_Gauge__Generated.c **** }
 344              		.loc 1 107 0
 345 0008 08BD     		pop	{r3, pc}
 346              		.cfi_endproc
 347              	.LFE38:
 349              		.section	.text.Ft_Esd_Gauge_Theme__Default,"ax",%progbits
 350              		.align	1
 351              		.global	Ft_Esd_Gauge_Theme__Default
 352              		.syntax unified
 353              		.thumb
 354              		.thumb_func
 355              		.fpu fpv5-sp-d16
 357              	Ft_Esd_Gauge_Theme__Default:
 358              	.LFB23:
  14:FT_Esd_Widgets/Ft_Esd_Gauge__Generated.c **** ft_int16_t Ft_Esd_Gauge_X__Default(void *context) { return 0; }
 359              		.loc 1 14 0
 360              		.cfi_startproc
 361              		@ args = 0, pretend = 0, frame = 0
 362              		@ frame_needed = 0, uses_anonymous_args = 0
 363              	.LVL34:
 364 0000 08B5     		push	{r3, lr}
 365              	.LCFI4:
 366              		.cfi_def_cfa_offset 8
 367              		.cfi_offset 3, -8
 368              		.cfi_offset 14, -4
  14:FT_Esd_Widgets/Ft_Esd_Gauge__Generated.c **** ft_int16_t Ft_Esd_Gauge_X__Default(void *context) { return 0; }
 369              		.loc 1 14 0
 370 0002 FFF7FEFF 		bl	Ft_Esd_Theme_GetCurrent
 371              	.LVL35:
 372 0006 08BD     		pop	{r3, pc}
 373              		.cfi_endproc
 374              	.LFE23:
ARM GAS  /var/folders/n8/cvzdcwlj0vl4g_wtyz1ffy300000gn/T//cc5yS6bx.s 			page 9


 376              		.section	.text.Ft_Esd_Gauge__Initializer,"ax",%progbits
 377              		.align	1
 378              		.global	Ft_Esd_Gauge__Initializer
 379              		.syntax unified
 380              		.thumb
 381              		.thumb_func
 382              		.fpu fpv5-sp-d16
 384              	Ft_Esd_Gauge__Initializer:
 385              	.LFB33:
  34:FT_Esd_Widgets/Ft_Esd_Gauge__Generated.c **** 	context->Parent = 0;
 386              		.loc 1 34 0
 387              		.cfi_startproc
 388              		@ args = 0, pretend = 0, frame = 0
 389              		@ frame_needed = 0, uses_anonymous_args = 0
 390              	.LVL36:
 391 0000 10B5     		push	{r4, lr}
 392              	.LCFI5:
 393              		.cfi_def_cfa_offset 8
 394              		.cfi_offset 4, -8
 395              		.cfi_offset 14, -4
 396 0002 0446     		mov	r4, r0
  35:FT_Esd_Widgets/Ft_Esd_Gauge__Generated.c **** 	context->Theme = Ft_Esd_Gauge_Theme__Default;
 397              		.loc 1 35 0
 398 0004 0023     		movs	r3, #0
 399 0006 0360     		str	r3, [r0]
  36:FT_Esd_Widgets/Ft_Esd_Gauge__Generated.c **** 	context->X = Ft_Esd_Gauge_X__Default;
 400              		.loc 1 36 0
 401 0008 104B     		ldr	r3, .L22
 402 000a 4360     		str	r3, [r0, #4]
  37:FT_Esd_Widgets/Ft_Esd_Gauge__Generated.c **** 	context->Y = Ft_Esd_Gauge_Y__Default;
 403              		.loc 1 37 0
 404 000c 104B     		ldr	r3, .L22+4
 405 000e 8360     		str	r3, [r0, #8]
  38:FT_Esd_Widgets/Ft_Esd_Gauge__Generated.c **** 	context->Width = Ft_Esd_Gauge_Width__Default;
 406              		.loc 1 38 0
 407 0010 104B     		ldr	r3, .L22+8
 408 0012 C360     		str	r3, [r0, #12]
  39:FT_Esd_Widgets/Ft_Esd_Gauge__Generated.c **** 	context->Height = Ft_Esd_Gauge_Height__Default;
 409              		.loc 1 39 0
 410 0014 104B     		ldr	r3, .L22+12
 411 0016 0361     		str	r3, [r0, #16]
  40:FT_Esd_Widgets/Ft_Esd_Gauge__Generated.c **** 	Ft_Esd_PosSizeToRadius__Initializer(&context->Ft_Esd_PosSizeToRadius);
 412              		.loc 1 40 0
 413 0018 104B     		ldr	r3, .L22+16
 414 001a 4361     		str	r3, [r0, #20]
  41:FT_Esd_Widgets/Ft_Esd_Gauge__Generated.c **** 	context->Ft_Esd_PosSizeToRadius.Parent = context;
 415              		.loc 1 41 0
 416 001c 1830     		adds	r0, r0, #24
 417              	.LVL37:
 418 001e FFF7FEFF 		bl	Ft_Esd_PosSizeToRadius__Initializer
 419              	.LVL38:
  42:FT_Esd_Widgets/Ft_Esd_Gauge__Generated.c **** 	context->Ft_Esd_PosSizeToRadius.X = Ft_Esd_Gauge_Ft_Esd_PosSizeToRadius_X__Property;
 420              		.loc 1 42 0
 421 0022 A461     		str	r4, [r4, #24]
  43:FT_Esd_Widgets/Ft_Esd_Gauge__Generated.c **** 	context->Ft_Esd_PosSizeToRadius.Y = Ft_Esd_Gauge_Ft_Esd_PosSizeToRadius_Y__Property;
 422              		.loc 1 43 0
 423 0024 0E4B     		ldr	r3, .L22+20
ARM GAS  /var/folders/n8/cvzdcwlj0vl4g_wtyz1ffy300000gn/T//cc5yS6bx.s 			page 10


 424 0026 E361     		str	r3, [r4, #28]
  44:FT_Esd_Widgets/Ft_Esd_Gauge__Generated.c **** 	context->Ft_Esd_PosSizeToRadius.Width = Ft_Esd_Gauge_Ft_Esd_PosSizeToRadius_Width__Property;
 425              		.loc 1 44 0
 426 0028 0E4B     		ldr	r3, .L22+24
 427 002a 2362     		str	r3, [r4, #32]
  45:FT_Esd_Widgets/Ft_Esd_Gauge__Generated.c **** 	context->Ft_Esd_PosSizeToRadius.Height = Ft_Esd_Gauge_Ft_Esd_PosSizeToRadius_Height__Property;
 428              		.loc 1 45 0
 429 002c 0E4B     		ldr	r3, .L22+28
 430 002e 6362     		str	r3, [r4, #36]
  46:FT_Esd_Widgets/Ft_Esd_Gauge__Generated.c **** 	context->Alpha = Ft_Esd_Gauge_Alpha__Default;
 431              		.loc 1 46 0
 432 0030 0E4B     		ldr	r3, .L22+32
 433 0032 A362     		str	r3, [r4, #40]
  47:FT_Esd_Widgets/Ft_Esd_Gauge__Generated.c **** 	context->Val = Ft_Esd_Gauge_Val__Default;
 434              		.loc 1 47 0
 435 0034 0E4B     		ldr	r3, .L22+36
 436 0036 E362     		str	r3, [r4, #44]
  48:FT_Esd_Widgets/Ft_Esd_Gauge__Generated.c **** 	context->Range = Ft_Esd_Gauge_Range__Default;
 437              		.loc 1 48 0
 438 0038 0E4B     		ldr	r3, .L22+40
 439 003a 2363     		str	r3, [r4, #48]
  49:FT_Esd_Widgets/Ft_Esd_Gauge__Generated.c **** 	context->Major = Ft_Esd_Gauge_Major__Default;
 440              		.loc 1 49 0
 441 003c 0E4B     		ldr	r3, .L22+44
 442 003e 6363     		str	r3, [r4, #52]
  50:FT_Esd_Widgets/Ft_Esd_Gauge__Generated.c **** 	context->Minor = Ft_Esd_Gauge_Minor__Default;
 443              		.loc 1 50 0
 444 0040 0E4B     		ldr	r3, .L22+48
 445 0042 A363     		str	r3, [r4, #56]
  51:FT_Esd_Widgets/Ft_Esd_Gauge__Generated.c **** }
 446              		.loc 1 51 0
 447 0044 0E4B     		ldr	r3, .L22+52
 448 0046 E363     		str	r3, [r4, #60]
  52:FT_Esd_Widgets/Ft_Esd_Gauge__Generated.c **** 
 449              		.loc 1 52 0
 450 0048 10BD     		pop	{r4, pc}
 451              	.LVL39:
 452              	.L23:
 453 004a 00BF     		.align	2
 454              	.L22:
 455 004c 00000000 		.word	Ft_Esd_Gauge_Theme__Default
 456 0050 00000000 		.word	Ft_Esd_Gauge_X__Default
 457 0054 00000000 		.word	Ft_Esd_Gauge_Y__Default
 458 0058 00000000 		.word	Ft_Esd_Gauge_Width__Default
 459 005c 00000000 		.word	Ft_Esd_Gauge_Height__Default
 460 0060 00000000 		.word	Ft_Esd_Gauge_Ft_Esd_PosSizeToRadius_X__Property
 461 0064 00000000 		.word	Ft_Esd_Gauge_Ft_Esd_PosSizeToRadius_Y__Property
 462 0068 00000000 		.word	Ft_Esd_Gauge_Ft_Esd_PosSizeToRadius_Width__Property
 463 006c 00000000 		.word	Ft_Esd_Gauge_Ft_Esd_PosSizeToRadius_Height__Property
 464 0070 00000000 		.word	Ft_Esd_Gauge_Alpha__Default
 465 0074 00000000 		.word	Ft_Esd_Gauge_Val__Default
 466 0078 00000000 		.word	Ft_Esd_Gauge_Range__Default
 467 007c 00000000 		.word	Ft_Esd_Gauge_Major__Default
 468 0080 00000000 		.word	Ft_Esd_Gauge_Minor__Default
 469              		.cfi_endproc
 470              	.LFE33:
 472              		.section	.text.Ft_Esd_Gauge_Render,"ax",%progbits
ARM GAS  /var/folders/n8/cvzdcwlj0vl4g_wtyz1ffy300000gn/T//cc5yS6bx.s 			page 11


 473              		.align	1
 474              		.global	Ft_Esd_Gauge_Render
 475              		.syntax unified
 476              		.thumb
 477              		.thumb_func
 478              		.fpu fpv5-sp-d16
 480              	Ft_Esd_Gauge_Render:
 481              	.LFB34:
  58:FT_Esd_Widgets/Ft_Esd_Gauge__Generated.c **** 	void *parent = context->Parent;
 482              		.loc 1 58 0
 483              		.cfi_startproc
 484              		@ args = 0, pretend = 0, frame = 8
 485              		@ frame_needed = 0, uses_anonymous_args = 0
 486              	.LVL40:
 487 0000 2DE9F04F 		push	{r4, r5, r6, r7, r8, r9, r10, fp, lr}
 488              	.LCFI6:
 489              		.cfi_def_cfa_offset 36
 490              		.cfi_offset 4, -36
 491              		.cfi_offset 5, -32
 492              		.cfi_offset 6, -28
 493              		.cfi_offset 7, -24
 494              		.cfi_offset 8, -20
 495              		.cfi_offset 9, -16
 496              		.cfi_offset 10, -12
 497              		.cfi_offset 11, -8
 498              		.cfi_offset 14, -4
 499 0004 89B0     		sub	sp, sp, #36
 500              	.LCFI7:
 501              		.cfi_def_cfa_offset 72
 502 0006 0446     		mov	r4, r0
  59:FT_Esd_Widgets/Ft_Esd_Gauge__Generated.c **** 	ft_uint8_t alpha = context->Alpha(parent);
 503              		.loc 1 59 0
 504 0008 0568     		ldr	r5, [r0]
 505              	.LVL41:
  60:FT_Esd_Widgets/Ft_Esd_Gauge__Generated.c **** 	Ft_Esd_Dl_COLOR_A(alpha);
 506              		.loc 1 60 0
 507 000a C36A     		ldr	r3, [r0, #44]
 508 000c 2846     		mov	r0, r5
 509              	.LVL42:
 510 000e 9847     		blx	r3
 511              	.LVL43:
 512              	.LBB14:
 513              	.LBB15:
 514              		.file 2 "FT_Esd_Framework/FT_Esd_Dl.h"
   1:FT_Esd_Framework/FT_Esd_Dl.h **** 
   2:FT_Esd_Framework/FT_Esd_Dl.h **** #ifndef FT_ESD_DL_H
   3:FT_Esd_Framework/FT_Esd_Dl.h **** #define FT_ESD_DL_H
   4:FT_Esd_Framework/FT_Esd_Dl.h **** 
   5:FT_Esd_Framework/FT_Esd_Dl.h **** #include "FT_DataTypes.h"
   6:FT_Esd_Framework/FT_Esd_Dl.h **** #include "FT_Platform.h"
   7:FT_Esd_Framework/FT_Esd_Dl.h **** #include "Ft_Esd.h"
   8:FT_Esd_Framework/FT_Esd_Dl.h **** #include "FT_Gpu.h"
   9:FT_Esd_Framework/FT_Esd_Dl.h **** #include "Ft_Esd_BitmapInfo.h"
  10:FT_Esd_Framework/FT_Esd_Dl.h **** 
  11:FT_Esd_Framework/FT_Esd_Dl.h **** ESD_CATEGORY(EsdUtilities, DisplayName = "ESD Utilities")
  12:FT_Esd_Framework/FT_Esd_Dl.h **** ESD_CATEGORY(EveRenderFunctions, DisplayName = "EVE Render Functions")
  13:FT_Esd_Framework/FT_Esd_Dl.h **** 
ARM GAS  /var/folders/n8/cvzdcwlj0vl4g_wtyz1ffy300000gn/T//cc5yS6bx.s 			page 12


  14:FT_Esd_Framework/FT_Esd_Dl.h **** ESD_TYPE(Ft_Gpu_Hal_Context_t *, Native = Pointer, Edit = Library)
  15:FT_Esd_Framework/FT_Esd_Dl.h **** 
  16:FT_Esd_Framework/FT_Esd_Dl.h **** // Keep cache of displaylist values that don't often change but are generally set by every widget t
  17:FT_Esd_Framework/FT_Esd_Dl.h **** #define FT_ESD_OPTIMIZE_DISPLAYLIST 1
  18:FT_Esd_Framework/FT_Esd_Dl.h **** #define FT_ESD_STATE_STACK_SIZE 5
  19:FT_Esd_Framework/FT_Esd_Dl.h **** 
  20:FT_Esd_Framework/FT_Esd_Dl.h **** #define FT_ESD_BITMAPHANDLE_INVALID 255
  21:FT_Esd_Framework/FT_Esd_Dl.h **** 
  22:FT_Esd_Framework/FT_Esd_Dl.h **** //
  23:FT_Esd_Framework/FT_Esd_Dl.h **** // Structs
  24:FT_Esd_Framework/FT_Esd_Dl.h **** //
  25:FT_Esd_Framework/FT_Esd_Dl.h **** #ifdef FT_ESD_OPTIMIZE_DISPLAYLIST
  26:FT_Esd_Framework/FT_Esd_Dl.h **** #define FT_ESD_STATE Ft_Esd_GpuState[Ft_Esd_GpuState_I]
  27:FT_Esd_Framework/FT_Esd_Dl.h **** typedef struct
  28:FT_Esd_Framework/FT_Esd_Dl.h **** {
  29:FT_Esd_Framework/FT_Esd_Dl.h **** 	// Keep to a minimum
  30:FT_Esd_Framework/FT_Esd_Dl.h **** #ifdef FT_81X_ENABLE
  31:FT_Esd_Framework/FT_Esd_Dl.h **** 	ft_uint32_t PaletteSource;
  32:FT_Esd_Framework/FT_Esd_Dl.h **** #endif
  33:FT_Esd_Framework/FT_Esd_Dl.h **** 	ft_uint32_t ColorRGB;
  34:FT_Esd_Framework/FT_Esd_Dl.h **** 	ft_uint8_t ColorA;
  35:FT_Esd_Framework/FT_Esd_Dl.h **** 	ft_uint8_t Handle;         // Current handle
  36:FT_Esd_Framework/FT_Esd_Dl.h **** 	ft_uint8_t Cell;           // Current cell
  37:FT_Esd_Framework/FT_Esd_Dl.h **** 	ft_bool_t BitmapTransform; // BitmapTransform other than default is set
  38:FT_Esd_Framework/FT_Esd_Dl.h **** #ifdef FT_81X_ENABLE
  39:FT_Esd_Framework/FT_Esd_Dl.h **** 	ft_uint8_t VertexFormat;   // Current vertex format
  40:FT_Esd_Framework/FT_Esd_Dl.h **** #endif
  41:FT_Esd_Framework/FT_Esd_Dl.h **** } Ft_Esd_GpuState_T;
  42:FT_Esd_Framework/FT_Esd_Dl.h **** #endif
  43:FT_Esd_Framework/FT_Esd_Dl.h **** 
  44:FT_Esd_Framework/FT_Esd_Dl.h **** //
  45:FT_Esd_Framework/FT_Esd_Dl.h **** // Globals
  46:FT_Esd_Framework/FT_Esd_Dl.h **** //
  47:FT_Esd_Framework/FT_Esd_Dl.h **** extern Ft_Gpu_Hal_Context_t *Ft_Esd_Host;
  48:FT_Esd_Framework/FT_Esd_Dl.h **** extern ft_uint16_t Ft_Esd_FontHeight[32];
  49:FT_Esd_Framework/FT_Esd_Dl.h **** #ifdef FT_ESD_OPTIMIZE_DISPLAYLIST
  50:FT_Esd_Framework/FT_Esd_Dl.h **** extern Ft_Esd_GpuState_T Ft_Esd_GpuState[FT_ESD_STATE_STACK_SIZE];
  51:FT_Esd_Framework/FT_Esd_Dl.h **** extern ft_uint8_t Ft_Esd_GpuState_I;
  52:FT_Esd_Framework/FT_Esd_Dl.h **** extern ft_uint32_t Ft_Esd_CoFgColor;
  53:FT_Esd_Framework/FT_Esd_Dl.h **** extern ft_uint32_t Ft_Esd_CoBgColor;
  54:FT_Esd_Framework/FT_Esd_Dl.h **** #endif
  55:FT_Esd_Framework/FT_Esd_Dl.h **** 
  56:FT_Esd_Framework/FT_Esd_Dl.h **** //Get the height of builtin font
  57:FT_Esd_Framework/FT_Esd_Dl.h **** ESD_FUNCTION(Ft_Esd_GetFontHeight, Type = ft_uint16_t ,DisplayName = "Get Font Height", Category = 
  58:FT_Esd_Framework/FT_Esd_Dl.h **** ESD_PARAMETER(i, Type = int, DisplayName = "Bitmap Handle", Default = 0, Min = 0, Max = 31)
  59:FT_Esd_Framework/FT_Esd_Dl.h **** // inline static ft_uint16_t Ft_Esd_GetFontHeight(int i) { return Ft_Esd_FontHeight[i]; }
  60:FT_Esd_Framework/FT_Esd_Dl.h **** #define Ft_Esd_GetFontHeight(i) (Ft_Esd_FontHeight[i]);
  61:FT_Esd_Framework/FT_Esd_Dl.h **** 
  62:FT_Esd_Framework/FT_Esd_Dl.h **** // Reset any cached state
  63:FT_Esd_Framework/FT_Esd_Dl.h **** void Ft_Esd_ResetGpuState();
  64:FT_Esd_Framework/FT_Esd_Dl.h **** void Ft_Esd_ResetCoState();
  65:FT_Esd_Framework/FT_Esd_Dl.h **** 
  66:FT_Esd_Framework/FT_Esd_Dl.h **** ft_uint32_t Ft_Esd_BitmapHandle_GetTotalUsed();
  67:FT_Esd_Framework/FT_Esd_Dl.h **** ft_uint32_t Ft_Esd_BitmapHandle_GetTotal();
  68:FT_Esd_Framework/FT_Esd_Dl.h **** 
  69:FT_Esd_Framework/FT_Esd_Dl.h **** /// Set current tag. Must be returned to 255 after usage, to ensure next widgets don't draw with in
  70:FT_Esd_Framework/FT_Esd_Dl.h **** ESD_FUNCTION(Ft_Esd_Dl_TAG, Type = ft_void_t, Category = EveRenderFunctions, Inline)
ARM GAS  /var/folders/n8/cvzdcwlj0vl4g_wtyz1ffy300000gn/T//cc5yS6bx.s 			page 13


  71:FT_Esd_Framework/FT_Esd_Dl.h **** ESD_PARAMETER(s, Type = ft_uint8_t, DisplayName = "Tag", Default = 255, Min = 0, Max = 255)
  72:FT_Esd_Framework/FT_Esd_Dl.h **** inline static ft_void_t Ft_Esd_Dl_TAG(ft_uint8_t s)
  73:FT_Esd_Framework/FT_Esd_Dl.h **** {
  74:FT_Esd_Framework/FT_Esd_Dl.h **** 	Ft_Gpu_Hal_WrCmd32(Ft_Esd_Host, TAG(s));
  75:FT_Esd_Framework/FT_Esd_Dl.h **** }
  76:FT_Esd_Framework/FT_Esd_Dl.h **** //Specify color RGB
  77:FT_Esd_Framework/FT_Esd_Dl.h **** ESD_FUNCTION(Ft_Esd_Dl_COLOR_RGB, Type = ft_void_t, Category = EveRenderFunctions, Inline)
  78:FT_Esd_Framework/FT_Esd_Dl.h **** ESD_PARAMETER(c, Type = ft_rgb32_t, DisplayName = "Color")
  79:FT_Esd_Framework/FT_Esd_Dl.h **** inline static ft_void_t Ft_Esd_Dl_COLOR_RGB(ft_rgb32_t c)
  80:FT_Esd_Framework/FT_Esd_Dl.h **** {
  81:FT_Esd_Framework/FT_Esd_Dl.h **** #if FT_ESD_OPTIMIZE_DISPLAYLIST
  82:FT_Esd_Framework/FT_Esd_Dl.h **** 	ft_rgb32_t rgb = c & 0xFFFFFF;
  83:FT_Esd_Framework/FT_Esd_Dl.h **** 	if (rgb != FT_ESD_STATE.ColorRGB)
  84:FT_Esd_Framework/FT_Esd_Dl.h **** 	{
  85:FT_Esd_Framework/FT_Esd_Dl.h **** #endif
  86:FT_Esd_Framework/FT_Esd_Dl.h **** 		Ft_Gpu_Hal_WrCmd32(Ft_Esd_Host, (4UL << 24) | (rgb));
  87:FT_Esd_Framework/FT_Esd_Dl.h **** #if FT_ESD_OPTIMIZE_DISPLAYLIST
  88:FT_Esd_Framework/FT_Esd_Dl.h **** 		FT_ESD_STATE.ColorRGB = rgb;
  89:FT_Esd_Framework/FT_Esd_Dl.h **** 	}
  90:FT_Esd_Framework/FT_Esd_Dl.h **** #endif
  91:FT_Esd_Framework/FT_Esd_Dl.h **** }
  92:FT_Esd_Framework/FT_Esd_Dl.h **** //Specify alpha channel
  93:FT_Esd_Framework/FT_Esd_Dl.h **** ESD_FUNCTION(Ft_Esd_Dl_COLOR_A, Type = ft_void_t, Category = EveRenderFunctions, Inline)
  94:FT_Esd_Framework/FT_Esd_Dl.h **** ESD_PARAMETER(alpha, Type = ft_uint8_t, Default = 255, Min = 0, Max = 255)
  95:FT_Esd_Framework/FT_Esd_Dl.h **** inline static ft_void_t Ft_Esd_Dl_COLOR_A(ft_uint8_t alpha)
  96:FT_Esd_Framework/FT_Esd_Dl.h **** {
  97:FT_Esd_Framework/FT_Esd_Dl.h **** #if FT_ESD_OPTIMIZE_DISPLAYLIST
  98:FT_Esd_Framework/FT_Esd_Dl.h **** 	if (alpha != FT_ESD_STATE.ColorA)
 515              		.loc 2 98 0
 516 0010 3B4B     		ldr	r3, .L34
 517 0012 1A78     		ldrb	r2, [r3]	@ zero_extendqisi2
 518 0014 3B4B     		ldr	r3, .L34+4
 519 0016 03EB0213 		add	r3, r3, r2, lsl #4
 520 001a 1B7A     		ldrb	r3, [r3, #8]	@ zero_extendqisi2
 521 001c 9842     		cmp	r0, r3
 522 001e 0CD0     		beq	.L25
 523 0020 0646     		mov	r6, r0
  99:FT_Esd_Framework/FT_Esd_Dl.h **** 	{
 100:FT_Esd_Framework/FT_Esd_Dl.h **** #endif
 101:FT_Esd_Framework/FT_Esd_Dl.h **** 		Ft_Gpu_Hal_WrCmd32(Ft_Esd_Host, COLOR_A(alpha));
 524              		.loc 2 101 0
 525 0022 40F08051 		orr	r1, r0, #268435456
 526 0026 384B     		ldr	r3, .L34+8
 527 0028 1868     		ldr	r0, [r3]
 528              	.LVL44:
 529 002a FFF7FEFF 		bl	Ft_Gpu_Hal_WrCmd32
 530              	.LVL45:
 102:FT_Esd_Framework/FT_Esd_Dl.h **** #if FT_ESD_OPTIMIZE_DISPLAYLIST
 103:FT_Esd_Framework/FT_Esd_Dl.h **** 		FT_ESD_STATE.ColorA = alpha;
 531              		.loc 2 103 0
 532 002e 344B     		ldr	r3, .L34
 533 0030 1A78     		ldrb	r2, [r3]	@ zero_extendqisi2
 534 0032 344B     		ldr	r3, .L34+4
 535 0034 03EB0213 		add	r3, r3, r2, lsl #4
 536 0038 1E72     		strb	r6, [r3, #8]
 537              	.L25:
 538              	.LBE15:
ARM GAS  /var/folders/n8/cvzdcwlj0vl4g_wtyz1ffy300000gn/T//cc5yS6bx.s 			page 14


 539              	.LBE14:
  62:FT_Esd_Widgets/Ft_Esd_Gauge__Generated.c **** 	Ft_Esd_Theme * theme = context->Theme(parent);
 540              		.loc 1 62 0
 541 003a FFF7FEFF 		bl	Ft_Esd_GetHost
 542              	.LVL46:
 543 003e 0646     		mov	r6, r0
 544              	.LVL47:
  63:FT_Esd_Widgets/Ft_Esd_Gauge__Generated.c **** 	ft_rgb32_t c = Ft_Esd_Theme_GetBackColor(theme);
 545              		.loc 1 63 0
 546 0040 6368     		ldr	r3, [r4, #4]
 547 0042 2846     		mov	r0, r5
 548              	.LVL48:
 549 0044 9847     		blx	r3
 550              	.LVL49:
 551              	.LBB16:
 552              	.LBB17:
 553              		.file 3 "FT_Esd_Widgets/FT_Esd_Theme.h"
   1:FT_Esd_Widgets/FT_Esd_Theme.h **** 
   2:FT_Esd_Widgets/FT_Esd_Theme.h **** #ifndef FT_ESD_THEME_H
   3:FT_Esd_Widgets/FT_Esd_Theme.h **** #define FT_ESD_THEME_H
   4:FT_Esd_Widgets/FT_Esd_Theme.h **** #include "FT_DataTypes.h"
   5:FT_Esd_Widgets/FT_Esd_Theme.h **** #include "Ft_Esd.h"
   6:FT_Esd_Widgets/FT_Esd_Theme.h **** 
   7:FT_Esd_Widgets/FT_Esd_Theme.h **** ESD_CATEGORY(EsdTheme, DisplayName = "ESD Theme")
   8:FT_Esd_Widgets/FT_Esd_Theme.h **** ESD_CATEGORY(EsdTheme_Themes, DisplayName = "Themes", Category = EsdTheme)
   9:FT_Esd_Widgets/FT_Esd_Theme.h **** 
  10:FT_Esd_Widgets/FT_Esd_Theme.h **** typedef unsigned int ft_uint32_t;
  11:FT_Esd_Widgets/FT_Esd_Theme.h **** 
  12:FT_Esd_Widgets/FT_Esd_Theme.h **** typedef struct
  13:FT_Esd_Widgets/FT_Esd_Theme.h **** {
  14:FT_Esd_Widgets/FT_Esd_Theme.h **** 	ft_rgb32_t ClearColor;
  15:FT_Esd_Widgets/FT_Esd_Theme.h **** 	ft_rgb32_t BackColor;
  16:FT_Esd_Widgets/FT_Esd_Theme.h **** 	ft_rgb32_t TextColor;
  17:FT_Esd_Widgets/FT_Esd_Theme.h **** 	ft_rgb32_t ButtonTextColor;
  18:FT_Esd_Widgets/FT_Esd_Theme.h **** 	ft_rgb32_t DefaultColor;
  19:FT_Esd_Widgets/FT_Esd_Theme.h **** 	ft_rgb32_t PrimaryColor;
  20:FT_Esd_Widgets/FT_Esd_Theme.h **** } Ft_Esd_Theme;
  21:FT_Esd_Widgets/FT_Esd_Theme.h **** 
  22:FT_Esd_Widgets/FT_Esd_Theme.h **** ESD_TYPE(Ft_Esd_Theme *, Native = Pointer, Edit = Library)
  23:FT_Esd_Widgets/FT_Esd_Theme.h **** 
  24:FT_Esd_Widgets/FT_Esd_Theme.h **** ESD_RENDER(Ft_Esd_Theme_SetCurrent, DisplayName = "Set Current Theme", Category = EsdTheme, Include
  25:FT_Esd_Widgets/FT_Esd_Theme.h **** ESD_PARAMETER(theme, Type = Ft_Esd_Theme *)
  26:FT_Esd_Widgets/FT_Esd_Theme.h **** void Ft_Esd_Theme_SetCurrent(Ft_Esd_Theme *theme);
  27:FT_Esd_Widgets/FT_Esd_Theme.h **** 
  28:FT_Esd_Widgets/FT_Esd_Theme.h **** ESD_FUNCTION(Ft_Esd_Theme_GetCurrent, DisplayName = "Current Theme", Category = EsdTheme, Type = Ft
  29:FT_Esd_Widgets/FT_Esd_Theme.h **** Ft_Esd_Theme *Ft_Esd_Theme_GetCurrent();
  30:FT_Esd_Widgets/FT_Esd_Theme.h **** 
  31:FT_Esd_Widgets/FT_Esd_Theme.h **** ESD_FUNCTION(Ft_Esd_Theme_GetClearColor, DisplayName = "Get Clear Color", Category = EsdTheme, Type
  32:FT_Esd_Widgets/FT_Esd_Theme.h **** ESD_PARAMETER(theme, Type = Ft_Esd_Theme *, Default = Ft_Esd_Theme_GetCurrent)
  33:FT_Esd_Widgets/FT_Esd_Theme.h **** inline static ft_rgb32_t Ft_Esd_Theme_GetClearColor(Ft_Esd_Theme *theme) { if (!theme) return Ft_Es
  34:FT_Esd_Widgets/FT_Esd_Theme.h **** 
  35:FT_Esd_Widgets/FT_Esd_Theme.h **** ESD_FUNCTION(Ft_Esd_Theme_GetBackColor, DisplayName = "Get Back Color", Category = EsdTheme, Type =
  36:FT_Esd_Widgets/FT_Esd_Theme.h **** ESD_PARAMETER(theme, Type = Ft_Esd_Theme *, Default = Ft_Esd_Theme_GetCurrent)
  37:FT_Esd_Widgets/FT_Esd_Theme.h **** inline static ft_rgb32_t Ft_Esd_Theme_GetBackColor(Ft_Esd_Theme *theme) { if (!theme) return Ft_Esd
 554              		.loc 3 37 0
 555 0046 0028     		cmp	r0, #0
 556 0048 51D0     		beq	.L32
ARM GAS  /var/folders/n8/cvzdcwlj0vl4g_wtyz1ffy300000gn/T//cc5yS6bx.s 			page 15


 557 004a 4168     		ldr	r1, [r0, #4]
 558              	.LVL50:
 559              	.L27:
 560              	.LBE17:
 561              	.LBE16:
  65:FT_Esd_Widgets/Ft_Esd_Gauge__Generated.c **** 	Ft_Esd_Theme * theme_1 = context->Theme(parent);
 562              		.loc 1 65 0
 563 004c 3046     		mov	r0, r6
 564 004e FFF7FEFF 		bl	Ft_Gpu_CoCmd_BgColor
 565              	.LVL51:
  66:FT_Esd_Widgets/Ft_Esd_Gauge__Generated.c **** 	ft_rgb32_t c_1 = Ft_Esd_Theme_GetTextColor(theme_1);
 566              		.loc 1 66 0
 567 0052 6368     		ldr	r3, [r4, #4]
 568 0054 2846     		mov	r0, r5
 569 0056 9847     		blx	r3
 570              	.LVL52:
 571              	.LBB19:
 572              	.LBB20:
  38:FT_Esd_Widgets/FT_Esd_Theme.h **** 
  39:FT_Esd_Widgets/FT_Esd_Theme.h **** ESD_FUNCTION(Ft_Esd_Theme_GetTextColor, DisplayName = "Get Text Color", Category = EsdTheme, Type =
  40:FT_Esd_Widgets/FT_Esd_Theme.h **** ESD_PARAMETER(theme, Type = Ft_Esd_Theme *, Default = Ft_Esd_Theme_GetCurrent)
  41:FT_Esd_Widgets/FT_Esd_Theme.h **** inline static ft_rgb32_t Ft_Esd_Theme_GetTextColor(Ft_Esd_Theme *theme) { if (!theme) return Ft_Esd
 573              		.loc 3 41 0
 574 0058 0028     		cmp	r0, #0
 575 005a 4CD0     		beq	.L33
 576 005c 8668     		ldr	r6, [r0, #8]
 577              	.LVL53:
 578              	.L29:
 579              	.LBE20:
 580              	.LBE19:
 581              	.LBB22:
 582              	.LBB23:
  82:FT_Esd_Framework/FT_Esd_Dl.h **** 	if (rgb != FT_ESD_STATE.ColorRGB)
 583              		.loc 2 82 0
 584 005e 26F07F46 		bic	r6, r6, #-16777216
 585              	.LVL54:
  83:FT_Esd_Framework/FT_Esd_Dl.h **** 	{
 586              		.loc 2 83 0
 587 0062 274B     		ldr	r3, .L34
 588 0064 1A78     		ldrb	r2, [r3]	@ zero_extendqisi2
 589 0066 274B     		ldr	r3, .L34+4
 590 0068 03EB0213 		add	r3, r3, r2, lsl #4
 591 006c 5B68     		ldr	r3, [r3, #4]
 592 006e 9E42     		cmp	r6, r3
 593 0070 0BD0     		beq	.L30
  86:FT_Esd_Framework/FT_Esd_Dl.h **** #if FT_ESD_OPTIMIZE_DISPLAYLIST
 594              		.loc 2 86 0
 595 0072 46F08061 		orr	r1, r6, #67108864
 596 0076 244B     		ldr	r3, .L34+8
 597 0078 1868     		ldr	r0, [r3]
 598 007a FFF7FEFF 		bl	Ft_Gpu_Hal_WrCmd32
 599              	.LVL55:
  88:FT_Esd_Framework/FT_Esd_Dl.h **** 	}
 600              		.loc 2 88 0
 601 007e 204B     		ldr	r3, .L34
 602 0080 1A78     		ldrb	r2, [r3]	@ zero_extendqisi2
 603 0082 204B     		ldr	r3, .L34+4
ARM GAS  /var/folders/n8/cvzdcwlj0vl4g_wtyz1ffy300000gn/T//cc5yS6bx.s 			page 16


 604 0084 03EB0213 		add	r3, r3, r2, lsl #4
 605 0088 5E60     		str	r6, [r3, #4]
 606              	.L30:
 607              	.LVL56:
 608              	.LBE23:
 609              	.LBE22:
  69:FT_Esd_Widgets/Ft_Esd_Gauge__Generated.c **** 	ft_int16_t x = Ft_Esd_PosSizeToRadius_CenterX(&context->Ft_Esd_PosSizeToRadius);
 610              		.loc 1 69 0
 611 008a FFF7FEFF 		bl	Ft_Esd_GetHost
 612              	.LVL57:
 613 008e 0646     		mov	r6, r0
 614              	.LVL58:
  70:FT_Esd_Widgets/Ft_Esd_Gauge__Generated.c **** 	ft_int16_t y = Ft_Esd_PosSizeToRadius_CenterY(&context->Ft_Esd_PosSizeToRadius);
 615              		.loc 1 70 0
 616 0090 04F11808 		add	r8, r4, #24
 617 0094 4046     		mov	r0, r8
 618              	.LVL59:
 619 0096 FFF7FEFF 		bl	Ft_Esd_PosSizeToRadius_CenterX
 620              	.LVL60:
 621 009a 0790     		str	r0, [sp, #28]
 622              	.LVL61:
  71:FT_Esd_Widgets/Ft_Esd_Gauge__Generated.c **** 	ft_int16_t r = Ft_Esd_PosSizeToRadius_Radius(&context->Ft_Esd_PosSizeToRadius);
 623              		.loc 1 71 0
 624 009c 4046     		mov	r0, r8
 625 009e FFF7FEFF 		bl	Ft_Esd_PosSizeToRadius_CenterY
 626              	.LVL62:
 627 00a2 0746     		mov	r7, r0
 628              	.LVL63:
  72:FT_Esd_Widgets/Ft_Esd_Gauge__Generated.c **** 	ft_uint16_t options = 0;
 629              		.loc 1 72 0
 630 00a4 4046     		mov	r0, r8
 631 00a6 FFF7FEFF 		bl	Ft_Esd_PosSizeToRadius_Radius
 632              	.LVL64:
 633 00aa 8046     		mov	r8, r0
 634              	.LVL65:
  74:FT_Esd_Widgets/Ft_Esd_Gauge__Generated.c **** 	ft_uint16_t minor = context->Minor(parent);
 635              		.loc 1 74 0
 636 00ac A36B     		ldr	r3, [r4, #56]
 637 00ae 2846     		mov	r0, r5
 638 00b0 9847     		blx	r3
 639              	.LVL66:
 640 00b2 8146     		mov	r9, r0
 641              	.LVL67:
  75:FT_Esd_Widgets/Ft_Esd_Gauge__Generated.c **** 	ft_uint16_t val = context->Val(parent);
 642              		.loc 1 75 0
 643 00b4 E36B     		ldr	r3, [r4, #60]
 644 00b6 2846     		mov	r0, r5
 645 00b8 9847     		blx	r3
 646              	.LVL68:
 647 00ba 8246     		mov	r10, r0
 648              	.LVL69:
  76:FT_Esd_Widgets/Ft_Esd_Gauge__Generated.c **** 	ft_uint16_t range = context->Range(parent);
 649              		.loc 1 76 0
 650 00bc 236B     		ldr	r3, [r4, #48]
 651 00be 2846     		mov	r0, r5
 652 00c0 9847     		blx	r3
 653              	.LVL70:
ARM GAS  /var/folders/n8/cvzdcwlj0vl4g_wtyz1ffy300000gn/T//cc5yS6bx.s 			page 17


 654 00c2 8346     		mov	fp, r0
 655              	.LVL71:
  77:FT_Esd_Widgets/Ft_Esd_Gauge__Generated.c **** 	Ft_Gpu_CoCmd_Gauge(phost_1, x, y, r, options, major, minor, val, range);
 656              		.loc 1 77 0
 657 00c4 636B     		ldr	r3, [r4, #52]
 658 00c6 2846     		mov	r0, r5
 659 00c8 9847     		blx	r3
 660              	.LVL72:
  78:FT_Esd_Widgets/Ft_Esd_Gauge__Generated.c **** }
 661              		.loc 1 78 0
 662 00ca 0490     		str	r0, [sp, #16]
 663 00cc CDF80CB0 		str	fp, [sp, #12]
 664 00d0 CDF808A0 		str	r10, [sp, #8]
 665 00d4 CDF80490 		str	r9, [sp, #4]
 666 00d8 0023     		movs	r3, #0
 667 00da 0093     		str	r3, [sp]
 668 00dc 4346     		mov	r3, r8
 669 00de 3A46     		mov	r2, r7
 670 00e0 0799     		ldr	r1, [sp, #28]
 671 00e2 3046     		mov	r0, r6
 672              	.LVL73:
 673 00e4 FFF7FEFF 		bl	Ft_Gpu_CoCmd_Gauge
 674              	.LVL74:
  79:FT_Esd_Widgets/Ft_Esd_Gauge__Generated.c **** 
 675              		.loc 1 79 0
 676 00e8 09B0     		add	sp, sp, #36
 677              	.LCFI8:
 678              		.cfi_remember_state
 679              		.cfi_def_cfa_offset 36
 680              		@ sp needed
 681 00ea BDE8F08F 		pop	{r4, r5, r6, r7, r8, r9, r10, fp, pc}
 682              	.LVL75:
 683              	.L32:
 684              	.LCFI9:
 685              		.cfi_restore_state
 686              	.LBB24:
 687              	.LBB18:
  37:FT_Esd_Widgets/FT_Esd_Theme.h **** 
 688              		.loc 3 37 0
 689 00ee FFF7FEFF 		bl	Ft_Esd_Theme_GetCurrent
 690              	.LVL76:
 691 00f2 4168     		ldr	r1, [r0, #4]
 692 00f4 AAE7     		b	.L27
 693              	.LVL77:
 694              	.L33:
 695              	.LBE18:
 696              	.LBE24:
 697              	.LBB25:
 698              	.LBB21:
 699              		.loc 3 41 0
 700 00f6 FFF7FEFF 		bl	Ft_Esd_Theme_GetCurrent
 701              	.LVL78:
 702 00fa 8668     		ldr	r6, [r0, #8]
 703              	.LVL79:
 704 00fc AFE7     		b	.L29
 705              	.L35:
 706 00fe 00BF     		.align	2
ARM GAS  /var/folders/n8/cvzdcwlj0vl4g_wtyz1ffy300000gn/T//cc5yS6bx.s 			page 18


 707              	.L34:
 708 0100 00000000 		.word	Ft_Esd_GpuState_I
 709 0104 00000000 		.word	Ft_Esd_GpuState
 710 0108 00000000 		.word	Ft_Esd_Host
 711              	.LBE21:
 712              	.LBE25:
 713              		.cfi_endproc
 714              	.LFE34:
 716              		.text
 717              	.Letext0:
 718              		.file 4 "FT_Eve_Hal/FT_DataTypes.h"
 719              		.file 5 "/usr/local/Cellar/arm-none-eabi-gcc/20180627/arm-none-eabi/include/sys/lock.h"
 720              		.file 6 "/usr/local/Cellar/arm-none-eabi-gcc/20180627/arm-none-eabi/include/sys/_types.h"
 721              		.file 7 "/usr/local/Cellar/arm-none-eabi-gcc/20180627/lib/gcc/arm-none-eabi/7.3.1/include/stddef.h
 722              		.file 8 "/usr/local/Cellar/arm-none-eabi-gcc/20180627/arm-none-eabi/include/sys/unistd.h"
 723              		.file 9 "/usr/local/Cellar/arm-none-eabi-gcc/20180627/arm-none-eabi/include/sys/reent.h"
 724              		.file 10 "/usr/local/Cellar/arm-none-eabi-gcc/20180627/arm-none-eabi/include/stdlib.h"
 725              		.file 11 "FT_Eve_Hal/FT_Gpu_Hal.h"
 726              		.file 12 "FT_Esd_Framework/Ft_Esd.h"
 727              		.file 13 "FT_Esd_Widgets/Ft_Esd_DefaultTheme.h"
 728              		.file 14 "FT_Esd_Widgets/Ft_Esd_PosSizeToRadius.h"
 729              		.file 15 "FT_Esd_Widgets/Ft_Esd_Gauge.h"
 730              		.file 16 "FT_Esd_Framework/FT_Esd_CoPro_Cmds.h"
ARM GAS  /var/folders/n8/cvzdcwlj0vl4g_wtyz1ffy300000gn/T//cc5yS6bx.s 			page 19

