ARM GAS  /var/folders/n8/cvzdcwlj0vl4g_wtyz1ffy300000gn/T//ccWquu1f.s 			page 1


   1              		.cpu cortex-m7
   2              		.eabi_attribute 27, 1
   3              		.eabi_attribute 28, 1
   4              		.eabi_attribute 20, 1
   5              		.eabi_attribute 21, 1
   6              		.eabi_attribute 23, 3
   7              		.eabi_attribute 24, 1
   8              		.eabi_attribute 25, 1
   9              		.eabi_attribute 26, 1
  10              		.eabi_attribute 30, 1
  11              		.eabi_attribute 34, 1
  12              		.eabi_attribute 18, 4
  13              		.file	"Ft_Esd_RadioButton.c"
  14              		.text
  15              	.Ltext0:
  16              		.cfi_sections	.debug_frame
  17              		.section	.text.Ft_Esd_RadioButton_Check_Signal,"ax",%progbits
  18              		.align	1
  19              		.global	Ft_Esd_RadioButton_Check_Signal
  20              		.syntax unified
  21              		.thumb
  22              		.thumb_func
  23              		.fpu fpv5-sp-d16
  25              	Ft_Esd_RadioButton_Check_Signal:
  26              	.LFB9:
  27              		.file 1 "FT_Esd_Widgets/Ft_Esd_RadioButton.c"
   1:FT_Esd_Widgets/Ft_Esd_RadioButton.c **** #include "Ft_Esd.h"
   2:FT_Esd_Widgets/Ft_Esd_RadioButton.c **** #include "Ft_Esd_RadioButton.h"
   3:FT_Esd_Widgets/Ft_Esd_RadioButton.c **** 
   4:FT_Esd_Widgets/Ft_Esd_RadioButton.c **** static Ft_Esd_RadioButton *Ft_Esd_RadioButton_GlobalChecked = 0;
   5:FT_Esd_Widgets/Ft_Esd_RadioButton.c **** 
   6:FT_Esd_Widgets/Ft_Esd_RadioButton.c **** ESD_METHOD(Ft_Esd_RadioButton_Check_Signal, Context = Ft_Esd_RadioButton)
   7:FT_Esd_Widgets/Ft_Esd_RadioButton.c **** void Ft_Esd_RadioButton_Check_Signal(Ft_Esd_RadioButton *context)
   8:FT_Esd_Widgets/Ft_Esd_RadioButton.c **** {
  28              		.loc 1 8 0
  29              		.cfi_startproc
  30              		@ args = 0, pretend = 0, frame = 0
  31              		@ frame_needed = 0, uses_anonymous_args = 0
  32              	.LVL0:
  33 0000 10B5     		push	{r4, lr}
  34              	.LCFI0:
  35              		.cfi_def_cfa_offset 8
  36              		.cfi_offset 4, -8
  37              		.cfi_offset 14, -4
  38 0002 0446     		mov	r4, r0
   9:FT_Esd_Widgets/Ft_Esd_RadioButton.c **** 	Ft_Esd_RadioGroup *rg = context->RadioGroup(context->Parent);
  39              		.loc 1 9 0
  40 0004 036B     		ldr	r3, [r0, #48]
  41 0006 0068     		ldr	r0, [r0]
  42              	.LVL1:
  43 0008 9847     		blx	r3
  44              	.LVL2:
  10:FT_Esd_Widgets/Ft_Esd_RadioButton.c **** 	if (rg) rg->Checked = context;
  45              		.loc 1 10 0
  46 000a 08B1     		cbz	r0, .L2
  47              		.loc 1 10 0 is_stmt 0 discriminator 1
  48 000c 4460     		str	r4, [r0, #4]
ARM GAS  /var/folders/n8/cvzdcwlj0vl4g_wtyz1ffy300000gn/T//ccWquu1f.s 			page 2


  49              	.L1:
  11:FT_Esd_Widgets/Ft_Esd_RadioButton.c **** 	else Ft_Esd_RadioButton_GlobalChecked = context;
  12:FT_Esd_Widgets/Ft_Esd_RadioButton.c **** }
  50              		.loc 1 12 0 is_stmt 1
  51 000e 10BD     		pop	{r4, pc}
  52              	.LVL3:
  53              	.L2:
  11:FT_Esd_Widgets/Ft_Esd_RadioButton.c **** 	else Ft_Esd_RadioButton_GlobalChecked = context;
  54              		.loc 1 11 0
  55 0010 014B     		ldr	r3, .L5
  56 0012 1C60     		str	r4, [r3]
  57              		.loc 1 12 0
  58 0014 FBE7     		b	.L1
  59              	.L6:
  60 0016 00BF     		.align	2
  61              	.L5:
  62 0018 00000000 		.word	.LANCHOR0
  63              		.cfi_endproc
  64              	.LFE9:
  66              		.section	.text.Ft_Esd_RadioButton_IsChecked,"ax",%progbits
  67              		.align	1
  68              		.global	Ft_Esd_RadioButton_IsChecked
  69              		.syntax unified
  70              		.thumb
  71              		.thumb_func
  72              		.fpu fpv5-sp-d16
  74              	Ft_Esd_RadioButton_IsChecked:
  75              	.LFB10:
  13:FT_Esd_Widgets/Ft_Esd_RadioButton.c **** 
  14:FT_Esd_Widgets/Ft_Esd_RadioButton.c **** ESD_METHOD(Ft_Esd_RadioButton_IsChecked, Context = Ft_Esd_RadioButton, Type = ft_bool_t)
  15:FT_Esd_Widgets/Ft_Esd_RadioButton.c **** ft_bool_t Ft_Esd_RadioButton_IsChecked(Ft_Esd_RadioButton *context)
  16:FT_Esd_Widgets/Ft_Esd_RadioButton.c **** {
  76              		.loc 1 16 0
  77              		.cfi_startproc
  78              		@ args = 0, pretend = 0, frame = 0
  79              		@ frame_needed = 0, uses_anonymous_args = 0
  80              	.LVL4:
  81 0000 10B5     		push	{r4, lr}
  82              	.LCFI1:
  83              		.cfi_def_cfa_offset 8
  84              		.cfi_offset 4, -8
  85              		.cfi_offset 14, -4
  86 0002 0446     		mov	r4, r0
  17:FT_Esd_Widgets/Ft_Esd_RadioButton.c **** 	Ft_Esd_RadioGroup *rg = context->RadioGroup(context->Parent);
  87              		.loc 1 17 0
  88 0004 036B     		ldr	r3, [r0, #48]
  89 0006 0068     		ldr	r0, [r0]
  90              	.LVL5:
  91 0008 9847     		blx	r3
  92              	.LVL6:
  18:FT_Esd_Widgets/Ft_Esd_RadioButton.c **** 	if (rg) return rg->Checked == context;
  93              		.loc 1 18 0
  94 000a 28B1     		cbz	r0, .L8
  95              		.loc 1 18 0 is_stmt 0 discriminator 1
  96 000c 4068     		ldr	r0, [r0, #4]
  97              	.LVL7:
  98 000e A042     		cmp	r0, r4
ARM GAS  /var/folders/n8/cvzdcwlj0vl4g_wtyz1ffy300000gn/T//ccWquu1f.s 			page 3


  99 0010 14BF     		ite	ne
 100 0012 0020     		movne	r0, #0
 101 0014 0120     		moveq	r0, #1
 102              	.L9:
  19:FT_Esd_Widgets/Ft_Esd_RadioButton.c **** 	else return Ft_Esd_RadioButton_GlobalChecked == context;
  20:FT_Esd_Widgets/Ft_Esd_RadioButton.c **** }
 103              		.loc 1 20 0 is_stmt 1
 104 0016 10BD     		pop	{r4, pc}
 105              	.LVL8:
 106              	.L8:
  19:FT_Esd_Widgets/Ft_Esd_RadioButton.c **** 	else return Ft_Esd_RadioButton_GlobalChecked == context;
 107              		.loc 1 19 0
 108 0018 034B     		ldr	r3, .L11
 109 001a 1868     		ldr	r0, [r3]
 110              	.LVL9:
 111 001c A042     		cmp	r0, r4
 112 001e 14BF     		ite	ne
 113 0020 0020     		movne	r0, #0
 114 0022 0120     		moveq	r0, #1
 115 0024 F7E7     		b	.L9
 116              	.L12:
 117 0026 00BF     		.align	2
 118              	.L11:
 119 0028 00000000 		.word	.LANCHOR0
 120              		.cfi_endproc
 121              	.LFE10:
 123              		.section	.bss.Ft_Esd_RadioButton_GlobalChecked,"aw",%nobits
 124              		.align	2
 125              		.set	.LANCHOR0,. + 0
 128              	Ft_Esd_RadioButton_GlobalChecked:
 129 0000 00000000 		.space	4
 130              		.text
 131              	.Letext0:
 132              		.file 2 "FT_Eve_Hal/FT_DataTypes.h"
 133              		.file 3 "/usr/local/Cellar/arm-none-eabi-gcc/20180627/arm-none-eabi/include/sys/lock.h"
 134              		.file 4 "/usr/local/Cellar/arm-none-eabi-gcc/20180627/arm-none-eabi/include/sys/_types.h"
 135              		.file 5 "/usr/local/Cellar/arm-none-eabi-gcc/20180627/lib/gcc/arm-none-eabi/7.3.1/include/stddef.h
 136              		.file 6 "/usr/local/Cellar/arm-none-eabi-gcc/20180627/arm-none-eabi/include/sys/unistd.h"
 137              		.file 7 "/usr/local/Cellar/arm-none-eabi-gcc/20180627/arm-none-eabi/include/sys/reent.h"
 138              		.file 8 "/usr/local/Cellar/arm-none-eabi-gcc/20180627/arm-none-eabi/include/stdlib.h"
 139              		.file 9 "FT_Esd_Framework/Ft_Esd.h"
 140              		.file 10 "FT_Esd_Widgets/FT_Esd_Theme.h"
 141              		.file 11 "FT_Esd_Widgets/Ft_Esd_DefaultTheme.h"
 142              		.file 12 "FT_Esd_Widgets/Ft_Esd_Label.h"
 143              		.file 13 "FT_Esd_Widgets/Ft_Esd_RadioGroup.h"
 144              		.file 14 "FT_Esd_Framework/Ft_Esd_TouchTag.h"
 145              		.file 15 "FT_Esd_Widgets/Ft_Esd_RadioButton.h"
ARM GAS  /var/folders/n8/cvzdcwlj0vl4g_wtyz1ffy300000gn/T//ccWquu1f.s 			page 4

