ARM GAS  /var/folders/n8/cvzdcwlj0vl4g_wtyz1ffy300000gn/T//ccwR7VQC.s 			page 1


   1              		.cpu cortex-m7
   2              		.eabi_attribute 27, 1
   3              		.eabi_attribute 28, 1
   4              		.eabi_attribute 20, 1
   5              		.eabi_attribute 21, 1
   6              		.eabi_attribute 23, 3
   7              		.eabi_attribute 24, 1
   8              		.eabi_attribute 25, 1
   9              		.eabi_attribute 26, 1
  10              		.eabi_attribute 30, 1
  11              		.eabi_attribute 34, 1
  12              		.eabi_attribute 18, 4
  13              		.file	"Ft_Esd_Label__Generated.c"
  14              		.text
  15              	.Ltext0:
  16              		.cfi_sections	.debug_frame
  17              		.section	.text.Ft_Esd_Label_Font__Default,"ax",%progbits
  18              		.align	1
  19              		.global	Ft_Esd_Label_Font__Default
  20              		.syntax unified
  21              		.thumb
  22              		.thumb_func
  23              		.fpu fpv5-sp-d16
  25              	Ft_Esd_Label_Font__Default:
  26              	.LFB24:
  27              		.file 1 "FT_Esd_Widgets/Ft_Esd_Label__Generated.c"
   1:FT_Esd_Widgets/Ft_Esd_Label__Generated.c **** /*
   2:FT_Esd_Widgets/Ft_Esd_Label__Generated.c **** This file is automatically generated
   3:FT_Esd_Widgets/Ft_Esd_Label__Generated.c **** Ft_Esd_Label
   4:FT_Esd_Widgets/Ft_Esd_Label__Generated.c **** C Source
   5:FT_Esd_Widgets/Ft_Esd_Label__Generated.c **** */
   6:FT_Esd_Widgets/Ft_Esd_Label__Generated.c **** 
   7:FT_Esd_Widgets/Ft_Esd_Label__Generated.c **** #include "Ft_Esd_Label.h"
   8:FT_Esd_Widgets/Ft_Esd_Label__Generated.c **** 
   9:FT_Esd_Widgets/Ft_Esd_Label__Generated.c **** #include "FT_Esd_CoPro_Cmds.h"
  10:FT_Esd_Widgets/Ft_Esd_Label__Generated.c **** #include "FT_Esd_Dl.h"
  11:FT_Esd_Widgets/Ft_Esd_Label__Generated.c **** 
  12:FT_Esd_Widgets/Ft_Esd_Label__Generated.c **** extern void Ft_Esd_Noop(void *context);
  13:FT_Esd_Widgets/Ft_Esd_Label__Generated.c **** Ft_Esd_Theme * Ft_Esd_Label_Theme__Default(void *context) { return Ft_Esd_Theme_GetCurrent(); }
  14:FT_Esd_Widgets/Ft_Esd_Label__Generated.c **** ft_int16_t Ft_Esd_Label_Font__Default(void *context) { return 27; }
  28              		.loc 1 14 0
  29              		.cfi_startproc
  30              		@ args = 0, pretend = 0, frame = 0
  31              		@ frame_needed = 0, uses_anonymous_args = 0
  32              		@ link register save eliminated.
  33              	.LVL0:
  34              		.loc 1 14 0
  35 0000 1B20     		movs	r0, #27
  36              	.LVL1:
  37 0002 7047     		bx	lr
  38              		.cfi_endproc
  39              	.LFE24:
  41              		.section	.text.Ft_Esd_Label_Text__Default,"ax",%progbits
  42              		.align	1
  43              		.global	Ft_Esd_Label_Text__Default
  44              		.syntax unified
  45              		.thumb
ARM GAS  /var/folders/n8/cvzdcwlj0vl4g_wtyz1ffy300000gn/T//ccwR7VQC.s 			page 2


  46              		.thumb_func
  47              		.fpu fpv5-sp-d16
  49              	Ft_Esd_Label_Text__Default:
  50              	.LFB25:
  15:FT_Esd_Widgets/Ft_Esd_Label__Generated.c **** const char * Ft_Esd_Label_Text__Default(void *context) { return "Label"; }
  51              		.loc 1 15 0
  52              		.cfi_startproc
  53              		@ args = 0, pretend = 0, frame = 0
  54              		@ frame_needed = 0, uses_anonymous_args = 0
  55              		@ link register save eliminated.
  56              	.LVL2:
  57              		.loc 1 15 0
  58 0000 0048     		ldr	r0, .L3
  59              	.LVL3:
  60 0002 7047     		bx	lr
  61              	.L4:
  62              		.align	2
  63              	.L3:
  64 0004 00000000 		.word	.LC0
  65              		.cfi_endproc
  66              	.LFE25:
  68              		.section	.text.Ft_Esd_Label_X__Default,"ax",%progbits
  69              		.align	1
  70              		.global	Ft_Esd_Label_X__Default
  71              		.syntax unified
  72              		.thumb
  73              		.thumb_func
  74              		.fpu fpv5-sp-d16
  76              	Ft_Esd_Label_X__Default:
  77              	.LFB26:
  16:FT_Esd_Widgets/Ft_Esd_Label__Generated.c **** ft_int16_t Ft_Esd_Label_X__Default(void *context) { return 0; }
  78              		.loc 1 16 0
  79              		.cfi_startproc
  80              		@ args = 0, pretend = 0, frame = 0
  81              		@ frame_needed = 0, uses_anonymous_args = 0
  82              		@ link register save eliminated.
  83              	.LVL4:
  84              		.loc 1 16 0
  85 0000 0020     		movs	r0, #0
  86              	.LVL5:
  87 0002 7047     		bx	lr
  88              		.cfi_endproc
  89              	.LFE26:
  91              		.section	.text.Ft_Esd_Label_Y__Default,"ax",%progbits
  92              		.align	1
  93              		.global	Ft_Esd_Label_Y__Default
  94              		.syntax unified
  95              		.thumb
  96              		.thumb_func
  97              		.fpu fpv5-sp-d16
  99              	Ft_Esd_Label_Y__Default:
 100              	.LFB27:
  17:FT_Esd_Widgets/Ft_Esd_Label__Generated.c **** ft_int16_t Ft_Esd_Label_Y__Default(void *context) { return 0; }
 101              		.loc 1 17 0
 102              		.cfi_startproc
 103              		@ args = 0, pretend = 0, frame = 0
 104              		@ frame_needed = 0, uses_anonymous_args = 0
ARM GAS  /var/folders/n8/cvzdcwlj0vl4g_wtyz1ffy300000gn/T//ccwR7VQC.s 			page 3


 105              		@ link register save eliminated.
 106              	.LVL6:
 107              		.loc 1 17 0
 108 0000 0020     		movs	r0, #0
 109              	.LVL7:
 110 0002 7047     		bx	lr
 111              		.cfi_endproc
 112              	.LFE27:
 114              		.section	.text.Ft_Esd_Label_Width__Default,"ax",%progbits
 115              		.align	1
 116              		.global	Ft_Esd_Label_Width__Default
 117              		.syntax unified
 118              		.thumb
 119              		.thumb_func
 120              		.fpu fpv5-sp-d16
 122              	Ft_Esd_Label_Width__Default:
 123              	.LFB28:
  18:FT_Esd_Widgets/Ft_Esd_Label__Generated.c **** ft_int16_t Ft_Esd_Label_Width__Default(void *context) { return 120; }
 124              		.loc 1 18 0
 125              		.cfi_startproc
 126              		@ args = 0, pretend = 0, frame = 0
 127              		@ frame_needed = 0, uses_anonymous_args = 0
 128              		@ link register save eliminated.
 129              	.LVL8:
 130              		.loc 1 18 0
 131 0000 7820     		movs	r0, #120
 132              	.LVL9:
 133 0002 7047     		bx	lr
 134              		.cfi_endproc
 135              	.LFE28:
 137              		.section	.text.Ft_Esd_Label_Height__Default,"ax",%progbits
 138              		.align	1
 139              		.global	Ft_Esd_Label_Height__Default
 140              		.syntax unified
 141              		.thumb
 142              		.thumb_func
 143              		.fpu fpv5-sp-d16
 145              	Ft_Esd_Label_Height__Default:
 146              	.LFB29:
  19:FT_Esd_Widgets/Ft_Esd_Label__Generated.c **** ft_int16_t Ft_Esd_Label_Height__Default(void *context) { return 36; }
 147              		.loc 1 19 0
 148              		.cfi_startproc
 149              		@ args = 0, pretend = 0, frame = 0
 150              		@ frame_needed = 0, uses_anonymous_args = 0
 151              		@ link register save eliminated.
 152              	.LVL10:
 153              		.loc 1 19 0
 154 0000 2420     		movs	r0, #36
 155              	.LVL11:
 156 0002 7047     		bx	lr
 157              		.cfi_endproc
 158              	.LFE29:
 160              		.section	.text.Ft_Esd_Label_AlignX__Default,"ax",%progbits
 161              		.align	1
 162              		.global	Ft_Esd_Label_AlignX__Default
 163              		.syntax unified
 164              		.thumb
ARM GAS  /var/folders/n8/cvzdcwlj0vl4g_wtyz1ffy300000gn/T//ccwR7VQC.s 			page 4


 165              		.thumb_func
 166              		.fpu fpv5-sp-d16
 168              	Ft_Esd_Label_AlignX__Default:
 169              	.LFB30:
  20:FT_Esd_Widgets/Ft_Esd_Label__Generated.c **** ft_uint16_t Ft_Esd_Label_AlignX__Default(void *context) { return OPT_ALIGN_LEFT; }
 170              		.loc 1 20 0
 171              		.cfi_startproc
 172              		@ args = 0, pretend = 0, frame = 0
 173              		@ frame_needed = 0, uses_anonymous_args = 0
 174              		@ link register save eliminated.
 175              	.LVL12:
 176              		.loc 1 20 0
 177 0000 0020     		movs	r0, #0
 178              	.LVL13:
 179 0002 7047     		bx	lr
 180              		.cfi_endproc
 181              	.LFE30:
 183              		.section	.text.Ft_Esd_Label_AlignY__Default,"ax",%progbits
 184              		.align	1
 185              		.global	Ft_Esd_Label_AlignY__Default
 186              		.syntax unified
 187              		.thumb
 188              		.thumb_func
 189              		.fpu fpv5-sp-d16
 191              	Ft_Esd_Label_AlignY__Default:
 192              	.LFB31:
  21:FT_Esd_Widgets/Ft_Esd_Label__Generated.c **** ft_uint16_t Ft_Esd_Label_AlignY__Default(void *context) { return OPT_ALIGN_TOP; }
 193              		.loc 1 21 0
 194              		.cfi_startproc
 195              		@ args = 0, pretend = 0, frame = 0
 196              		@ frame_needed = 0, uses_anonymous_args = 0
 197              		@ link register save eliminated.
 198              	.LVL14:
 199              		.loc 1 21 0
 200 0000 0020     		movs	r0, #0
 201              	.LVL15:
 202 0002 7047     		bx	lr
 203              		.cfi_endproc
 204              	.LFE31:
 206              		.section	.text.Ft_Esd_Label_Theme__Default,"ax",%progbits
 207              		.align	1
 208              		.global	Ft_Esd_Label_Theme__Default
 209              		.syntax unified
 210              		.thumb
 211              		.thumb_func
 212              		.fpu fpv5-sp-d16
 214              	Ft_Esd_Label_Theme__Default:
 215              	.LFB23:
  13:FT_Esd_Widgets/Ft_Esd_Label__Generated.c **** ft_int16_t Ft_Esd_Label_Font__Default(void *context) { return 27; }
 216              		.loc 1 13 0
 217              		.cfi_startproc
 218              		@ args = 0, pretend = 0, frame = 0
 219              		@ frame_needed = 0, uses_anonymous_args = 0
 220              	.LVL16:
 221 0000 08B5     		push	{r3, lr}
 222              	.LCFI0:
 223              		.cfi_def_cfa_offset 8
ARM GAS  /var/folders/n8/cvzdcwlj0vl4g_wtyz1ffy300000gn/T//ccwR7VQC.s 			page 5


 224              		.cfi_offset 3, -8
 225              		.cfi_offset 14, -4
  13:FT_Esd_Widgets/Ft_Esd_Label__Generated.c **** ft_int16_t Ft_Esd_Label_Font__Default(void *context) { return 27; }
 226              		.loc 1 13 0
 227 0002 FFF7FEFF 		bl	Ft_Esd_Theme_GetCurrent
 228              	.LVL17:
 229 0006 08BD     		pop	{r3, pc}
 230              		.cfi_endproc
 231              	.LFE23:
 233              		.section	.text.Ft_Esd_Label__Initializer,"ax",%progbits
 234              		.align	1
 235              		.global	Ft_Esd_Label__Initializer
 236              		.syntax unified
 237              		.thumb
 238              		.thumb_func
 239              		.fpu fpv5-sp-d16
 241              	Ft_Esd_Label__Initializer:
 242              	.LFB32:
  22:FT_Esd_Widgets/Ft_Esd_Label__Generated.c **** 
  23:FT_Esd_Widgets/Ft_Esd_Label__Generated.c **** Ft_Esd_Theme * Ft_Esd_Theme_GetCurrent();
  24:FT_Esd_Widgets/Ft_Esd_Label__Generated.c **** Ft_Gpu_Hal_Context_t * Ft_Esd_GetHost();
  25:FT_Esd_Widgets/Ft_Esd_Label__Generated.c **** 
  26:FT_Esd_Widgets/Ft_Esd_Label__Generated.c **** 
  27:FT_Esd_Widgets/Ft_Esd_Label__Generated.c **** void Ft_Esd_Label__Initializer(Ft_Esd_Label *context)
  28:FT_Esd_Widgets/Ft_Esd_Label__Generated.c **** {
 243              		.loc 1 28 0
 244              		.cfi_startproc
 245              		@ args = 0, pretend = 0, frame = 0
 246              		@ frame_needed = 0, uses_anonymous_args = 0
 247              		@ link register save eliminated.
 248              	.LVL18:
  29:FT_Esd_Widgets/Ft_Esd_Label__Generated.c **** 	context->Parent = 0;
 249              		.loc 1 29 0
 250 0000 0023     		movs	r3, #0
 251 0002 0360     		str	r3, [r0]
  30:FT_Esd_Widgets/Ft_Esd_Label__Generated.c **** 	context->Theme = Ft_Esd_Label_Theme__Default;
 252              		.loc 1 30 0
 253 0004 094B     		ldr	r3, .L14
 254 0006 4360     		str	r3, [r0, #4]
  31:FT_Esd_Widgets/Ft_Esd_Label__Generated.c **** 	context->Font = Ft_Esd_Label_Font__Default;
 255              		.loc 1 31 0
 256 0008 094B     		ldr	r3, .L14+4
 257 000a 8360     		str	r3, [r0, #8]
  32:FT_Esd_Widgets/Ft_Esd_Label__Generated.c **** 	context->Text = Ft_Esd_Label_Text__Default;
 258              		.loc 1 32 0
 259 000c 094B     		ldr	r3, .L14+8
 260 000e C360     		str	r3, [r0, #12]
  33:FT_Esd_Widgets/Ft_Esd_Label__Generated.c **** 	context->X = Ft_Esd_Label_X__Default;
 261              		.loc 1 33 0
 262 0010 094B     		ldr	r3, .L14+12
 263 0012 0361     		str	r3, [r0, #16]
  34:FT_Esd_Widgets/Ft_Esd_Label__Generated.c **** 	context->Y = Ft_Esd_Label_Y__Default;
 264              		.loc 1 34 0
 265 0014 094B     		ldr	r3, .L14+16
 266 0016 4361     		str	r3, [r0, #20]
  35:FT_Esd_Widgets/Ft_Esd_Label__Generated.c **** 	context->Width = Ft_Esd_Label_Width__Default;
 267              		.loc 1 35 0
ARM GAS  /var/folders/n8/cvzdcwlj0vl4g_wtyz1ffy300000gn/T//ccwR7VQC.s 			page 6


 268 0018 094B     		ldr	r3, .L14+20
 269 001a 8361     		str	r3, [r0, #24]
  36:FT_Esd_Widgets/Ft_Esd_Label__Generated.c **** 	context->Height = Ft_Esd_Label_Height__Default;
 270              		.loc 1 36 0
 271 001c 094B     		ldr	r3, .L14+24
 272 001e C361     		str	r3, [r0, #28]
  37:FT_Esd_Widgets/Ft_Esd_Label__Generated.c **** 	context->AlignX = Ft_Esd_Label_AlignX__Default;
 273              		.loc 1 37 0
 274 0020 094B     		ldr	r3, .L14+28
 275 0022 0362     		str	r3, [r0, #32]
  38:FT_Esd_Widgets/Ft_Esd_Label__Generated.c **** 	context->AlignY = Ft_Esd_Label_AlignY__Default;
 276              		.loc 1 38 0
 277 0024 094B     		ldr	r3, .L14+32
 278 0026 4362     		str	r3, [r0, #36]
  39:FT_Esd_Widgets/Ft_Esd_Label__Generated.c **** }
 279              		.loc 1 39 0
 280 0028 7047     		bx	lr
 281              	.L15:
 282 002a 00BF     		.align	2
 283              	.L14:
 284 002c 00000000 		.word	Ft_Esd_Label_Theme__Default
 285 0030 00000000 		.word	Ft_Esd_Label_Font__Default
 286 0034 00000000 		.word	Ft_Esd_Label_Text__Default
 287 0038 00000000 		.word	Ft_Esd_Label_X__Default
 288 003c 00000000 		.word	Ft_Esd_Label_Y__Default
 289 0040 00000000 		.word	Ft_Esd_Label_Width__Default
 290 0044 00000000 		.word	Ft_Esd_Label_Height__Default
 291 0048 00000000 		.word	Ft_Esd_Label_AlignX__Default
 292 004c 00000000 		.word	Ft_Esd_Label_AlignY__Default
 293              		.cfi_endproc
 294              	.LFE32:
 296              		.section	.text.Ft_Esd_Label_Render,"ax",%progbits
 297              		.align	1
 298              		.global	Ft_Esd_Label_Render
 299              		.syntax unified
 300              		.thumb
 301              		.thumb_func
 302              		.fpu fpv5-sp-d16
 304              	Ft_Esd_Label_Render:
 305              	.LFB33:
  40:FT_Esd_Widgets/Ft_Esd_Label__Generated.c **** 
  41:FT_Esd_Widgets/Ft_Esd_Label__Generated.c **** ft_void_t Ft_Gpu_CoCmd_Text(Ft_Gpu_Hal_Context_t *, ft_int16_t, ft_int16_t, ft_int16_t, ft_uint16_t
  42:FT_Esd_Widgets/Ft_Esd_Label__Generated.c **** 
  43:FT_Esd_Widgets/Ft_Esd_Label__Generated.c **** void Ft_Esd_Label_Render(Ft_Esd_Label *context)
  44:FT_Esd_Widgets/Ft_Esd_Label__Generated.c **** {
 306              		.loc 1 44 0
 307              		.cfi_startproc
 308              		@ args = 0, pretend = 0, frame = 0
 309              		@ frame_needed = 0, uses_anonymous_args = 0
 310              	.LVL19:
 311 0000 2DE9F047 		push	{r4, r5, r6, r7, r8, r9, r10, lr}
 312              	.LCFI1:
 313              		.cfi_def_cfa_offset 32
 314              		.cfi_offset 4, -32
 315              		.cfi_offset 5, -28
 316              		.cfi_offset 6, -24
 317              		.cfi_offset 7, -20
ARM GAS  /var/folders/n8/cvzdcwlj0vl4g_wtyz1ffy300000gn/T//ccwR7VQC.s 			page 7


 318              		.cfi_offset 8, -16
 319              		.cfi_offset 9, -12
 320              		.cfi_offset 10, -8
 321              		.cfi_offset 14, -4
 322 0004 82B0     		sub	sp, sp, #8
 323              	.LCFI2:
 324              		.cfi_def_cfa_offset 40
 325 0006 0446     		mov	r4, r0
  45:FT_Esd_Widgets/Ft_Esd_Label__Generated.c **** 	void *parent = context->Parent;
 326              		.loc 1 45 0
 327 0008 0568     		ldr	r5, [r0]
 328              	.LVL20:
 329              	.LBB24:
 330              	.LBB25:
 331              		.file 2 "FT_Esd_Framework/FT_Esd_Dl.h"
   1:FT_Esd_Framework/FT_Esd_Dl.h **** 
   2:FT_Esd_Framework/FT_Esd_Dl.h **** #ifndef FT_ESD_DL_H
   3:FT_Esd_Framework/FT_Esd_Dl.h **** #define FT_ESD_DL_H
   4:FT_Esd_Framework/FT_Esd_Dl.h **** 
   5:FT_Esd_Framework/FT_Esd_Dl.h **** #include "FT_DataTypes.h"
   6:FT_Esd_Framework/FT_Esd_Dl.h **** #include "FT_Platform.h"
   7:FT_Esd_Framework/FT_Esd_Dl.h **** #include "Ft_Esd.h"
   8:FT_Esd_Framework/FT_Esd_Dl.h **** #include "FT_Gpu.h"
   9:FT_Esd_Framework/FT_Esd_Dl.h **** #include "Ft_Esd_BitmapInfo.h"
  10:FT_Esd_Framework/FT_Esd_Dl.h **** 
  11:FT_Esd_Framework/FT_Esd_Dl.h **** ESD_CATEGORY(EsdUtilities, DisplayName = "ESD Utilities")
  12:FT_Esd_Framework/FT_Esd_Dl.h **** ESD_CATEGORY(EveRenderFunctions, DisplayName = "EVE Render Functions")
  13:FT_Esd_Framework/FT_Esd_Dl.h **** 
  14:FT_Esd_Framework/FT_Esd_Dl.h **** ESD_TYPE(Ft_Gpu_Hal_Context_t *, Native = Pointer, Edit = Library)
  15:FT_Esd_Framework/FT_Esd_Dl.h **** 
  16:FT_Esd_Framework/FT_Esd_Dl.h **** // Keep cache of displaylist values that don't often change but are generally set by every widget t
  17:FT_Esd_Framework/FT_Esd_Dl.h **** #define FT_ESD_OPTIMIZE_DISPLAYLIST 1
  18:FT_Esd_Framework/FT_Esd_Dl.h **** #define FT_ESD_STATE_STACK_SIZE 5
  19:FT_Esd_Framework/FT_Esd_Dl.h **** 
  20:FT_Esd_Framework/FT_Esd_Dl.h **** #define FT_ESD_BITMAPHANDLE_INVALID 255
  21:FT_Esd_Framework/FT_Esd_Dl.h **** 
  22:FT_Esd_Framework/FT_Esd_Dl.h **** //
  23:FT_Esd_Framework/FT_Esd_Dl.h **** // Structs
  24:FT_Esd_Framework/FT_Esd_Dl.h **** //
  25:FT_Esd_Framework/FT_Esd_Dl.h **** #ifdef FT_ESD_OPTIMIZE_DISPLAYLIST
  26:FT_Esd_Framework/FT_Esd_Dl.h **** #define FT_ESD_STATE Ft_Esd_GpuState[Ft_Esd_GpuState_I]
  27:FT_Esd_Framework/FT_Esd_Dl.h **** typedef struct
  28:FT_Esd_Framework/FT_Esd_Dl.h **** {
  29:FT_Esd_Framework/FT_Esd_Dl.h **** 	// Keep to a minimum
  30:FT_Esd_Framework/FT_Esd_Dl.h **** #ifdef FT_81X_ENABLE
  31:FT_Esd_Framework/FT_Esd_Dl.h **** 	ft_uint32_t PaletteSource;
  32:FT_Esd_Framework/FT_Esd_Dl.h **** #endif
  33:FT_Esd_Framework/FT_Esd_Dl.h **** 	ft_uint32_t ColorRGB;
  34:FT_Esd_Framework/FT_Esd_Dl.h **** 	ft_uint8_t ColorA;
  35:FT_Esd_Framework/FT_Esd_Dl.h **** 	ft_uint8_t Handle;         // Current handle
  36:FT_Esd_Framework/FT_Esd_Dl.h **** 	ft_uint8_t Cell;           // Current cell
  37:FT_Esd_Framework/FT_Esd_Dl.h **** 	ft_bool_t BitmapTransform; // BitmapTransform other than default is set
  38:FT_Esd_Framework/FT_Esd_Dl.h **** #ifdef FT_81X_ENABLE
  39:FT_Esd_Framework/FT_Esd_Dl.h **** 	ft_uint8_t VertexFormat;   // Current vertex format
  40:FT_Esd_Framework/FT_Esd_Dl.h **** #endif
  41:FT_Esd_Framework/FT_Esd_Dl.h **** } Ft_Esd_GpuState_T;
  42:FT_Esd_Framework/FT_Esd_Dl.h **** #endif
ARM GAS  /var/folders/n8/cvzdcwlj0vl4g_wtyz1ffy300000gn/T//ccwR7VQC.s 			page 8


  43:FT_Esd_Framework/FT_Esd_Dl.h **** 
  44:FT_Esd_Framework/FT_Esd_Dl.h **** //
  45:FT_Esd_Framework/FT_Esd_Dl.h **** // Globals
  46:FT_Esd_Framework/FT_Esd_Dl.h **** //
  47:FT_Esd_Framework/FT_Esd_Dl.h **** extern Ft_Gpu_Hal_Context_t *Ft_Esd_Host;
  48:FT_Esd_Framework/FT_Esd_Dl.h **** extern ft_uint16_t Ft_Esd_FontHeight[32];
  49:FT_Esd_Framework/FT_Esd_Dl.h **** #ifdef FT_ESD_OPTIMIZE_DISPLAYLIST
  50:FT_Esd_Framework/FT_Esd_Dl.h **** extern Ft_Esd_GpuState_T Ft_Esd_GpuState[FT_ESD_STATE_STACK_SIZE];
  51:FT_Esd_Framework/FT_Esd_Dl.h **** extern ft_uint8_t Ft_Esd_GpuState_I;
  52:FT_Esd_Framework/FT_Esd_Dl.h **** extern ft_uint32_t Ft_Esd_CoFgColor;
  53:FT_Esd_Framework/FT_Esd_Dl.h **** extern ft_uint32_t Ft_Esd_CoBgColor;
  54:FT_Esd_Framework/FT_Esd_Dl.h **** #endif
  55:FT_Esd_Framework/FT_Esd_Dl.h **** 
  56:FT_Esd_Framework/FT_Esd_Dl.h **** //Get the height of builtin font
  57:FT_Esd_Framework/FT_Esd_Dl.h **** ESD_FUNCTION(Ft_Esd_GetFontHeight, Type = ft_uint16_t ,DisplayName = "Get Font Height", Category = 
  58:FT_Esd_Framework/FT_Esd_Dl.h **** ESD_PARAMETER(i, Type = int, DisplayName = "Bitmap Handle", Default = 0, Min = 0, Max = 31)
  59:FT_Esd_Framework/FT_Esd_Dl.h **** // inline static ft_uint16_t Ft_Esd_GetFontHeight(int i) { return Ft_Esd_FontHeight[i]; }
  60:FT_Esd_Framework/FT_Esd_Dl.h **** #define Ft_Esd_GetFontHeight(i) (Ft_Esd_FontHeight[i]);
  61:FT_Esd_Framework/FT_Esd_Dl.h **** 
  62:FT_Esd_Framework/FT_Esd_Dl.h **** // Reset any cached state
  63:FT_Esd_Framework/FT_Esd_Dl.h **** void Ft_Esd_ResetGpuState();
  64:FT_Esd_Framework/FT_Esd_Dl.h **** void Ft_Esd_ResetCoState();
  65:FT_Esd_Framework/FT_Esd_Dl.h **** 
  66:FT_Esd_Framework/FT_Esd_Dl.h **** ft_uint32_t Ft_Esd_BitmapHandle_GetTotalUsed();
  67:FT_Esd_Framework/FT_Esd_Dl.h **** ft_uint32_t Ft_Esd_BitmapHandle_GetTotal();
  68:FT_Esd_Framework/FT_Esd_Dl.h **** 
  69:FT_Esd_Framework/FT_Esd_Dl.h **** /// Set current tag. Must be returned to 255 after usage, to ensure next widgets don't draw with in
  70:FT_Esd_Framework/FT_Esd_Dl.h **** ESD_FUNCTION(Ft_Esd_Dl_TAG, Type = ft_void_t, Category = EveRenderFunctions, Inline)
  71:FT_Esd_Framework/FT_Esd_Dl.h **** ESD_PARAMETER(s, Type = ft_uint8_t, DisplayName = "Tag", Default = 255, Min = 0, Max = 255)
  72:FT_Esd_Framework/FT_Esd_Dl.h **** inline static ft_void_t Ft_Esd_Dl_TAG(ft_uint8_t s)
  73:FT_Esd_Framework/FT_Esd_Dl.h **** {
  74:FT_Esd_Framework/FT_Esd_Dl.h **** 	Ft_Gpu_Hal_WrCmd32(Ft_Esd_Host, TAG(s));
  75:FT_Esd_Framework/FT_Esd_Dl.h **** }
  76:FT_Esd_Framework/FT_Esd_Dl.h **** //Specify color RGB
  77:FT_Esd_Framework/FT_Esd_Dl.h **** ESD_FUNCTION(Ft_Esd_Dl_COLOR_RGB, Type = ft_void_t, Category = EveRenderFunctions, Inline)
  78:FT_Esd_Framework/FT_Esd_Dl.h **** ESD_PARAMETER(c, Type = ft_rgb32_t, DisplayName = "Color")
  79:FT_Esd_Framework/FT_Esd_Dl.h **** inline static ft_void_t Ft_Esd_Dl_COLOR_RGB(ft_rgb32_t c)
  80:FT_Esd_Framework/FT_Esd_Dl.h **** {
  81:FT_Esd_Framework/FT_Esd_Dl.h **** #if FT_ESD_OPTIMIZE_DISPLAYLIST
  82:FT_Esd_Framework/FT_Esd_Dl.h **** 	ft_rgb32_t rgb = c & 0xFFFFFF;
  83:FT_Esd_Framework/FT_Esd_Dl.h **** 	if (rgb != FT_ESD_STATE.ColorRGB)
  84:FT_Esd_Framework/FT_Esd_Dl.h **** 	{
  85:FT_Esd_Framework/FT_Esd_Dl.h **** #endif
  86:FT_Esd_Framework/FT_Esd_Dl.h **** 		Ft_Gpu_Hal_WrCmd32(Ft_Esd_Host, (4UL << 24) | (rgb));
  87:FT_Esd_Framework/FT_Esd_Dl.h **** #if FT_ESD_OPTIMIZE_DISPLAYLIST
  88:FT_Esd_Framework/FT_Esd_Dl.h **** 		FT_ESD_STATE.ColorRGB = rgb;
  89:FT_Esd_Framework/FT_Esd_Dl.h **** 	}
  90:FT_Esd_Framework/FT_Esd_Dl.h **** #endif
  91:FT_Esd_Framework/FT_Esd_Dl.h **** }
  92:FT_Esd_Framework/FT_Esd_Dl.h **** //Specify alpha channel
  93:FT_Esd_Framework/FT_Esd_Dl.h **** ESD_FUNCTION(Ft_Esd_Dl_COLOR_A, Type = ft_void_t, Category = EveRenderFunctions, Inline)
  94:FT_Esd_Framework/FT_Esd_Dl.h **** ESD_PARAMETER(alpha, Type = ft_uint8_t, Default = 255, Min = 0, Max = 255)
  95:FT_Esd_Framework/FT_Esd_Dl.h **** inline static ft_void_t Ft_Esd_Dl_COLOR_A(ft_uint8_t alpha)
  96:FT_Esd_Framework/FT_Esd_Dl.h **** {
  97:FT_Esd_Framework/FT_Esd_Dl.h **** #if FT_ESD_OPTIMIZE_DISPLAYLIST
  98:FT_Esd_Framework/FT_Esd_Dl.h **** 	if (alpha != FT_ESD_STATE.ColorA)
 332              		.loc 2 98 0
ARM GAS  /var/folders/n8/cvzdcwlj0vl4g_wtyz1ffy300000gn/T//ccwR7VQC.s 			page 9


 333 000a 5B4B     		ldr	r3, .L41
 334 000c 1A78     		ldrb	r2, [r3]	@ zero_extendqisi2
 335 000e 5B4B     		ldr	r3, .L41+4
 336 0010 03EB0213 		add	r3, r3, r2, lsl #4
 337 0014 1B7A     		ldrb	r3, [r3, #8]	@ zero_extendqisi2
 338 0016 FF2B     		cmp	r3, #255
 339 0018 0BD0     		beq	.L17
  99:FT_Esd_Framework/FT_Esd_Dl.h **** 	{
 100:FT_Esd_Framework/FT_Esd_Dl.h **** #endif
 101:FT_Esd_Framework/FT_Esd_Dl.h **** 		Ft_Gpu_Hal_WrCmd32(Ft_Esd_Host, COLOR_A(alpha));
 340              		.loc 2 101 0
 341 001a 5949     		ldr	r1, .L41+8
 342 001c 594B     		ldr	r3, .L41+12
 343 001e 1868     		ldr	r0, [r3]
 344              	.LVL21:
 345 0020 FFF7FEFF 		bl	Ft_Gpu_Hal_WrCmd32
 346              	.LVL22:
 102:FT_Esd_Framework/FT_Esd_Dl.h **** #if FT_ESD_OPTIMIZE_DISPLAYLIST
 103:FT_Esd_Framework/FT_Esd_Dl.h **** 		FT_ESD_STATE.ColorA = alpha;
 347              		.loc 2 103 0
 348 0024 544B     		ldr	r3, .L41
 349 0026 1A78     		ldrb	r2, [r3]	@ zero_extendqisi2
 350 0028 544B     		ldr	r3, .L41+4
 351 002a 03EB0213 		add	r3, r3, r2, lsl #4
 352 002e FF22     		movs	r2, #255
 353 0030 1A72     		strb	r2, [r3, #8]
 354              	.L17:
 355              	.LVL23:
 356              	.LBE25:
 357              	.LBE24:
  46:FT_Esd_Widgets/Ft_Esd_Label__Generated.c **** 	ft_uint8_t alpha = 255;
  47:FT_Esd_Widgets/Ft_Esd_Label__Generated.c **** 	Ft_Esd_Dl_COLOR_A(alpha);
  48:FT_Esd_Widgets/Ft_Esd_Label__Generated.c **** 	Ft_Esd_Theme * theme = context->Theme(parent);
 358              		.loc 1 48 0
 359 0032 6368     		ldr	r3, [r4, #4]
 360 0034 2846     		mov	r0, r5
 361 0036 9847     		blx	r3
 362              	.LVL24:
 363              	.LBB26:
 364              	.LBB27:
 365              		.file 3 "FT_Esd_Widgets/FT_Esd_Theme.h"
   1:FT_Esd_Widgets/FT_Esd_Theme.h **** 
   2:FT_Esd_Widgets/FT_Esd_Theme.h **** #ifndef FT_ESD_THEME_H
   3:FT_Esd_Widgets/FT_Esd_Theme.h **** #define FT_ESD_THEME_H
   4:FT_Esd_Widgets/FT_Esd_Theme.h **** #include "FT_DataTypes.h"
   5:FT_Esd_Widgets/FT_Esd_Theme.h **** #include "Ft_Esd.h"
   6:FT_Esd_Widgets/FT_Esd_Theme.h **** 
   7:FT_Esd_Widgets/FT_Esd_Theme.h **** ESD_CATEGORY(EsdTheme, DisplayName = "ESD Theme")
   8:FT_Esd_Widgets/FT_Esd_Theme.h **** ESD_CATEGORY(EsdTheme_Themes, DisplayName = "Themes", Category = EsdTheme)
   9:FT_Esd_Widgets/FT_Esd_Theme.h **** 
  10:FT_Esd_Widgets/FT_Esd_Theme.h **** typedef unsigned int ft_uint32_t;
  11:FT_Esd_Widgets/FT_Esd_Theme.h **** 
  12:FT_Esd_Widgets/FT_Esd_Theme.h **** typedef struct
  13:FT_Esd_Widgets/FT_Esd_Theme.h **** {
  14:FT_Esd_Widgets/FT_Esd_Theme.h **** 	ft_rgb32_t ClearColor;
  15:FT_Esd_Widgets/FT_Esd_Theme.h **** 	ft_rgb32_t BackColor;
  16:FT_Esd_Widgets/FT_Esd_Theme.h **** 	ft_rgb32_t TextColor;
ARM GAS  /var/folders/n8/cvzdcwlj0vl4g_wtyz1ffy300000gn/T//ccwR7VQC.s 			page 10


  17:FT_Esd_Widgets/FT_Esd_Theme.h **** 	ft_rgb32_t ButtonTextColor;
  18:FT_Esd_Widgets/FT_Esd_Theme.h **** 	ft_rgb32_t DefaultColor;
  19:FT_Esd_Widgets/FT_Esd_Theme.h **** 	ft_rgb32_t PrimaryColor;
  20:FT_Esd_Widgets/FT_Esd_Theme.h **** } Ft_Esd_Theme;
  21:FT_Esd_Widgets/FT_Esd_Theme.h **** 
  22:FT_Esd_Widgets/FT_Esd_Theme.h **** ESD_TYPE(Ft_Esd_Theme *, Native = Pointer, Edit = Library)
  23:FT_Esd_Widgets/FT_Esd_Theme.h **** 
  24:FT_Esd_Widgets/FT_Esd_Theme.h **** ESD_RENDER(Ft_Esd_Theme_SetCurrent, DisplayName = "Set Current Theme", Category = EsdTheme, Include
  25:FT_Esd_Widgets/FT_Esd_Theme.h **** ESD_PARAMETER(theme, Type = Ft_Esd_Theme *)
  26:FT_Esd_Widgets/FT_Esd_Theme.h **** void Ft_Esd_Theme_SetCurrent(Ft_Esd_Theme *theme);
  27:FT_Esd_Widgets/FT_Esd_Theme.h **** 
  28:FT_Esd_Widgets/FT_Esd_Theme.h **** ESD_FUNCTION(Ft_Esd_Theme_GetCurrent, DisplayName = "Current Theme", Category = EsdTheme, Type = Ft
  29:FT_Esd_Widgets/FT_Esd_Theme.h **** Ft_Esd_Theme *Ft_Esd_Theme_GetCurrent();
  30:FT_Esd_Widgets/FT_Esd_Theme.h **** 
  31:FT_Esd_Widgets/FT_Esd_Theme.h **** ESD_FUNCTION(Ft_Esd_Theme_GetClearColor, DisplayName = "Get Clear Color", Category = EsdTheme, Type
  32:FT_Esd_Widgets/FT_Esd_Theme.h **** ESD_PARAMETER(theme, Type = Ft_Esd_Theme *, Default = Ft_Esd_Theme_GetCurrent)
  33:FT_Esd_Widgets/FT_Esd_Theme.h **** inline static ft_rgb32_t Ft_Esd_Theme_GetClearColor(Ft_Esd_Theme *theme) { if (!theme) return Ft_Es
  34:FT_Esd_Widgets/FT_Esd_Theme.h **** 
  35:FT_Esd_Widgets/FT_Esd_Theme.h **** ESD_FUNCTION(Ft_Esd_Theme_GetBackColor, DisplayName = "Get Back Color", Category = EsdTheme, Type =
  36:FT_Esd_Widgets/FT_Esd_Theme.h **** ESD_PARAMETER(theme, Type = Ft_Esd_Theme *, Default = Ft_Esd_Theme_GetCurrent)
  37:FT_Esd_Widgets/FT_Esd_Theme.h **** inline static ft_rgb32_t Ft_Esd_Theme_GetBackColor(Ft_Esd_Theme *theme) { if (!theme) return Ft_Esd
  38:FT_Esd_Widgets/FT_Esd_Theme.h **** 
  39:FT_Esd_Widgets/FT_Esd_Theme.h **** ESD_FUNCTION(Ft_Esd_Theme_GetTextColor, DisplayName = "Get Text Color", Category = EsdTheme, Type =
  40:FT_Esd_Widgets/FT_Esd_Theme.h **** ESD_PARAMETER(theme, Type = Ft_Esd_Theme *, Default = Ft_Esd_Theme_GetCurrent)
  41:FT_Esd_Widgets/FT_Esd_Theme.h **** inline static ft_rgb32_t Ft_Esd_Theme_GetTextColor(Ft_Esd_Theme *theme) { if (!theme) return Ft_Esd
 366              		.loc 3 41 0
 367 0038 0028     		cmp	r0, #0
 368 003a 30D0     		beq	.L34
 369 003c 8668     		ldr	r6, [r0, #8]
 370              	.LVL25:
 371              	.L19:
 372              	.LBE27:
 373              	.LBE26:
 374              	.LBB29:
 375              	.LBB30:
  82:FT_Esd_Framework/FT_Esd_Dl.h **** 	if (rgb != FT_ESD_STATE.ColorRGB)
 376              		.loc 2 82 0
 377 003e 26F07F46 		bic	r6, r6, #-16777216
 378              	.LVL26:
  83:FT_Esd_Framework/FT_Esd_Dl.h **** 	{
 379              		.loc 2 83 0
 380 0042 4D4B     		ldr	r3, .L41
 381 0044 1A78     		ldrb	r2, [r3]	@ zero_extendqisi2
 382 0046 4D4B     		ldr	r3, .L41+4
 383 0048 03EB0213 		add	r3, r3, r2, lsl #4
 384 004c 5B68     		ldr	r3, [r3, #4]
 385 004e 9E42     		cmp	r6, r3
 386 0050 0BD0     		beq	.L20
  86:FT_Esd_Framework/FT_Esd_Dl.h **** #if FT_ESD_OPTIMIZE_DISPLAYLIST
 387              		.loc 2 86 0
 388 0052 46F08061 		orr	r1, r6, #67108864
 389 0056 4B4B     		ldr	r3, .L41+12
 390 0058 1868     		ldr	r0, [r3]
 391 005a FFF7FEFF 		bl	Ft_Gpu_Hal_WrCmd32
 392              	.LVL27:
  88:FT_Esd_Framework/FT_Esd_Dl.h **** 	}
 393              		.loc 2 88 0
ARM GAS  /var/folders/n8/cvzdcwlj0vl4g_wtyz1ffy300000gn/T//ccwR7VQC.s 			page 11


 394 005e 464B     		ldr	r3, .L41
 395 0060 1A78     		ldrb	r2, [r3]	@ zero_extendqisi2
 396 0062 464B     		ldr	r3, .L41+4
 397 0064 03EB0213 		add	r3, r3, r2, lsl #4
 398 0068 5E60     		str	r6, [r3, #4]
 399              	.L20:
 400              	.LVL28:
 401              	.LBE30:
 402              	.LBE29:
  49:FT_Esd_Widgets/Ft_Esd_Label__Generated.c **** 	ft_rgb32_t c = Ft_Esd_Theme_GetTextColor(theme);
  50:FT_Esd_Widgets/Ft_Esd_Label__Generated.c **** 	Ft_Esd_Dl_COLOR_RGB(c);
  51:FT_Esd_Widgets/Ft_Esd_Label__Generated.c **** 	Ft_Gpu_Hal_Context_t * phost = Ft_Esd_GetHost();
 403              		.loc 1 51 0
 404 006a FFF7FEFF 		bl	Ft_Esd_GetHost
 405              	.LVL29:
 406 006e 8146     		mov	r9, r0
 407              	.LVL30:
  52:FT_Esd_Widgets/Ft_Esd_Label__Generated.c **** 	ft_uint16_t left = context->AlignX(parent);
 408              		.loc 1 52 0
 409 0070 236A     		ldr	r3, [r4, #32]
 410 0072 2846     		mov	r0, r5
 411              	.LVL31:
 412 0074 9847     		blx	r3
 413              	.LVL32:
  53:FT_Esd_Widgets/Ft_Esd_Label__Generated.c **** 	int right = 0L;
  54:FT_Esd_Widgets/Ft_Esd_Label__Generated.c **** 	int if_1 = left == right;
  55:FT_Esd_Widgets/Ft_Esd_Label__Generated.c **** 	int x;
  56:FT_Esd_Widgets/Ft_Esd_Label__Generated.c **** 	if (if_1)
 414              		.loc 1 56 0
 415 0076 B0B9     		cbnz	r0, .L21
  57:FT_Esd_Widgets/Ft_Esd_Label__Generated.c **** 	{
  58:FT_Esd_Widgets/Ft_Esd_Label__Generated.c **** 		x = context->X(parent);
 416              		.loc 1 58 0
 417 0078 2369     		ldr	r3, [r4, #16]
 418 007a 2846     		mov	r0, r5
 419              	.LVL33:
 420 007c 9847     		blx	r3
 421              	.LVL34:
 422 007e 8046     		mov	r8, r0
 423              	.LVL35:
 424              	.L22:
  59:FT_Esd_Widgets/Ft_Esd_Label__Generated.c **** 	}
  60:FT_Esd_Widgets/Ft_Esd_Label__Generated.c **** 	else
  61:FT_Esd_Widgets/Ft_Esd_Label__Generated.c **** 	{
  62:FT_Esd_Widgets/Ft_Esd_Label__Generated.c **** 		ft_uint16_t left_1 = context->AlignX(parent);
  63:FT_Esd_Widgets/Ft_Esd_Label__Generated.c **** 		int right_1 = 2L;
  64:FT_Esd_Widgets/Ft_Esd_Label__Generated.c **** 		int if_2 = left_1 == right_1;
  65:FT_Esd_Widgets/Ft_Esd_Label__Generated.c **** 		if (if_2)
  66:FT_Esd_Widgets/Ft_Esd_Label__Generated.c **** 		{
  67:FT_Esd_Widgets/Ft_Esd_Label__Generated.c **** 			ft_int16_t left_2 = context->X(parent);
  68:FT_Esd_Widgets/Ft_Esd_Label__Generated.c **** 			ft_int16_t right_2 = context->Width(parent);
  69:FT_Esd_Widgets/Ft_Esd_Label__Generated.c **** 			x = left_2 + right_2;
  70:FT_Esd_Widgets/Ft_Esd_Label__Generated.c **** 		}
  71:FT_Esd_Widgets/Ft_Esd_Label__Generated.c **** 		else
  72:FT_Esd_Widgets/Ft_Esd_Label__Generated.c **** 		{
  73:FT_Esd_Widgets/Ft_Esd_Label__Generated.c **** 			ft_int16_t left_3 = context->X(parent);
  74:FT_Esd_Widgets/Ft_Esd_Label__Generated.c **** 			ft_int16_t left_4 = context->Width(parent);
ARM GAS  /var/folders/n8/cvzdcwlj0vl4g_wtyz1ffy300000gn/T//ccwR7VQC.s 			page 12


  75:FT_Esd_Widgets/Ft_Esd_Label__Generated.c **** 			int right_4 = 2L;
  76:FT_Esd_Widgets/Ft_Esd_Label__Generated.c **** 			int right_3 = left_4 / right_4;
  77:FT_Esd_Widgets/Ft_Esd_Label__Generated.c **** 			x = left_3 + right_3;
  78:FT_Esd_Widgets/Ft_Esd_Label__Generated.c **** 		}
  79:FT_Esd_Widgets/Ft_Esd_Label__Generated.c **** 	}
  80:FT_Esd_Widgets/Ft_Esd_Label__Generated.c **** 	ft_uint16_t left_5 = context->AlignY(parent);
 425              		.loc 1 80 0
 426 0080 636A     		ldr	r3, [r4, #36]
 427 0082 2846     		mov	r0, r5
 428 0084 9847     		blx	r3
 429              	.LVL36:
  81:FT_Esd_Widgets/Ft_Esd_Label__Generated.c **** 	int right_5 = 1L;
  82:FT_Esd_Widgets/Ft_Esd_Label__Generated.c **** 	int if_3 = left_5 == right_5;
  83:FT_Esd_Widgets/Ft_Esd_Label__Generated.c **** 	int y;
  84:FT_Esd_Widgets/Ft_Esd_Label__Generated.c **** 	if (if_3)
 430              		.loc 1 84 0
 431 0086 0128     		cmp	r0, #1
 432 0088 2AD0     		beq	.L35
 433              	.LBB31:
  85:FT_Esd_Widgets/Ft_Esd_Label__Generated.c **** 	{
  86:FT_Esd_Widgets/Ft_Esd_Label__Generated.c **** 		ft_int16_t left_6 = context->Y(parent);
  87:FT_Esd_Widgets/Ft_Esd_Label__Generated.c **** 		ft_int16_t left_7 = context->Height(parent);
  88:FT_Esd_Widgets/Ft_Esd_Label__Generated.c **** 		int right_7 = 2L;
  89:FT_Esd_Widgets/Ft_Esd_Label__Generated.c **** 		int right_6 = left_7 / right_7;
  90:FT_Esd_Widgets/Ft_Esd_Label__Generated.c **** 		y = left_6 + right_6;
  91:FT_Esd_Widgets/Ft_Esd_Label__Generated.c **** 	}
  92:FT_Esd_Widgets/Ft_Esd_Label__Generated.c **** 	else
  93:FT_Esd_Widgets/Ft_Esd_Label__Generated.c **** 	{
  94:FT_Esd_Widgets/Ft_Esd_Label__Generated.c **** 		ft_uint16_t left_8 = context->AlignY(parent);
 434              		.loc 1 94 0
 435 008a 636A     		ldr	r3, [r4, #36]
 436 008c 2846     		mov	r0, r5
 437              	.LVL37:
 438 008e 9847     		blx	r3
 439              	.LVL38:
  95:FT_Esd_Widgets/Ft_Esd_Label__Generated.c **** 		int right_8 = 0L;
  96:FT_Esd_Widgets/Ft_Esd_Label__Generated.c **** 		int if_4 = left_8 == right_8;
  97:FT_Esd_Widgets/Ft_Esd_Label__Generated.c **** 		if (if_4)
 440              		.loc 1 97 0
 441 0090 0028     		cmp	r0, #0
 442 0092 5AD1     		bne	.L28
  98:FT_Esd_Widgets/Ft_Esd_Label__Generated.c **** 		{
  99:FT_Esd_Widgets/Ft_Esd_Label__Generated.c **** 			y = context->Y(parent);
 443              		.loc 1 99 0
 444 0094 6369     		ldr	r3, [r4, #20]
 445 0096 2846     		mov	r0, r5
 446              	.LVL39:
 447 0098 9847     		blx	r3
 448              	.LVL40:
 449 009a 0746     		mov	r7, r0
 450              	.LVL41:
 451 009c 2CE0     		b	.L27
 452              	.LVL42:
 453              	.L34:
 454              	.LBE31:
 455              	.LBB33:
 456              	.LBB28:
ARM GAS  /var/folders/n8/cvzdcwlj0vl4g_wtyz1ffy300000gn/T//ccwR7VQC.s 			page 13


 457              		.loc 3 41 0
 458 009e FFF7FEFF 		bl	Ft_Esd_Theme_GetCurrent
 459              	.LVL43:
 460 00a2 8668     		ldr	r6, [r0, #8]
 461 00a4 CBE7     		b	.L19
 462              	.LVL44:
 463              	.L21:
 464              	.LBE28:
 465              	.LBE33:
 466              	.LBB34:
  62:FT_Esd_Widgets/Ft_Esd_Label__Generated.c **** 		int right_1 = 2L;
 467              		.loc 1 62 0
 468 00a6 236A     		ldr	r3, [r4, #32]
 469 00a8 2846     		mov	r0, r5
 470              	.LVL45:
 471 00aa 9847     		blx	r3
 472              	.LVL46:
  65:FT_Esd_Widgets/Ft_Esd_Label__Generated.c **** 		{
 473              		.loc 1 65 0
 474 00ac 0228     		cmp	r0, #2
 475 00ae 0CD0     		beq	.L36
 476              	.LBB35:
  73:FT_Esd_Widgets/Ft_Esd_Label__Generated.c **** 			ft_int16_t left_4 = context->Width(parent);
 477              		.loc 1 73 0
 478 00b0 2369     		ldr	r3, [r4, #16]
 479 00b2 2846     		mov	r0, r5
 480              	.LVL47:
 481 00b4 9847     		blx	r3
 482              	.LVL48:
 483 00b6 8046     		mov	r8, r0
 484              	.LVL49:
  74:FT_Esd_Widgets/Ft_Esd_Label__Generated.c **** 			int right_4 = 2L;
 485              		.loc 1 74 0
 486 00b8 A369     		ldr	r3, [r4, #24]
 487 00ba 2846     		mov	r0, r5
 488 00bc 9847     		blx	r3
 489              	.LVL50:
  76:FT_Esd_Widgets/Ft_Esd_Label__Generated.c **** 			x = left_3 + right_3;
 490              		.loc 1 76 0
 491 00be 0346     		mov	r3, r0
 492 00c0 0028     		cmp	r0, #0
 493 00c2 0BDB     		blt	.L37
 494              	.L24:
 495              	.LVL51:
  77:FT_Esd_Widgets/Ft_Esd_Label__Generated.c **** 		}
 496              		.loc 1 77 0
 497 00c4 08EB6308 		add	r8, r8, r3, asr #1
 498              	.LVL52:
 499 00c8 DAE7     		b	.L22
 500              	.LVL53:
 501              	.L36:
 502              	.LBE35:
 503              	.LBB36:
  67:FT_Esd_Widgets/Ft_Esd_Label__Generated.c **** 			ft_int16_t right_2 = context->Width(parent);
 504              		.loc 1 67 0
 505 00ca 2369     		ldr	r3, [r4, #16]
 506 00cc 2846     		mov	r0, r5
ARM GAS  /var/folders/n8/cvzdcwlj0vl4g_wtyz1ffy300000gn/T//ccwR7VQC.s 			page 14


 507              	.LVL54:
 508 00ce 9847     		blx	r3
 509              	.LVL55:
 510 00d0 8046     		mov	r8, r0
 511              	.LVL56:
  68:FT_Esd_Widgets/Ft_Esd_Label__Generated.c **** 			x = left_2 + right_2;
 512              		.loc 1 68 0
 513 00d2 A369     		ldr	r3, [r4, #24]
 514 00d4 2846     		mov	r0, r5
 515 00d6 9847     		blx	r3
 516              	.LVL57:
  69:FT_Esd_Widgets/Ft_Esd_Label__Generated.c **** 		}
 517              		.loc 1 69 0
 518 00d8 8044     		add	r8, r8, r0
 519              	.LVL58:
 520              	.LBE36:
 521 00da D1E7     		b	.L22
 522              	.LVL59:
 523              	.L37:
 524              	.LBB37:
  76:FT_Esd_Widgets/Ft_Esd_Label__Generated.c **** 			x = left_3 + right_3;
 525              		.loc 1 76 0
 526 00dc 431C     		adds	r3, r0, #1
 527 00de F1E7     		b	.L24
 528              	.LVL60:
 529              	.L35:
 530              	.LBE37:
 531              	.LBE34:
 532              	.LBB38:
  86:FT_Esd_Widgets/Ft_Esd_Label__Generated.c **** 		ft_int16_t left_7 = context->Height(parent);
 533              		.loc 1 86 0
 534 00e0 6369     		ldr	r3, [r4, #20]
 535 00e2 2846     		mov	r0, r5
 536              	.LVL61:
 537 00e4 9847     		blx	r3
 538              	.LVL62:
 539 00e6 0746     		mov	r7, r0
 540              	.LVL63:
  87:FT_Esd_Widgets/Ft_Esd_Label__Generated.c **** 		int right_7 = 2L;
 541              		.loc 1 87 0
 542 00e8 E369     		ldr	r3, [r4, #28]
 543 00ea 2846     		mov	r0, r5
 544 00ec 9847     		blx	r3
 545              	.LVL64:
  89:FT_Esd_Widgets/Ft_Esd_Label__Generated.c **** 		y = left_6 + right_6;
 546              		.loc 1 89 0
 547 00ee 0346     		mov	r3, r0
 548 00f0 0028     		cmp	r0, #0
 549 00f2 28DB     		blt	.L38
 550              	.L26:
 551              	.LVL65:
  90:FT_Esd_Widgets/Ft_Esd_Label__Generated.c **** 	}
 552              		.loc 1 90 0
 553 00f4 07EB6307 		add	r7, r7, r3, asr #1
 554              	.LVL66:
 555              	.L27:
 556              	.LBE38:
ARM GAS  /var/folders/n8/cvzdcwlj0vl4g_wtyz1ffy300000gn/T//ccwR7VQC.s 			page 15


 100:FT_Esd_Widgets/Ft_Esd_Label__Generated.c **** 		}
 101:FT_Esd_Widgets/Ft_Esd_Label__Generated.c **** 		else
 102:FT_Esd_Widgets/Ft_Esd_Label__Generated.c **** 		{
 103:FT_Esd_Widgets/Ft_Esd_Label__Generated.c **** 			ft_int16_t left_10 = context->Y(parent);
 104:FT_Esd_Widgets/Ft_Esd_Label__Generated.c **** 			ft_int16_t right_9 = context->Height(parent);
 105:FT_Esd_Widgets/Ft_Esd_Label__Generated.c **** 			int left_9 = left_10 + right_9;
 106:FT_Esd_Widgets/Ft_Esd_Label__Generated.c **** 			ft_int16_t i = context->Font(parent);
 107:FT_Esd_Widgets/Ft_Esd_Label__Generated.c **** 			ft_uint16_t right_10 = Ft_Esd_GetFontHeight(i);
 108:FT_Esd_Widgets/Ft_Esd_Label__Generated.c **** 			y = left_9 - right_10;
 109:FT_Esd_Widgets/Ft_Esd_Label__Generated.c **** 		}
 110:FT_Esd_Widgets/Ft_Esd_Label__Generated.c **** 	}
 111:FT_Esd_Widgets/Ft_Esd_Label__Generated.c **** 	ft_int16_t font = context->Font(parent);
 557              		.loc 1 111 0
 558 00f8 A368     		ldr	r3, [r4, #8]
 559 00fa 2846     		mov	r0, r5
 560 00fc 9847     		blx	r3
 561              	.LVL67:
 562 00fe 8246     		mov	r10, r0
 563              	.LVL68:
 112:FT_Esd_Widgets/Ft_Esd_Label__Generated.c **** 	ft_uint16_t left_12 = context->AlignX(parent);
 564              		.loc 1 112 0
 565 0100 236A     		ldr	r3, [r4, #32]
 566 0102 2846     		mov	r0, r5
 567 0104 9847     		blx	r3
 568              	.LVL69:
 113:FT_Esd_Widgets/Ft_Esd_Label__Generated.c **** 	int right_11 = 0L;
 114:FT_Esd_Widgets/Ft_Esd_Label__Generated.c **** 	int if_5 = left_12 == right_11;
 115:FT_Esd_Widgets/Ft_Esd_Label__Generated.c **** 	ft_uint16_t left_11;
 116:FT_Esd_Widgets/Ft_Esd_Label__Generated.c **** 	if (if_5)
 569              		.loc 1 116 0
 570 0106 0646     		mov	r6, r0
 571 0108 30B1     		cbz	r0, .L29
 572              	.LBB39:
 117:FT_Esd_Widgets/Ft_Esd_Label__Generated.c **** 	{
 118:FT_Esd_Widgets/Ft_Esd_Label__Generated.c **** 		left_11 = 0;
 119:FT_Esd_Widgets/Ft_Esd_Label__Generated.c **** 	}
 120:FT_Esd_Widgets/Ft_Esd_Label__Generated.c **** 	else
 121:FT_Esd_Widgets/Ft_Esd_Label__Generated.c **** 	{
 122:FT_Esd_Widgets/Ft_Esd_Label__Generated.c **** 		ft_uint16_t left_13 = context->AlignX(parent);
 573              		.loc 1 122 0
 574 010a 236A     		ldr	r3, [r4, #32]
 575 010c 2846     		mov	r0, r5
 576              	.LVL70:
 577 010e 9847     		blx	r3
 578              	.LVL71:
 123:FT_Esd_Widgets/Ft_Esd_Label__Generated.c **** 		int right_12 = 2L;
 124:FT_Esd_Widgets/Ft_Esd_Label__Generated.c **** 		int if_6 = left_13 == right_12;
 125:FT_Esd_Widgets/Ft_Esd_Label__Generated.c **** 		if (if_6)
 579              		.loc 1 125 0
 580 0110 0228     		cmp	r0, #2
 581 0112 2AD0     		beq	.L39
 126:FT_Esd_Widgets/Ft_Esd_Label__Generated.c **** 		{
 127:FT_Esd_Widgets/Ft_Esd_Label__Generated.c **** 			left_11 = OPT_RIGHTX;
 128:FT_Esd_Widgets/Ft_Esd_Label__Generated.c **** 		}
 129:FT_Esd_Widgets/Ft_Esd_Label__Generated.c **** 		else
 130:FT_Esd_Widgets/Ft_Esd_Label__Generated.c **** 		{
 131:FT_Esd_Widgets/Ft_Esd_Label__Generated.c **** 			left_11 = OPT_CENTERX;
ARM GAS  /var/folders/n8/cvzdcwlj0vl4g_wtyz1ffy300000gn/T//ccwR7VQC.s 			page 16


 582              		.loc 1 131 0
 583 0114 4FF40076 		mov	r6, #512
 584              	.LVL72:
 585              	.L29:
 586              	.LBE39:
 132:FT_Esd_Widgets/Ft_Esd_Label__Generated.c **** 		}
 133:FT_Esd_Widgets/Ft_Esd_Label__Generated.c **** 	}
 134:FT_Esd_Widgets/Ft_Esd_Label__Generated.c **** 	ft_uint16_t left_14 = context->AlignY(parent);
 587              		.loc 1 134 0
 588 0118 636A     		ldr	r3, [r4, #36]
 589 011a 2846     		mov	r0, r5
 590 011c 9847     		blx	r3
 591              	.LVL73:
 135:FT_Esd_Widgets/Ft_Esd_Label__Generated.c **** 	int right_14 = 1L;
 136:FT_Esd_Widgets/Ft_Esd_Label__Generated.c **** 	int if_7 = left_14 == right_14;
 137:FT_Esd_Widgets/Ft_Esd_Label__Generated.c **** 	ft_uint16_t right_13;
 138:FT_Esd_Widgets/Ft_Esd_Label__Generated.c **** 	if (if_7)
 592              		.loc 1 138 0
 593 011e 0128     		cmp	r0, #1
 594 0120 26D0     		beq	.L40
 139:FT_Esd_Widgets/Ft_Esd_Label__Generated.c **** 	{
 140:FT_Esd_Widgets/Ft_Esd_Label__Generated.c **** 		right_13 = OPT_CENTERY;
 141:FT_Esd_Widgets/Ft_Esd_Label__Generated.c **** 	}
 142:FT_Esd_Widgets/Ft_Esd_Label__Generated.c **** 	else
 143:FT_Esd_Widgets/Ft_Esd_Label__Generated.c **** 	{
 144:FT_Esd_Widgets/Ft_Esd_Label__Generated.c **** 		right_13 = 0;
 595              		.loc 1 144 0
 596 0122 0023     		movs	r3, #0
 597              	.L30:
 598              	.LVL74:
 145:FT_Esd_Widgets/Ft_Esd_Label__Generated.c **** 	}
 146:FT_Esd_Widgets/Ft_Esd_Label__Generated.c **** 	ft_uint16_t options = left_11 | right_13;
 599              		.loc 1 146 0
 600 0124 1E43     		orrs	r6, r6, r3
 601              	.LVL75:
 602 0126 B6B2     		uxth	r6, r6
 603              	.LVL76:
 147:FT_Esd_Widgets/Ft_Esd_Label__Generated.c **** 	const char * s = context->Text(parent);
 604              		.loc 1 147 0
 605 0128 E368     		ldr	r3, [r4, #12]
 606              	.LVL77:
 607 012a 2846     		mov	r0, r5
 608              	.LVL78:
 609 012c 9847     		blx	r3
 610              	.LVL79:
 148:FT_Esd_Widgets/Ft_Esd_Label__Generated.c **** 	Ft_Gpu_CoCmd_Text(phost, x, y, font, options, s);
 611              		.loc 1 148 0
 612 012e 0190     		str	r0, [sp, #4]
 613 0130 0096     		str	r6, [sp]
 614 0132 5346     		mov	r3, r10
 615 0134 3AB2     		sxth	r2, r7
 616 0136 0FFA88F1 		sxth	r1, r8
 617 013a 4846     		mov	r0, r9
 618              	.LVL80:
 619 013c FFF7FEFF 		bl	Ft_Gpu_CoCmd_Text
 620              	.LVL81:
 149:FT_Esd_Widgets/Ft_Esd_Label__Generated.c **** }
ARM GAS  /var/folders/n8/cvzdcwlj0vl4g_wtyz1ffy300000gn/T//ccwR7VQC.s 			page 17


 621              		.loc 1 149 0
 622 0140 02B0     		add	sp, sp, #8
 623              	.LCFI3:
 624              		.cfi_remember_state
 625              		.cfi_def_cfa_offset 32
 626              		@ sp needed
 627 0142 BDE8F087 		pop	{r4, r5, r6, r7, r8, r9, r10, pc}
 628              	.LVL82:
 629              	.L38:
 630              	.LCFI4:
 631              		.cfi_restore_state
 632              	.LBB40:
  89:FT_Esd_Widgets/Ft_Esd_Label__Generated.c **** 		y = left_6 + right_6;
 633              		.loc 1 89 0
 634 0146 431C     		adds	r3, r0, #1
 635 0148 D4E7     		b	.L26
 636              	.LVL83:
 637              	.L28:
 638              	.LBE40:
 639              	.LBB41:
 640              	.LBB32:
 103:FT_Esd_Widgets/Ft_Esd_Label__Generated.c **** 			ft_int16_t right_9 = context->Height(parent);
 641              		.loc 1 103 0
 642 014a 6369     		ldr	r3, [r4, #20]
 643 014c 2846     		mov	r0, r5
 644              	.LVL84:
 645 014e 9847     		blx	r3
 646              	.LVL85:
 647 0150 0746     		mov	r7, r0
 648              	.LVL86:
 104:FT_Esd_Widgets/Ft_Esd_Label__Generated.c **** 			int left_9 = left_10 + right_9;
 649              		.loc 1 104 0
 650 0152 E369     		ldr	r3, [r4, #28]
 651 0154 2846     		mov	r0, r5
 652 0156 9847     		blx	r3
 653              	.LVL87:
 105:FT_Esd_Widgets/Ft_Esd_Label__Generated.c **** 			ft_int16_t i = context->Font(parent);
 654              		.loc 1 105 0
 655 0158 0744     		add	r7, r7, r0
 656              	.LVL88:
 106:FT_Esd_Widgets/Ft_Esd_Label__Generated.c **** 			ft_uint16_t right_10 = Ft_Esd_GetFontHeight(i);
 657              		.loc 1 106 0
 658 015a A368     		ldr	r3, [r4, #8]
 659 015c 2846     		mov	r0, r5
 660              	.LVL89:
 661 015e 9847     		blx	r3
 662              	.LVL90:
 107:FT_Esd_Widgets/Ft_Esd_Label__Generated.c **** 			y = left_9 - right_10;
 663              		.loc 1 107 0
 664 0160 094B     		ldr	r3, .L41+16
 665 0162 33F81030 		ldrh	r3, [r3, r0, lsl #1]
 666              	.LVL91:
 108:FT_Esd_Widgets/Ft_Esd_Label__Generated.c **** 		}
 667              		.loc 1 108 0
 668 0166 FF1A     		subs	r7, r7, r3
 669              	.LVL92:
 670 0168 C6E7     		b	.L27
ARM GAS  /var/folders/n8/cvzdcwlj0vl4g_wtyz1ffy300000gn/T//ccwR7VQC.s 			page 18


 671              	.LVL93:
 672              	.L39:
 673              	.LBE32:
 674              	.LBE41:
 675              	.LBB42:
 127:FT_Esd_Widgets/Ft_Esd_Label__Generated.c **** 		}
 676              		.loc 1 127 0
 677 016a 4FF40066 		mov	r6, #2048
 678 016e D3E7     		b	.L29
 679              	.LVL94:
 680              	.L40:
 681              	.LBE42:
 140:FT_Esd_Widgets/Ft_Esd_Label__Generated.c **** 	}
 682              		.loc 1 140 0
 683 0170 4FF48063 		mov	r3, #1024
 684 0174 D6E7     		b	.L30
 685              	.L42:
 686 0176 00BF     		.align	2
 687              	.L41:
 688 0178 00000000 		.word	Ft_Esd_GpuState_I
 689 017c 00000000 		.word	Ft_Esd_GpuState
 690 0180 FF000010 		.word	268435711
 691 0184 00000000 		.word	Ft_Esd_Host
 692 0188 00000000 		.word	Ft_Esd_FontHeight
 693              		.cfi_endproc
 694              	.LFE33:
 696              		.section	.rodata.Ft_Esd_Label_Text__Default.str1.4,"aMS",%progbits,1
 697              		.align	2
 698              	.LC0:
 699 0000 4C616265 		.ascii	"Label\000"
 699      6C00
 700              		.text
 701              	.Letext0:
 702              		.file 4 "FT_Eve_Hal/FT_DataTypes.h"
 703              		.file 5 "/usr/local/Cellar/arm-none-eabi-gcc/20180627/arm-none-eabi/include/sys/lock.h"
 704              		.file 6 "/usr/local/Cellar/arm-none-eabi-gcc/20180627/arm-none-eabi/include/sys/_types.h"
 705              		.file 7 "/usr/local/Cellar/arm-none-eabi-gcc/20180627/lib/gcc/arm-none-eabi/7.3.1/include/stddef.h
 706              		.file 8 "/usr/local/Cellar/arm-none-eabi-gcc/20180627/arm-none-eabi/include/sys/unistd.h"
 707              		.file 9 "/usr/local/Cellar/arm-none-eabi-gcc/20180627/arm-none-eabi/include/sys/reent.h"
 708              		.file 10 "/usr/local/Cellar/arm-none-eabi-gcc/20180627/arm-none-eabi/include/stdlib.h"
 709              		.file 11 "FT_Eve_Hal/FT_Gpu_Hal.h"
 710              		.file 12 "FT_Esd_Framework/Ft_Esd.h"
 711              		.file 13 "FT_Esd_Widgets/Ft_Esd_DefaultTheme.h"
 712              		.file 14 "FT_Esd_Widgets/Ft_Esd_Label.h"
 713              		.file 15 "FT_Esd_Framework/FT_Esd_CoPro_Cmds.h"
ARM GAS  /var/folders/n8/cvzdcwlj0vl4g_wtyz1ffy300000gn/T//ccwR7VQC.s 			page 19

