ARM GAS  /var/folders/n8/cvzdcwlj0vl4g_wtyz1ffy300000gn/T//ccfFCWei.s 			page 1


   1              		.cpu cortex-m7
   2              		.eabi_attribute 27, 1
   3              		.eabi_attribute 28, 1
   4              		.eabi_attribute 20, 1
   5              		.eabi_attribute 21, 1
   6              		.eabi_attribute 23, 3
   7              		.eabi_attribute 24, 1
   8              		.eabi_attribute 25, 1
   9              		.eabi_attribute 26, 1
  10              		.eabi_attribute 30, 1
  11              		.eabi_attribute 34, 1
  12              		.eabi_attribute 18, 4
  13              		.file	"Ft_Esd_Elements.c"
  14              		.text
  15              	.Ltext0:
  16              		.cfi_sections	.debug_frame
  17              		.section	.text.Ft_Esd_Elements_PanelSunken,"ax",%progbits
  18              		.align	1
  19              		.global	Ft_Esd_Elements_PanelSunken
  20              		.syntax unified
  21              		.thumb
  22              		.thumb_func
  23              		.fpu fpv5-sp-d16
  25              	Ft_Esd_Elements_PanelSunken:
  26              	.LFB27:
  27              		.file 1 "FT_Esd_Widgets/Ft_Esd_Elements.c"
   1:FT_Esd_Widgets/Ft_Esd_Elements.c **** /*
   2:FT_Esd_Widgets/Ft_Esd_Elements.c **** 
   3:FT_Esd_Widgets/Ft_Esd_Elements.c **** Copyright (C) 2016  BridgeTek Pte Ltd
   4:FT_Esd_Widgets/Ft_Esd_Elements.c **** 
   5:FT_Esd_Widgets/Ft_Esd_Elements.c **** THIS SOFTWARE IS PROVIDED BY BridgeTek Pte Ltd "AS IS"
   6:FT_Esd_Widgets/Ft_Esd_Elements.c **** AND ANY EXPRESS OR IMPLIED WARRANTIES, INCLUDING, BUT NOT LIMITED TO, THE IMPLIED WARRANTIES
   7:FT_Esd_Widgets/Ft_Esd_Elements.c **** OF MERCHANTABILITY AND FITNESS FOR A PARTICULAR PURPOSE ARE DISCLAIMED. IN NO EVENT SHALL
   8:FT_Esd_Widgets/Ft_Esd_Elements.c **** BridgeTek Pte Ltd BE LIABLE FOR ANY DIRECT, INDIRECT, INCIDENTAL,
   9:FT_Esd_Widgets/Ft_Esd_Elements.c **** SPECIAL, EXEMPLARY, OR CONSEQUENTIAL DAMAGES (INCLUDING, BUT NOT LIMITED TO, PROCUREMENT
  10:FT_Esd_Widgets/Ft_Esd_Elements.c **** OF SUBSTITUTE GOODS OR SERVICES LOSS OF USE, DATA, OR PROFITS OR BUSINESS INTERRUPTION)
  11:FT_Esd_Widgets/Ft_Esd_Elements.c **** HOWEVER CAUSED AND ON ANY THEORY OF LIABILITY, WHETHER IN CONTRACT, STRICT LIABILITY, OR
  12:FT_Esd_Widgets/Ft_Esd_Elements.c **** TORT (INCLUDING NEGLIGENCE OR OTHERWISE) ARISING IN ANY WAY OUT OF THE USE OF THIS SOFTWARE,
  13:FT_Esd_Widgets/Ft_Esd_Elements.c **** EVEN IF ADVISED OF THE POSSIBILITY OF SUCH DAMAGE.
  14:FT_Esd_Widgets/Ft_Esd_Elements.c **** 
  15:FT_Esd_Widgets/Ft_Esd_Elements.c **** Author: Jan Boon <jan.boon@kaetemi.be>
  16:FT_Esd_Widgets/Ft_Esd_Elements.c **** 
  17:FT_Esd_Widgets/Ft_Esd_Elements.c **** */
  18:FT_Esd_Widgets/Ft_Esd_Elements.c **** 
  19:FT_Esd_Widgets/Ft_Esd_Elements.c **** #include "Ft_Esd_Elements.h"
  20:FT_Esd_Widgets/Ft_Esd_Elements.c **** #include "Ft_Esd_Dl.h"
  21:FT_Esd_Widgets/Ft_Esd_Elements.c **** 
  22:FT_Esd_Widgets/Ft_Esd_Elements.c **** #define FT_ESD_DL_END 0
  23:FT_Esd_Widgets/Ft_Esd_Elements.c **** 
  24:FT_Esd_Widgets/Ft_Esd_Elements.c **** #ifdef FT_81X_ENABLE
  25:FT_Esd_Widgets/Ft_Esd_Elements.c **** #	define VERTEX2F2(x, y) VERTEX2F((x), (y))
  26:FT_Esd_Widgets/Ft_Esd_Elements.c **** #else
  27:FT_Esd_Widgets/Ft_Esd_Elements.c **** #	define VERTEX2F2(x, y) VERTEX2F((x) << 2, (y) << 2)
  28:FT_Esd_Widgets/Ft_Esd_Elements.c **** #endif
  29:FT_Esd_Widgets/Ft_Esd_Elements.c **** 
  30:FT_Esd_Widgets/Ft_Esd_Elements.c **** extern Ft_Gpu_Hal_Context_t *Ft_Esd_Host;
  31:FT_Esd_Widgets/Ft_Esd_Elements.c **** 
ARM GAS  /var/folders/n8/cvzdcwlj0vl4g_wtyz1ffy300000gn/T//ccfFCWei.s 			page 2


  32:FT_Esd_Widgets/Ft_Esd_Elements.c **** void Ft_Esd_Elements_PanelSunken(ft_rgb32_t color, ft_int16_t x, ft_int16_t y, ft_int16_t width, ft
  33:FT_Esd_Widgets/Ft_Esd_Elements.c **** {
  28              		.loc 1 33 0
  29              		.cfi_startproc
  30              		@ args = 8, pretend = 0, frame = 0
  31              		@ frame_needed = 0, uses_anonymous_args = 0
  32              	.LVL0:
  33 0000 2DE9F047 		push	{r4, r5, r6, r7, r8, r9, r10, lr}
  34              	.LCFI0:
  35              		.cfi_def_cfa_offset 32
  36              		.cfi_offset 4, -32
  37              		.cfi_offset 5, -28
  38              		.cfi_offset 6, -24
  39              		.cfi_offset 7, -20
  40              		.cfi_offset 8, -16
  41              		.cfi_offset 9, -12
  42              		.cfi_offset 10, -8
  43              		.cfi_offset 14, -4
  44 0004 8246     		mov	r10, r0
  45 0006 BDF92440 		ldrsh	r4, [sp, #36]
  34:FT_Esd_Widgets/Ft_Esd_Elements.c **** 	Ft_Gpu_Hal_Context_t *phost = Ft_Esd_Host;
  46              		.loc 1 34 0
  47 000a 6648     		ldr	r0, .L7
  48              	.LVL1:
  49 000c 0668     		ldr	r6, [r0]
  50              	.LVL2:
  35:FT_Esd_Widgets/Ft_Esd_Elements.c **** 	ft_int32_t lw = ((ft_int32_t)radius << 4) + 8;
  51              		.loc 1 35 0
  52 000e 4FEA0419 		lsl	r9, r4, #4
  53 0012 09F10809 		add	r9, r9, #8
  54              	.LVL3:
  36:FT_Esd_Widgets/Ft_Esd_Elements.c **** 	ft_int32_t x0 = ((ft_int32_t)x << 2) + ((ft_int32_t)radius << 2) + 4;
  55              		.loc 1 36 0
  56 0016 8900     		lsls	r1, r1, #2
  57              	.LVL4:
  58 0018 A000     		lsls	r0, r4, #2
  59 001a 0D18     		adds	r5, r1, r0
  60              	.LVL5:
  37:FT_Esd_Widgets/Ft_Esd_Elements.c **** 	ft_int32_t y0 = ((ft_int32_t)y << 2) + ((ft_int32_t)radius << 2) + 4;
  61              		.loc 1 37 0
  62 001c 9200     		lsls	r2, r2, #2
  63              	.LVL6:
  64 001e 00EB0208 		add	r8, r0, r2
  65              	.LVL7:
  38:FT_Esd_Widgets/Ft_Esd_Elements.c **** 	ft_int32_t x1 = ((ft_int32_t)x << 2) + ((ft_int32_t)width << 2) - 4 - ((ft_int32_t)radius << 2);
  66              		.loc 1 38 0
  67 0022 01EB8307 		add	r7, r1, r3, lsl #2
  68 0026 043F     		subs	r7, r7, #4
  69 0028 3F1A     		subs	r7, r7, r0
  70              	.LVL8:
  39:FT_Esd_Widgets/Ft_Esd_Elements.c **** 	ft_int32_t y1 = ((ft_int32_t)y << 2) + ((ft_int32_t)height << 2) - 4 - ((ft_int32_t)radius << 2);
  71              		.loc 1 39 0
  72 002a BDF92040 		ldrsh	r4, [sp, #32]
  73 002e 02EB8404 		add	r4, r2, r4, lsl #2
  74 0032 043C     		subs	r4, r4, #4
  75 0034 241A     		subs	r4, r4, r0
  76              	.LVL9:
ARM GAS  /var/folders/n8/cvzdcwlj0vl4g_wtyz1ffy300000gn/T//ccfFCWei.s 			page 3


  40:FT_Esd_Widgets/Ft_Esd_Elements.c **** 	Ft_Gpu_Hal_WrCmd32(phost, BEGIN(RECTS));
  77              		.loc 1 40 0
  78 0036 5C49     		ldr	r1, .L7+4
  79 0038 3046     		mov	r0, r6
  80 003a FFF7FEFF 		bl	Ft_Gpu_Hal_WrCmd32
  81              	.LVL10:
  82              	.LBB10:
  83              	.LBB11:
  84              		.file 2 "FT_Esd_Framework/Ft_Esd_Dl.h"
   1:FT_Esd_Framework/Ft_Esd_Dl.h **** 
   2:FT_Esd_Framework/Ft_Esd_Dl.h **** #ifndef FT_ESD_DL_H
   3:FT_Esd_Framework/Ft_Esd_Dl.h **** #define FT_ESD_DL_H
   4:FT_Esd_Framework/Ft_Esd_Dl.h **** 
   5:FT_Esd_Framework/Ft_Esd_Dl.h **** #include "FT_DataTypes.h"
   6:FT_Esd_Framework/Ft_Esd_Dl.h **** #include "FT_Platform.h"
   7:FT_Esd_Framework/Ft_Esd_Dl.h **** #include "Ft_Esd.h"
   8:FT_Esd_Framework/Ft_Esd_Dl.h **** #include "FT_Gpu.h"
   9:FT_Esd_Framework/Ft_Esd_Dl.h **** #include "Ft_Esd_BitmapInfo.h"
  10:FT_Esd_Framework/Ft_Esd_Dl.h **** 
  11:FT_Esd_Framework/Ft_Esd_Dl.h **** ESD_CATEGORY(EsdUtilities, DisplayName = "ESD Utilities")
  12:FT_Esd_Framework/Ft_Esd_Dl.h **** ESD_CATEGORY(EveRenderFunctions, DisplayName = "EVE Render Functions")
  13:FT_Esd_Framework/Ft_Esd_Dl.h **** 
  14:FT_Esd_Framework/Ft_Esd_Dl.h **** ESD_TYPE(Ft_Gpu_Hal_Context_t *, Native = Pointer, Edit = Library)
  15:FT_Esd_Framework/Ft_Esd_Dl.h **** 
  16:FT_Esd_Framework/Ft_Esd_Dl.h **** // Keep cache of displaylist values that don't often change but are generally set by every widget t
  17:FT_Esd_Framework/Ft_Esd_Dl.h **** #define FT_ESD_OPTIMIZE_DISPLAYLIST 1
  18:FT_Esd_Framework/Ft_Esd_Dl.h **** #define FT_ESD_STATE_STACK_SIZE 5
  19:FT_Esd_Framework/Ft_Esd_Dl.h **** 
  20:FT_Esd_Framework/Ft_Esd_Dl.h **** #define FT_ESD_BITMAPHANDLE_INVALID 255
  21:FT_Esd_Framework/Ft_Esd_Dl.h **** 
  22:FT_Esd_Framework/Ft_Esd_Dl.h **** //
  23:FT_Esd_Framework/Ft_Esd_Dl.h **** // Structs
  24:FT_Esd_Framework/Ft_Esd_Dl.h **** //
  25:FT_Esd_Framework/Ft_Esd_Dl.h **** #ifdef FT_ESD_OPTIMIZE_DISPLAYLIST
  26:FT_Esd_Framework/Ft_Esd_Dl.h **** #define FT_ESD_STATE Ft_Esd_GpuState[Ft_Esd_GpuState_I]
  27:FT_Esd_Framework/Ft_Esd_Dl.h **** typedef struct
  28:FT_Esd_Framework/Ft_Esd_Dl.h **** {
  29:FT_Esd_Framework/Ft_Esd_Dl.h **** 	// Keep to a minimum
  30:FT_Esd_Framework/Ft_Esd_Dl.h **** #ifdef FT_81X_ENABLE
  31:FT_Esd_Framework/Ft_Esd_Dl.h **** 	ft_uint32_t PaletteSource;
  32:FT_Esd_Framework/Ft_Esd_Dl.h **** #endif
  33:FT_Esd_Framework/Ft_Esd_Dl.h **** 	ft_uint32_t ColorRGB;
  34:FT_Esd_Framework/Ft_Esd_Dl.h **** 	ft_uint8_t ColorA;
  35:FT_Esd_Framework/Ft_Esd_Dl.h **** 	ft_uint8_t Handle;         // Current handle
  36:FT_Esd_Framework/Ft_Esd_Dl.h **** 	ft_uint8_t Cell;           // Current cell
  37:FT_Esd_Framework/Ft_Esd_Dl.h **** 	ft_bool_t BitmapTransform; // BitmapTransform other than default is set
  38:FT_Esd_Framework/Ft_Esd_Dl.h **** #ifdef FT_81X_ENABLE
  39:FT_Esd_Framework/Ft_Esd_Dl.h **** 	ft_uint8_t VertexFormat;   // Current vertex format
  40:FT_Esd_Framework/Ft_Esd_Dl.h **** #endif
  41:FT_Esd_Framework/Ft_Esd_Dl.h **** } Ft_Esd_GpuState_T;
  42:FT_Esd_Framework/Ft_Esd_Dl.h **** #endif
  43:FT_Esd_Framework/Ft_Esd_Dl.h **** 
  44:FT_Esd_Framework/Ft_Esd_Dl.h **** //
  45:FT_Esd_Framework/Ft_Esd_Dl.h **** // Globals
  46:FT_Esd_Framework/Ft_Esd_Dl.h **** //
  47:FT_Esd_Framework/Ft_Esd_Dl.h **** extern Ft_Gpu_Hal_Context_t *Ft_Esd_Host;
  48:FT_Esd_Framework/Ft_Esd_Dl.h **** extern ft_uint16_t Ft_Esd_FontHeight[32];
ARM GAS  /var/folders/n8/cvzdcwlj0vl4g_wtyz1ffy300000gn/T//ccfFCWei.s 			page 4


  49:FT_Esd_Framework/Ft_Esd_Dl.h **** #ifdef FT_ESD_OPTIMIZE_DISPLAYLIST
  50:FT_Esd_Framework/Ft_Esd_Dl.h **** extern Ft_Esd_GpuState_T Ft_Esd_GpuState[FT_ESD_STATE_STACK_SIZE];
  51:FT_Esd_Framework/Ft_Esd_Dl.h **** extern ft_uint8_t Ft_Esd_GpuState_I;
  52:FT_Esd_Framework/Ft_Esd_Dl.h **** extern ft_uint32_t Ft_Esd_CoFgColor;
  53:FT_Esd_Framework/Ft_Esd_Dl.h **** extern ft_uint32_t Ft_Esd_CoBgColor;
  54:FT_Esd_Framework/Ft_Esd_Dl.h **** #endif
  55:FT_Esd_Framework/Ft_Esd_Dl.h **** 
  56:FT_Esd_Framework/Ft_Esd_Dl.h **** //Get the height of builtin font
  57:FT_Esd_Framework/Ft_Esd_Dl.h **** ESD_FUNCTION(Ft_Esd_GetFontHeight, Type = ft_uint16_t ,DisplayName = "Get Font Height", Category = 
  58:FT_Esd_Framework/Ft_Esd_Dl.h **** ESD_PARAMETER(i, Type = int, DisplayName = "Bitmap Handle", Default = 0, Min = 0, Max = 31)
  59:FT_Esd_Framework/Ft_Esd_Dl.h **** // inline static ft_uint16_t Ft_Esd_GetFontHeight(int i) { return Ft_Esd_FontHeight[i]; }
  60:FT_Esd_Framework/Ft_Esd_Dl.h **** #define Ft_Esd_GetFontHeight(i) (Ft_Esd_FontHeight[i]);
  61:FT_Esd_Framework/Ft_Esd_Dl.h **** 
  62:FT_Esd_Framework/Ft_Esd_Dl.h **** // Reset any cached state
  63:FT_Esd_Framework/Ft_Esd_Dl.h **** void Ft_Esd_ResetGpuState();
  64:FT_Esd_Framework/Ft_Esd_Dl.h **** void Ft_Esd_ResetCoState();
  65:FT_Esd_Framework/Ft_Esd_Dl.h **** 
  66:FT_Esd_Framework/Ft_Esd_Dl.h **** ft_uint32_t Ft_Esd_BitmapHandle_GetTotalUsed();
  67:FT_Esd_Framework/Ft_Esd_Dl.h **** ft_uint32_t Ft_Esd_BitmapHandle_GetTotal();
  68:FT_Esd_Framework/Ft_Esd_Dl.h **** 
  69:FT_Esd_Framework/Ft_Esd_Dl.h **** /// Set current tag. Must be returned to 255 after usage, to ensure next widgets don't draw with in
  70:FT_Esd_Framework/Ft_Esd_Dl.h **** ESD_FUNCTION(Ft_Esd_Dl_TAG, Type = ft_void_t, Category = EveRenderFunctions, Inline)
  71:FT_Esd_Framework/Ft_Esd_Dl.h **** ESD_PARAMETER(s, Type = ft_uint8_t, DisplayName = "Tag", Default = 255, Min = 0, Max = 255)
  72:FT_Esd_Framework/Ft_Esd_Dl.h **** inline static ft_void_t Ft_Esd_Dl_TAG(ft_uint8_t s)
  73:FT_Esd_Framework/Ft_Esd_Dl.h **** {
  74:FT_Esd_Framework/Ft_Esd_Dl.h **** 	Ft_Gpu_Hal_WrCmd32(Ft_Esd_Host, TAG(s));
  75:FT_Esd_Framework/Ft_Esd_Dl.h **** }
  76:FT_Esd_Framework/Ft_Esd_Dl.h **** //Specify color RGB
  77:FT_Esd_Framework/Ft_Esd_Dl.h **** ESD_FUNCTION(Ft_Esd_Dl_COLOR_RGB, Type = ft_void_t, Category = EveRenderFunctions, Inline)
  78:FT_Esd_Framework/Ft_Esd_Dl.h **** ESD_PARAMETER(c, Type = ft_rgb32_t, DisplayName = "Color")
  79:FT_Esd_Framework/Ft_Esd_Dl.h **** inline static ft_void_t Ft_Esd_Dl_COLOR_RGB(ft_rgb32_t c)
  80:FT_Esd_Framework/Ft_Esd_Dl.h **** {
  81:FT_Esd_Framework/Ft_Esd_Dl.h **** #if FT_ESD_OPTIMIZE_DISPLAYLIST
  82:FT_Esd_Framework/Ft_Esd_Dl.h **** 	ft_rgb32_t rgb = c & 0xFFFFFF;
  83:FT_Esd_Framework/Ft_Esd_Dl.h **** 	if (rgb != FT_ESD_STATE.ColorRGB)
  84:FT_Esd_Framework/Ft_Esd_Dl.h **** 	{
  85:FT_Esd_Framework/Ft_Esd_Dl.h **** #endif
  86:FT_Esd_Framework/Ft_Esd_Dl.h **** 		Ft_Gpu_Hal_WrCmd32(Ft_Esd_Host, (4UL << 24) | (rgb));
  87:FT_Esd_Framework/Ft_Esd_Dl.h **** #if FT_ESD_OPTIMIZE_DISPLAYLIST
  88:FT_Esd_Framework/Ft_Esd_Dl.h **** 		FT_ESD_STATE.ColorRGB = rgb;
  89:FT_Esd_Framework/Ft_Esd_Dl.h **** 	}
  90:FT_Esd_Framework/Ft_Esd_Dl.h **** #endif
  91:FT_Esd_Framework/Ft_Esd_Dl.h **** }
  92:FT_Esd_Framework/Ft_Esd_Dl.h **** //Specify alpha channel
  93:FT_Esd_Framework/Ft_Esd_Dl.h **** ESD_FUNCTION(Ft_Esd_Dl_COLOR_A, Type = ft_void_t, Category = EveRenderFunctions, Inline)
  94:FT_Esd_Framework/Ft_Esd_Dl.h **** ESD_PARAMETER(alpha, Type = ft_uint8_t, Default = 255, Min = 0, Max = 255)
  95:FT_Esd_Framework/Ft_Esd_Dl.h **** inline static ft_void_t Ft_Esd_Dl_COLOR_A(ft_uint8_t alpha)
  96:FT_Esd_Framework/Ft_Esd_Dl.h **** {
  97:FT_Esd_Framework/Ft_Esd_Dl.h **** #if FT_ESD_OPTIMIZE_DISPLAYLIST
  98:FT_Esd_Framework/Ft_Esd_Dl.h **** 	if (alpha != FT_ESD_STATE.ColorA)
  99:FT_Esd_Framework/Ft_Esd_Dl.h **** 	{
 100:FT_Esd_Framework/Ft_Esd_Dl.h **** #endif
 101:FT_Esd_Framework/Ft_Esd_Dl.h **** 		Ft_Gpu_Hal_WrCmd32(Ft_Esd_Host, COLOR_A(alpha));
 102:FT_Esd_Framework/Ft_Esd_Dl.h **** #if FT_ESD_OPTIMIZE_DISPLAYLIST
 103:FT_Esd_Framework/Ft_Esd_Dl.h **** 		FT_ESD_STATE.ColorA = alpha;
 104:FT_Esd_Framework/Ft_Esd_Dl.h **** 	}
 105:FT_Esd_Framework/Ft_Esd_Dl.h **** #endif
ARM GAS  /var/folders/n8/cvzdcwlj0vl4g_wtyz1ffy300000gn/T//ccfFCWei.s 			page 5


 106:FT_Esd_Framework/Ft_Esd_Dl.h **** }
 107:FT_Esd_Framework/Ft_Esd_Dl.h **** 
 108:FT_Esd_Framework/Ft_Esd_Dl.h **** //Specify color: Alpha(31~24 bit) + RGB(23~0 bit)
 109:FT_Esd_Framework/Ft_Esd_Dl.h **** ESD_FUNCTION(Ft_Esd_Dl_COLOR_ARGB, Type = ft_void_t, Category = EveRenderFunctions, Inline)
 110:FT_Esd_Framework/Ft_Esd_Dl.h **** ESD_PARAMETER(c, Type = ft_argb32_t, DisplayName = "Color")
 111:FT_Esd_Framework/Ft_Esd_Dl.h **** inline static ft_void_t Ft_Esd_Dl_COLOR_ARGB(ft_uint32_t c)
 112:FT_Esd_Framework/Ft_Esd_Dl.h **** {
 113:FT_Esd_Framework/Ft_Esd_Dl.h **** 	Ft_Esd_Dl_COLOR_RGB(c);
 114:FT_Esd_Framework/Ft_Esd_Dl.h **** 	Ft_Esd_Dl_COLOR_A(c >> 24);
 115:FT_Esd_Framework/Ft_Esd_Dl.h **** }
 116:FT_Esd_Framework/Ft_Esd_Dl.h **** //Specify bitmap handle, see BITMAP_HANDLE
 117:FT_Esd_Framework/Ft_Esd_Dl.h **** ESD_FUNCTION(Ft_Esd_Dl_BITMAP_HANDLE, Type = ft_void_t, Category = EveRenderFunctions, Inline)
 118:FT_Esd_Framework/Ft_Esd_Dl.h **** ESD_PARAMETER(handle, Type = ft_uint8_t, Min = 0, Max = 31)
 119:FT_Esd_Framework/Ft_Esd_Dl.h **** inline static ft_void_t Ft_Esd_Dl_BITMAP_HANDLE(ft_uint8_t handle)
 120:FT_Esd_Framework/Ft_Esd_Dl.h **** {
 121:FT_Esd_Framework/Ft_Esd_Dl.h **** #if FT_ESD_OPTIMIZE_DISPLAYLIST
 122:FT_Esd_Framework/Ft_Esd_Dl.h **** 	if (handle != FT_ESD_STATE.Handle)
 123:FT_Esd_Framework/Ft_Esd_Dl.h **** 	{
 124:FT_Esd_Framework/Ft_Esd_Dl.h **** #endif
 125:FT_Esd_Framework/Ft_Esd_Dl.h **** 		Ft_Gpu_Hal_WrCmd32(Ft_Esd_Host, BITMAP_HANDLE(handle));
 126:FT_Esd_Framework/Ft_Esd_Dl.h **** #if FT_ESD_OPTIMIZE_DISPLAYLIST
 127:FT_Esd_Framework/Ft_Esd_Dl.h **** 		FT_ESD_STATE.Handle = handle;
 128:FT_Esd_Framework/Ft_Esd_Dl.h **** 	}
 129:FT_Esd_Framework/Ft_Esd_Dl.h **** #endif
 130:FT_Esd_Framework/Ft_Esd_Dl.h **** }
 131:FT_Esd_Framework/Ft_Esd_Dl.h **** 
 132:FT_Esd_Framework/Ft_Esd_Dl.h **** //Specify cell number for bitmap, see CELL 
 133:FT_Esd_Framework/Ft_Esd_Dl.h **** ESD_FUNCTION(Ft_Esd_Dl_CELL, Type = ft_void_t, Category = EveRenderFunctions, Inline)
 134:FT_Esd_Framework/Ft_Esd_Dl.h **** ESD_PARAMETER(cell, Type = ft_uint8_t, Min = 0, Max = 255)
 135:FT_Esd_Framework/Ft_Esd_Dl.h **** inline static ft_void_t Ft_Esd_Dl_CELL(ft_uint8_t cell)
 136:FT_Esd_Framework/Ft_Esd_Dl.h **** {
 137:FT_Esd_Framework/Ft_Esd_Dl.h **** #if FT_ESD_OPTIMIZE_DISPLAYLIST
 138:FT_Esd_Framework/Ft_Esd_Dl.h **** 	if (cell != FT_ESD_STATE.Cell)
 139:FT_Esd_Framework/Ft_Esd_Dl.h **** 	{
 140:FT_Esd_Framework/Ft_Esd_Dl.h **** #endif
 141:FT_Esd_Framework/Ft_Esd_Dl.h **** 		Ft_Gpu_Hal_WrCmd32(Ft_Esd_Host, CELL(cell));
 142:FT_Esd_Framework/Ft_Esd_Dl.h **** #if FT_ESD_OPTIMIZE_DISPLAYLIST
 143:FT_Esd_Framework/Ft_Esd_Dl.h **** 		FT_ESD_STATE.Cell = cell;
 144:FT_Esd_Framework/Ft_Esd_Dl.h **** 	}
 145:FT_Esd_Framework/Ft_Esd_Dl.h **** #endif
 146:FT_Esd_Framework/Ft_Esd_Dl.h **** }
 147:FT_Esd_Framework/Ft_Esd_Dl.h **** //Save EVE context, see SAVE_CONTEXT
 148:FT_Esd_Framework/Ft_Esd_Dl.h **** ESD_FUNCTION(Ft_Esd_Dl_SAVE_CONTEXT, Type = ft_void_t, Category = EveRenderFunctions, Inline)
 149:FT_Esd_Framework/Ft_Esd_Dl.h **** inline static ft_void_t Ft_Esd_Dl_SAVE_CONTEXT()
 150:FT_Esd_Framework/Ft_Esd_Dl.h **** {
 151:FT_Esd_Framework/Ft_Esd_Dl.h **** 	Ft_Gpu_Hal_WrCmd32(Ft_Esd_Host, SAVE_CONTEXT());
 152:FT_Esd_Framework/Ft_Esd_Dl.h **** #if FT_ESD_OPTIMIZE_DISPLAYLIST
 153:FT_Esd_Framework/Ft_Esd_Dl.h **** 	ft_uint8_t nextState = Ft_Esd_GpuState_I + 1;
 154:FT_Esd_Framework/Ft_Esd_Dl.h **** 	if (nextState < FT_ESD_STATE_STACK_SIZE)
 155:FT_Esd_Framework/Ft_Esd_Dl.h **** 	{
 156:FT_Esd_Framework/Ft_Esd_Dl.h **** 		Ft_Esd_GpuState[nextState] = Ft_Esd_GpuState[Ft_Esd_GpuState_I];
 157:FT_Esd_Framework/Ft_Esd_Dl.h **** 		Ft_Esd_GpuState_I = nextState;
 158:FT_Esd_Framework/Ft_Esd_Dl.h **** 	}
 159:FT_Esd_Framework/Ft_Esd_Dl.h **** #endif
 160:FT_Esd_Framework/Ft_Esd_Dl.h **** }
 161:FT_Esd_Framework/Ft_Esd_Dl.h **** //Restore EVE context, see RESTORE_CONTEXT
 162:FT_Esd_Framework/Ft_Esd_Dl.h **** ESD_FUNCTION(Ft_Esd_Dl_RESTORE_CONTEXT, Type = ft_void_t, Category = EveRenderFunctions, Inline)
ARM GAS  /var/folders/n8/cvzdcwlj0vl4g_wtyz1ffy300000gn/T//ccfFCWei.s 			page 6


 163:FT_Esd_Framework/Ft_Esd_Dl.h **** inline static ft_void_t Ft_Esd_Dl_RESTORE_CONTEXT()
 164:FT_Esd_Framework/Ft_Esd_Dl.h **** {
 165:FT_Esd_Framework/Ft_Esd_Dl.h **** 	Ft_Gpu_Hal_WrCmd32(Ft_Esd_Host, RESTORE_CONTEXT());
 166:FT_Esd_Framework/Ft_Esd_Dl.h **** #if FT_ESD_OPTIMIZE_DISPLAYLIST
 167:FT_Esd_Framework/Ft_Esd_Dl.h **** 	if (Ft_Esd_GpuState_I > 0)
 168:FT_Esd_Framework/Ft_Esd_Dl.h **** 		--Ft_Esd_GpuState_I;
 169:FT_Esd_Framework/Ft_Esd_Dl.h **** #endif
 170:FT_Esd_Framework/Ft_Esd_Dl.h **** }
 171:FT_Esd_Framework/Ft_Esd_Dl.h **** 
 172:FT_Esd_Framework/Ft_Esd_Dl.h **** //Specify vertex format , see VERTEX_FORMAT command
 173:FT_Esd_Framework/Ft_Esd_Dl.h **** ESD_FUNCTION(Ft_Esd_Dl_VERTEX_FORMAT, Type = ft_void_t, Category = EveRenderFunctions, Inline)
 174:FT_Esd_Framework/Ft_Esd_Dl.h **** ESD_PARAMETER(frac, Type = ft_uint8_t, Min = 0, Max = 4)
 175:FT_Esd_Framework/Ft_Esd_Dl.h **** inline static ft_void_t Ft_Esd_Dl_VERTEX_FORMAT(ft_uint8_t frac)
 176:FT_Esd_Framework/Ft_Esd_Dl.h **** {
 177:FT_Esd_Framework/Ft_Esd_Dl.h **** #if FT_ESD_OPTIMIZE_DISPLAYLIST
 178:FT_Esd_Framework/Ft_Esd_Dl.h **** 	if (frac != FT_ESD_STATE.VertexFormat)
  85              		.loc 2 178 0
  86 003e 5B4B     		ldr	r3, .L7+8
  87 0040 1A78     		ldrb	r2, [r3]	@ zero_extendqisi2
  88 0042 5B4B     		ldr	r3, .L7+12
  89 0044 03EB0213 		add	r3, r3, r2, lsl #4
  90 0048 1B7B     		ldrb	r3, [r3, #12]	@ zero_extendqisi2
  91 004a 022B     		cmp	r3, #2
  92 004c 0BD0     		beq	.L2
 179:FT_Esd_Framework/Ft_Esd_Dl.h **** 	{
 180:FT_Esd_Framework/Ft_Esd_Dl.h **** #endif
 181:FT_Esd_Framework/Ft_Esd_Dl.h **** 		Ft_Gpu_Hal_WrCmd32(Ft_Esd_Host, VERTEX_FORMAT(frac));
  93              		.loc 2 181 0
  94 004e 5949     		ldr	r1, .L7+16
  95 0050 544B     		ldr	r3, .L7
  96 0052 1868     		ldr	r0, [r3]
  97 0054 FFF7FEFF 		bl	Ft_Gpu_Hal_WrCmd32
  98              	.LVL11:
 182:FT_Esd_Framework/Ft_Esd_Dl.h **** #if FT_ESD_OPTIMIZE_DISPLAYLIST
 183:FT_Esd_Framework/Ft_Esd_Dl.h **** 		FT_ESD_STATE.VertexFormat = frac;
  99              		.loc 2 183 0
 100 0058 544B     		ldr	r3, .L7+8
 101 005a 1A78     		ldrb	r2, [r3]	@ zero_extendqisi2
 102 005c 544B     		ldr	r3, .L7+12
 103 005e 03EB0213 		add	r3, r3, r2, lsl #4
 104 0062 0222     		movs	r2, #2
 105 0064 1A73     		strb	r2, [r3, #12]
 106              	.L2:
 107              	.LVL12:
 108              	.LBE11:
 109              	.LBE10:
 110              	.LBB12:
 111              	.LBB13:
  83:FT_Esd_Framework/Ft_Esd_Dl.h **** 	{
 112              		.loc 2 83 0
 113 0066 514B     		ldr	r3, .L7+8
 114 0068 1A78     		ldrb	r2, [r3]	@ zero_extendqisi2
 115 006a 514B     		ldr	r3, .L7+12
 116 006c 03EB0213 		add	r3, r3, r2, lsl #4
 117 0070 5A68     		ldr	r2, [r3, #4]
 118 0072 6FF07F43 		mvn	r3, #-16777216
 119 0076 9A42     		cmp	r2, r3
ARM GAS  /var/folders/n8/cvzdcwlj0vl4g_wtyz1ffy300000gn/T//ccfFCWei.s 			page 7


 120 0078 0DD0     		beq	.L3
  86:FT_Esd_Framework/Ft_Esd_Dl.h **** #if FT_ESD_OPTIMIZE_DISPLAYLIST
 121              		.loc 2 86 0
 122 007a 6FF07B41 		mvn	r1, #-83886080
 123 007e 494B     		ldr	r3, .L7
 124 0080 1868     		ldr	r0, [r3]
 125 0082 FFF7FEFF 		bl	Ft_Gpu_Hal_WrCmd32
 126              	.LVL13:
  88:FT_Esd_Framework/Ft_Esd_Dl.h **** 	}
 127              		.loc 2 88 0
 128 0086 494B     		ldr	r3, .L7+8
 129 0088 1A78     		ldrb	r2, [r3]	@ zero_extendqisi2
 130 008a 494B     		ldr	r3, .L7+12
 131 008c 03EB0213 		add	r3, r3, r2, lsl #4
 132 0090 6FF07F42 		mvn	r2, #-16777216
 133 0094 5A60     		str	r2, [r3, #4]
 134              	.L3:
 135              	.LVL14:
 136              	.LBE13:
 137              	.LBE12:
  41:FT_Esd_Widgets/Ft_Esd_Elements.c **** #ifdef FT_81X_ENABLE
  42:FT_Esd_Widgets/Ft_Esd_Elements.c **** 	Ft_Esd_Dl_VERTEX_FORMAT(2);
  43:FT_Esd_Widgets/Ft_Esd_Elements.c **** #endif
  44:FT_Esd_Widgets/Ft_Esd_Elements.c **** 	Ft_Esd_Dl_COLOR_RGB(0xFFFFFF);
  45:FT_Esd_Widgets/Ft_Esd_Elements.c **** 	Ft_Gpu_Hal_WrCmd32(phost, LINE_WIDTH(lw));
 138              		.loc 1 45 0
 139 0096 C9F30B01 		ubfx	r1, r9, #0, #12
 140 009a 41F06061 		orr	r1, r1, #234881024
 141 009e 3046     		mov	r0, r6
 142 00a0 FFF7FEFF 		bl	Ft_Gpu_Hal_WrCmd32
 143              	.LVL15:
  46:FT_Esd_Widgets/Ft_Esd_Elements.c **** 	Ft_Gpu_Hal_WrCmd32(phost, VERTEX2F2(x0 + 2, y0 + 2));
 144              		.loc 1 46 0
 145 00a4 A91D     		adds	r1, r5, #6
 146 00a6 DFF81091 		ldr	r9, .L7+20
 147              	.LVL16:
 148 00aa 09EAC131 		and	r1, r9, r1, lsl #15
 149 00ae 08F10603 		add	r3, r8, #6
 150 00b2 C3F30E03 		ubfx	r3, r3, #0, #15
 151 00b6 1943     		orrs	r1, r1, r3
 152 00b8 41F08041 		orr	r1, r1, #1073741824
 153 00bc 3046     		mov	r0, r6
 154 00be FFF7FEFF 		bl	Ft_Gpu_Hal_WrCmd32
 155              	.LVL17:
  47:FT_Esd_Widgets/Ft_Esd_Elements.c **** 	Ft_Gpu_Hal_WrCmd32(phost, VERTEX2F2(x1 + 4, y1 + 4));
 156              		.loc 1 47 0
 157 00c2 391D     		adds	r1, r7, #4
 158 00c4 09EAC139 		and	r9, r9, r1, lsl #15
 159 00c8 211D     		adds	r1, r4, #4
 160 00ca C1F30E01 		ubfx	r1, r1, #0, #15
 161 00ce 49EA0101 		orr	r1, r9, r1
 162 00d2 41F08041 		orr	r1, r1, #1073741824
 163 00d6 3046     		mov	r0, r6
 164 00d8 FFF7FEFF 		bl	Ft_Gpu_Hal_WrCmd32
 165              	.LVL18:
 166              	.LBB14:
 167              	.LBB15:
ARM GAS  /var/folders/n8/cvzdcwlj0vl4g_wtyz1ffy300000gn/T//ccfFCWei.s 			page 8


  83:FT_Esd_Framework/Ft_Esd_Dl.h **** 	{
 168              		.loc 2 83 0
 169 00dc 334B     		ldr	r3, .L7+8
 170 00de 1A78     		ldrb	r2, [r3]	@ zero_extendqisi2
 171 00e0 334B     		ldr	r3, .L7+12
 172 00e2 03EB0213 		add	r3, r3, r2, lsl #4
 173 00e6 5B68     		ldr	r3, [r3, #4]
 174 00e8 63B1     		cbz	r3, .L4
  86:FT_Esd_Framework/Ft_Esd_Dl.h **** #if FT_ESD_OPTIMIZE_DISPLAYLIST
 175              		.loc 2 86 0
 176 00ea 4FF08061 		mov	r1, #67108864
 177 00ee 2D4B     		ldr	r3, .L7
 178 00f0 1868     		ldr	r0, [r3]
 179 00f2 FFF7FEFF 		bl	Ft_Gpu_Hal_WrCmd32
 180              	.LVL19:
  88:FT_Esd_Framework/Ft_Esd_Dl.h **** 	}
 181              		.loc 2 88 0
 182 00f6 2D4B     		ldr	r3, .L7+8
 183 00f8 1A78     		ldrb	r2, [r3]	@ zero_extendqisi2
 184 00fa 2D4B     		ldr	r3, .L7+12
 185 00fc 03EB0213 		add	r3, r3, r2, lsl #4
 186 0100 0022     		movs	r2, #0
 187 0102 5A60     		str	r2, [r3, #4]
 188              	.L4:
 189              	.LVL20:
 190              	.LBE15:
 191              	.LBE14:
  48:FT_Esd_Widgets/Ft_Esd_Elements.c **** 	Ft_Esd_Dl_COLOR_RGB(0x000000);
  49:FT_Esd_Widgets/Ft_Esd_Elements.c **** 	Ft_Gpu_Hal_WrCmd32(phost, VERTEX2F2(x0 - 5, y0 - 5));
 192              		.loc 1 49 0
 193 0104 691E     		subs	r1, r5, #1
 194 0106 DFF8B090 		ldr	r9, .L7+20
 195 010a 09EAC131 		and	r1, r9, r1, lsl #15
 196 010e 08F1FF33 		add	r3, r8, #-1
 197 0112 C3F30E03 		ubfx	r3, r3, #0, #15
 198 0116 1943     		orrs	r1, r1, r3
 199 0118 41F08041 		orr	r1, r1, #1073741824
 200 011c 3046     		mov	r0, r6
 201 011e FFF7FEFF 		bl	Ft_Gpu_Hal_WrCmd32
 202              	.LVL21:
  50:FT_Esd_Widgets/Ft_Esd_Elements.c **** 	Ft_Gpu_Hal_WrCmd32(phost, VERTEX2F2(x1 - 1, y1 - 1));
 203              		.loc 1 50 0
 204 0122 791E     		subs	r1, r7, #1
 205 0124 09EAC139 		and	r9, r9, r1, lsl #15
 206 0128 611E     		subs	r1, r4, #1
 207 012a C1F30E01 		ubfx	r1, r1, #0, #15
 208 012e 49EA0101 		orr	r1, r9, r1
 209 0132 41F08041 		orr	r1, r1, #1073741824
 210 0136 3046     		mov	r0, r6
 211 0138 FFF7FEFF 		bl	Ft_Gpu_Hal_WrCmd32
 212              	.LVL22:
 213              	.LBB16:
 214              	.LBB17:
  82:FT_Esd_Framework/Ft_Esd_Dl.h **** 	if (rgb != FT_ESD_STATE.ColorRGB)
 215              		.loc 2 82 0
 216 013c 2AF07F4A 		bic	r10, r10, #-16777216
 217              	.LVL23:
ARM GAS  /var/folders/n8/cvzdcwlj0vl4g_wtyz1ffy300000gn/T//ccfFCWei.s 			page 9


  83:FT_Esd_Framework/Ft_Esd_Dl.h **** 	{
 218              		.loc 2 83 0
 219 0140 1A4B     		ldr	r3, .L7+8
 220 0142 1A78     		ldrb	r2, [r3]	@ zero_extendqisi2
 221 0144 1A4B     		ldr	r3, .L7+12
 222 0146 03EB0213 		add	r3, r3, r2, lsl #4
 223 014a 5B68     		ldr	r3, [r3, #4]
 224 014c 9A45     		cmp	r10, r3
 225 014e 0CD0     		beq	.L5
  86:FT_Esd_Framework/Ft_Esd_Dl.h **** #if FT_ESD_OPTIMIZE_DISPLAYLIST
 226              		.loc 2 86 0
 227 0150 4AF08061 		orr	r1, r10, #67108864
 228 0154 134B     		ldr	r3, .L7
 229 0156 1868     		ldr	r0, [r3]
 230 0158 FFF7FEFF 		bl	Ft_Gpu_Hal_WrCmd32
 231              	.LVL24:
  88:FT_Esd_Framework/Ft_Esd_Dl.h **** 	}
 232              		.loc 2 88 0
 233 015c 134B     		ldr	r3, .L7+8
 234 015e 1A78     		ldrb	r2, [r3]	@ zero_extendqisi2
 235 0160 134B     		ldr	r3, .L7+12
 236 0162 03EB0213 		add	r3, r3, r2, lsl #4
 237 0166 C3F804A0 		str	r10, [r3, #4]
 238              	.L5:
 239              	.LVL25:
 240              	.LBE17:
 241              	.LBE16:
  51:FT_Esd_Widgets/Ft_Esd_Elements.c **** 	Ft_Esd_Dl_COLOR_RGB(color);
  52:FT_Esd_Widgets/Ft_Esd_Elements.c **** 	Ft_Gpu_Hal_WrCmd32(phost, VERTEX2F2(x0 - 2, y0 - 2));
 242              		.loc 1 52 0
 243 016a A91C     		adds	r1, r5, #2
 244 016c 124D     		ldr	r5, .L7+20
 245              	.LVL26:
 246 016e 05EAC131 		and	r1, r5, r1, lsl #15
 247              	.LVL27:
 248 0172 08F10208 		add	r8, r8, #2
 249              	.LVL28:
 250 0176 C8F30E08 		ubfx	r8, r8, #0, #15
 251              	.LVL29:
 252 017a 41EA0801 		orr	r1, r1, r8
 253 017e 41F08041 		orr	r1, r1, #1073741824
 254 0182 3046     		mov	r0, r6
 255 0184 FFF7FEFF 		bl	Ft_Gpu_Hal_WrCmd32
 256              	.LVL30:
  53:FT_Esd_Widgets/Ft_Esd_Elements.c **** 	Ft_Gpu_Hal_WrCmd32(phost, VERTEX2F2(x1 + 2, y1 + 2));
 257              		.loc 1 53 0
 258 0188 0237     		adds	r7, r7, #2
 259              	.LVL31:
 260 018a 05EAC735 		and	r5, r5, r7, lsl #15
 261 018e 0234     		adds	r4, r4, #2
 262              	.LVL32:
 263 0190 C4F30E04 		ubfx	r4, r4, #0, #15
 264              	.LVL33:
 265 0194 2C43     		orrs	r4, r4, r5
 266 0196 44F08041 		orr	r1, r4, #1073741824
 267 019a 3046     		mov	r0, r6
 268 019c FFF7FEFF 		bl	Ft_Gpu_Hal_WrCmd32
ARM GAS  /var/folders/n8/cvzdcwlj0vl4g_wtyz1ffy300000gn/T//ccfFCWei.s 			page 10


 269              	.LVL34:
  54:FT_Esd_Widgets/Ft_Esd_Elements.c **** #if FT_ESD_DL_END
  55:FT_Esd_Widgets/Ft_Esd_Elements.c **** 	Ft_Gpu_Hal_WrCmd32(phost, END());
  56:FT_Esd_Widgets/Ft_Esd_Elements.c **** #endif
  57:FT_Esd_Widgets/Ft_Esd_Elements.c **** }
 270              		.loc 1 57 0
 271 01a0 BDE8F087 		pop	{r4, r5, r6, r7, r8, r9, r10, pc}
 272              	.LVL35:
 273              	.L8:
 274              		.align	2
 275              	.L7:
 276 01a4 00000000 		.word	Ft_Esd_Host
 277 01a8 0900001F 		.word	520093705
 278 01ac 00000000 		.word	Ft_Esd_GpuState_I
 279 01b0 00000000 		.word	Ft_Esd_GpuState
 280 01b4 02000027 		.word	654311426
 281 01b8 0080FF3F 		.word	1073709056
 282              		.cfi_endproc
 283              	.LFE27:
 285              		.section	.text.Ft_Esd_Elements_PanelRaised,"ax",%progbits
 286              		.align	1
 287              		.global	Ft_Esd_Elements_PanelRaised
 288              		.syntax unified
 289              		.thumb
 290              		.thumb_func
 291              		.fpu fpv5-sp-d16
 293              	Ft_Esd_Elements_PanelRaised:
 294              	.LFB28:
  58:FT_Esd_Widgets/Ft_Esd_Elements.c **** 
  59:FT_Esd_Widgets/Ft_Esd_Elements.c **** void Ft_Esd_Elements_PanelRaised(ft_rgb32_t color, ft_int16_t x, ft_int16_t y, ft_int16_t width, ft
  60:FT_Esd_Widgets/Ft_Esd_Elements.c **** {
 295              		.loc 1 60 0
 296              		.cfi_startproc
 297              		@ args = 8, pretend = 0, frame = 0
 298              		@ frame_needed = 0, uses_anonymous_args = 0
 299              	.LVL36:
 300 0000 2DE9F047 		push	{r4, r5, r6, r7, r8, r9, r10, lr}
 301              	.LCFI1:
 302              		.cfi_def_cfa_offset 32
 303              		.cfi_offset 4, -32
 304              		.cfi_offset 5, -28
 305              		.cfi_offset 6, -24
 306              		.cfi_offset 7, -20
 307              		.cfi_offset 8, -16
 308              		.cfi_offset 9, -12
 309              		.cfi_offset 10, -8
 310              		.cfi_offset 14, -4
 311 0004 8246     		mov	r10, r0
 312 0006 BDF92440 		ldrsh	r4, [sp, #36]
  61:FT_Esd_Widgets/Ft_Esd_Elements.c **** 	Ft_Gpu_Hal_Context_t *phost = Ft_Esd_Host;
 313              		.loc 1 61 0
 314 000a 6648     		ldr	r0, .L15
 315              	.LVL37:
 316 000c 0668     		ldr	r6, [r0]
 317              	.LVL38:
  62:FT_Esd_Widgets/Ft_Esd_Elements.c **** 	ft_int32_t lw = ((ft_int32_t)radius << 4) + 12;
 318              		.loc 1 62 0
ARM GAS  /var/folders/n8/cvzdcwlj0vl4g_wtyz1ffy300000gn/T//ccfFCWei.s 			page 11


 319 000e 4FEA0419 		lsl	r9, r4, #4
 320 0012 09F10C09 		add	r9, r9, #12
 321              	.LVL39:
  63:FT_Esd_Widgets/Ft_Esd_Elements.c **** 	ft_int32_t x0 = ((ft_int32_t)x << 2) + ((ft_int32_t)radius << 2) + 6;
 322              		.loc 1 63 0
 323 0016 8900     		lsls	r1, r1, #2
 324              	.LVL40:
 325 0018 A000     		lsls	r0, r4, #2
 326 001a 0D18     		adds	r5, r1, r0
 327              	.LVL41:
  64:FT_Esd_Widgets/Ft_Esd_Elements.c **** 	ft_int32_t y0 = ((ft_int32_t)y << 2) + ((ft_int32_t)radius << 2) + 6;
 328              		.loc 1 64 0
 329 001c 9200     		lsls	r2, r2, #2
 330              	.LVL42:
 331 001e 00EB0208 		add	r8, r0, r2
 332              	.LVL43:
  65:FT_Esd_Widgets/Ft_Esd_Elements.c **** 	ft_int32_t x1 = ((ft_int32_t)x << 2) + ((ft_int32_t)width << 2) - 6 - ((ft_int32_t)radius << 2);
 333              		.loc 1 65 0
 334 0022 01EB8307 		add	r7, r1, r3, lsl #2
 335 0026 063F     		subs	r7, r7, #6
 336 0028 3F1A     		subs	r7, r7, r0
 337              	.LVL44:
  66:FT_Esd_Widgets/Ft_Esd_Elements.c **** 	ft_int32_t y1 = ((ft_int32_t)y << 2) + ((ft_int32_t)height << 2) - 6 - ((ft_int32_t)radius << 2);
 338              		.loc 1 66 0
 339 002a BDF92040 		ldrsh	r4, [sp, #32]
 340 002e 02EB8404 		add	r4, r2, r4, lsl #2
 341 0032 063C     		subs	r4, r4, #6
 342 0034 241A     		subs	r4, r4, r0
 343              	.LVL45:
  67:FT_Esd_Widgets/Ft_Esd_Elements.c **** 	Ft_Gpu_Hal_WrCmd32(phost, BEGIN(RECTS));
 344              		.loc 1 67 0
 345 0036 5C49     		ldr	r1, .L15+4
 346 0038 3046     		mov	r0, r6
 347 003a FFF7FEFF 		bl	Ft_Gpu_Hal_WrCmd32
 348              	.LVL46:
 349              	.LBB26:
 350              	.LBB27:
 178:FT_Esd_Framework/Ft_Esd_Dl.h **** 	{
 351              		.loc 2 178 0
 352 003e 5B4B     		ldr	r3, .L15+8
 353 0040 1A78     		ldrb	r2, [r3]	@ zero_extendqisi2
 354 0042 5B4B     		ldr	r3, .L15+12
 355 0044 03EB0213 		add	r3, r3, r2, lsl #4
 356 0048 1B7B     		ldrb	r3, [r3, #12]	@ zero_extendqisi2
 357 004a 022B     		cmp	r3, #2
 358 004c 0BD0     		beq	.L10
 181:FT_Esd_Framework/Ft_Esd_Dl.h **** #if FT_ESD_OPTIMIZE_DISPLAYLIST
 359              		.loc 2 181 0
 360 004e 5949     		ldr	r1, .L15+16
 361 0050 544B     		ldr	r3, .L15
 362 0052 1868     		ldr	r0, [r3]
 363 0054 FFF7FEFF 		bl	Ft_Gpu_Hal_WrCmd32
 364              	.LVL47:
 365              		.loc 2 183 0
 366 0058 544B     		ldr	r3, .L15+8
 367 005a 1A78     		ldrb	r2, [r3]	@ zero_extendqisi2
 368 005c 544B     		ldr	r3, .L15+12
ARM GAS  /var/folders/n8/cvzdcwlj0vl4g_wtyz1ffy300000gn/T//ccfFCWei.s 			page 12


 369 005e 03EB0213 		add	r3, r3, r2, lsl #4
 370 0062 0222     		movs	r2, #2
 371 0064 1A73     		strb	r2, [r3, #12]
 372              	.L10:
 373              	.LVL48:
 374              	.LBE27:
 375              	.LBE26:
 376              	.LBB28:
 377              	.LBB29:
  83:FT_Esd_Framework/Ft_Esd_Dl.h **** 	{
 378              		.loc 2 83 0
 379 0066 514B     		ldr	r3, .L15+8
 380 0068 1A78     		ldrb	r2, [r3]	@ zero_extendqisi2
 381 006a 514B     		ldr	r3, .L15+12
 382 006c 03EB0213 		add	r3, r3, r2, lsl #4
 383 0070 5B68     		ldr	r3, [r3, #4]
 384 0072 63B1     		cbz	r3, .L11
  86:FT_Esd_Framework/Ft_Esd_Dl.h **** #if FT_ESD_OPTIMIZE_DISPLAYLIST
 385              		.loc 2 86 0
 386 0074 4FF08061 		mov	r1, #67108864
 387 0078 4A4B     		ldr	r3, .L15
 388 007a 1868     		ldr	r0, [r3]
 389 007c FFF7FEFF 		bl	Ft_Gpu_Hal_WrCmd32
 390              	.LVL49:
  88:FT_Esd_Framework/Ft_Esd_Dl.h **** 	}
 391              		.loc 2 88 0
 392 0080 4A4B     		ldr	r3, .L15+8
 393 0082 1A78     		ldrb	r2, [r3]	@ zero_extendqisi2
 394 0084 4A4B     		ldr	r3, .L15+12
 395 0086 03EB0213 		add	r3, r3, r2, lsl #4
 396 008a 0022     		movs	r2, #0
 397 008c 5A60     		str	r2, [r3, #4]
 398              	.L11:
 399              	.LVL50:
 400              	.LBE29:
 401              	.LBE28:
  68:FT_Esd_Widgets/Ft_Esd_Elements.c **** #ifdef FT_81X_ENABLE
  69:FT_Esd_Widgets/Ft_Esd_Elements.c **** 	Ft_Esd_Dl_VERTEX_FORMAT(2);
  70:FT_Esd_Widgets/Ft_Esd_Elements.c **** #endif
  71:FT_Esd_Widgets/Ft_Esd_Elements.c **** 	Ft_Esd_Dl_COLOR_RGB(0x000000);
  72:FT_Esd_Widgets/Ft_Esd_Elements.c **** 	Ft_Gpu_Hal_WrCmd32(phost, LINE_WIDTH(lw));
 402              		.loc 1 72 0
 403 008e C9F30B01 		ubfx	r1, r9, #0, #12
 404 0092 41F06061 		orr	r1, r1, #234881024
 405 0096 3046     		mov	r0, r6
 406 0098 FFF7FEFF 		bl	Ft_Gpu_Hal_WrCmd32
 407              	.LVL51:
  73:FT_Esd_Widgets/Ft_Esd_Elements.c **** 	Ft_Gpu_Hal_WrCmd32(phost, VERTEX2F2(x0 + 1, y0 + 1));
 408              		.loc 1 73 0
 409 009c E91D     		adds	r1, r5, #7
 410 009e DFF81891 		ldr	r9, .L15+20
 411              	.LVL52:
 412 00a2 09EAC131 		and	r1, r9, r1, lsl #15
 413 00a6 08F10703 		add	r3, r8, #7
 414 00aa C3F30E03 		ubfx	r3, r3, #0, #15
 415 00ae 1943     		orrs	r1, r1, r3
 416 00b0 41F08041 		orr	r1, r1, #1073741824
ARM GAS  /var/folders/n8/cvzdcwlj0vl4g_wtyz1ffy300000gn/T//ccfFCWei.s 			page 13


 417 00b4 3046     		mov	r0, r6
 418 00b6 FFF7FEFF 		bl	Ft_Gpu_Hal_WrCmd32
 419              	.LVL53:
  74:FT_Esd_Widgets/Ft_Esd_Elements.c **** 	Ft_Gpu_Hal_WrCmd32(phost, VERTEX2F2(x1 + 7, y1 + 7));
 420              		.loc 1 74 0
 421 00ba F91D     		adds	r1, r7, #7
 422 00bc 09EAC139 		and	r9, r9, r1, lsl #15
 423 00c0 E11D     		adds	r1, r4, #7
 424 00c2 C1F30E01 		ubfx	r1, r1, #0, #15
 425 00c6 49EA0101 		orr	r1, r9, r1
 426 00ca 41F08041 		orr	r1, r1, #1073741824
 427 00ce 3046     		mov	r0, r6
 428 00d0 FFF7FEFF 		bl	Ft_Gpu_Hal_WrCmd32
 429              	.LVL54:
 430              	.LBB30:
 431              	.LBB31:
  83:FT_Esd_Framework/Ft_Esd_Dl.h **** 	{
 432              		.loc 2 83 0
 433 00d4 354B     		ldr	r3, .L15+8
 434 00d6 1A78     		ldrb	r2, [r3]	@ zero_extendqisi2
 435 00d8 354B     		ldr	r3, .L15+12
 436 00da 03EB0213 		add	r3, r3, r2, lsl #4
 437 00de 5A68     		ldr	r2, [r3, #4]
 438 00e0 6FF07F43 		mvn	r3, #-16777216
 439 00e4 9A42     		cmp	r2, r3
 440 00e6 0DD0     		beq	.L12
  86:FT_Esd_Framework/Ft_Esd_Dl.h **** #if FT_ESD_OPTIMIZE_DISPLAYLIST
 441              		.loc 2 86 0
 442 00e8 6FF07B41 		mvn	r1, #-83886080
 443 00ec 2D4B     		ldr	r3, .L15
 444 00ee 1868     		ldr	r0, [r3]
 445 00f0 FFF7FEFF 		bl	Ft_Gpu_Hal_WrCmd32
 446              	.LVL55:
  88:FT_Esd_Framework/Ft_Esd_Dl.h **** 	}
 447              		.loc 2 88 0
 448 00f4 2D4B     		ldr	r3, .L15+8
 449 00f6 1A78     		ldrb	r2, [r3]	@ zero_extendqisi2
 450 00f8 2D4B     		ldr	r3, .L15+12
 451 00fa 03EB0213 		add	r3, r3, r2, lsl #4
 452 00fe 6FF07F42 		mvn	r2, #-16777216
 453 0102 5A60     		str	r2, [r3, #4]
 454              	.L12:
 455              	.LVL56:
 456              	.LBE31:
 457              	.LBE30:
  75:FT_Esd_Widgets/Ft_Esd_Elements.c **** 	Ft_Esd_Dl_COLOR_RGB(0xFFFFFF);
  76:FT_Esd_Widgets/Ft_Esd_Elements.c **** 	Ft_Gpu_Hal_WrCmd32(phost, VERTEX2F2(x0 - 5, y0 - 5));
 458              		.loc 1 76 0
 459 0104 691C     		adds	r1, r5, #1
 460 0106 DFF8B090 		ldr	r9, .L15+20
 461 010a 09EAC131 		and	r1, r9, r1, lsl #15
 462 010e 08F10103 		add	r3, r8, #1
 463 0112 C3F30E03 		ubfx	r3, r3, #0, #15
 464 0116 1943     		orrs	r1, r1, r3
 465 0118 41F08041 		orr	r1, r1, #1073741824
 466 011c 3046     		mov	r0, r6
 467 011e FFF7FEFF 		bl	Ft_Gpu_Hal_WrCmd32
ARM GAS  /var/folders/n8/cvzdcwlj0vl4g_wtyz1ffy300000gn/T//ccfFCWei.s 			page 14


 468              	.LVL57:
  77:FT_Esd_Widgets/Ft_Esd_Elements.c **** 	Ft_Gpu_Hal_WrCmd32(phost, VERTEX2F2(x1 + 1, y1 + 1));
 469              		.loc 1 77 0
 470 0122 791C     		adds	r1, r7, #1
 471 0124 09EAC139 		and	r9, r9, r1, lsl #15
 472 0128 611C     		adds	r1, r4, #1
 473 012a C1F30E01 		ubfx	r1, r1, #0, #15
 474 012e 49EA0101 		orr	r1, r9, r1
 475 0132 41F08041 		orr	r1, r1, #1073741824
 476 0136 3046     		mov	r0, r6
 477 0138 FFF7FEFF 		bl	Ft_Gpu_Hal_WrCmd32
 478              	.LVL58:
 479              	.LBB32:
 480              	.LBB33:
  82:FT_Esd_Framework/Ft_Esd_Dl.h **** 	if (rgb != FT_ESD_STATE.ColorRGB)
 481              		.loc 2 82 0
 482 013c 2AF07F4A 		bic	r10, r10, #-16777216
 483              	.LVL59:
  83:FT_Esd_Framework/Ft_Esd_Dl.h **** 	{
 484              		.loc 2 83 0
 485 0140 1A4B     		ldr	r3, .L15+8
 486 0142 1A78     		ldrb	r2, [r3]	@ zero_extendqisi2
 487 0144 1A4B     		ldr	r3, .L15+12
 488 0146 03EB0213 		add	r3, r3, r2, lsl #4
 489 014a 5B68     		ldr	r3, [r3, #4]
 490 014c 9A45     		cmp	r10, r3
 491 014e 0CD0     		beq	.L13
  86:FT_Esd_Framework/Ft_Esd_Dl.h **** #if FT_ESD_OPTIMIZE_DISPLAYLIST
 492              		.loc 2 86 0
 493 0150 4AF08061 		orr	r1, r10, #67108864
 494 0154 134B     		ldr	r3, .L15
 495 0156 1868     		ldr	r0, [r3]
 496 0158 FFF7FEFF 		bl	Ft_Gpu_Hal_WrCmd32
 497              	.LVL60:
  88:FT_Esd_Framework/Ft_Esd_Dl.h **** 	}
 498              		.loc 2 88 0
 499 015c 134B     		ldr	r3, .L15+8
 500 015e 1A78     		ldrb	r2, [r3]	@ zero_extendqisi2
 501 0160 134B     		ldr	r3, .L15+12
 502 0162 03EB0213 		add	r3, r3, r2, lsl #4
 503 0166 C3F804A0 		str	r10, [r3, #4]
 504              	.L13:
 505              	.LVL61:
 506              	.LBE33:
 507              	.LBE32:
  78:FT_Esd_Widgets/Ft_Esd_Elements.c **** 	Ft_Esd_Dl_COLOR_RGB(color);
  79:FT_Esd_Widgets/Ft_Esd_Elements.c **** 	Ft_Gpu_Hal_WrCmd32(phost, VERTEX2F2(x0 - 3, y0 - 3));
 508              		.loc 1 79 0
 509 016a E91C     		adds	r1, r5, #3
 510 016c 124D     		ldr	r5, .L15+20
 511              	.LVL62:
 512 016e 05EAC131 		and	r1, r5, r1, lsl #15
 513              	.LVL63:
 514 0172 08F10308 		add	r8, r8, #3
 515              	.LVL64:
 516 0176 C8F30E08 		ubfx	r8, r8, #0, #15
 517              	.LVL65:
ARM GAS  /var/folders/n8/cvzdcwlj0vl4g_wtyz1ffy300000gn/T//ccfFCWei.s 			page 15


 518 017a 41EA0801 		orr	r1, r1, r8
 519 017e 41F08041 		orr	r1, r1, #1073741824
 520 0182 3046     		mov	r0, r6
 521 0184 FFF7FEFF 		bl	Ft_Gpu_Hal_WrCmd32
 522              	.LVL66:
  80:FT_Esd_Widgets/Ft_Esd_Elements.c **** 	Ft_Gpu_Hal_WrCmd32(phost, VERTEX2F2(x1 + 3, y1 + 3));
 523              		.loc 1 80 0
 524 0188 0337     		adds	r7, r7, #3
 525              	.LVL67:
 526 018a 05EAC735 		and	r5, r5, r7, lsl #15
 527 018e 0334     		adds	r4, r4, #3
 528              	.LVL68:
 529 0190 C4F30E04 		ubfx	r4, r4, #0, #15
 530              	.LVL69:
 531 0194 2C43     		orrs	r4, r4, r5
 532 0196 44F08041 		orr	r1, r4, #1073741824
 533 019a 3046     		mov	r0, r6
 534 019c FFF7FEFF 		bl	Ft_Gpu_Hal_WrCmd32
 535              	.LVL70:
  81:FT_Esd_Widgets/Ft_Esd_Elements.c **** #if FT_ESD_DL_END
  82:FT_Esd_Widgets/Ft_Esd_Elements.c **** 	Ft_Gpu_Hal_WrCmd32(phost, END());
  83:FT_Esd_Widgets/Ft_Esd_Elements.c **** #endif
  84:FT_Esd_Widgets/Ft_Esd_Elements.c **** }
 536              		.loc 1 84 0
 537 01a0 BDE8F087 		pop	{r4, r5, r6, r7, r8, r9, r10, pc}
 538              	.LVL71:
 539              	.L16:
 540              		.align	2
 541              	.L15:
 542 01a4 00000000 		.word	Ft_Esd_Host
 543 01a8 0900001F 		.word	520093705
 544 01ac 00000000 		.word	Ft_Esd_GpuState_I
 545 01b0 00000000 		.word	Ft_Esd_GpuState
 546 01b4 02000027 		.word	654311426
 547 01b8 0080FF3F 		.word	1073709056
 548              		.cfi_endproc
 549              	.LFE28:
 551              		.section	.text.Ft_Esd_Elements_CircleSunken,"ax",%progbits
 552              		.align	1
 553              		.global	Ft_Esd_Elements_CircleSunken
 554              		.syntax unified
 555              		.thumb
 556              		.thumb_func
 557              		.fpu fpv5-sp-d16
 559              	Ft_Esd_Elements_CircleSunken:
 560              	.LFB29:
  85:FT_Esd_Widgets/Ft_Esd_Elements.c **** 
  86:FT_Esd_Widgets/Ft_Esd_Elements.c **** void Ft_Esd_Elements_CircleSunken(ft_rgb32_t color, ft_int16_t x, ft_int16_t y, ft_int16_t radius)
  87:FT_Esd_Widgets/Ft_Esd_Elements.c **** {
 561              		.loc 1 87 0
 562              		.cfi_startproc
 563              		@ args = 0, pretend = 0, frame = 0
 564              		@ frame_needed = 0, uses_anonymous_args = 0
 565              	.LVL72:
 566 0000 2DE9F041 		push	{r4, r5, r6, r7, r8, lr}
 567              	.LCFI2:
 568              		.cfi_def_cfa_offset 24
ARM GAS  /var/folders/n8/cvzdcwlj0vl4g_wtyz1ffy300000gn/T//ccfFCWei.s 			page 16


 569              		.cfi_offset 4, -24
 570              		.cfi_offset 5, -20
 571              		.cfi_offset 6, -16
 572              		.cfi_offset 7, -12
 573              		.cfi_offset 8, -8
 574              		.cfi_offset 14, -4
 575 0004 0746     		mov	r7, r0
  88:FT_Esd_Widgets/Ft_Esd_Elements.c **** 	Ft_Gpu_Hal_Context_t *phost = Ft_Esd_Host;
 576              		.loc 1 88 0
 577 0006 4748     		ldr	r0, .L23
 578              	.LVL73:
 579 0008 0468     		ldr	r4, [r0]
 580              	.LVL74:
  89:FT_Esd_Widgets/Ft_Esd_Elements.c **** #if 0
  90:FT_Esd_Widgets/Ft_Esd_Elements.c **** 	// Abuse CMD_CLOCK
  91:FT_Esd_Widgets/Ft_Esd_Elements.c **** 	Ft_Gpu_CoCmd_BgColor(phost, color);
  92:FT_Esd_Widgets/Ft_Esd_Elements.c **** 	Ft_Gpu_CoCmd_Clock(phost, x, y, radius, OPT_NOTICKS | OPT_NOHANDS, 0, 0, 0, 0);
  93:FT_Esd_Widgets/Ft_Esd_Elements.c **** #else
  94:FT_Esd_Widgets/Ft_Esd_Elements.c **** 	ft_int32_t ps = ((ft_int32_t)radius << 4);
 581              		.loc 1 94 0
 582 000a 4FEA0318 		lsl	r8, r3, #4
 583              	.LVL75:
  95:FT_Esd_Widgets/Ft_Esd_Elements.c **** 	ft_int32_t x2 = ((ft_int32_t)x << 2);
 584              		.loc 1 95 0
 585 000e 8E00     		lsls	r6, r1, #2
 586              	.LVL76:
  96:FT_Esd_Widgets/Ft_Esd_Elements.c **** 	ft_int32_t y2 = ((ft_int32_t)y << 2);
 587              		.loc 1 96 0
 588 0010 9500     		lsls	r5, r2, #2
 589              	.LVL77:
  97:FT_Esd_Widgets/Ft_Esd_Elements.c **** 	Ft_Gpu_Hal_WrCmd32(phost, BEGIN(FTPOINTS));
 590              		.loc 1 97 0
 591 0012 4549     		ldr	r1, .L23+4
 592              	.LVL78:
 593 0014 2046     		mov	r0, r4
 594 0016 FFF7FEFF 		bl	Ft_Gpu_Hal_WrCmd32
 595              	.LVL79:
 596              	.LBB42:
 597              	.LBB43:
 178:FT_Esd_Framework/Ft_Esd_Dl.h **** 	{
 598              		.loc 2 178 0
 599 001a 444B     		ldr	r3, .L23+8
 600 001c 1A78     		ldrb	r2, [r3]	@ zero_extendqisi2
 601 001e 444B     		ldr	r3, .L23+12
 602 0020 03EB0213 		add	r3, r3, r2, lsl #4
 603 0024 1B7B     		ldrb	r3, [r3, #12]	@ zero_extendqisi2
 604 0026 022B     		cmp	r3, #2
 605 0028 0BD0     		beq	.L18
 181:FT_Esd_Framework/Ft_Esd_Dl.h **** #if FT_ESD_OPTIMIZE_DISPLAYLIST
 606              		.loc 2 181 0
 607 002a 4249     		ldr	r1, .L23+16
 608 002c 3D4B     		ldr	r3, .L23
 609 002e 1868     		ldr	r0, [r3]
 610 0030 FFF7FEFF 		bl	Ft_Gpu_Hal_WrCmd32
 611              	.LVL80:
 612              		.loc 2 183 0
 613 0034 3D4B     		ldr	r3, .L23+8
ARM GAS  /var/folders/n8/cvzdcwlj0vl4g_wtyz1ffy300000gn/T//ccfFCWei.s 			page 17


 614 0036 1A78     		ldrb	r2, [r3]	@ zero_extendqisi2
 615 0038 3D4B     		ldr	r3, .L23+12
 616 003a 03EB0213 		add	r3, r3, r2, lsl #4
 617 003e 0222     		movs	r2, #2
 618 0040 1A73     		strb	r2, [r3, #12]
 619              	.L18:
 620              	.LVL81:
 621              	.LBE43:
 622              	.LBE42:
  98:FT_Esd_Widgets/Ft_Esd_Elements.c **** #	ifdef FT_81X_ENABLE
  99:FT_Esd_Widgets/Ft_Esd_Elements.c **** 	Ft_Esd_Dl_VERTEX_FORMAT(2);
 100:FT_Esd_Widgets/Ft_Esd_Elements.c **** #	endif
 101:FT_Esd_Widgets/Ft_Esd_Elements.c **** 	Ft_Gpu_Hal_WrCmd32(phost, POINT_SIZE(ps));
 623              		.loc 1 101 0
 624 0042 C8F30C01 		ubfx	r1, r8, #0, #13
 625 0046 41F05061 		orr	r1, r1, #218103808
 626 004a 2046     		mov	r0, r4
 627 004c FFF7FEFF 		bl	Ft_Gpu_Hal_WrCmd32
 628              	.LVL82:
 629              	.LBB44:
 630              	.LBB45:
  83:FT_Esd_Framework/Ft_Esd_Dl.h **** 	{
 631              		.loc 2 83 0
 632 0050 364B     		ldr	r3, .L23+8
 633 0052 1A78     		ldrb	r2, [r3]	@ zero_extendqisi2
 634 0054 364B     		ldr	r3, .L23+12
 635 0056 03EB0213 		add	r3, r3, r2, lsl #4
 636 005a 5A68     		ldr	r2, [r3, #4]
 637 005c 6FF07F43 		mvn	r3, #-16777216
 638 0060 9A42     		cmp	r2, r3
 639 0062 0DD0     		beq	.L19
  86:FT_Esd_Framework/Ft_Esd_Dl.h **** #if FT_ESD_OPTIMIZE_DISPLAYLIST
 640              		.loc 2 86 0
 641 0064 6FF07B41 		mvn	r1, #-83886080
 642 0068 2E4B     		ldr	r3, .L23
 643 006a 1868     		ldr	r0, [r3]
 644 006c FFF7FEFF 		bl	Ft_Gpu_Hal_WrCmd32
 645              	.LVL83:
  88:FT_Esd_Framework/Ft_Esd_Dl.h **** 	}
 646              		.loc 2 88 0
 647 0070 2E4B     		ldr	r3, .L23+8
 648 0072 1A78     		ldrb	r2, [r3]	@ zero_extendqisi2
 649 0074 2E4B     		ldr	r3, .L23+12
 650 0076 03EB0213 		add	r3, r3, r2, lsl #4
 651 007a 6FF07F42 		mvn	r2, #-16777216
 652 007e 5A60     		str	r2, [r3, #4]
 653              	.L19:
 654              	.LVL84:
 655              	.LBE45:
 656              	.LBE44:
 102:FT_Esd_Widgets/Ft_Esd_Elements.c **** 	Ft_Esd_Dl_COLOR_RGB(0xFFFFFF);
 103:FT_Esd_Widgets/Ft_Esd_Elements.c **** 	Ft_Gpu_Hal_WrCmd32(phost, VERTEX2F2(x2 + 2, y2 + 2));
 657              		.loc 1 103 0
 658 0080 B11C     		adds	r1, r6, #2
 659 0082 2D4B     		ldr	r3, .L23+20
 660 0084 03EAC131 		and	r1, r3, r1, lsl #15
 661 0088 AB1C     		adds	r3, r5, #2
ARM GAS  /var/folders/n8/cvzdcwlj0vl4g_wtyz1ffy300000gn/T//ccfFCWei.s 			page 18


 662 008a C3F30E03 		ubfx	r3, r3, #0, #15
 663 008e 1943     		orrs	r1, r1, r3
 664 0090 41F08041 		orr	r1, r1, #1073741824
 665 0094 2046     		mov	r0, r4
 666 0096 FFF7FEFF 		bl	Ft_Gpu_Hal_WrCmd32
 667              	.LVL85:
 668              	.LBB46:
 669              	.LBB47:
  83:FT_Esd_Framework/Ft_Esd_Dl.h **** 	{
 670              		.loc 2 83 0
 671 009a 244B     		ldr	r3, .L23+8
 672 009c 1A78     		ldrb	r2, [r3]	@ zero_extendqisi2
 673 009e 244B     		ldr	r3, .L23+12
 674 00a0 03EB0213 		add	r3, r3, r2, lsl #4
 675 00a4 5B68     		ldr	r3, [r3, #4]
 676 00a6 63B1     		cbz	r3, .L20
  86:FT_Esd_Framework/Ft_Esd_Dl.h **** #if FT_ESD_OPTIMIZE_DISPLAYLIST
 677              		.loc 2 86 0
 678 00a8 4FF08061 		mov	r1, #67108864
 679 00ac 1D4B     		ldr	r3, .L23
 680 00ae 1868     		ldr	r0, [r3]
 681 00b0 FFF7FEFF 		bl	Ft_Gpu_Hal_WrCmd32
 682              	.LVL86:
  88:FT_Esd_Framework/Ft_Esd_Dl.h **** 	}
 683              		.loc 2 88 0
 684 00b4 1D4B     		ldr	r3, .L23+8
 685 00b6 1A78     		ldrb	r2, [r3]	@ zero_extendqisi2
 686 00b8 1D4B     		ldr	r3, .L23+12
 687 00ba 03EB0213 		add	r3, r3, r2, lsl #4
 688 00be 0022     		movs	r2, #0
 689 00c0 5A60     		str	r2, [r3, #4]
 690              	.L20:
 691              	.LVL87:
 692              	.LBE47:
 693              	.LBE46:
 104:FT_Esd_Widgets/Ft_Esd_Elements.c **** 	Ft_Esd_Dl_COLOR_RGB(0x000000);
 105:FT_Esd_Widgets/Ft_Esd_Elements.c **** 	Ft_Gpu_Hal_WrCmd32(phost, VERTEX2F2(x2 - 3, y2 - 3));
 694              		.loc 1 105 0
 695 00c2 F11E     		subs	r1, r6, #3
 696 00c4 1C4B     		ldr	r3, .L23+20
 697 00c6 03EAC131 		and	r1, r3, r1, lsl #15
 698 00ca EB1E     		subs	r3, r5, #3
 699 00cc C3F30E03 		ubfx	r3, r3, #0, #15
 700 00d0 1943     		orrs	r1, r1, r3
 701 00d2 41F08041 		orr	r1, r1, #1073741824
 702 00d6 2046     		mov	r0, r4
 703 00d8 FFF7FEFF 		bl	Ft_Gpu_Hal_WrCmd32
 704              	.LVL88:
 705              	.LBB48:
 706              	.LBB49:
  82:FT_Esd_Framework/Ft_Esd_Dl.h **** 	if (rgb != FT_ESD_STATE.ColorRGB)
 707              		.loc 2 82 0
 708 00dc 27F07F47 		bic	r7, r7, #-16777216
 709              	.LVL89:
  83:FT_Esd_Framework/Ft_Esd_Dl.h **** 	{
 710              		.loc 2 83 0
 711 00e0 124B     		ldr	r3, .L23+8
ARM GAS  /var/folders/n8/cvzdcwlj0vl4g_wtyz1ffy300000gn/T//ccfFCWei.s 			page 19


 712 00e2 1A78     		ldrb	r2, [r3]	@ zero_extendqisi2
 713 00e4 124B     		ldr	r3, .L23+12
 714 00e6 03EB0213 		add	r3, r3, r2, lsl #4
 715 00ea 5B68     		ldr	r3, [r3, #4]
 716 00ec 9F42     		cmp	r7, r3
 717 00ee 0BD0     		beq	.L21
  86:FT_Esd_Framework/Ft_Esd_Dl.h **** #if FT_ESD_OPTIMIZE_DISPLAYLIST
 718              		.loc 2 86 0
 719 00f0 47F08061 		orr	r1, r7, #67108864
 720 00f4 0B4B     		ldr	r3, .L23
 721 00f6 1868     		ldr	r0, [r3]
 722 00f8 FFF7FEFF 		bl	Ft_Gpu_Hal_WrCmd32
 723              	.LVL90:
  88:FT_Esd_Framework/Ft_Esd_Dl.h **** 	}
 724              		.loc 2 88 0
 725 00fc 0B4B     		ldr	r3, .L23+8
 726 00fe 1A78     		ldrb	r2, [r3]	@ zero_extendqisi2
 727 0100 0B4B     		ldr	r3, .L23+12
 728 0102 03EB0213 		add	r3, r3, r2, lsl #4
 729 0106 5F60     		str	r7, [r3, #4]
 730              	.L21:
 731              	.LVL91:
 732              	.LBE49:
 733              	.LBE48:
 106:FT_Esd_Widgets/Ft_Esd_Elements.c **** 	Ft_Esd_Dl_COLOR_RGB(color);
 107:FT_Esd_Widgets/Ft_Esd_Elements.c **** 	Ft_Gpu_Hal_WrCmd32(phost, VERTEX2F2(x2, y2));
 734              		.loc 1 107 0
 735 0108 0B49     		ldr	r1, .L23+20
 736 010a 01EAC631 		and	r1, r1, r6, lsl #15
 737 010e C5F30E05 		ubfx	r5, r5, #0, #15
 738              	.LVL92:
 739 0112 2943     		orrs	r1, r1, r5
 740 0114 41F08041 		orr	r1, r1, #1073741824
 741 0118 2046     		mov	r0, r4
 742 011a FFF7FEFF 		bl	Ft_Gpu_Hal_WrCmd32
 743              	.LVL93:
 108:FT_Esd_Widgets/Ft_Esd_Elements.c **** #	if FT_ESD_DL_END
 109:FT_Esd_Widgets/Ft_Esd_Elements.c **** 	Ft_Gpu_Hal_WrCmd32(phost, END());
 110:FT_Esd_Widgets/Ft_Esd_Elements.c **** #	endif
 111:FT_Esd_Widgets/Ft_Esd_Elements.c **** #endif
 112:FT_Esd_Widgets/Ft_Esd_Elements.c **** }
 744              		.loc 1 112 0
 745 011e BDE8F081 		pop	{r4, r5, r6, r7, r8, pc}
 746              	.LVL94:
 747              	.L24:
 748 0122 00BF     		.align	2
 749              	.L23:
 750 0124 00000000 		.word	Ft_Esd_Host
 751 0128 0200001F 		.word	520093698
 752 012c 00000000 		.word	Ft_Esd_GpuState_I
 753 0130 00000000 		.word	Ft_Esd_GpuState
 754 0134 02000027 		.word	654311426
 755 0138 0080FF3F 		.word	1073709056
 756              		.cfi_endproc
 757              	.LFE29:
 759              		.section	.text.Ft_Esd_Elements_CircleRaised,"ax",%progbits
 760              		.align	1
ARM GAS  /var/folders/n8/cvzdcwlj0vl4g_wtyz1ffy300000gn/T//ccfFCWei.s 			page 20


 761              		.global	Ft_Esd_Elements_CircleRaised
 762              		.syntax unified
 763              		.thumb
 764              		.thumb_func
 765              		.fpu fpv5-sp-d16
 767              	Ft_Esd_Elements_CircleRaised:
 768              	.LFB30:
 113:FT_Esd_Widgets/Ft_Esd_Elements.c **** 
 114:FT_Esd_Widgets/Ft_Esd_Elements.c **** void Ft_Esd_Elements_CircleRaised(ft_rgb32_t color, ft_int16_t x, ft_int16_t y, ft_int16_t radius)
 115:FT_Esd_Widgets/Ft_Esd_Elements.c **** {
 769              		.loc 1 115 0
 770              		.cfi_startproc
 771              		@ args = 0, pretend = 0, frame = 0
 772              		@ frame_needed = 0, uses_anonymous_args = 0
 773              	.LVL95:
 774 0000 2DE9F041 		push	{r4, r5, r6, r7, r8, lr}
 775              	.LCFI3:
 776              		.cfi_def_cfa_offset 24
 777              		.cfi_offset 4, -24
 778              		.cfi_offset 5, -20
 779              		.cfi_offset 6, -16
 780              		.cfi_offset 7, -12
 781              		.cfi_offset 8, -8
 782              		.cfi_offset 14, -4
 783 0004 0746     		mov	r7, r0
 116:FT_Esd_Widgets/Ft_Esd_Elements.c **** 	Ft_Gpu_Hal_Context_t *phost = Ft_Esd_Host;
 784              		.loc 1 116 0
 785 0006 4748     		ldr	r0, .L31
 786              	.LVL96:
 787 0008 0468     		ldr	r4, [r0]
 788              	.LVL97:
 117:FT_Esd_Widgets/Ft_Esd_Elements.c **** 	ft_int32_t ps = ((ft_int32_t)radius << 4);
 789              		.loc 1 117 0
 790 000a 4FEA0318 		lsl	r8, r3, #4
 791              	.LVL98:
 118:FT_Esd_Widgets/Ft_Esd_Elements.c **** 	ft_int32_t x2 = ((ft_int32_t)x << 2);
 792              		.loc 1 118 0
 793 000e 8E00     		lsls	r6, r1, #2
 794              	.LVL99:
 119:FT_Esd_Widgets/Ft_Esd_Elements.c **** 	ft_int32_t y2 = ((ft_int32_t)y << 2);
 795              		.loc 1 119 0
 796 0010 9500     		lsls	r5, r2, #2
 797              	.LVL100:
 120:FT_Esd_Widgets/Ft_Esd_Elements.c **** 	Ft_Gpu_Hal_WrCmd32(phost, BEGIN(FTPOINTS));
 798              		.loc 1 120 0
 799 0012 4549     		ldr	r1, .L31+4
 800              	.LVL101:
 801 0014 2046     		mov	r0, r4
 802 0016 FFF7FEFF 		bl	Ft_Gpu_Hal_WrCmd32
 803              	.LVL102:
 804              	.LBB58:
 805              	.LBB59:
 178:FT_Esd_Framework/Ft_Esd_Dl.h **** 	{
 806              		.loc 2 178 0
 807 001a 444B     		ldr	r3, .L31+8
 808 001c 1A78     		ldrb	r2, [r3]	@ zero_extendqisi2
 809 001e 444B     		ldr	r3, .L31+12
ARM GAS  /var/folders/n8/cvzdcwlj0vl4g_wtyz1ffy300000gn/T//ccfFCWei.s 			page 21


 810 0020 03EB0213 		add	r3, r3, r2, lsl #4
 811 0024 1B7B     		ldrb	r3, [r3, #12]	@ zero_extendqisi2
 812 0026 022B     		cmp	r3, #2
 813 0028 0BD0     		beq	.L26
 181:FT_Esd_Framework/Ft_Esd_Dl.h **** #if FT_ESD_OPTIMIZE_DISPLAYLIST
 814              		.loc 2 181 0
 815 002a 4249     		ldr	r1, .L31+16
 816 002c 3D4B     		ldr	r3, .L31
 817 002e 1868     		ldr	r0, [r3]
 818 0030 FFF7FEFF 		bl	Ft_Gpu_Hal_WrCmd32
 819              	.LVL103:
 820              		.loc 2 183 0
 821 0034 3D4B     		ldr	r3, .L31+8
 822 0036 1A78     		ldrb	r2, [r3]	@ zero_extendqisi2
 823 0038 3D4B     		ldr	r3, .L31+12
 824 003a 03EB0213 		add	r3, r3, r2, lsl #4
 825 003e 0222     		movs	r2, #2
 826 0040 1A73     		strb	r2, [r3, #12]
 827              	.L26:
 828              	.LVL104:
 829              	.LBE59:
 830              	.LBE58:
 121:FT_Esd_Widgets/Ft_Esd_Elements.c **** #ifdef FT_81X_ENABLE
 122:FT_Esd_Widgets/Ft_Esd_Elements.c **** 	Ft_Esd_Dl_VERTEX_FORMAT(2);
 123:FT_Esd_Widgets/Ft_Esd_Elements.c **** #endif
 124:FT_Esd_Widgets/Ft_Esd_Elements.c **** 	Ft_Gpu_Hal_WrCmd32(phost, POINT_SIZE(ps));
 831              		.loc 1 124 0
 832 0042 C8F30C01 		ubfx	r1, r8, #0, #13
 833 0046 41F05061 		orr	r1, r1, #218103808
 834 004a 2046     		mov	r0, r4
 835 004c FFF7FEFF 		bl	Ft_Gpu_Hal_WrCmd32
 836              	.LVL105:
 837              	.LBB60:
 838              	.LBB61:
  83:FT_Esd_Framework/Ft_Esd_Dl.h **** 	{
 839              		.loc 2 83 0
 840 0050 364B     		ldr	r3, .L31+8
 841 0052 1A78     		ldrb	r2, [r3]	@ zero_extendqisi2
 842 0054 364B     		ldr	r3, .L31+12
 843 0056 03EB0213 		add	r3, r3, r2, lsl #4
 844 005a 5B68     		ldr	r3, [r3, #4]
 845 005c 63B1     		cbz	r3, .L27
  86:FT_Esd_Framework/Ft_Esd_Dl.h **** #if FT_ESD_OPTIMIZE_DISPLAYLIST
 846              		.loc 2 86 0
 847 005e 4FF08061 		mov	r1, #67108864
 848 0062 304B     		ldr	r3, .L31
 849 0064 1868     		ldr	r0, [r3]
 850 0066 FFF7FEFF 		bl	Ft_Gpu_Hal_WrCmd32
 851              	.LVL106:
  88:FT_Esd_Framework/Ft_Esd_Dl.h **** 	}
 852              		.loc 2 88 0
 853 006a 304B     		ldr	r3, .L31+8
 854 006c 1A78     		ldrb	r2, [r3]	@ zero_extendqisi2
 855 006e 304B     		ldr	r3, .L31+12
 856 0070 03EB0213 		add	r3, r3, r2, lsl #4
 857 0074 0022     		movs	r2, #0
 858 0076 5A60     		str	r2, [r3, #4]
ARM GAS  /var/folders/n8/cvzdcwlj0vl4g_wtyz1ffy300000gn/T//ccfFCWei.s 			page 22


 859              	.L27:
 860              	.LVL107:
 861              	.LBE61:
 862              	.LBE60:
 125:FT_Esd_Widgets/Ft_Esd_Elements.c **** 	Ft_Esd_Dl_COLOR_RGB(0x000000);
 126:FT_Esd_Widgets/Ft_Esd_Elements.c **** 	Ft_Gpu_Hal_WrCmd32(phost, VERTEX2F2(x2 + 4, y2 + 4));
 863              		.loc 1 126 0
 864 0078 311D     		adds	r1, r6, #4
 865 007a 2F4B     		ldr	r3, .L31+20
 866 007c 03EAC131 		and	r1, r3, r1, lsl #15
 867 0080 2B1D     		adds	r3, r5, #4
 868 0082 C3F30E03 		ubfx	r3, r3, #0, #15
 869 0086 1943     		orrs	r1, r1, r3
 870 0088 41F08041 		orr	r1, r1, #1073741824
 871 008c 2046     		mov	r0, r4
 872 008e FFF7FEFF 		bl	Ft_Gpu_Hal_WrCmd32
 873              	.LVL108:
 874              	.LBB62:
 875              	.LBB63:
  83:FT_Esd_Framework/Ft_Esd_Dl.h **** 	{
 876              		.loc 2 83 0
 877 0092 264B     		ldr	r3, .L31+8
 878 0094 1A78     		ldrb	r2, [r3]	@ zero_extendqisi2
 879 0096 264B     		ldr	r3, .L31+12
 880 0098 03EB0213 		add	r3, r3, r2, lsl #4
 881 009c 5A68     		ldr	r2, [r3, #4]
 882 009e 6FF07F43 		mvn	r3, #-16777216
 883 00a2 9A42     		cmp	r2, r3
 884 00a4 0DD0     		beq	.L28
  86:FT_Esd_Framework/Ft_Esd_Dl.h **** #if FT_ESD_OPTIMIZE_DISPLAYLIST
 885              		.loc 2 86 0
 886 00a6 6FF07B41 		mvn	r1, #-83886080
 887 00aa 1E4B     		ldr	r3, .L31
 888 00ac 1868     		ldr	r0, [r3]
 889 00ae FFF7FEFF 		bl	Ft_Gpu_Hal_WrCmd32
 890              	.LVL109:
  88:FT_Esd_Framework/Ft_Esd_Dl.h **** 	}
 891              		.loc 2 88 0
 892 00b2 1E4B     		ldr	r3, .L31+8
 893 00b4 1A78     		ldrb	r2, [r3]	@ zero_extendqisi2
 894 00b6 1E4B     		ldr	r3, .L31+12
 895 00b8 03EB0213 		add	r3, r3, r2, lsl #4
 896 00bc 6FF07F42 		mvn	r2, #-16777216
 897 00c0 5A60     		str	r2, [r3, #4]
 898              	.L28:
 899              	.LVL110:
 900              	.LBE63:
 901              	.LBE62:
 127:FT_Esd_Widgets/Ft_Esd_Elements.c **** 	Ft_Esd_Dl_COLOR_RGB(0xFFFFFF);
 128:FT_Esd_Widgets/Ft_Esd_Elements.c **** 	Ft_Gpu_Hal_WrCmd32(phost, VERTEX2F2(x2 - 2, y2 - 2));
 902              		.loc 1 128 0
 903 00c2 B11E     		subs	r1, r6, #2
 904 00c4 1C4B     		ldr	r3, .L31+20
 905 00c6 03EAC131 		and	r1, r3, r1, lsl #15
 906 00ca AB1E     		subs	r3, r5, #2
 907 00cc C3F30E03 		ubfx	r3, r3, #0, #15
 908 00d0 1943     		orrs	r1, r1, r3
ARM GAS  /var/folders/n8/cvzdcwlj0vl4g_wtyz1ffy300000gn/T//ccfFCWei.s 			page 23


 909 00d2 41F08041 		orr	r1, r1, #1073741824
 910 00d6 2046     		mov	r0, r4
 911 00d8 FFF7FEFF 		bl	Ft_Gpu_Hal_WrCmd32
 912              	.LVL111:
 913              	.LBB64:
 914              	.LBB65:
  82:FT_Esd_Framework/Ft_Esd_Dl.h **** 	if (rgb != FT_ESD_STATE.ColorRGB)
 915              		.loc 2 82 0
 916 00dc 27F07F47 		bic	r7, r7, #-16777216
 917              	.LVL112:
  83:FT_Esd_Framework/Ft_Esd_Dl.h **** 	{
 918              		.loc 2 83 0
 919 00e0 124B     		ldr	r3, .L31+8
 920 00e2 1A78     		ldrb	r2, [r3]	@ zero_extendqisi2
 921 00e4 124B     		ldr	r3, .L31+12
 922 00e6 03EB0213 		add	r3, r3, r2, lsl #4
 923 00ea 5B68     		ldr	r3, [r3, #4]
 924 00ec 9F42     		cmp	r7, r3
 925 00ee 0BD0     		beq	.L29
  86:FT_Esd_Framework/Ft_Esd_Dl.h **** #if FT_ESD_OPTIMIZE_DISPLAYLIST
 926              		.loc 2 86 0
 927 00f0 47F08061 		orr	r1, r7, #67108864
 928 00f4 0B4B     		ldr	r3, .L31
 929 00f6 1868     		ldr	r0, [r3]
 930 00f8 FFF7FEFF 		bl	Ft_Gpu_Hal_WrCmd32
 931              	.LVL113:
  88:FT_Esd_Framework/Ft_Esd_Dl.h **** 	}
 932              		.loc 2 88 0
 933 00fc 0B4B     		ldr	r3, .L31+8
 934 00fe 1A78     		ldrb	r2, [r3]	@ zero_extendqisi2
 935 0100 0B4B     		ldr	r3, .L31+12
 936 0102 03EB0213 		add	r3, r3, r2, lsl #4
 937 0106 5F60     		str	r7, [r3, #4]
 938              	.L29:
 939              	.LVL114:
 940              	.LBE65:
 941              	.LBE64:
 129:FT_Esd_Widgets/Ft_Esd_Elements.c **** 	Ft_Esd_Dl_COLOR_RGB(color);
 130:FT_Esd_Widgets/Ft_Esd_Elements.c **** 	Ft_Gpu_Hal_WrCmd32(phost, VERTEX2F2(x2, y2));
 942              		.loc 1 130 0
 943 0108 0B49     		ldr	r1, .L31+20
 944 010a 01EAC631 		and	r1, r1, r6, lsl #15
 945 010e C5F30E05 		ubfx	r5, r5, #0, #15
 946              	.LVL115:
 947 0112 2943     		orrs	r1, r1, r5
 948 0114 41F08041 		orr	r1, r1, #1073741824
 949 0118 2046     		mov	r0, r4
 950 011a FFF7FEFF 		bl	Ft_Gpu_Hal_WrCmd32
 951              	.LVL116:
 131:FT_Esd_Widgets/Ft_Esd_Elements.c **** #if FT_ESD_DL_END
 132:FT_Esd_Widgets/Ft_Esd_Elements.c **** 	Ft_Gpu_Hal_WrCmd32(phost, END());
 133:FT_Esd_Widgets/Ft_Esd_Elements.c **** #endif
 134:FT_Esd_Widgets/Ft_Esd_Elements.c **** }
 952              		.loc 1 134 0
 953 011e BDE8F081 		pop	{r4, r5, r6, r7, r8, pc}
 954              	.LVL117:
 955              	.L32:
ARM GAS  /var/folders/n8/cvzdcwlj0vl4g_wtyz1ffy300000gn/T//ccfFCWei.s 			page 24


 956 0122 00BF     		.align	2
 957              	.L31:
 958 0124 00000000 		.word	Ft_Esd_Host
 959 0128 0200001F 		.word	520093698
 960 012c 00000000 		.word	Ft_Esd_GpuState_I
 961 0130 00000000 		.word	Ft_Esd_GpuState
 962 0134 02000027 		.word	654311426
 963 0138 0080FF3F 		.word	1073709056
 964              		.cfi_endproc
 965              	.LFE30:
 967              		.section	.text.Ft_Esd_Elements_CircleFlat,"ax",%progbits
 968              		.align	1
 969              		.global	Ft_Esd_Elements_CircleFlat
 970              		.syntax unified
 971              		.thumb
 972              		.thumb_func
 973              		.fpu fpv5-sp-d16
 975              	Ft_Esd_Elements_CircleFlat:
 976              	.LFB31:
 135:FT_Esd_Widgets/Ft_Esd_Elements.c **** 
 136:FT_Esd_Widgets/Ft_Esd_Elements.c **** void Ft_Esd_Elements_CircleFlat(ft_rgb32_t color, ft_int16_t x, ft_int16_t y, ft_int16_t radius)
 137:FT_Esd_Widgets/Ft_Esd_Elements.c **** {
 977              		.loc 1 137 0
 978              		.cfi_startproc
 979              		@ args = 0, pretend = 0, frame = 0
 980              		@ frame_needed = 0, uses_anonymous_args = 0
 981              	.LVL118:
 982 0000 2DE9F041 		push	{r4, r5, r6, r7, r8, lr}
 983              	.LCFI4:
 984              		.cfi_def_cfa_offset 24
 985              		.cfi_offset 4, -24
 986              		.cfi_offset 5, -20
 987              		.cfi_offset 6, -16
 988              		.cfi_offset 7, -12
 989              		.cfi_offset 8, -8
 990              		.cfi_offset 14, -4
 991 0004 8046     		mov	r8, r0
 138:FT_Esd_Widgets/Ft_Esd_Elements.c **** 	Ft_Gpu_Hal_Context_t *phost = Ft_Esd_Host;
 992              		.loc 1 138 0
 993 0006 2348     		ldr	r0, .L37
 994              	.LVL119:
 995 0008 0468     		ldr	r4, [r0]
 996              	.LVL120:
 139:FT_Esd_Widgets/Ft_Esd_Elements.c **** 	ft_int32_t ps = ((ft_int32_t)radius << 4);
 997              		.loc 1 139 0
 998 000a 1E01     		lsls	r6, r3, #4
 999              	.LVL121:
 140:FT_Esd_Widgets/Ft_Esd_Elements.c **** 	ft_int32_t x2 = ((ft_int32_t)x << 2);
 1000              		.loc 1 140 0
 1001 000c 8F00     		lsls	r7, r1, #2
 1002              	.LVL122:
 141:FT_Esd_Widgets/Ft_Esd_Elements.c **** 	ft_int32_t y2 = ((ft_int32_t)y << 2);
 1003              		.loc 1 141 0
 1004 000e 9500     		lsls	r5, r2, #2
 1005              	.LVL123:
 142:FT_Esd_Widgets/Ft_Esd_Elements.c **** 	Ft_Gpu_Hal_WrCmd32(phost, BEGIN(FTPOINTS));
 1006              		.loc 1 142 0
ARM GAS  /var/folders/n8/cvzdcwlj0vl4g_wtyz1ffy300000gn/T//ccfFCWei.s 			page 25


 1007 0010 2149     		ldr	r1, .L37+4
 1008              	.LVL124:
 1009 0012 2046     		mov	r0, r4
 1010 0014 FFF7FEFF 		bl	Ft_Gpu_Hal_WrCmd32
 1011              	.LVL125:
 1012              	.LBB70:
 1013              	.LBB71:
 178:FT_Esd_Framework/Ft_Esd_Dl.h **** 	{
 1014              		.loc 2 178 0
 1015 0018 204B     		ldr	r3, .L37+8
 1016 001a 1A78     		ldrb	r2, [r3]	@ zero_extendqisi2
 1017 001c 204B     		ldr	r3, .L37+12
 1018 001e 03EB0213 		add	r3, r3, r2, lsl #4
 1019 0022 1B7B     		ldrb	r3, [r3, #12]	@ zero_extendqisi2
 1020 0024 022B     		cmp	r3, #2
 1021 0026 0BD0     		beq	.L34
 181:FT_Esd_Framework/Ft_Esd_Dl.h **** #if FT_ESD_OPTIMIZE_DISPLAYLIST
 1022              		.loc 2 181 0
 1023 0028 1E49     		ldr	r1, .L37+16
 1024 002a 1A4B     		ldr	r3, .L37
 1025 002c 1868     		ldr	r0, [r3]
 1026 002e FFF7FEFF 		bl	Ft_Gpu_Hal_WrCmd32
 1027              	.LVL126:
 1028              		.loc 2 183 0
 1029 0032 1A4B     		ldr	r3, .L37+8
 1030 0034 1A78     		ldrb	r2, [r3]	@ zero_extendqisi2
 1031 0036 1A4B     		ldr	r3, .L37+12
 1032 0038 03EB0213 		add	r3, r3, r2, lsl #4
 1033 003c 0222     		movs	r2, #2
 1034 003e 1A73     		strb	r2, [r3, #12]
 1035              	.L34:
 1036              	.LVL127:
 1037              	.LBE71:
 1038              	.LBE70:
 143:FT_Esd_Widgets/Ft_Esd_Elements.c **** #ifdef FT_81X_ENABLE
 144:FT_Esd_Widgets/Ft_Esd_Elements.c **** 	Ft_Esd_Dl_VERTEX_FORMAT(2);
 145:FT_Esd_Widgets/Ft_Esd_Elements.c **** #endif
 146:FT_Esd_Widgets/Ft_Esd_Elements.c **** 	Ft_Gpu_Hal_WrCmd32(phost, POINT_SIZE(ps));
 1039              		.loc 1 146 0
 1040 0040 C6F30C01 		ubfx	r1, r6, #0, #13
 1041 0044 41F05061 		orr	r1, r1, #218103808
 1042 0048 2046     		mov	r0, r4
 1043 004a FFF7FEFF 		bl	Ft_Gpu_Hal_WrCmd32
 1044              	.LVL128:
 1045              	.LBB72:
 1046              	.LBB73:
  82:FT_Esd_Framework/Ft_Esd_Dl.h **** 	if (rgb != FT_ESD_STATE.ColorRGB)
 1047              		.loc 2 82 0
 1048 004e 28F07F46 		bic	r6, r8, #-16777216
 1049              	.LVL129:
  83:FT_Esd_Framework/Ft_Esd_Dl.h **** 	{
 1050              		.loc 2 83 0
 1051 0052 124B     		ldr	r3, .L37+8
 1052 0054 1A78     		ldrb	r2, [r3]	@ zero_extendqisi2
 1053 0056 124B     		ldr	r3, .L37+12
 1054 0058 03EB0213 		add	r3, r3, r2, lsl #4
 1055 005c 5B68     		ldr	r3, [r3, #4]
ARM GAS  /var/folders/n8/cvzdcwlj0vl4g_wtyz1ffy300000gn/T//ccfFCWei.s 			page 26


 1056 005e 9E42     		cmp	r6, r3
 1057 0060 0BD0     		beq	.L35
  86:FT_Esd_Framework/Ft_Esd_Dl.h **** #if FT_ESD_OPTIMIZE_DISPLAYLIST
 1058              		.loc 2 86 0
 1059 0062 46F08061 		orr	r1, r6, #67108864
 1060 0066 0B4B     		ldr	r3, .L37
 1061 0068 1868     		ldr	r0, [r3]
 1062 006a FFF7FEFF 		bl	Ft_Gpu_Hal_WrCmd32
 1063              	.LVL130:
  88:FT_Esd_Framework/Ft_Esd_Dl.h **** 	}
 1064              		.loc 2 88 0
 1065 006e 0B4B     		ldr	r3, .L37+8
 1066 0070 1A78     		ldrb	r2, [r3]	@ zero_extendqisi2
 1067 0072 0B4B     		ldr	r3, .L37+12
 1068 0074 03EB0213 		add	r3, r3, r2, lsl #4
 1069 0078 5E60     		str	r6, [r3, #4]
 1070              	.L35:
 1071              	.LVL131:
 1072              	.LBE73:
 1073              	.LBE72:
 147:FT_Esd_Widgets/Ft_Esd_Elements.c **** 	Ft_Esd_Dl_COLOR_RGB(color);
 148:FT_Esd_Widgets/Ft_Esd_Elements.c **** 	Ft_Gpu_Hal_WrCmd32(phost, VERTEX2F2(x2, y2));
 1074              		.loc 1 148 0
 1075 007a 0B49     		ldr	r1, .L37+20
 1076 007c 01EAC731 		and	r1, r1, r7, lsl #15
 1077 0080 C5F30E05 		ubfx	r5, r5, #0, #15
 1078              	.LVL132:
 1079 0084 2943     		orrs	r1, r1, r5
 1080 0086 41F08041 		orr	r1, r1, #1073741824
 1081 008a 2046     		mov	r0, r4
 1082 008c FFF7FEFF 		bl	Ft_Gpu_Hal_WrCmd32
 1083              	.LVL133:
 149:FT_Esd_Widgets/Ft_Esd_Elements.c **** #if FT_ESD_DL_END
 150:FT_Esd_Widgets/Ft_Esd_Elements.c **** 	Ft_Gpu_Hal_WrCmd32(phost, END());
 151:FT_Esd_Widgets/Ft_Esd_Elements.c **** #endif
 152:FT_Esd_Widgets/Ft_Esd_Elements.c **** }
 1084              		.loc 1 152 0
 1085 0090 BDE8F081 		pop	{r4, r5, r6, r7, r8, pc}
 1086              	.LVL134:
 1087              	.L38:
 1088              		.align	2
 1089              	.L37:
 1090 0094 00000000 		.word	Ft_Esd_Host
 1091 0098 0200001F 		.word	520093698
 1092 009c 00000000 		.word	Ft_Esd_GpuState_I
 1093 00a0 00000000 		.word	Ft_Esd_GpuState
 1094 00a4 02000027 		.word	654311426
 1095 00a8 0080FF3F 		.word	1073709056
 1096              		.cfi_endproc
 1097              	.LFE31:
 1099              		.section	.text.Ft_Esd_Elements_Panel,"ax",%progbits
 1100              		.align	1
 1101              		.global	Ft_Esd_Elements_Panel
 1102              		.syntax unified
 1103              		.thumb
 1104              		.thumb_func
 1105              		.fpu fpv5-sp-d16
ARM GAS  /var/folders/n8/cvzdcwlj0vl4g_wtyz1ffy300000gn/T//ccfFCWei.s 			page 27


 1107              	Ft_Esd_Elements_Panel:
 1108              	.LFB32:
 153:FT_Esd_Widgets/Ft_Esd_Elements.c **** 
 154:FT_Esd_Widgets/Ft_Esd_Elements.c **** void Ft_Esd_Elements_Panel(Ft_Esd_Theme *theme, ft_int16_t x, ft_int16_t y, ft_int16_t width, ft_in
 155:FT_Esd_Widgets/Ft_Esd_Elements.c **** {
 1109              		.loc 1 155 0
 1110              		.cfi_startproc
 1111              		@ args = 12, pretend = 0, frame = 0
 1112              		@ frame_needed = 0, uses_anonymous_args = 0
 1113              	.LVL135:
 1114 0000 2DE9F043 		push	{r4, r5, r6, r7, r8, r9, lr}
 1115              	.LCFI5:
 1116              		.cfi_def_cfa_offset 28
 1117              		.cfi_offset 4, -28
 1118              		.cfi_offset 5, -24
 1119              		.cfi_offset 6, -20
 1120              		.cfi_offset 7, -16
 1121              		.cfi_offset 8, -12
 1122              		.cfi_offset 9, -8
 1123              		.cfi_offset 14, -4
 1124 0004 83B0     		sub	sp, sp, #12
 1125              	.LCFI6:
 1126              		.cfi_def_cfa_offset 40
 1127 0006 0C46     		mov	r4, r1
 1128 0008 1546     		mov	r5, r2
 1129 000a 1E46     		mov	r6, r3
 1130 000c BDF92870 		ldrsh	r7, [sp, #40]
 1131 0010 BDF92C80 		ldrsh	r8, [sp, #44]
 1132 0014 9DF83090 		ldrb	r9, [sp, #48]	@ zero_extendqisi2
 156:FT_Esd_Widgets/Ft_Esd_Elements.c **** 	if (!theme) theme = Ft_Esd_Theme_GetCurrent();
 1133              		.loc 1 156 0
 1134 0018 0346     		mov	r3, r0
 1135              	.LVL136:
 1136 001a 70B1     		cbz	r0, .L44
 1137              	.LVL137:
 1138              	.L40:
 157:FT_Esd_Widgets/Ft_Esd_Elements.c **** 	if (raised) Ft_Esd_Elements_PanelRaised(theme->DefaultColor, x, y, width, height, radius);
 1139              		.loc 1 157 0
 1140 001c B9F1000F 		cmp	r9, #0
 1141 0020 0FD1     		bne	.L45
 158:FT_Esd_Widgets/Ft_Esd_Elements.c **** 	else Ft_Esd_Elements_PanelSunken(theme->BackColor, x, y, width, height, radius);
 1142              		.loc 1 158 0
 1143 0022 5868     		ldr	r0, [r3, #4]
 1144              	.LVL138:
 1145 0024 CDF80480 		str	r8, [sp, #4]
 1146 0028 0097     		str	r7, [sp]
 1147 002a 3346     		mov	r3, r6
 1148              	.LVL139:
 1149 002c 2A46     		mov	r2, r5
 1150 002e 2146     		mov	r1, r4
 1151 0030 FFF7FEFF 		bl	Ft_Esd_Elements_PanelSunken
 1152              	.LVL140:
 1153              	.L39:
 159:FT_Esd_Widgets/Ft_Esd_Elements.c **** }
 1154              		.loc 1 159 0
 1155 0034 03B0     		add	sp, sp, #12
 1156              	.LCFI7:
ARM GAS  /var/folders/n8/cvzdcwlj0vl4g_wtyz1ffy300000gn/T//ccfFCWei.s 			page 28


 1157              		.cfi_remember_state
 1158              		.cfi_def_cfa_offset 28
 1159              		@ sp needed
 1160 0036 BDE8F083 		pop	{r4, r5, r6, r7, r8, r9, pc}
 1161              	.LVL141:
 1162              	.L44:
 1163              	.LCFI8:
 1164              		.cfi_restore_state
 156:FT_Esd_Widgets/Ft_Esd_Elements.c **** 	if (raised) Ft_Esd_Elements_PanelRaised(theme->DefaultColor, x, y, width, height, radius);
 1165              		.loc 1 156 0 discriminator 1
 1166 003a FFF7FEFF 		bl	Ft_Esd_Theme_GetCurrent
 1167              	.LVL142:
 1168 003e 0346     		mov	r3, r0
 1169              	.LVL143:
 1170 0040 ECE7     		b	.L40
 1171              	.L45:
 157:FT_Esd_Widgets/Ft_Esd_Elements.c **** 	else Ft_Esd_Elements_PanelSunken(theme->BackColor, x, y, width, height, radius);
 1172              		.loc 1 157 0 discriminator 1
 1173 0042 1869     		ldr	r0, [r3, #16]
 1174              	.LVL144:
 1175 0044 CDF80480 		str	r8, [sp, #4]
 1176 0048 0097     		str	r7, [sp]
 1177 004a 3346     		mov	r3, r6
 1178              	.LVL145:
 1179 004c 2A46     		mov	r2, r5
 1180 004e 2146     		mov	r1, r4
 1181 0050 FFF7FEFF 		bl	Ft_Esd_Elements_PanelRaised
 1182              	.LVL146:
 1183 0054 EEE7     		b	.L39
 1184              		.cfi_endproc
 1185              	.LFE32:
 1187              		.text
 1188              	.Letext0:
 1189              		.file 3 "FT_Eve_Hal/FT_DataTypes.h"
 1190              		.file 4 "/usr/local/Cellar/arm-none-eabi-gcc/20180627/arm-none-eabi/include/sys/lock.h"
 1191              		.file 5 "/usr/local/Cellar/arm-none-eabi-gcc/20180627/arm-none-eabi/include/sys/_types.h"
 1192              		.file 6 "/usr/local/Cellar/arm-none-eabi-gcc/20180627/lib/gcc/arm-none-eabi/7.3.1/include/stddef.h
 1193              		.file 7 "/usr/local/Cellar/arm-none-eabi-gcc/20180627/arm-none-eabi/include/sys/unistd.h"
 1194              		.file 8 "/usr/local/Cellar/arm-none-eabi-gcc/20180627/arm-none-eabi/include/sys/reent.h"
 1195              		.file 9 "/usr/local/Cellar/arm-none-eabi-gcc/20180627/arm-none-eabi/include/stdlib.h"
 1196              		.file 10 "FT_Eve_Hal/FT_Gpu_Hal.h"
 1197              		.file 11 "FT_Esd_Framework/Ft_Esd.h"
 1198              		.file 12 "FT_Esd_Widgets/Ft_Esd_Theme.h"
ARM GAS  /var/folders/n8/cvzdcwlj0vl4g_wtyz1ffy300000gn/T//ccfFCWei.s 			page 29

