ARM GAS  /var/folders/n8/cvzdcwlj0vl4g_wtyz1ffy300000gn/T//ccnc2zas.s 			page 1


   1              		.cpu cortex-m7
   2              		.eabi_attribute 27, 1
   3              		.eabi_attribute 28, 1
   4              		.eabi_attribute 20, 1
   5              		.eabi_attribute 21, 1
   6              		.eabi_attribute 23, 3
   7              		.eabi_attribute 24, 1
   8              		.eabi_attribute 25, 1
   9              		.eabi_attribute 26, 1
  10              		.eabi_attribute 30, 1
  11              		.eabi_attribute 34, 1
  12              		.eabi_attribute 18, 4
  13              		.file	"Ft_Esd_ImageButton__Generated.c"
  14              		.text
  15              	.Ltext0:
  16              		.cfi_sections	.debug_frame
  17              		.section	.text.Ft_Esd_ImageButton_X__Default,"ax",%progbits
  18              		.align	1
  19              		.global	Ft_Esd_ImageButton_X__Default
  20              		.syntax unified
  21              		.thumb
  22              		.thumb_func
  23              		.fpu fpv5-sp-d16
  25              	Ft_Esd_ImageButton_X__Default:
  26              	.LFB27:
  27              		.file 1 "FT_Esd_Widgets/Ft_Esd_ImageButton__Generated.c"
   1:FT_Esd_Widgets/Ft_Esd_ImageButton__Generated.c **** /*
   2:FT_Esd_Widgets/Ft_Esd_ImageButton__Generated.c **** This file is automatically generated
   3:FT_Esd_Widgets/Ft_Esd_ImageButton__Generated.c **** Ft_Esd_ImageButton
   4:FT_Esd_Widgets/Ft_Esd_ImageButton__Generated.c **** C Source
   5:FT_Esd_Widgets/Ft_Esd_ImageButton__Generated.c **** */
   6:FT_Esd_Widgets/Ft_Esd_ImageButton__Generated.c **** 
   7:FT_Esd_Widgets/Ft_Esd_ImageButton__Generated.c **** #include "Ft_Esd_ImageButton.h"
   8:FT_Esd_Widgets/Ft_Esd_ImageButton__Generated.c **** 
   9:FT_Esd_Widgets/Ft_Esd_ImageButton__Generated.c **** #include "FT_Esd_CoPro_Cmds.h"
  10:FT_Esd_Widgets/Ft_Esd_ImageButton__Generated.c **** #include "FT_Esd_Dl.h"
  11:FT_Esd_Widgets/Ft_Esd_ImageButton__Generated.c **** #include "FT_Esd_Primitives.h"
  12:FT_Esd_Widgets/Ft_Esd_ImageButton__Generated.c **** #include "FT_Gpu.h"
  13:FT_Esd_Widgets/Ft_Esd_ImageButton__Generated.c **** 
  14:FT_Esd_Widgets/Ft_Esd_ImageButton__Generated.c **** extern void Ft_Esd_Noop(void *context);
  15:FT_Esd_Widgets/Ft_Esd_ImageButton__Generated.c **** Ft_Esd_Theme * Ft_Esd_ImageButton_Theme__Default(void *context) { return Ft_Esd_Theme_GetCurrent();
  16:FT_Esd_Widgets/Ft_Esd_ImageButton__Generated.c **** ft_int16_t Ft_Esd_ImageButton_X__Default(void *context) { return 0; }
  28              		.loc 1 16 0
  29              		.cfi_startproc
  30              		@ args = 0, pretend = 0, frame = 0
  31              		@ frame_needed = 0, uses_anonymous_args = 0
  32              		@ link register save eliminated.
  33              	.LVL0:
  34              		.loc 1 16 0
  35 0000 0020     		movs	r0, #0
  36              	.LVL1:
  37 0002 7047     		bx	lr
  38              		.cfi_endproc
  39              	.LFE27:
  41              		.section	.text.Ft_Esd_ImageButton_Y__Default,"ax",%progbits
  42              		.align	1
  43              		.global	Ft_Esd_ImageButton_Y__Default
ARM GAS  /var/folders/n8/cvzdcwlj0vl4g_wtyz1ffy300000gn/T//ccnc2zas.s 			page 2


  44              		.syntax unified
  45              		.thumb
  46              		.thumb_func
  47              		.fpu fpv5-sp-d16
  49              	Ft_Esd_ImageButton_Y__Default:
  50              	.LFB28:
  17:FT_Esd_Widgets/Ft_Esd_ImageButton__Generated.c **** ft_int16_t Ft_Esd_ImageButton_Y__Default(void *context) { return 0; }
  51              		.loc 1 17 0
  52              		.cfi_startproc
  53              		@ args = 0, pretend = 0, frame = 0
  54              		@ frame_needed = 0, uses_anonymous_args = 0
  55              		@ link register save eliminated.
  56              	.LVL2:
  57              		.loc 1 17 0
  58 0000 0020     		movs	r0, #0
  59              	.LVL3:
  60 0002 7047     		bx	lr
  61              		.cfi_endproc
  62              	.LFE28:
  64              		.section	.text.Ft_Esd_ImageButton_BitmapNormal__Default,"ax",%progbits
  65              		.align	1
  66              		.global	Ft_Esd_ImageButton_BitmapNormal__Default
  67              		.syntax unified
  68              		.thumb
  69              		.thumb_func
  70              		.fpu fpv5-sp-d16
  72              	Ft_Esd_ImageButton_BitmapNormal__Default:
  73              	.LFB29:
  18:FT_Esd_Widgets/Ft_Esd_ImageButton__Generated.c **** Ft_Esd_BitmapCell * Ft_Esd_ImageButton_BitmapNormal__Default(void *context) { return 0; }
  74              		.loc 1 18 0
  75              		.cfi_startproc
  76              		@ args = 0, pretend = 0, frame = 0
  77              		@ frame_needed = 0, uses_anonymous_args = 0
  78              		@ link register save eliminated.
  79              	.LVL4:
  80              		.loc 1 18 0
  81 0000 0020     		movs	r0, #0
  82              	.LVL5:
  83 0002 7047     		bx	lr
  84              		.cfi_endproc
  85              	.LFE29:
  87              		.section	.text.Ft_Esd_ImageButton_BitmapPressed__Default,"ax",%progbits
  88              		.align	1
  89              		.global	Ft_Esd_ImageButton_BitmapPressed__Default
  90              		.syntax unified
  91              		.thumb
  92              		.thumb_func
  93              		.fpu fpv5-sp-d16
  95              	Ft_Esd_ImageButton_BitmapPressed__Default:
  96              	.LFB30:
  19:FT_Esd_Widgets/Ft_Esd_ImageButton__Generated.c **** Ft_Esd_BitmapCell * Ft_Esd_ImageButton_BitmapPressed__Default(void *context) { return 0; }
  97              		.loc 1 19 0
  98              		.cfi_startproc
  99              		@ args = 0, pretend = 0, frame = 0
 100              		@ frame_needed = 0, uses_anonymous_args = 0
 101              		@ link register save eliminated.
 102              	.LVL6:
ARM GAS  /var/folders/n8/cvzdcwlj0vl4g_wtyz1ffy300000gn/T//ccnc2zas.s 			page 3


 103              		.loc 1 19 0
 104 0000 0020     		movs	r0, #0
 105              	.LVL7:
 106 0002 7047     		bx	lr
 107              		.cfi_endproc
 108              	.LFE30:
 110              		.section	.text.Ft_Esd_ImageButton_Touch_Tag_Down__Signal,"ax",%progbits
 111              		.align	1
 112              		.syntax unified
 113              		.thumb
 114              		.thumb_func
 115              		.fpu fpv5-sp-d16
 117              	Ft_Esd_ImageButton_Touch_Tag_Down__Signal:
 118              	.LFB34:
  20:FT_Esd_Widgets/Ft_Esd_ImageButton__Generated.c **** 
  21:FT_Esd_Widgets/Ft_Esd_ImageButton__Generated.c **** Ft_Gpu_Hal_Context_t * Ft_Esd_GetHost();
  22:FT_Esd_Widgets/Ft_Esd_ImageButton__Generated.c **** 
  23:FT_Esd_Widgets/Ft_Esd_ImageButton__Generated.c **** static void Ft_Esd_ImageButton_Touch_Tag_Down__Signal(void *context);
  24:FT_Esd_Widgets/Ft_Esd_ImageButton__Generated.c **** static void Ft_Esd_ImageButton_Touch_Tag_Up__Signal(void *context);
  25:FT_Esd_Widgets/Ft_Esd_ImageButton__Generated.c **** static void Ft_Esd_ImageButton_Touch_Tag_Tap__Signal(void *context);
  26:FT_Esd_Widgets/Ft_Esd_ImageButton__Generated.c **** 
  27:FT_Esd_Widgets/Ft_Esd_ImageButton__Generated.c **** void Ft_Esd_ImageButton__Initializer(Ft_Esd_ImageButton *context)
  28:FT_Esd_Widgets/Ft_Esd_ImageButton__Generated.c **** {
  29:FT_Esd_Widgets/Ft_Esd_ImageButton__Generated.c **** 	context->Parent = 0;
  30:FT_Esd_Widgets/Ft_Esd_ImageButton__Generated.c **** 	context->Theme = Ft_Esd_ImageButton_Theme__Default;
  31:FT_Esd_Widgets/Ft_Esd_ImageButton__Generated.c **** 	context->X = Ft_Esd_ImageButton_X__Default;
  32:FT_Esd_Widgets/Ft_Esd_ImageButton__Generated.c **** 	context->Y = Ft_Esd_ImageButton_Y__Default;
  33:FT_Esd_Widgets/Ft_Esd_ImageButton__Generated.c **** 	context->BitmapNormal = Ft_Esd_ImageButton_BitmapNormal__Default;
  34:FT_Esd_Widgets/Ft_Esd_ImageButton__Generated.c **** 	context->BitmapPressed = Ft_Esd_ImageButton_BitmapPressed__Default;
  35:FT_Esd_Widgets/Ft_Esd_ImageButton__Generated.c **** 	context->Down = Ft_Esd_Noop;
  36:FT_Esd_Widgets/Ft_Esd_ImageButton__Generated.c **** 	context->Up = Ft_Esd_Noop;
  37:FT_Esd_Widgets/Ft_Esd_ImageButton__Generated.c **** 	Ft_Esd_TouchTag__Initializer(&context->Touch_Tag);
  38:FT_Esd_Widgets/Ft_Esd_ImageButton__Generated.c **** 	context->Touch_Tag.Parent = context;
  39:FT_Esd_Widgets/Ft_Esd_ImageButton__Generated.c **** 	context->Touch_Tag.Down = Ft_Esd_ImageButton_Touch_Tag_Down__Signal;
  40:FT_Esd_Widgets/Ft_Esd_ImageButton__Generated.c **** 	context->Touch_Tag.Up = Ft_Esd_ImageButton_Touch_Tag_Up__Signal;
  41:FT_Esd_Widgets/Ft_Esd_ImageButton__Generated.c **** 	context->Touch_Tag.Tap = Ft_Esd_ImageButton_Touch_Tag_Tap__Signal;
  42:FT_Esd_Widgets/Ft_Esd_ImageButton__Generated.c **** 	context->Pushed = Ft_Esd_Noop;
  43:FT_Esd_Widgets/Ft_Esd_ImageButton__Generated.c **** }
  44:FT_Esd_Widgets/Ft_Esd_ImageButton__Generated.c **** 
  45:FT_Esd_Widgets/Ft_Esd_ImageButton__Generated.c **** ft_void_t Ft_Esd_Render_Bitmap(ft_int16_t, ft_int16_t, Ft_Esd_BitmapCell *, ft_argb32_t);
  46:FT_Esd_Widgets/Ft_Esd_ImageButton__Generated.c **** ft_void_t Ft_Gpu_CoCmd_Number(Ft_Gpu_Hal_Context_t *, ft_int16_t, ft_int16_t, ft_int16_t, ft_uint16
  47:FT_Esd_Widgets/Ft_Esd_ImageButton__Generated.c **** 
  48:FT_Esd_Widgets/Ft_Esd_ImageButton__Generated.c **** void Ft_Esd_ImageButton_Render(Ft_Esd_ImageButton *context)
  49:FT_Esd_Widgets/Ft_Esd_ImageButton__Generated.c **** {
  50:FT_Esd_Widgets/Ft_Esd_ImageButton__Generated.c **** 	void *parent = context->Parent;
  51:FT_Esd_Widgets/Ft_Esd_ImageButton__Generated.c **** 	ft_uint8_t s = Ft_Esd_TouchTag_Tag(&context->Touch_Tag);
  52:FT_Esd_Widgets/Ft_Esd_ImageButton__Generated.c **** 	Ft_Esd_Dl_TAG(s);
  53:FT_Esd_Widgets/Ft_Esd_ImageButton__Generated.c **** 	ft_int16_t x = context->X(parent);
  54:FT_Esd_Widgets/Ft_Esd_ImageButton__Generated.c **** 	ft_int16_t y = context->Y(parent);
  55:FT_Esd_Widgets/Ft_Esd_ImageButton__Generated.c **** 	ft_bool_t if_1 = Ft_Esd_TouchTag_Touching(&context->Touch_Tag);
  56:FT_Esd_Widgets/Ft_Esd_ImageButton__Generated.c **** 	Ft_Esd_BitmapCell * bitmapCell;
  57:FT_Esd_Widgets/Ft_Esd_ImageButton__Generated.c **** 	if (if_1)
  58:FT_Esd_Widgets/Ft_Esd_ImageButton__Generated.c **** 	{
  59:FT_Esd_Widgets/Ft_Esd_ImageButton__Generated.c **** 		Ft_Esd_BitmapCell * if_2 = context->BitmapPressed(parent);
  60:FT_Esd_Widgets/Ft_Esd_ImageButton__Generated.c **** 		if (if_2)
  61:FT_Esd_Widgets/Ft_Esd_ImageButton__Generated.c **** 		{
  62:FT_Esd_Widgets/Ft_Esd_ImageButton__Generated.c **** 			bitmapCell = context->BitmapPressed(parent);
ARM GAS  /var/folders/n8/cvzdcwlj0vl4g_wtyz1ffy300000gn/T//ccnc2zas.s 			page 4


  63:FT_Esd_Widgets/Ft_Esd_ImageButton__Generated.c **** 		}
  64:FT_Esd_Widgets/Ft_Esd_ImageButton__Generated.c **** 		else
  65:FT_Esd_Widgets/Ft_Esd_ImageButton__Generated.c **** 		{
  66:FT_Esd_Widgets/Ft_Esd_ImageButton__Generated.c **** 			bitmapCell = context->BitmapNormal(parent);
  67:FT_Esd_Widgets/Ft_Esd_ImageButton__Generated.c **** 		}
  68:FT_Esd_Widgets/Ft_Esd_ImageButton__Generated.c **** 	}
  69:FT_Esd_Widgets/Ft_Esd_ImageButton__Generated.c **** 	else
  70:FT_Esd_Widgets/Ft_Esd_ImageButton__Generated.c **** 	{
  71:FT_Esd_Widgets/Ft_Esd_ImageButton__Generated.c **** 		bitmapCell = context->BitmapNormal(parent);
  72:FT_Esd_Widgets/Ft_Esd_ImageButton__Generated.c **** 	}
  73:FT_Esd_Widgets/Ft_Esd_ImageButton__Generated.c **** 	ft_argb32_t c = 0xffffffffUL;
  74:FT_Esd_Widgets/Ft_Esd_ImageButton__Generated.c **** 	Ft_Esd_Render_Bitmap(x, y, bitmapCell, c);
  75:FT_Esd_Widgets/Ft_Esd_ImageButton__Generated.c **** 	ft_uint8_t s_1 = 255;
  76:FT_Esd_Widgets/Ft_Esd_ImageButton__Generated.c **** 	Ft_Esd_Dl_TAG(s_1);
  77:FT_Esd_Widgets/Ft_Esd_ImageButton__Generated.c **** }
  78:FT_Esd_Widgets/Ft_Esd_ImageButton__Generated.c **** 
  79:FT_Esd_Widgets/Ft_Esd_ImageButton__Generated.c **** void Ft_Esd_ImageButton_Start(Ft_Esd_ImageButton *context)
  80:FT_Esd_Widgets/Ft_Esd_ImageButton__Generated.c **** {
  81:FT_Esd_Widgets/Ft_Esd_ImageButton__Generated.c **** 	void *parent = context->Parent;
  82:FT_Esd_Widgets/Ft_Esd_ImageButton__Generated.c **** 	Ft_Esd_TouchTag_Start(&context->Touch_Tag);
  83:FT_Esd_Widgets/Ft_Esd_ImageButton__Generated.c **** }
  84:FT_Esd_Widgets/Ft_Esd_ImageButton__Generated.c **** 
  85:FT_Esd_Widgets/Ft_Esd_ImageButton__Generated.c **** void Ft_Esd_ImageButton_Touch_Tag_Down__Signal(void *c)
  86:FT_Esd_Widgets/Ft_Esd_ImageButton__Generated.c **** {
 119              		.loc 1 86 0
 120              		.cfi_startproc
 121              		@ args = 0, pretend = 0, frame = 0
 122              		@ frame_needed = 0, uses_anonymous_args = 0
 123              	.LVL8:
 124 0000 08B5     		push	{r3, lr}
 125              	.LCFI0:
 126              		.cfi_def_cfa_offset 8
 127              		.cfi_offset 3, -8
 128              		.cfi_offset 14, -4
 129              	.LVL9:
  87:FT_Esd_Widgets/Ft_Esd_ImageButton__Generated.c **** 	Ft_Esd_ImageButton *context = (Ft_Esd_ImageButton *)c;
  88:FT_Esd_Widgets/Ft_Esd_ImageButton__Generated.c **** 	void *parent = context->Parent;
  89:FT_Esd_Widgets/Ft_Esd_ImageButton__Generated.c **** 	context->Down(parent);
 130              		.loc 1 89 0
 131 0002 8369     		ldr	r3, [r0, #24]
 132 0004 0068     		ldr	r0, [r0]
 133              	.LVL10:
 134 0006 9847     		blx	r3
 135              	.LVL11:
  90:FT_Esd_Widgets/Ft_Esd_ImageButton__Generated.c **** }
 136              		.loc 1 90 0
 137 0008 08BD     		pop	{r3, pc}
 138              		.cfi_endproc
 139              	.LFE34:
 141              		.section	.text.Ft_Esd_ImageButton_Touch_Tag_Up__Signal,"ax",%progbits
 142              		.align	1
 143              		.syntax unified
 144              		.thumb
 145              		.thumb_func
 146              		.fpu fpv5-sp-d16
 148              	Ft_Esd_ImageButton_Touch_Tag_Up__Signal:
 149              	.LFB35:
ARM GAS  /var/folders/n8/cvzdcwlj0vl4g_wtyz1ffy300000gn/T//ccnc2zas.s 			page 5


  91:FT_Esd_Widgets/Ft_Esd_ImageButton__Generated.c **** 
  92:FT_Esd_Widgets/Ft_Esd_ImageButton__Generated.c **** void Ft_Esd_ImageButton_Touch_Tag_Up__Signal(void *c)
  93:FT_Esd_Widgets/Ft_Esd_ImageButton__Generated.c **** {
 150              		.loc 1 93 0
 151              		.cfi_startproc
 152              		@ args = 0, pretend = 0, frame = 0
 153              		@ frame_needed = 0, uses_anonymous_args = 0
 154              	.LVL12:
 155 0000 08B5     		push	{r3, lr}
 156              	.LCFI1:
 157              		.cfi_def_cfa_offset 8
 158              		.cfi_offset 3, -8
 159              		.cfi_offset 14, -4
 160              	.LVL13:
  94:FT_Esd_Widgets/Ft_Esd_ImageButton__Generated.c **** 	Ft_Esd_ImageButton *context = (Ft_Esd_ImageButton *)c;
  95:FT_Esd_Widgets/Ft_Esd_ImageButton__Generated.c **** 	void *parent = context->Parent;
  96:FT_Esd_Widgets/Ft_Esd_ImageButton__Generated.c **** 	context->Up(parent);
 161              		.loc 1 96 0
 162 0002 C369     		ldr	r3, [r0, #28]
 163 0004 0068     		ldr	r0, [r0]
 164              	.LVL14:
 165 0006 9847     		blx	r3
 166              	.LVL15:
  97:FT_Esd_Widgets/Ft_Esd_ImageButton__Generated.c **** }
 167              		.loc 1 97 0
 168 0008 08BD     		pop	{r3, pc}
 169              		.cfi_endproc
 170              	.LFE35:
 172              		.section	.text.Ft_Esd_ImageButton_Touch_Tag_Tap__Signal,"ax",%progbits
 173              		.align	1
 174              		.syntax unified
 175              		.thumb
 176              		.thumb_func
 177              		.fpu fpv5-sp-d16
 179              	Ft_Esd_ImageButton_Touch_Tag_Tap__Signal:
 180              	.LFB36:
  98:FT_Esd_Widgets/Ft_Esd_ImageButton__Generated.c **** 
  99:FT_Esd_Widgets/Ft_Esd_ImageButton__Generated.c **** void Ft_Esd_ImageButton_Touch_Tag_Tap__Signal(void *c)
 100:FT_Esd_Widgets/Ft_Esd_ImageButton__Generated.c **** {
 181              		.loc 1 100 0
 182              		.cfi_startproc
 183              		@ args = 0, pretend = 0, frame = 0
 184              		@ frame_needed = 0, uses_anonymous_args = 0
 185              	.LVL16:
 186 0000 08B5     		push	{r3, lr}
 187              	.LCFI2:
 188              		.cfi_def_cfa_offset 8
 189              		.cfi_offset 3, -8
 190              		.cfi_offset 14, -4
 191              	.LVL17:
 101:FT_Esd_Widgets/Ft_Esd_ImageButton__Generated.c **** 	Ft_Esd_ImageButton *context = (Ft_Esd_ImageButton *)c;
 102:FT_Esd_Widgets/Ft_Esd_ImageButton__Generated.c **** 	void *parent = context->Parent;
 103:FT_Esd_Widgets/Ft_Esd_ImageButton__Generated.c **** 	context->Pushed(parent);
 192              		.loc 1 103 0
 193 0002 836B     		ldr	r3, [r0, #56]
 194 0004 0068     		ldr	r0, [r0]
 195              	.LVL18:
ARM GAS  /var/folders/n8/cvzdcwlj0vl4g_wtyz1ffy300000gn/T//ccnc2zas.s 			page 6


 196 0006 9847     		blx	r3
 197              	.LVL19:
 104:FT_Esd_Widgets/Ft_Esd_ImageButton__Generated.c **** }
 198              		.loc 1 104 0
 199 0008 08BD     		pop	{r3, pc}
 200              		.cfi_endproc
 201              	.LFE36:
 203              		.section	.text.Ft_Esd_ImageButton_Theme__Default,"ax",%progbits
 204              		.align	1
 205              		.global	Ft_Esd_ImageButton_Theme__Default
 206              		.syntax unified
 207              		.thumb
 208              		.thumb_func
 209              		.fpu fpv5-sp-d16
 211              	Ft_Esd_ImageButton_Theme__Default:
 212              	.LFB26:
  15:FT_Esd_Widgets/Ft_Esd_ImageButton__Generated.c **** ft_int16_t Ft_Esd_ImageButton_X__Default(void *context) { return 0; }
 213              		.loc 1 15 0
 214              		.cfi_startproc
 215              		@ args = 0, pretend = 0, frame = 0
 216              		@ frame_needed = 0, uses_anonymous_args = 0
 217              	.LVL20:
 218 0000 08B5     		push	{r3, lr}
 219              	.LCFI3:
 220              		.cfi_def_cfa_offset 8
 221              		.cfi_offset 3, -8
 222              		.cfi_offset 14, -4
  15:FT_Esd_Widgets/Ft_Esd_ImageButton__Generated.c **** ft_int16_t Ft_Esd_ImageButton_X__Default(void *context) { return 0; }
 223              		.loc 1 15 0
 224 0002 FFF7FEFF 		bl	Ft_Esd_Theme_GetCurrent
 225              	.LVL21:
 226 0006 08BD     		pop	{r3, pc}
 227              		.cfi_endproc
 228              	.LFE26:
 230              		.section	.text.Ft_Esd_ImageButton__Initializer,"ax",%progbits
 231              		.align	1
 232              		.global	Ft_Esd_ImageButton__Initializer
 233              		.syntax unified
 234              		.thumb
 235              		.thumb_func
 236              		.fpu fpv5-sp-d16
 238              	Ft_Esd_ImageButton__Initializer:
 239              	.LFB31:
  28:FT_Esd_Widgets/Ft_Esd_ImageButton__Generated.c **** 	context->Parent = 0;
 240              		.loc 1 28 0
 241              		.cfi_startproc
 242              		@ args = 0, pretend = 0, frame = 0
 243              		@ frame_needed = 0, uses_anonymous_args = 0
 244              	.LVL22:
 245 0000 38B5     		push	{r3, r4, r5, lr}
 246              	.LCFI4:
 247              		.cfi_def_cfa_offset 16
 248              		.cfi_offset 3, -16
 249              		.cfi_offset 4, -12
 250              		.cfi_offset 5, -8
 251              		.cfi_offset 14, -4
 252 0002 0446     		mov	r4, r0
ARM GAS  /var/folders/n8/cvzdcwlj0vl4g_wtyz1ffy300000gn/T//ccnc2zas.s 			page 7


  29:FT_Esd_Widgets/Ft_Esd_ImageButton__Generated.c **** 	context->Theme = Ft_Esd_ImageButton_Theme__Default;
 253              		.loc 1 29 0
 254 0004 0023     		movs	r3, #0
 255 0006 0360     		str	r3, [r0]
  30:FT_Esd_Widgets/Ft_Esd_ImageButton__Generated.c **** 	context->X = Ft_Esd_ImageButton_X__Default;
 256              		.loc 1 30 0
 257 0008 0C4B     		ldr	r3, .L15
 258 000a 4360     		str	r3, [r0, #4]
  31:FT_Esd_Widgets/Ft_Esd_ImageButton__Generated.c **** 	context->Y = Ft_Esd_ImageButton_Y__Default;
 259              		.loc 1 31 0
 260 000c 0C4B     		ldr	r3, .L15+4
 261 000e 8360     		str	r3, [r0, #8]
  32:FT_Esd_Widgets/Ft_Esd_ImageButton__Generated.c **** 	context->BitmapNormal = Ft_Esd_ImageButton_BitmapNormal__Default;
 262              		.loc 1 32 0
 263 0010 0C4B     		ldr	r3, .L15+8
 264 0012 C360     		str	r3, [r0, #12]
  33:FT_Esd_Widgets/Ft_Esd_ImageButton__Generated.c **** 	context->BitmapPressed = Ft_Esd_ImageButton_BitmapPressed__Default;
 265              		.loc 1 33 0
 266 0014 0C4B     		ldr	r3, .L15+12
 267 0016 0361     		str	r3, [r0, #16]
  34:FT_Esd_Widgets/Ft_Esd_ImageButton__Generated.c **** 	context->Down = Ft_Esd_Noop;
 268              		.loc 1 34 0
 269 0018 0C4B     		ldr	r3, .L15+16
 270 001a 4361     		str	r3, [r0, #20]
  35:FT_Esd_Widgets/Ft_Esd_ImageButton__Generated.c **** 	context->Up = Ft_Esd_Noop;
 271              		.loc 1 35 0
 272 001c 0C4D     		ldr	r5, .L15+20
 273 001e 8561     		str	r5, [r0, #24]
  36:FT_Esd_Widgets/Ft_Esd_ImageButton__Generated.c **** 	Ft_Esd_TouchTag__Initializer(&context->Touch_Tag);
 274              		.loc 1 36 0
 275 0020 C561     		str	r5, [r0, #28]
  37:FT_Esd_Widgets/Ft_Esd_ImageButton__Generated.c **** 	context->Touch_Tag.Parent = context;
 276              		.loc 1 37 0
 277 0022 2030     		adds	r0, r0, #32
 278              	.LVL23:
 279 0024 FFF7FEFF 		bl	Ft_Esd_TouchTag__Initializer
 280              	.LVL24:
  38:FT_Esd_Widgets/Ft_Esd_ImageButton__Generated.c **** 	context->Touch_Tag.Down = Ft_Esd_ImageButton_Touch_Tag_Down__Signal;
 281              		.loc 1 38 0
 282 0028 2462     		str	r4, [r4, #32]
  39:FT_Esd_Widgets/Ft_Esd_ImageButton__Generated.c **** 	context->Touch_Tag.Up = Ft_Esd_ImageButton_Touch_Tag_Up__Signal;
 283              		.loc 1 39 0
 284 002a 0A4B     		ldr	r3, .L15+24
 285 002c 6362     		str	r3, [r4, #36]
  40:FT_Esd_Widgets/Ft_Esd_ImageButton__Generated.c **** 	context->Touch_Tag.Tap = Ft_Esd_ImageButton_Touch_Tag_Tap__Signal;
 286              		.loc 1 40 0
 287 002e 0A4B     		ldr	r3, .L15+28
 288 0030 A362     		str	r3, [r4, #40]
  41:FT_Esd_Widgets/Ft_Esd_ImageButton__Generated.c **** 	context->Pushed = Ft_Esd_Noop;
 289              		.loc 1 41 0
 290 0032 0A4B     		ldr	r3, .L15+32
 291 0034 E362     		str	r3, [r4, #44]
  42:FT_Esd_Widgets/Ft_Esd_ImageButton__Generated.c **** }
 292              		.loc 1 42 0
 293 0036 A563     		str	r5, [r4, #56]
  43:FT_Esd_Widgets/Ft_Esd_ImageButton__Generated.c **** 
 294              		.loc 1 43 0
ARM GAS  /var/folders/n8/cvzdcwlj0vl4g_wtyz1ffy300000gn/T//ccnc2zas.s 			page 8


 295 0038 38BD     		pop	{r3, r4, r5, pc}
 296              	.LVL25:
 297              	.L16:
 298 003a 00BF     		.align	2
 299              	.L15:
 300 003c 00000000 		.word	Ft_Esd_ImageButton_Theme__Default
 301 0040 00000000 		.word	Ft_Esd_ImageButton_X__Default
 302 0044 00000000 		.word	Ft_Esd_ImageButton_Y__Default
 303 0048 00000000 		.word	Ft_Esd_ImageButton_BitmapNormal__Default
 304 004c 00000000 		.word	Ft_Esd_ImageButton_BitmapPressed__Default
 305 0050 00000000 		.word	Ft_Esd_Noop
 306 0054 00000000 		.word	Ft_Esd_ImageButton_Touch_Tag_Down__Signal
 307 0058 00000000 		.word	Ft_Esd_ImageButton_Touch_Tag_Up__Signal
 308 005c 00000000 		.word	Ft_Esd_ImageButton_Touch_Tag_Tap__Signal
 309              		.cfi_endproc
 310              	.LFE31:
 312              		.section	.text.Ft_Esd_ImageButton_Render,"ax",%progbits
 313              		.align	1
 314              		.global	Ft_Esd_ImageButton_Render
 315              		.syntax unified
 316              		.thumb
 317              		.thumb_func
 318              		.fpu fpv5-sp-d16
 320              	Ft_Esd_ImageButton_Render:
 321              	.LFB32:
  49:FT_Esd_Widgets/Ft_Esd_ImageButton__Generated.c **** 	void *parent = context->Parent;
 322              		.loc 1 49 0
 323              		.cfi_startproc
 324              		@ args = 0, pretend = 0, frame = 0
 325              		@ frame_needed = 0, uses_anonymous_args = 0
 326              	.LVL26:
 327 0000 2DE9F041 		push	{r4, r5, r6, r7, r8, lr}
 328              	.LCFI5:
 329              		.cfi_def_cfa_offset 24
 330              		.cfi_offset 4, -24
 331              		.cfi_offset 5, -20
 332              		.cfi_offset 6, -16
 333              		.cfi_offset 7, -12
 334              		.cfi_offset 8, -8
 335              		.cfi_offset 14, -4
 336 0004 0446     		mov	r4, r0
  50:FT_Esd_Widgets/Ft_Esd_ImageButton__Generated.c **** 	ft_uint8_t s = Ft_Esd_TouchTag_Tag(&context->Touch_Tag);
 337              		.loc 1 50 0
 338 0006 0546     		mov	r5, r0
 339 0008 55F8206B 		ldr	r6, [r5], #32
 340              	.LVL27:
  51:FT_Esd_Widgets/Ft_Esd_ImageButton__Generated.c **** 	Ft_Esd_Dl_TAG(s);
 341              		.loc 1 51 0
 342 000c 2846     		mov	r0, r5
 343              	.LVL28:
 344 000e FFF7FEFF 		bl	Ft_Esd_TouchTag_Tag
 345              	.LVL29:
 346              	.LBB7:
 347              	.LBB8:
 348              		.file 2 "FT_Esd_Framework/FT_Esd_Dl.h"
   1:FT_Esd_Framework/FT_Esd_Dl.h **** 
   2:FT_Esd_Framework/FT_Esd_Dl.h **** #ifndef FT_ESD_DL_H
ARM GAS  /var/folders/n8/cvzdcwlj0vl4g_wtyz1ffy300000gn/T//ccnc2zas.s 			page 9


   3:FT_Esd_Framework/FT_Esd_Dl.h **** #define FT_ESD_DL_H
   4:FT_Esd_Framework/FT_Esd_Dl.h **** 
   5:FT_Esd_Framework/FT_Esd_Dl.h **** #include "FT_DataTypes.h"
   6:FT_Esd_Framework/FT_Esd_Dl.h **** #include "FT_Platform.h"
   7:FT_Esd_Framework/FT_Esd_Dl.h **** #include "Ft_Esd.h"
   8:FT_Esd_Framework/FT_Esd_Dl.h **** #include "FT_Gpu.h"
   9:FT_Esd_Framework/FT_Esd_Dl.h **** #include "Ft_Esd_BitmapInfo.h"
  10:FT_Esd_Framework/FT_Esd_Dl.h **** 
  11:FT_Esd_Framework/FT_Esd_Dl.h **** ESD_CATEGORY(EsdUtilities, DisplayName = "ESD Utilities")
  12:FT_Esd_Framework/FT_Esd_Dl.h **** ESD_CATEGORY(EveRenderFunctions, DisplayName = "EVE Render Functions")
  13:FT_Esd_Framework/FT_Esd_Dl.h **** 
  14:FT_Esd_Framework/FT_Esd_Dl.h **** ESD_TYPE(Ft_Gpu_Hal_Context_t *, Native = Pointer, Edit = Library)
  15:FT_Esd_Framework/FT_Esd_Dl.h **** 
  16:FT_Esd_Framework/FT_Esd_Dl.h **** // Keep cache of displaylist values that don't often change but are generally set by every widget t
  17:FT_Esd_Framework/FT_Esd_Dl.h **** #define FT_ESD_OPTIMIZE_DISPLAYLIST 1
  18:FT_Esd_Framework/FT_Esd_Dl.h **** #define FT_ESD_STATE_STACK_SIZE 5
  19:FT_Esd_Framework/FT_Esd_Dl.h **** 
  20:FT_Esd_Framework/FT_Esd_Dl.h **** #define FT_ESD_BITMAPHANDLE_INVALID 255
  21:FT_Esd_Framework/FT_Esd_Dl.h **** 
  22:FT_Esd_Framework/FT_Esd_Dl.h **** //
  23:FT_Esd_Framework/FT_Esd_Dl.h **** // Structs
  24:FT_Esd_Framework/FT_Esd_Dl.h **** //
  25:FT_Esd_Framework/FT_Esd_Dl.h **** #ifdef FT_ESD_OPTIMIZE_DISPLAYLIST
  26:FT_Esd_Framework/FT_Esd_Dl.h **** #define FT_ESD_STATE Ft_Esd_GpuState[Ft_Esd_GpuState_I]
  27:FT_Esd_Framework/FT_Esd_Dl.h **** typedef struct
  28:FT_Esd_Framework/FT_Esd_Dl.h **** {
  29:FT_Esd_Framework/FT_Esd_Dl.h **** 	// Keep to a minimum
  30:FT_Esd_Framework/FT_Esd_Dl.h **** #ifdef FT_81X_ENABLE
  31:FT_Esd_Framework/FT_Esd_Dl.h **** 	ft_uint32_t PaletteSource;
  32:FT_Esd_Framework/FT_Esd_Dl.h **** #endif
  33:FT_Esd_Framework/FT_Esd_Dl.h **** 	ft_uint32_t ColorRGB;
  34:FT_Esd_Framework/FT_Esd_Dl.h **** 	ft_uint8_t ColorA;
  35:FT_Esd_Framework/FT_Esd_Dl.h **** 	ft_uint8_t Handle;         // Current handle
  36:FT_Esd_Framework/FT_Esd_Dl.h **** 	ft_uint8_t Cell;           // Current cell
  37:FT_Esd_Framework/FT_Esd_Dl.h **** 	ft_bool_t BitmapTransform; // BitmapTransform other than default is set
  38:FT_Esd_Framework/FT_Esd_Dl.h **** #ifdef FT_81X_ENABLE
  39:FT_Esd_Framework/FT_Esd_Dl.h **** 	ft_uint8_t VertexFormat;   // Current vertex format
  40:FT_Esd_Framework/FT_Esd_Dl.h **** #endif
  41:FT_Esd_Framework/FT_Esd_Dl.h **** } Ft_Esd_GpuState_T;
  42:FT_Esd_Framework/FT_Esd_Dl.h **** #endif
  43:FT_Esd_Framework/FT_Esd_Dl.h **** 
  44:FT_Esd_Framework/FT_Esd_Dl.h **** //
  45:FT_Esd_Framework/FT_Esd_Dl.h **** // Globals
  46:FT_Esd_Framework/FT_Esd_Dl.h **** //
  47:FT_Esd_Framework/FT_Esd_Dl.h **** extern Ft_Gpu_Hal_Context_t *Ft_Esd_Host;
  48:FT_Esd_Framework/FT_Esd_Dl.h **** extern ft_uint16_t Ft_Esd_FontHeight[32];
  49:FT_Esd_Framework/FT_Esd_Dl.h **** #ifdef FT_ESD_OPTIMIZE_DISPLAYLIST
  50:FT_Esd_Framework/FT_Esd_Dl.h **** extern Ft_Esd_GpuState_T Ft_Esd_GpuState[FT_ESD_STATE_STACK_SIZE];
  51:FT_Esd_Framework/FT_Esd_Dl.h **** extern ft_uint8_t Ft_Esd_GpuState_I;
  52:FT_Esd_Framework/FT_Esd_Dl.h **** extern ft_uint32_t Ft_Esd_CoFgColor;
  53:FT_Esd_Framework/FT_Esd_Dl.h **** extern ft_uint32_t Ft_Esd_CoBgColor;
  54:FT_Esd_Framework/FT_Esd_Dl.h **** #endif
  55:FT_Esd_Framework/FT_Esd_Dl.h **** 
  56:FT_Esd_Framework/FT_Esd_Dl.h **** //Get the height of builtin font
  57:FT_Esd_Framework/FT_Esd_Dl.h **** ESD_FUNCTION(Ft_Esd_GetFontHeight, Type = ft_uint16_t ,DisplayName = "Get Font Height", Category = 
  58:FT_Esd_Framework/FT_Esd_Dl.h **** ESD_PARAMETER(i, Type = int, DisplayName = "Bitmap Handle", Default = 0, Min = 0, Max = 31)
  59:FT_Esd_Framework/FT_Esd_Dl.h **** // inline static ft_uint16_t Ft_Esd_GetFontHeight(int i) { return Ft_Esd_FontHeight[i]; }
ARM GAS  /var/folders/n8/cvzdcwlj0vl4g_wtyz1ffy300000gn/T//ccnc2zas.s 			page 10


  60:FT_Esd_Framework/FT_Esd_Dl.h **** #define Ft_Esd_GetFontHeight(i) (Ft_Esd_FontHeight[i]);
  61:FT_Esd_Framework/FT_Esd_Dl.h **** 
  62:FT_Esd_Framework/FT_Esd_Dl.h **** // Reset any cached state
  63:FT_Esd_Framework/FT_Esd_Dl.h **** void Ft_Esd_ResetGpuState();
  64:FT_Esd_Framework/FT_Esd_Dl.h **** void Ft_Esd_ResetCoState();
  65:FT_Esd_Framework/FT_Esd_Dl.h **** 
  66:FT_Esd_Framework/FT_Esd_Dl.h **** ft_uint32_t Ft_Esd_BitmapHandle_GetTotalUsed();
  67:FT_Esd_Framework/FT_Esd_Dl.h **** ft_uint32_t Ft_Esd_BitmapHandle_GetTotal();
  68:FT_Esd_Framework/FT_Esd_Dl.h **** 
  69:FT_Esd_Framework/FT_Esd_Dl.h **** /// Set current tag. Must be returned to 255 after usage, to ensure next widgets don't draw with in
  70:FT_Esd_Framework/FT_Esd_Dl.h **** ESD_FUNCTION(Ft_Esd_Dl_TAG, Type = ft_void_t, Category = EveRenderFunctions, Inline)
  71:FT_Esd_Framework/FT_Esd_Dl.h **** ESD_PARAMETER(s, Type = ft_uint8_t, DisplayName = "Tag", Default = 255, Min = 0, Max = 255)
  72:FT_Esd_Framework/FT_Esd_Dl.h **** inline static ft_void_t Ft_Esd_Dl_TAG(ft_uint8_t s)
  73:FT_Esd_Framework/FT_Esd_Dl.h **** {
  74:FT_Esd_Framework/FT_Esd_Dl.h **** 	Ft_Gpu_Hal_WrCmd32(Ft_Esd_Host, TAG(s));
 349              		.loc 2 74 0
 350 0012 40F04071 		orr	r1, r0, #50331648
 351 0016 174B     		ldr	r3, .L22
 352 0018 1868     		ldr	r0, [r3]
 353              	.LVL30:
 354 001a FFF7FEFF 		bl	Ft_Gpu_Hal_WrCmd32
 355              	.LVL31:
 356              	.LBE8:
 357              	.LBE7:
  53:FT_Esd_Widgets/Ft_Esd_ImageButton__Generated.c **** 	ft_int16_t y = context->Y(parent);
 358              		.loc 1 53 0
 359 001e A368     		ldr	r3, [r4, #8]
 360 0020 3046     		mov	r0, r6
 361 0022 9847     		blx	r3
 362              	.LVL32:
 363 0024 0746     		mov	r7, r0
 364              	.LVL33:
  54:FT_Esd_Widgets/Ft_Esd_ImageButton__Generated.c **** 	ft_bool_t if_1 = Ft_Esd_TouchTag_Touching(&context->Touch_Tag);
 365              		.loc 1 54 0
 366 0026 E368     		ldr	r3, [r4, #12]
 367 0028 3046     		mov	r0, r6
 368 002a 9847     		blx	r3
 369              	.LVL34:
 370 002c 8046     		mov	r8, r0
 371              	.LVL35:
  55:FT_Esd_Widgets/Ft_Esd_ImageButton__Generated.c **** 	Ft_Esd_BitmapCell * bitmapCell;
 372              		.loc 1 55 0
 373 002e 2846     		mov	r0, r5
 374 0030 FFF7FEFF 		bl	Ft_Esd_TouchTag_Touching
 375              	.LVL36:
  57:FT_Esd_Widgets/Ft_Esd_ImageButton__Generated.c **** 	{
 376              		.loc 1 57 0
 377 0034 68B1     		cbz	r0, .L18
 378              	.LBB9:
  59:FT_Esd_Widgets/Ft_Esd_ImageButton__Generated.c **** 		if (if_2)
 379              		.loc 1 59 0
 380 0036 6369     		ldr	r3, [r4, #20]
 381 0038 3046     		mov	r0, r6
 382              	.LVL37:
 383 003a 9847     		blx	r3
 384              	.LVL38:
  60:FT_Esd_Widgets/Ft_Esd_ImageButton__Generated.c **** 		{
ARM GAS  /var/folders/n8/cvzdcwlj0vl4g_wtyz1ffy300000gn/T//ccnc2zas.s 			page 11


 385              		.loc 1 60 0
 386 003c 20B1     		cbz	r0, .L19
  62:FT_Esd_Widgets/Ft_Esd_ImageButton__Generated.c **** 		}
 387              		.loc 1 62 0
 388 003e 6369     		ldr	r3, [r4, #20]
 389 0040 3046     		mov	r0, r6
 390              	.LVL39:
 391 0042 9847     		blx	r3
 392              	.LVL40:
 393 0044 0246     		mov	r2, r0
 394              	.LVL41:
 395 0046 08E0     		b	.L20
 396              	.LVL42:
 397              	.L19:
  66:FT_Esd_Widgets/Ft_Esd_ImageButton__Generated.c **** 		}
 398              		.loc 1 66 0
 399 0048 2369     		ldr	r3, [r4, #16]
 400 004a 3046     		mov	r0, r6
 401              	.LVL43:
 402 004c 9847     		blx	r3
 403              	.LVL44:
 404 004e 0246     		mov	r2, r0
 405              	.LVL45:
 406 0050 03E0     		b	.L20
 407              	.LVL46:
 408              	.L18:
 409              	.LBE9:
  71:FT_Esd_Widgets/Ft_Esd_ImageButton__Generated.c **** 	}
 410              		.loc 1 71 0
 411 0052 2369     		ldr	r3, [r4, #16]
 412 0054 3046     		mov	r0, r6
 413              	.LVL47:
 414 0056 9847     		blx	r3
 415              	.LVL48:
 416 0058 0246     		mov	r2, r0
 417              	.LVL49:
 418              	.L20:
  74:FT_Esd_Widgets/Ft_Esd_ImageButton__Generated.c **** 	ft_uint8_t s_1 = 255;
 419              		.loc 1 74 0
 420 005a 4FF0FF33 		mov	r3, #-1
 421 005e 4146     		mov	r1, r8
 422 0060 3846     		mov	r0, r7
 423              	.LVL50:
 424 0062 FFF7FEFF 		bl	Ft_Esd_Render_Bitmap
 425              	.LVL51:
 426              	.LBB10:
 427              	.LBB11:
 428              		.loc 2 74 0
 429 0066 0449     		ldr	r1, .L22+4
 430 0068 024B     		ldr	r3, .L22
 431 006a 1868     		ldr	r0, [r3]
 432 006c FFF7FEFF 		bl	Ft_Gpu_Hal_WrCmd32
 433              	.LVL52:
 434              	.LBE11:
 435              	.LBE10:
  77:FT_Esd_Widgets/Ft_Esd_ImageButton__Generated.c **** 
 436              		.loc 1 77 0
ARM GAS  /var/folders/n8/cvzdcwlj0vl4g_wtyz1ffy300000gn/T//ccnc2zas.s 			page 12


 437 0070 BDE8F081 		pop	{r4, r5, r6, r7, r8, pc}
 438              	.LVL53:
 439              	.L23:
 440              		.align	2
 441              	.L22:
 442 0074 00000000 		.word	Ft_Esd_Host
 443 0078 FF000003 		.word	50331903
 444              		.cfi_endproc
 445              	.LFE32:
 447              		.section	.text.Ft_Esd_ImageButton_Start,"ax",%progbits
 448              		.align	1
 449              		.global	Ft_Esd_ImageButton_Start
 450              		.syntax unified
 451              		.thumb
 452              		.thumb_func
 453              		.fpu fpv5-sp-d16
 455              	Ft_Esd_ImageButton_Start:
 456              	.LFB33:
  80:FT_Esd_Widgets/Ft_Esd_ImageButton__Generated.c **** 	void *parent = context->Parent;
 457              		.loc 1 80 0
 458              		.cfi_startproc
 459              		@ args = 0, pretend = 0, frame = 0
 460              		@ frame_needed = 0, uses_anonymous_args = 0
 461              	.LVL54:
 462 0000 08B5     		push	{r3, lr}
 463              	.LCFI6:
 464              		.cfi_def_cfa_offset 8
 465              		.cfi_offset 3, -8
 466              		.cfi_offset 14, -4
 467              	.LVL55:
  82:FT_Esd_Widgets/Ft_Esd_ImageButton__Generated.c **** }
 468              		.loc 1 82 0
 469 0002 2030     		adds	r0, r0, #32
 470              	.LVL56:
 471 0004 FFF7FEFF 		bl	Ft_Esd_TouchTag_Start
 472              	.LVL57:
  83:FT_Esd_Widgets/Ft_Esd_ImageButton__Generated.c **** 
 473              		.loc 1 83 0
 474 0008 08BD     		pop	{r3, pc}
 475              		.cfi_endproc
 476              	.LFE33:
 478              		.section	.text.Ft_Esd_ImageButton_Update,"ax",%progbits
 479              		.align	1
 480              		.global	Ft_Esd_ImageButton_Update
 481              		.syntax unified
 482              		.thumb
 483              		.thumb_func
 484              		.fpu fpv5-sp-d16
 486              	Ft_Esd_ImageButton_Update:
 487              	.LFB37:
 105:FT_Esd_Widgets/Ft_Esd_ImageButton__Generated.c **** 
 106:FT_Esd_Widgets/Ft_Esd_ImageButton__Generated.c **** void Ft_Esd_ImageButton_Update(Ft_Esd_ImageButton *context)
 107:FT_Esd_Widgets/Ft_Esd_ImageButton__Generated.c **** {
 488              		.loc 1 107 0
 489              		.cfi_startproc
 490              		@ args = 0, pretend = 0, frame = 0
 491              		@ frame_needed = 0, uses_anonymous_args = 0
ARM GAS  /var/folders/n8/cvzdcwlj0vl4g_wtyz1ffy300000gn/T//ccnc2zas.s 			page 13


 492              	.LVL58:
 493 0000 08B5     		push	{r3, lr}
 494              	.LCFI7:
 495              		.cfi_def_cfa_offset 8
 496              		.cfi_offset 3, -8
 497              		.cfi_offset 14, -4
 498              	.LVL59:
 108:FT_Esd_Widgets/Ft_Esd_ImageButton__Generated.c **** 	void *parent = context->Parent;
 109:FT_Esd_Widgets/Ft_Esd_ImageButton__Generated.c **** 	Ft_Esd_TouchTag_Update(&context->Touch_Tag);
 499              		.loc 1 109 0
 500 0002 2030     		adds	r0, r0, #32
 501              	.LVL60:
 502 0004 FFF7FEFF 		bl	Ft_Esd_TouchTag_Update
 503              	.LVL61:
 110:FT_Esd_Widgets/Ft_Esd_ImageButton__Generated.c **** }
 504              		.loc 1 110 0
 505 0008 08BD     		pop	{r3, pc}
 506              		.cfi_endproc
 507              	.LFE37:
 509              		.section	.text.Ft_Esd_ImageButton_Pushing,"ax",%progbits
 510              		.align	1
 511              		.global	Ft_Esd_ImageButton_Pushing
 512              		.syntax unified
 513              		.thumb
 514              		.thumb_func
 515              		.fpu fpv5-sp-d16
 517              	Ft_Esd_ImageButton_Pushing:
 518              	.LFB38:
 111:FT_Esd_Widgets/Ft_Esd_ImageButton__Generated.c **** 
 112:FT_Esd_Widgets/Ft_Esd_ImageButton__Generated.c **** ft_bool_t Ft_Esd_ImageButton_Pushing(Ft_Esd_ImageButton *context)
 113:FT_Esd_Widgets/Ft_Esd_ImageButton__Generated.c **** {
 519              		.loc 1 113 0
 520              		.cfi_startproc
 521              		@ args = 0, pretend = 0, frame = 0
 522              		@ frame_needed = 0, uses_anonymous_args = 0
 523              	.LVL62:
 524 0000 08B5     		push	{r3, lr}
 525              	.LCFI8:
 526              		.cfi_def_cfa_offset 8
 527              		.cfi_offset 3, -8
 528              		.cfi_offset 14, -4
 529              	.LVL63:
 114:FT_Esd_Widgets/Ft_Esd_ImageButton__Generated.c **** 	void *parent = context->Parent;
 115:FT_Esd_Widgets/Ft_Esd_ImageButton__Generated.c **** 	return Ft_Esd_TouchTag_Inside(&context->Touch_Tag);
 530              		.loc 1 115 0
 531 0002 2030     		adds	r0, r0, #32
 532              	.LVL64:
 533 0004 FFF7FEFF 		bl	Ft_Esd_TouchTag_Inside
 534              	.LVL65:
 116:FT_Esd_Widgets/Ft_Esd_ImageButton__Generated.c **** }
 535              		.loc 1 116 0
 536 0008 08BD     		pop	{r3, pc}
 537              		.cfi_endproc
 538              	.LFE38:
 540              		.section	.text.Ft_Esd_ImageButton_End,"ax",%progbits
 541              		.align	1
 542              		.global	Ft_Esd_ImageButton_End
ARM GAS  /var/folders/n8/cvzdcwlj0vl4g_wtyz1ffy300000gn/T//ccnc2zas.s 			page 14


 543              		.syntax unified
 544              		.thumb
 545              		.thumb_func
 546              		.fpu fpv5-sp-d16
 548              	Ft_Esd_ImageButton_End:
 549              	.LFB39:
 117:FT_Esd_Widgets/Ft_Esd_ImageButton__Generated.c **** 
 118:FT_Esd_Widgets/Ft_Esd_ImageButton__Generated.c **** void Ft_Esd_ImageButton_End(Ft_Esd_ImageButton *context)
 119:FT_Esd_Widgets/Ft_Esd_ImageButton__Generated.c **** {
 550              		.loc 1 119 0
 551              		.cfi_startproc
 552              		@ args = 0, pretend = 0, frame = 0
 553              		@ frame_needed = 0, uses_anonymous_args = 0
 554              	.LVL66:
 555 0000 08B5     		push	{r3, lr}
 556              	.LCFI9:
 557              		.cfi_def_cfa_offset 8
 558              		.cfi_offset 3, -8
 559              		.cfi_offset 14, -4
 560              	.LVL67:
 120:FT_Esd_Widgets/Ft_Esd_ImageButton__Generated.c **** 	void *parent = context->Parent;
 121:FT_Esd_Widgets/Ft_Esd_ImageButton__Generated.c **** 	Ft_Esd_TouchTag_End(&context->Touch_Tag);
 561              		.loc 1 121 0
 562 0002 2030     		adds	r0, r0, #32
 563              	.LVL68:
 564 0004 FFF7FEFF 		bl	Ft_Esd_TouchTag_End
 565              	.LVL69:
 122:FT_Esd_Widgets/Ft_Esd_ImageButton__Generated.c **** }
 566              		.loc 1 122 0
 567 0008 08BD     		pop	{r3, pc}
 568              		.cfi_endproc
 569              	.LFE39:
 571              		.text
 572              	.Letext0:
 573              		.file 3 "FT_Eve_Hal/FT_DataTypes.h"
 574              		.file 4 "/usr/local/Cellar/arm-none-eabi-gcc/20180627/arm-none-eabi/include/sys/lock.h"
 575              		.file 5 "/usr/local/Cellar/arm-none-eabi-gcc/20180627/arm-none-eabi/include/sys/_types.h"
 576              		.file 6 "/usr/local/Cellar/arm-none-eabi-gcc/20180627/lib/gcc/arm-none-eabi/7.3.1/include/stddef.h
 577              		.file 7 "/usr/local/Cellar/arm-none-eabi-gcc/20180627/arm-none-eabi/include/sys/unistd.h"
 578              		.file 8 "/usr/local/Cellar/arm-none-eabi-gcc/20180627/arm-none-eabi/include/sys/reent.h"
 579              		.file 9 "/usr/local/Cellar/arm-none-eabi-gcc/20180627/arm-none-eabi/include/stdlib.h"
 580              		.file 10 "FT_Eve_Hal/FT_Gpu_Hal.h"
 581              		.file 11 "FT_Esd_Framework/Ft_Esd.h"
 582              		.file 12 "FT_Esd_Framework/Ft_Esd_GpuAlloc.h"
 583              		.file 13 "FT_Esd_Framework/Ft_Esd_BitmapInfo.h"
 584              		.file 14 "FT_Esd_Widgets/FT_Esd_Theme.h"
 585              		.file 15 "FT_Esd_Widgets/Ft_Esd_DefaultTheme.h"
 586              		.file 16 "FT_Esd_Framework/Ft_Esd_TouchTag.h"
 587              		.file 17 "FT_Esd_Widgets/Ft_Esd_ImageButton.h"
 588              		.file 18 "FT_Esd_Framework/FT_Esd_CoPro_Cmds.h"
ARM GAS  /var/folders/n8/cvzdcwlj0vl4g_wtyz1ffy300000gn/T//ccnc2zas.s 			page 15

