ARM GAS  /var/folders/n8/cvzdcwlj0vl4g_wtyz1ffy300000gn/T//ccyXdcQw.s 			page 1


   1              		.cpu cortex-m7
   2              		.eabi_attribute 27, 1
   3              		.eabi_attribute 28, 1
   4              		.eabi_attribute 20, 1
   5              		.eabi_attribute 21, 1
   6              		.eabi_attribute 23, 3
   7              		.eabi_attribute 24, 1
   8              		.eabi_attribute 25, 1
   9              		.eabi_attribute 26, 1
  10              		.eabi_attribute 30, 1
  11              		.eabi_attribute 34, 1
  12              		.eabi_attribute 18, 4
  13              		.file	"LayoutSplit__Generated.c"
  14              		.text
  15              	.Ltext0:
  16              		.cfi_sections	.debug_frame
  17              		.section	.text.LayoutSplit_Pos__Default,"ax",%progbits
  18              		.align	1
  19              		.global	LayoutSplit_Pos__Default
  20              		.syntax unified
  21              		.thumb
  22              		.thumb_func
  23              		.fpu fpv5-sp-d16
  25              	LayoutSplit_Pos__Default:
  26              	.LFB3:
  27              		.file 1 "FT_Esd_Widgets/LayoutSplit__Generated.c"
   1:FT_Esd_Widgets/LayoutSplit__Generated.c **** /*
   2:FT_Esd_Widgets/LayoutSplit__Generated.c **** This file is automatically generated
   3:FT_Esd_Widgets/LayoutSplit__Generated.c **** LayoutSplit
   4:FT_Esd_Widgets/LayoutSplit__Generated.c **** C Source
   5:FT_Esd_Widgets/LayoutSplit__Generated.c **** */
   6:FT_Esd_Widgets/LayoutSplit__Generated.c **** 
   7:FT_Esd_Widgets/LayoutSplit__Generated.c **** #include "LayoutSplit.h"
   8:FT_Esd_Widgets/LayoutSplit__Generated.c **** 
   9:FT_Esd_Widgets/LayoutSplit__Generated.c **** extern void Ft_Esd_Noop(void *context);
  10:FT_Esd_Widgets/LayoutSplit__Generated.c **** int LayoutSplit_Pos__Default(void *context) { return 0L; }
  28              		.loc 1 10 0
  29              		.cfi_startproc
  30              		@ args = 0, pretend = 0, frame = 0
  31              		@ frame_needed = 0, uses_anonymous_args = 0
  32              		@ link register save eliminated.
  33              	.LVL0:
  34              		.loc 1 10 0
  35 0000 0020     		movs	r0, #0
  36              	.LVL1:
  37 0002 7047     		bx	lr
  38              		.cfi_endproc
  39              	.LFE3:
  41              		.section	.text.LayoutSplit_Length__Default,"ax",%progbits
  42              		.align	1
  43              		.global	LayoutSplit_Length__Default
  44              		.syntax unified
  45              		.thumb
  46              		.thumb_func
  47              		.fpu fpv5-sp-d16
  49              	LayoutSplit_Length__Default:
  50              	.LFB4:
ARM GAS  /var/folders/n8/cvzdcwlj0vl4g_wtyz1ffy300000gn/T//ccyXdcQw.s 			page 2


  11:FT_Esd_Widgets/LayoutSplit__Generated.c **** int LayoutSplit_Length__Default(void *context) { return 0L; }
  51              		.loc 1 11 0
  52              		.cfi_startproc
  53              		@ args = 0, pretend = 0, frame = 0
  54              		@ frame_needed = 0, uses_anonymous_args = 0
  55              		@ link register save eliminated.
  56              	.LVL2:
  57              		.loc 1 11 0
  58 0000 0020     		movs	r0, #0
  59              	.LVL3:
  60 0002 7047     		bx	lr
  61              		.cfi_endproc
  62              	.LFE4:
  64              		.section	.text.LayoutSplit_Numerator__Default,"ax",%progbits
  65              		.align	1
  66              		.global	LayoutSplit_Numerator__Default
  67              		.syntax unified
  68              		.thumb
  69              		.thumb_func
  70              		.fpu fpv5-sp-d16
  72              	LayoutSplit_Numerator__Default:
  73              	.LFB5:
  12:FT_Esd_Widgets/LayoutSplit__Generated.c **** int LayoutSplit_Numerator__Default(void *context) { return 50L; }
  74              		.loc 1 12 0
  75              		.cfi_startproc
  76              		@ args = 0, pretend = 0, frame = 0
  77              		@ frame_needed = 0, uses_anonymous_args = 0
  78              		@ link register save eliminated.
  79              	.LVL4:
  80              		.loc 1 12 0
  81 0000 3220     		movs	r0, #50
  82              	.LVL5:
  83 0002 7047     		bx	lr
  84              		.cfi_endproc
  85              	.LFE5:
  87              		.section	.text.LayoutSplit_Denominator__Default,"ax",%progbits
  88              		.align	1
  89              		.global	LayoutSplit_Denominator__Default
  90              		.syntax unified
  91              		.thumb
  92              		.thumb_func
  93              		.fpu fpv5-sp-d16
  95              	LayoutSplit_Denominator__Default:
  96              	.LFB6:
  13:FT_Esd_Widgets/LayoutSplit__Generated.c **** int LayoutSplit_Denominator__Default(void *context) { return 0L; }
  97              		.loc 1 13 0
  98              		.cfi_startproc
  99              		@ args = 0, pretend = 0, frame = 0
 100              		@ frame_needed = 0, uses_anonymous_args = 0
 101              		@ link register save eliminated.
 102              	.LVL6:
 103              		.loc 1 13 0
 104 0000 0020     		movs	r0, #0
 105              	.LVL7:
 106 0002 7047     		bx	lr
 107              		.cfi_endproc
 108              	.LFE6:
ARM GAS  /var/folders/n8/cvzdcwlj0vl4g_wtyz1ffy300000gn/T//ccyXdcQw.s 			page 3


 110              		.section	.text.LayoutSplit_Margin__Default,"ax",%progbits
 111              		.align	1
 112              		.global	LayoutSplit_Margin__Default
 113              		.syntax unified
 114              		.thumb
 115              		.thumb_func
 116              		.fpu fpv5-sp-d16
 118              	LayoutSplit_Margin__Default:
 119              	.LFB7:
  14:FT_Esd_Widgets/LayoutSplit__Generated.c **** int LayoutSplit_Margin__Default(void *context) { return 4L; }
 120              		.loc 1 14 0
 121              		.cfi_startproc
 122              		@ args = 0, pretend = 0, frame = 0
 123              		@ frame_needed = 0, uses_anonymous_args = 0
 124              		@ link register save eliminated.
 125              	.LVL8:
 126              		.loc 1 14 0
 127 0000 0420     		movs	r0, #4
 128              	.LVL9:
 129 0002 7047     		bx	lr
 130              		.cfi_endproc
 131              	.LFE7:
 133              		.section	.text.LayoutSplit__Initializer,"ax",%progbits
 134              		.align	1
 135              		.global	LayoutSplit__Initializer
 136              		.syntax unified
 137              		.thumb
 138              		.thumb_func
 139              		.fpu fpv5-sp-d16
 141              	LayoutSplit__Initializer:
 142              	.LFB8:
  15:FT_Esd_Widgets/LayoutSplit__Generated.c **** 
  16:FT_Esd_Widgets/LayoutSplit__Generated.c **** 
  17:FT_Esd_Widgets/LayoutSplit__Generated.c **** 
  18:FT_Esd_Widgets/LayoutSplit__Generated.c **** void LayoutSplit__Initializer(LayoutSplit *context)
  19:FT_Esd_Widgets/LayoutSplit__Generated.c **** {
 143              		.loc 1 19 0
 144              		.cfi_startproc
 145              		@ args = 0, pretend = 0, frame = 0
 146              		@ frame_needed = 0, uses_anonymous_args = 0
 147              		@ link register save eliminated.
 148              	.LVL10:
  20:FT_Esd_Widgets/LayoutSplit__Generated.c **** 	context->Parent = 0;
 149              		.loc 1 20 0
 150 0000 0023     		movs	r3, #0
 151 0002 0360     		str	r3, [r0]
  21:FT_Esd_Widgets/LayoutSplit__Generated.c **** 	context->Pos = LayoutSplit_Pos__Default;
 152              		.loc 1 21 0
 153 0004 054B     		ldr	r3, .L7
 154 0006 4360     		str	r3, [r0, #4]
  22:FT_Esd_Widgets/LayoutSplit__Generated.c **** 	context->Length = LayoutSplit_Length__Default;
 155              		.loc 1 22 0
 156 0008 054B     		ldr	r3, .L7+4
 157 000a 8360     		str	r3, [r0, #8]
  23:FT_Esd_Widgets/LayoutSplit__Generated.c **** 	context->Numerator = LayoutSplit_Numerator__Default;
 158              		.loc 1 23 0
 159 000c 054B     		ldr	r3, .L7+8
ARM GAS  /var/folders/n8/cvzdcwlj0vl4g_wtyz1ffy300000gn/T//ccyXdcQw.s 			page 4


 160 000e C360     		str	r3, [r0, #12]
  24:FT_Esd_Widgets/LayoutSplit__Generated.c **** 	context->Denominator = LayoutSplit_Denominator__Default;
 161              		.loc 1 24 0
 162 0010 054B     		ldr	r3, .L7+12
 163 0012 0361     		str	r3, [r0, #16]
  25:FT_Esd_Widgets/LayoutSplit__Generated.c **** 	context->Margin = LayoutSplit_Margin__Default;
 164              		.loc 1 25 0
 165 0014 054B     		ldr	r3, .L7+16
 166 0016 4361     		str	r3, [r0, #20]
  26:FT_Esd_Widgets/LayoutSplit__Generated.c **** }
 167              		.loc 1 26 0
 168 0018 7047     		bx	lr
 169              	.L8:
 170 001a 00BF     		.align	2
 171              	.L7:
 172 001c 00000000 		.word	LayoutSplit_Pos__Default
 173 0020 00000000 		.word	LayoutSplit_Length__Default
 174 0024 00000000 		.word	LayoutSplit_Numerator__Default
 175 0028 00000000 		.word	LayoutSplit_Denominator__Default
 176 002c 00000000 		.word	LayoutSplit_Margin__Default
 177              		.cfi_endproc
 178              	.LFE8:
 180              		.section	.text.LayoutSplit_FirstPos,"ax",%progbits
 181              		.align	1
 182              		.global	LayoutSplit_FirstPos
 183              		.syntax unified
 184              		.thumb
 185              		.thumb_func
 186              		.fpu fpv5-sp-d16
 188              	LayoutSplit_FirstPos:
 189              	.LFB9:
  27:FT_Esd_Widgets/LayoutSplit__Generated.c **** 
  28:FT_Esd_Widgets/LayoutSplit__Generated.c **** int LayoutSplit_FirstPos(LayoutSplit *context)
  29:FT_Esd_Widgets/LayoutSplit__Generated.c **** {
 190              		.loc 1 29 0
 191              		.cfi_startproc
 192              		@ args = 0, pretend = 0, frame = 0
 193              		@ frame_needed = 0, uses_anonymous_args = 0
 194              	.LVL11:
 195 0000 08B5     		push	{r3, lr}
 196              	.LCFI0:
 197              		.cfi_def_cfa_offset 8
 198              		.cfi_offset 3, -8
 199              		.cfi_offset 14, -4
 200              	.LVL12:
  30:FT_Esd_Widgets/LayoutSplit__Generated.c **** 	void *parent = context->Parent;
  31:FT_Esd_Widgets/LayoutSplit__Generated.c **** 	return context->Pos(parent);
 201              		.loc 1 31 0
 202 0002 4368     		ldr	r3, [r0, #4]
 203 0004 0068     		ldr	r0, [r0]
 204              	.LVL13:
 205 0006 9847     		blx	r3
 206              	.LVL14:
  32:FT_Esd_Widgets/LayoutSplit__Generated.c **** }
 207              		.loc 1 32 0
 208 0008 08BD     		pop	{r3, pc}
 209              		.cfi_endproc
ARM GAS  /var/folders/n8/cvzdcwlj0vl4g_wtyz1ffy300000gn/T//ccyXdcQw.s 			page 5


 210              	.LFE9:
 212              		.section	.text.LayoutSplit_SecondPos,"ax",%progbits
 213              		.align	1
 214              		.global	LayoutSplit_SecondPos
 215              		.syntax unified
 216              		.thumb
 217              		.thumb_func
 218              		.fpu fpv5-sp-d16
 220              	LayoutSplit_SecondPos:
 221              	.LFB10:
  33:FT_Esd_Widgets/LayoutSplit__Generated.c **** 
  34:FT_Esd_Widgets/LayoutSplit__Generated.c **** int LayoutSplit_SecondPos(LayoutSplit *context)
  35:FT_Esd_Widgets/LayoutSplit__Generated.c **** {
 222              		.loc 1 35 0
 223              		.cfi_startproc
 224              		@ args = 0, pretend = 0, frame = 0
 225              		@ frame_needed = 0, uses_anonymous_args = 0
 226              	.LVL15:
 227 0000 F8B5     		push	{r3, r4, r5, r6, r7, lr}
 228              	.LCFI1:
 229              		.cfi_def_cfa_offset 24
 230              		.cfi_offset 3, -24
 231              		.cfi_offset 4, -20
 232              		.cfi_offset 5, -16
 233              		.cfi_offset 6, -12
 234              		.cfi_offset 7, -8
 235              		.cfi_offset 14, -4
 236 0002 0446     		mov	r4, r0
  36:FT_Esd_Widgets/LayoutSplit__Generated.c **** 	void *parent = context->Parent;
 237              		.loc 1 36 0
 238 0004 0568     		ldr	r5, [r0]
 239              	.LVL16:
  37:FT_Esd_Widgets/LayoutSplit__Generated.c **** 	int left_1 = context->Pos(parent);
 240              		.loc 1 37 0
 241 0006 4368     		ldr	r3, [r0, #4]
 242 0008 2846     		mov	r0, r5
 243              	.LVL17:
 244 000a 9847     		blx	r3
 245              	.LVL18:
 246 000c 0746     		mov	r7, r0
 247              	.LVL19:
  38:FT_Esd_Widgets/LayoutSplit__Generated.c **** 	int left_3 = context->Length(parent);
 248              		.loc 1 38 0
 249 000e A368     		ldr	r3, [r4, #8]
 250 0010 2846     		mov	r0, r5
 251              	.LVL20:
 252 0012 9847     		blx	r3
 253              	.LVL21:
 254 0014 0646     		mov	r6, r0
 255              	.LVL22:
  39:FT_Esd_Widgets/LayoutSplit__Generated.c **** 	int right_1 = context->Numerator(parent);
 256              		.loc 1 39 0
 257 0016 E368     		ldr	r3, [r4, #12]
 258 0018 2846     		mov	r0, r5
 259              	.LVL23:
 260 001a 9847     		blx	r3
 261              	.LVL24:
ARM GAS  /var/folders/n8/cvzdcwlj0vl4g_wtyz1ffy300000gn/T//ccyXdcQw.s 			page 6


  40:FT_Esd_Widgets/LayoutSplit__Generated.c **** 	int left_2 = left_3 * right_1;
 262              		.loc 1 40 0
 263 001c 00FB06F6 		mul	r6, r0, r6
 264              	.LVL25:
  41:FT_Esd_Widgets/LayoutSplit__Generated.c **** 	int right_2 = context->Denominator(parent);
 265              		.loc 1 41 0
 266 0020 2369     		ldr	r3, [r4, #16]
 267 0022 2846     		mov	r0, r5
 268              	.LVL26:
 269 0024 9847     		blx	r3
 270              	.LVL27:
  42:FT_Esd_Widgets/LayoutSplit__Generated.c **** 	int right = left_2 / right_2;
 271              		.loc 1 42 0
 272 0026 96FBF0F0 		sdiv	r0, r6, r0
 273              	.LVL28:
  43:FT_Esd_Widgets/LayoutSplit__Generated.c **** 	int left = left_1 + right;
 274              		.loc 1 43 0
 275 002a 0744     		add	r7, r7, r0
 276              	.LVL29:
  44:FT_Esd_Widgets/LayoutSplit__Generated.c **** 	int right_3 = context->Margin(parent);
 277              		.loc 1 44 0
 278 002c 6369     		ldr	r3, [r4, #20]
 279 002e 2846     		mov	r0, r5
 280              	.LVL30:
 281 0030 9847     		blx	r3
 282              	.LVL31:
  45:FT_Esd_Widgets/LayoutSplit__Generated.c **** 	return left + right_3;
  46:FT_Esd_Widgets/LayoutSplit__Generated.c **** }
 283              		.loc 1 46 0
 284 0032 3844     		add	r0, r0, r7
 285              	.LVL32:
 286 0034 F8BD     		pop	{r3, r4, r5, r6, r7, pc}
 287              		.cfi_endproc
 288              	.LFE10:
 290              		.section	.text.LayoutSplit_FirstLength,"ax",%progbits
 291              		.align	1
 292              		.global	LayoutSplit_FirstLength
 293              		.syntax unified
 294              		.thumb
 295              		.thumb_func
 296              		.fpu fpv5-sp-d16
 298              	LayoutSplit_FirstLength:
 299              	.LFB11:
  47:FT_Esd_Widgets/LayoutSplit__Generated.c **** 
  48:FT_Esd_Widgets/LayoutSplit__Generated.c **** int LayoutSplit_FirstLength(LayoutSplit *context)
  49:FT_Esd_Widgets/LayoutSplit__Generated.c **** {
 300              		.loc 1 49 0
 301              		.cfi_startproc
 302              		@ args = 0, pretend = 0, frame = 0
 303              		@ frame_needed = 0, uses_anonymous_args = 0
 304              	.LVL33:
 305 0000 70B5     		push	{r4, r5, r6, lr}
 306              	.LCFI2:
 307              		.cfi_def_cfa_offset 16
 308              		.cfi_offset 4, -16
 309              		.cfi_offset 5, -12
 310              		.cfi_offset 6, -8
ARM GAS  /var/folders/n8/cvzdcwlj0vl4g_wtyz1ffy300000gn/T//ccyXdcQw.s 			page 7


 311              		.cfi_offset 14, -4
 312 0002 0546     		mov	r5, r0
  50:FT_Esd_Widgets/LayoutSplit__Generated.c **** 	void *parent = context->Parent;
 313              		.loc 1 50 0
 314 0004 0668     		ldr	r6, [r0]
 315              	.LVL34:
  51:FT_Esd_Widgets/LayoutSplit__Generated.c **** 	int left_6 = context->Length(parent);
 316              		.loc 1 51 0
 317 0006 8368     		ldr	r3, [r0, #8]
 318 0008 3046     		mov	r0, r6
 319              	.LVL35:
 320 000a 9847     		blx	r3
 321              	.LVL36:
 322 000c 0446     		mov	r4, r0
 323              	.LVL37:
  52:FT_Esd_Widgets/LayoutSplit__Generated.c **** 	int right_4 = context->Numerator(parent);
 324              		.loc 1 52 0
 325 000e EB68     		ldr	r3, [r5, #12]
 326 0010 3046     		mov	r0, r6
 327              	.LVL38:
 328 0012 9847     		blx	r3
 329              	.LVL39:
  53:FT_Esd_Widgets/LayoutSplit__Generated.c **** 	int left_5 = left_6 * right_4;
 330              		.loc 1 53 0
 331 0014 00FB04F4 		mul	r4, r0, r4
 332              	.LVL40:
  54:FT_Esd_Widgets/LayoutSplit__Generated.c **** 	int right_5 = context->Denominator(parent);
 333              		.loc 1 54 0
 334 0018 2B69     		ldr	r3, [r5, #16]
 335 001a 3046     		mov	r0, r6
 336              	.LVL41:
 337 001c 9847     		blx	r3
 338              	.LVL42:
  55:FT_Esd_Widgets/LayoutSplit__Generated.c **** 	int left_4 = left_5 / right_5;
 339              		.loc 1 55 0
 340 001e 94FBF0F4 		sdiv	r4, r4, r0
 341              	.LVL43:
  56:FT_Esd_Widgets/LayoutSplit__Generated.c **** 	int left_7 = context->Margin(parent);
 342              		.loc 1 56 0
 343 0022 6B69     		ldr	r3, [r5, #20]
 344 0024 3046     		mov	r0, r6
 345              	.LVL44:
 346 0026 9847     		blx	r3
 347              	.LVL45:
  57:FT_Esd_Widgets/LayoutSplit__Generated.c **** 	int right_7 = 2L;
  58:FT_Esd_Widgets/LayoutSplit__Generated.c **** 	int right_6 = left_7 / right_7;
 348              		.loc 1 58 0
 349 0028 0028     		cmp	r0, #0
 350 002a 02DB     		blt	.L16
 351              	.L14:
 352              	.LVL46:
  59:FT_Esd_Widgets/LayoutSplit__Generated.c **** 	return left_4 - right_6;
  60:FT_Esd_Widgets/LayoutSplit__Generated.c **** }
 353              		.loc 1 60 0
 354 002c A4EB6000 		sub	r0, r4, r0, asr #1
 355              	.LVL47:
 356 0030 70BD     		pop	{r4, r5, r6, pc}
ARM GAS  /var/folders/n8/cvzdcwlj0vl4g_wtyz1ffy300000gn/T//ccyXdcQw.s 			page 8


 357              	.LVL48:
 358              	.L16:
  58:FT_Esd_Widgets/LayoutSplit__Generated.c **** 	return left_4 - right_6;
 359              		.loc 1 58 0
 360 0032 0130     		adds	r0, r0, #1
 361 0034 FAE7     		b	.L14
 362              		.cfi_endproc
 363              	.LFE11:
 365              		.section	.text.LayoutSplit_SecondLength,"ax",%progbits
 366              		.align	1
 367              		.global	LayoutSplit_SecondLength
 368              		.syntax unified
 369              		.thumb
 370              		.thumb_func
 371              		.fpu fpv5-sp-d16
 373              	LayoutSplit_SecondLength:
 374              	.LFB12:
  61:FT_Esd_Widgets/LayoutSplit__Generated.c **** 
  62:FT_Esd_Widgets/LayoutSplit__Generated.c **** int LayoutSplit_SecondLength(LayoutSplit *context)
  63:FT_Esd_Widgets/LayoutSplit__Generated.c **** {
 375              		.loc 1 63 0
 376              		.cfi_startproc
 377              		@ args = 0, pretend = 0, frame = 0
 378              		@ frame_needed = 0, uses_anonymous_args = 0
 379              	.LVL49:
 380 0000 F8B5     		push	{r3, r4, r5, r6, r7, lr}
 381              	.LCFI3:
 382              		.cfi_def_cfa_offset 24
 383              		.cfi_offset 3, -24
 384              		.cfi_offset 4, -20
 385              		.cfi_offset 5, -16
 386              		.cfi_offset 6, -12
 387              		.cfi_offset 7, -8
 388              		.cfi_offset 14, -4
 389 0002 0446     		mov	r4, r0
  64:FT_Esd_Widgets/LayoutSplit__Generated.c **** 	void *parent = context->Parent;
 390              		.loc 1 64 0
 391 0004 0568     		ldr	r5, [r0]
 392              	.LVL50:
  65:FT_Esd_Widgets/LayoutSplit__Generated.c **** 	int left_9 = context->Length(parent);
 393              		.loc 1 65 0
 394 0006 8368     		ldr	r3, [r0, #8]
 395 0008 2846     		mov	r0, r5
 396              	.LVL51:
 397 000a 9847     		blx	r3
 398              	.LVL52:
 399 000c 0746     		mov	r7, r0
 400              	.LVL53:
  66:FT_Esd_Widgets/LayoutSplit__Generated.c **** 	int left_11 = context->Length(parent);
 401              		.loc 1 66 0
 402 000e A368     		ldr	r3, [r4, #8]
 403 0010 2846     		mov	r0, r5
 404              	.LVL54:
 405 0012 9847     		blx	r3
 406              	.LVL55:
 407 0014 0646     		mov	r6, r0
 408              	.LVL56:
ARM GAS  /var/folders/n8/cvzdcwlj0vl4g_wtyz1ffy300000gn/T//ccyXdcQw.s 			page 9


  67:FT_Esd_Widgets/LayoutSplit__Generated.c **** 	int right_9 = context->Numerator(parent);
 409              		.loc 1 67 0
 410 0016 E368     		ldr	r3, [r4, #12]
 411 0018 2846     		mov	r0, r5
 412              	.LVL57:
 413 001a 9847     		blx	r3
 414              	.LVL58:
  68:FT_Esd_Widgets/LayoutSplit__Generated.c **** 	int left_10 = left_11 * right_9;
 415              		.loc 1 68 0
 416 001c 00FB06F6 		mul	r6, r0, r6
 417              	.LVL59:
  69:FT_Esd_Widgets/LayoutSplit__Generated.c **** 	int right_10 = context->Denominator(parent);
 418              		.loc 1 69 0
 419 0020 2369     		ldr	r3, [r4, #16]
 420 0022 2846     		mov	r0, r5
 421              	.LVL60:
 422 0024 9847     		blx	r3
 423              	.LVL61:
  70:FT_Esd_Widgets/LayoutSplit__Generated.c **** 	int right_8 = left_10 / right_10;
 424              		.loc 1 70 0
 425 0026 96FBF0F0 		sdiv	r0, r6, r0
 426              	.LVL62:
  71:FT_Esd_Widgets/LayoutSplit__Generated.c **** 	int left_8 = left_9 - right_8;
 427              		.loc 1 71 0
 428 002a 3F1A     		subs	r7, r7, r0
 429              	.LVL63:
  72:FT_Esd_Widgets/LayoutSplit__Generated.c **** 	int left_12 = context->Margin(parent);
 430              		.loc 1 72 0
 431 002c 6369     		ldr	r3, [r4, #20]
 432 002e 2846     		mov	r0, r5
 433              	.LVL64:
 434 0030 9847     		blx	r3
 435              	.LVL65:
  73:FT_Esd_Widgets/LayoutSplit__Generated.c **** 	int right_12 = 2L;
  74:FT_Esd_Widgets/LayoutSplit__Generated.c **** 	int right_11 = left_12 / right_12;
 436              		.loc 1 74 0
 437 0032 0028     		cmp	r0, #0
 438 0034 02DB     		blt	.L20
 439              	.L18:
 440              	.LVL66:
  75:FT_Esd_Widgets/LayoutSplit__Generated.c **** 	return left_8 - right_11;
  76:FT_Esd_Widgets/LayoutSplit__Generated.c **** }
 441              		.loc 1 76 0
 442 0036 A7EB6000 		sub	r0, r7, r0, asr #1
 443              	.LVL67:
 444 003a F8BD     		pop	{r3, r4, r5, r6, r7, pc}
 445              	.LVL68:
 446              	.L20:
  74:FT_Esd_Widgets/LayoutSplit__Generated.c **** 	return left_8 - right_11;
 447              		.loc 1 74 0
 448 003c 0130     		adds	r0, r0, #1
 449 003e FAE7     		b	.L18
 450              		.cfi_endproc
 451              	.LFE12:
 453              		.text
 454              	.Letext0:
 455              		.file 2 "/usr/local/Cellar/arm-none-eabi-gcc/20180627/arm-none-eabi/include/sys/lock.h"
ARM GAS  /var/folders/n8/cvzdcwlj0vl4g_wtyz1ffy300000gn/T//ccyXdcQw.s 			page 10


 456              		.file 3 "/usr/local/Cellar/arm-none-eabi-gcc/20180627/arm-none-eabi/include/sys/_types.h"
 457              		.file 4 "/usr/local/Cellar/arm-none-eabi-gcc/20180627/lib/gcc/arm-none-eabi/7.3.1/include/stddef.h
 458              		.file 5 "/usr/local/Cellar/arm-none-eabi-gcc/20180627/arm-none-eabi/include/sys/unistd.h"
 459              		.file 6 "/usr/local/Cellar/arm-none-eabi-gcc/20180627/arm-none-eabi/include/sys/reent.h"
 460              		.file 7 "/usr/local/Cellar/arm-none-eabi-gcc/20180627/arm-none-eabi/include/stdlib.h"
 461              		.file 8 "FT_Esd_Widgets/LayoutSplit.h"
ARM GAS  /var/folders/n8/cvzdcwlj0vl4g_wtyz1ffy300000gn/T//ccyXdcQw.s 			page 11

