ARM GAS  /var/folders/n8/cvzdcwlj0vl4g_wtyz1ffy300000gn/T//ccrDn2lZ.s 			page 1


   1              		.cpu cortex-m7
   2              		.eabi_attribute 27, 1
   3              		.eabi_attribute 28, 1
   4              		.eabi_attribute 20, 1
   5              		.eabi_attribute 21, 1
   6              		.eabi_attribute 23, 3
   7              		.eabi_attribute 24, 1
   8              		.eabi_attribute 25, 1
   9              		.eabi_attribute 26, 1
  10              		.eabi_attribute 30, 1
  11              		.eabi_attribute 34, 1
  12              		.eabi_attribute 18, 4
  13              		.file	"LayoutMargin__Generated.c"
  14              		.text
  15              	.Ltext0:
  16              		.cfi_sections	.debug_frame
  17              		.section	.text.LayoutMargin_X__Default,"ax",%progbits
  18              		.align	1
  19              		.global	LayoutMargin_X__Default
  20              		.syntax unified
  21              		.thumb
  22              		.thumb_func
  23              		.fpu fpv5-sp-d16
  25              	LayoutMargin_X__Default:
  26              	.LFB3:
  27              		.file 1 "FT_Esd_Widgets/LayoutMargin__Generated.c"
   1:FT_Esd_Widgets/LayoutMargin__Generated.c **** /*
   2:FT_Esd_Widgets/LayoutMargin__Generated.c **** This file is automatically generated
   3:FT_Esd_Widgets/LayoutMargin__Generated.c **** LayoutMargin
   4:FT_Esd_Widgets/LayoutMargin__Generated.c **** C Source
   5:FT_Esd_Widgets/LayoutMargin__Generated.c **** */
   6:FT_Esd_Widgets/LayoutMargin__Generated.c **** 
   7:FT_Esd_Widgets/LayoutMargin__Generated.c **** #include "LayoutMargin.h"
   8:FT_Esd_Widgets/LayoutMargin__Generated.c **** 
   9:FT_Esd_Widgets/LayoutMargin__Generated.c **** extern void Ft_Esd_Noop(void *context);
  10:FT_Esd_Widgets/LayoutMargin__Generated.c **** int LayoutMargin_X__Default(void *context) { return 0L; }
  28              		.loc 1 10 0
  29              		.cfi_startproc
  30              		@ args = 0, pretend = 0, frame = 0
  31              		@ frame_needed = 0, uses_anonymous_args = 0
  32              		@ link register save eliminated.
  33              	.LVL0:
  34              		.loc 1 10 0
  35 0000 0020     		movs	r0, #0
  36              	.LVL1:
  37 0002 7047     		bx	lr
  38              		.cfi_endproc
  39              	.LFE3:
  41              		.section	.text.LayoutMargin_Y__Default,"ax",%progbits
  42              		.align	1
  43              		.global	LayoutMargin_Y__Default
  44              		.syntax unified
  45              		.thumb
  46              		.thumb_func
  47              		.fpu fpv5-sp-d16
  49              	LayoutMargin_Y__Default:
  50              	.LFB4:
ARM GAS  /var/folders/n8/cvzdcwlj0vl4g_wtyz1ffy300000gn/T//ccrDn2lZ.s 			page 2


  11:FT_Esd_Widgets/LayoutMargin__Generated.c **** int LayoutMargin_Y__Default(void *context) { return 0L; }
  51              		.loc 1 11 0
  52              		.cfi_startproc
  53              		@ args = 0, pretend = 0, frame = 0
  54              		@ frame_needed = 0, uses_anonymous_args = 0
  55              		@ link register save eliminated.
  56              	.LVL2:
  57              		.loc 1 11 0
  58 0000 0020     		movs	r0, #0
  59              	.LVL3:
  60 0002 7047     		bx	lr
  61              		.cfi_endproc
  62              	.LFE4:
  64              		.section	.text.LayoutMargin_Width__Default,"ax",%progbits
  65              		.align	1
  66              		.global	LayoutMargin_Width__Default
  67              		.syntax unified
  68              		.thumb
  69              		.thumb_func
  70              		.fpu fpv5-sp-d16
  72              	LayoutMargin_Width__Default:
  73              	.LFB5:
  12:FT_Esd_Widgets/LayoutMargin__Generated.c **** int LayoutMargin_Width__Default(void *context) { return 0L; }
  74              		.loc 1 12 0
  75              		.cfi_startproc
  76              		@ args = 0, pretend = 0, frame = 0
  77              		@ frame_needed = 0, uses_anonymous_args = 0
  78              		@ link register save eliminated.
  79              	.LVL4:
  80              		.loc 1 12 0
  81 0000 0020     		movs	r0, #0
  82              	.LVL5:
  83 0002 7047     		bx	lr
  84              		.cfi_endproc
  85              	.LFE5:
  87              		.section	.text.LayoutMargin_Height__Default,"ax",%progbits
  88              		.align	1
  89              		.global	LayoutMargin_Height__Default
  90              		.syntax unified
  91              		.thumb
  92              		.thumb_func
  93              		.fpu fpv5-sp-d16
  95              	LayoutMargin_Height__Default:
  96              	.LFB6:
  13:FT_Esd_Widgets/LayoutMargin__Generated.c **** int LayoutMargin_Height__Default(void *context) { return 0L; }
  97              		.loc 1 13 0
  98              		.cfi_startproc
  99              		@ args = 0, pretend = 0, frame = 0
 100              		@ frame_needed = 0, uses_anonymous_args = 0
 101              		@ link register save eliminated.
 102              	.LVL6:
 103              		.loc 1 13 0
 104 0000 0020     		movs	r0, #0
 105              	.LVL7:
 106 0002 7047     		bx	lr
 107              		.cfi_endproc
 108              	.LFE6:
ARM GAS  /var/folders/n8/cvzdcwlj0vl4g_wtyz1ffy300000gn/T//ccrDn2lZ.s 			page 3


 110              		.section	.text.LayoutMargin_Margin__Default,"ax",%progbits
 111              		.align	1
 112              		.global	LayoutMargin_Margin__Default
 113              		.syntax unified
 114              		.thumb
 115              		.thumb_func
 116              		.fpu fpv5-sp-d16
 118              	LayoutMargin_Margin__Default:
 119              	.LFB7:
  14:FT_Esd_Widgets/LayoutMargin__Generated.c **** int LayoutMargin_Margin__Default(void *context) { return 0L; }
 120              		.loc 1 14 0
 121              		.cfi_startproc
 122              		@ args = 0, pretend = 0, frame = 0
 123              		@ frame_needed = 0, uses_anonymous_args = 0
 124              		@ link register save eliminated.
 125              	.LVL8:
 126              		.loc 1 14 0
 127 0000 0020     		movs	r0, #0
 128              	.LVL9:
 129 0002 7047     		bx	lr
 130              		.cfi_endproc
 131              	.LFE7:
 133              		.section	.text.LayoutMargin__Initializer,"ax",%progbits
 134              		.align	1
 135              		.global	LayoutMargin__Initializer
 136              		.syntax unified
 137              		.thumb
 138              		.thumb_func
 139              		.fpu fpv5-sp-d16
 141              	LayoutMargin__Initializer:
 142              	.LFB8:
  15:FT_Esd_Widgets/LayoutMargin__Generated.c **** 
  16:FT_Esd_Widgets/LayoutMargin__Generated.c **** 
  17:FT_Esd_Widgets/LayoutMargin__Generated.c **** 
  18:FT_Esd_Widgets/LayoutMargin__Generated.c **** void LayoutMargin__Initializer(LayoutMargin *context)
  19:FT_Esd_Widgets/LayoutMargin__Generated.c **** {
 143              		.loc 1 19 0
 144              		.cfi_startproc
 145              		@ args = 0, pretend = 0, frame = 0
 146              		@ frame_needed = 0, uses_anonymous_args = 0
 147              		@ link register save eliminated.
 148              	.LVL10:
  20:FT_Esd_Widgets/LayoutMargin__Generated.c **** 	context->Parent = 0;
 149              		.loc 1 20 0
 150 0000 0023     		movs	r3, #0
 151 0002 0360     		str	r3, [r0]
  21:FT_Esd_Widgets/LayoutMargin__Generated.c **** 	context->X = LayoutMargin_X__Default;
 152              		.loc 1 21 0
 153 0004 054B     		ldr	r3, .L7
 154 0006 4360     		str	r3, [r0, #4]
  22:FT_Esd_Widgets/LayoutMargin__Generated.c **** 	context->Y = LayoutMargin_Y__Default;
 155              		.loc 1 22 0
 156 0008 054B     		ldr	r3, .L7+4
 157 000a 8360     		str	r3, [r0, #8]
  23:FT_Esd_Widgets/LayoutMargin__Generated.c **** 	context->Width = LayoutMargin_Width__Default;
 158              		.loc 1 23 0
 159 000c 054B     		ldr	r3, .L7+8
ARM GAS  /var/folders/n8/cvzdcwlj0vl4g_wtyz1ffy300000gn/T//ccrDn2lZ.s 			page 4


 160 000e C360     		str	r3, [r0, #12]
  24:FT_Esd_Widgets/LayoutMargin__Generated.c **** 	context->Height = LayoutMargin_Height__Default;
 161              		.loc 1 24 0
 162 0010 054B     		ldr	r3, .L7+12
 163 0012 0361     		str	r3, [r0, #16]
  25:FT_Esd_Widgets/LayoutMargin__Generated.c **** 	context->Margin = LayoutMargin_Margin__Default;
 164              		.loc 1 25 0
 165 0014 054B     		ldr	r3, .L7+16
 166 0016 4361     		str	r3, [r0, #20]
  26:FT_Esd_Widgets/LayoutMargin__Generated.c **** }
 167              		.loc 1 26 0
 168 0018 7047     		bx	lr
 169              	.L8:
 170 001a 00BF     		.align	2
 171              	.L7:
 172 001c 00000000 		.word	LayoutMargin_X__Default
 173 0020 00000000 		.word	LayoutMargin_Y__Default
 174 0024 00000000 		.word	LayoutMargin_Width__Default
 175 0028 00000000 		.word	LayoutMargin_Height__Default
 176 002c 00000000 		.word	LayoutMargin_Margin__Default
 177              		.cfi_endproc
 178              	.LFE8:
 180              		.section	.text.LayoutMargin_OutX,"ax",%progbits
 181              		.align	1
 182              		.global	LayoutMargin_OutX
 183              		.syntax unified
 184              		.thumb
 185              		.thumb_func
 186              		.fpu fpv5-sp-d16
 188              	LayoutMargin_OutX:
 189              	.LFB9:
  27:FT_Esd_Widgets/LayoutMargin__Generated.c **** 
  28:FT_Esd_Widgets/LayoutMargin__Generated.c **** int LayoutMargin_OutX(LayoutMargin *context)
  29:FT_Esd_Widgets/LayoutMargin__Generated.c **** {
 190              		.loc 1 29 0
 191              		.cfi_startproc
 192              		@ args = 0, pretend = 0, frame = 0
 193              		@ frame_needed = 0, uses_anonymous_args = 0
 194              	.LVL11:
 195 0000 70B5     		push	{r4, r5, r6, lr}
 196              	.LCFI0:
 197              		.cfi_def_cfa_offset 16
 198              		.cfi_offset 4, -16
 199              		.cfi_offset 5, -12
 200              		.cfi_offset 6, -8
 201              		.cfi_offset 14, -4
 202 0002 0446     		mov	r4, r0
  30:FT_Esd_Widgets/LayoutMargin__Generated.c **** 	void *parent = context->Parent;
 203              		.loc 1 30 0
 204 0004 0568     		ldr	r5, [r0]
 205              	.LVL12:
  31:FT_Esd_Widgets/LayoutMargin__Generated.c **** 	int left = context->X(parent);
 206              		.loc 1 31 0
 207 0006 4368     		ldr	r3, [r0, #4]
 208 0008 2846     		mov	r0, r5
 209              	.LVL13:
 210 000a 9847     		blx	r3
ARM GAS  /var/folders/n8/cvzdcwlj0vl4g_wtyz1ffy300000gn/T//ccrDn2lZ.s 			page 5


 211              	.LVL14:
 212 000c 0646     		mov	r6, r0
 213              	.LVL15:
  32:FT_Esd_Widgets/LayoutMargin__Generated.c **** 	int right = context->Margin(parent);
 214              		.loc 1 32 0
 215 000e 6369     		ldr	r3, [r4, #20]
 216 0010 2846     		mov	r0, r5
 217              	.LVL16:
 218 0012 9847     		blx	r3
 219              	.LVL17:
  33:FT_Esd_Widgets/LayoutMargin__Generated.c **** 	return left + right;
  34:FT_Esd_Widgets/LayoutMargin__Generated.c **** }
 220              		.loc 1 34 0
 221 0014 3044     		add	r0, r0, r6
 222              	.LVL18:
 223 0016 70BD     		pop	{r4, r5, r6, pc}
 224              		.cfi_endproc
 225              	.LFE9:
 227              		.section	.text.LayoutMargin_OutY,"ax",%progbits
 228              		.align	1
 229              		.global	LayoutMargin_OutY
 230              		.syntax unified
 231              		.thumb
 232              		.thumb_func
 233              		.fpu fpv5-sp-d16
 235              	LayoutMargin_OutY:
 236              	.LFB10:
  35:FT_Esd_Widgets/LayoutMargin__Generated.c **** 
  36:FT_Esd_Widgets/LayoutMargin__Generated.c **** int LayoutMargin_OutY(LayoutMargin *context)
  37:FT_Esd_Widgets/LayoutMargin__Generated.c **** {
 237              		.loc 1 37 0
 238              		.cfi_startproc
 239              		@ args = 0, pretend = 0, frame = 0
 240              		@ frame_needed = 0, uses_anonymous_args = 0
 241              	.LVL19:
 242 0000 70B5     		push	{r4, r5, r6, lr}
 243              	.LCFI1:
 244              		.cfi_def_cfa_offset 16
 245              		.cfi_offset 4, -16
 246              		.cfi_offset 5, -12
 247              		.cfi_offset 6, -8
 248              		.cfi_offset 14, -4
 249 0002 0446     		mov	r4, r0
  38:FT_Esd_Widgets/LayoutMargin__Generated.c **** 	void *parent = context->Parent;
 250              		.loc 1 38 0
 251 0004 0568     		ldr	r5, [r0]
 252              	.LVL20:
  39:FT_Esd_Widgets/LayoutMargin__Generated.c **** 	int left_1 = context->Y(parent);
 253              		.loc 1 39 0
 254 0006 8368     		ldr	r3, [r0, #8]
 255 0008 2846     		mov	r0, r5
 256              	.LVL21:
 257 000a 9847     		blx	r3
 258              	.LVL22:
 259 000c 0646     		mov	r6, r0
 260              	.LVL23:
  40:FT_Esd_Widgets/LayoutMargin__Generated.c **** 	int right_1 = context->Margin(parent);
ARM GAS  /var/folders/n8/cvzdcwlj0vl4g_wtyz1ffy300000gn/T//ccrDn2lZ.s 			page 6


 261              		.loc 1 40 0
 262 000e 6369     		ldr	r3, [r4, #20]
 263 0010 2846     		mov	r0, r5
 264              	.LVL24:
 265 0012 9847     		blx	r3
 266              	.LVL25:
  41:FT_Esd_Widgets/LayoutMargin__Generated.c **** 	return left_1 + right_1;
  42:FT_Esd_Widgets/LayoutMargin__Generated.c **** }
 267              		.loc 1 42 0
 268 0014 3044     		add	r0, r0, r6
 269              	.LVL26:
 270 0016 70BD     		pop	{r4, r5, r6, pc}
 271              		.cfi_endproc
 272              	.LFE10:
 274              		.section	.text.LayoutMargin_OutWidth,"ax",%progbits
 275              		.align	1
 276              		.global	LayoutMargin_OutWidth
 277              		.syntax unified
 278              		.thumb
 279              		.thumb_func
 280              		.fpu fpv5-sp-d16
 282              	LayoutMargin_OutWidth:
 283              	.LFB11:
  43:FT_Esd_Widgets/LayoutMargin__Generated.c **** 
  44:FT_Esd_Widgets/LayoutMargin__Generated.c **** int LayoutMargin_OutWidth(LayoutMargin *context)
  45:FT_Esd_Widgets/LayoutMargin__Generated.c **** {
 284              		.loc 1 45 0
 285              		.cfi_startproc
 286              		@ args = 0, pretend = 0, frame = 0
 287              		@ frame_needed = 0, uses_anonymous_args = 0
 288              	.LVL27:
 289 0000 70B5     		push	{r4, r5, r6, lr}
 290              	.LCFI2:
 291              		.cfi_def_cfa_offset 16
 292              		.cfi_offset 4, -16
 293              		.cfi_offset 5, -12
 294              		.cfi_offset 6, -8
 295              		.cfi_offset 14, -4
 296 0002 0446     		mov	r4, r0
  46:FT_Esd_Widgets/LayoutMargin__Generated.c **** 	void *parent = context->Parent;
 297              		.loc 1 46 0
 298 0004 0568     		ldr	r5, [r0]
 299              	.LVL28:
  47:FT_Esd_Widgets/LayoutMargin__Generated.c **** 	int left_2 = context->Width(parent);
 300              		.loc 1 47 0
 301 0006 C368     		ldr	r3, [r0, #12]
 302 0008 2846     		mov	r0, r5
 303              	.LVL29:
 304 000a 9847     		blx	r3
 305              	.LVL30:
 306 000c 0646     		mov	r6, r0
 307              	.LVL31:
  48:FT_Esd_Widgets/LayoutMargin__Generated.c **** 	int left_3 = context->Margin(parent);
 308              		.loc 1 48 0
 309 000e 6369     		ldr	r3, [r4, #20]
 310 0010 2846     		mov	r0, r5
 311              	.LVL32:
ARM GAS  /var/folders/n8/cvzdcwlj0vl4g_wtyz1ffy300000gn/T//ccrDn2lZ.s 			page 7


 312 0012 9847     		blx	r3
 313              	.LVL33:
  49:FT_Esd_Widgets/LayoutMargin__Generated.c **** 	int right_3 = 2L;
  50:FT_Esd_Widgets/LayoutMargin__Generated.c **** 	int right_2 = left_3 * right_3;
  51:FT_Esd_Widgets/LayoutMargin__Generated.c **** 	return left_2 - right_2;
  52:FT_Esd_Widgets/LayoutMargin__Generated.c **** }
 314              		.loc 1 52 0
 315 0014 A6EB4000 		sub	r0, r6, r0, lsl #1
 316              	.LVL34:
 317 0018 70BD     		pop	{r4, r5, r6, pc}
 318              		.cfi_endproc
 319              	.LFE11:
 321              		.section	.text.LayoutMargin_OutHeight,"ax",%progbits
 322              		.align	1
 323              		.global	LayoutMargin_OutHeight
 324              		.syntax unified
 325              		.thumb
 326              		.thumb_func
 327              		.fpu fpv5-sp-d16
 329              	LayoutMargin_OutHeight:
 330              	.LFB12:
  53:FT_Esd_Widgets/LayoutMargin__Generated.c **** 
  54:FT_Esd_Widgets/LayoutMargin__Generated.c **** int LayoutMargin_OutHeight(LayoutMargin *context)
  55:FT_Esd_Widgets/LayoutMargin__Generated.c **** {
 331              		.loc 1 55 0
 332              		.cfi_startproc
 333              		@ args = 0, pretend = 0, frame = 0
 334              		@ frame_needed = 0, uses_anonymous_args = 0
 335              	.LVL35:
 336 0000 70B5     		push	{r4, r5, r6, lr}
 337              	.LCFI3:
 338              		.cfi_def_cfa_offset 16
 339              		.cfi_offset 4, -16
 340              		.cfi_offset 5, -12
 341              		.cfi_offset 6, -8
 342              		.cfi_offset 14, -4
 343 0002 0446     		mov	r4, r0
  56:FT_Esd_Widgets/LayoutMargin__Generated.c **** 	void *parent = context->Parent;
 344              		.loc 1 56 0
 345 0004 0568     		ldr	r5, [r0]
 346              	.LVL36:
  57:FT_Esd_Widgets/LayoutMargin__Generated.c **** 	int left_4 = context->Height(parent);
 347              		.loc 1 57 0
 348 0006 0369     		ldr	r3, [r0, #16]
 349 0008 2846     		mov	r0, r5
 350              	.LVL37:
 351 000a 9847     		blx	r3
 352              	.LVL38:
 353 000c 0646     		mov	r6, r0
 354              	.LVL39:
  58:FT_Esd_Widgets/LayoutMargin__Generated.c **** 	int left_5 = context->Margin(parent);
 355              		.loc 1 58 0
 356 000e 6369     		ldr	r3, [r4, #20]
 357 0010 2846     		mov	r0, r5
 358              	.LVL40:
 359 0012 9847     		blx	r3
 360              	.LVL41:
ARM GAS  /var/folders/n8/cvzdcwlj0vl4g_wtyz1ffy300000gn/T//ccrDn2lZ.s 			page 8


  59:FT_Esd_Widgets/LayoutMargin__Generated.c **** 	int right_5 = 2L;
  60:FT_Esd_Widgets/LayoutMargin__Generated.c **** 	int right_4 = left_5 * right_5;
  61:FT_Esd_Widgets/LayoutMargin__Generated.c **** 	return left_4 - right_4;
  62:FT_Esd_Widgets/LayoutMargin__Generated.c **** }
 361              		.loc 1 62 0
 362 0014 A6EB4000 		sub	r0, r6, r0, lsl #1
 363              	.LVL42:
 364 0018 70BD     		pop	{r4, r5, r6, pc}
 365              		.cfi_endproc
 366              	.LFE12:
 368              		.text
 369              	.Letext0:
 370              		.file 2 "/usr/local/Cellar/arm-none-eabi-gcc/20180627/arm-none-eabi/include/sys/lock.h"
 371              		.file 3 "/usr/local/Cellar/arm-none-eabi-gcc/20180627/arm-none-eabi/include/sys/_types.h"
 372              		.file 4 "/usr/local/Cellar/arm-none-eabi-gcc/20180627/lib/gcc/arm-none-eabi/7.3.1/include/stddef.h
 373              		.file 5 "/usr/local/Cellar/arm-none-eabi-gcc/20180627/arm-none-eabi/include/sys/unistd.h"
 374              		.file 6 "/usr/local/Cellar/arm-none-eabi-gcc/20180627/arm-none-eabi/include/sys/reent.h"
 375              		.file 7 "/usr/local/Cellar/arm-none-eabi-gcc/20180627/arm-none-eabi/include/stdlib.h"
 376              		.file 8 "FT_Esd_Widgets/LayoutMargin.h"
ARM GAS  /var/folders/n8/cvzdcwlj0vl4g_wtyz1ffy300000gn/T//ccrDn2lZ.s 			page 9

