ARM GAS  /var/folders/n8/cvzdcwlj0vl4g_wtyz1ffy300000gn/T//ccmFkjb6.s 			page 1


   1              		.cpu cortex-m7
   2              		.eabi_attribute 27, 1
   3              		.eabi_attribute 28, 1
   4              		.eabi_attribute 20, 1
   5              		.eabi_attribute 21, 1
   6              		.eabi_attribute 23, 3
   7              		.eabi_attribute 24, 1
   8              		.eabi_attribute 25, 1
   9              		.eabi_attribute 26, 1
  10              		.eabi_attribute 30, 1
  11              		.eabi_attribute 34, 1
  12              		.eabi_attribute 18, 4
  13              		.file	"MainPage__Generated.c"
  14              		.text
  15              	.Ltext0:
  16              		.cfi_sections	.debug_frame
  17              		.section	.text.MainPage_ESD3_Label_Font__Property,"ax",%progbits
  18              		.align	1
  19              		.syntax unified
  20              		.thumb
  21              		.thumb_func
  22              		.fpu fpv5-sp-d16
  24              	MainPage_ESD3_Label_Font__Property:
  25              	.LFB15:
  26              		.file 1 "Timer/MainPage__Generated.c"
   1:Timer/MainPage__Generated.c **** /*
   2:Timer/MainPage__Generated.c **** This file is automatically generated
   3:Timer/MainPage__Generated.c **** MainPage
   4:Timer/MainPage__Generated.c **** C Source
   5:Timer/MainPage__Generated.c **** */
   6:Timer/MainPage__Generated.c **** 
   7:Timer/MainPage__Generated.c **** #include "MainPage.h"
   8:Timer/MainPage__Generated.c **** 
   9:Timer/MainPage__Generated.c **** extern void Ft_Esd_Noop(void *context);
  10:Timer/MainPage__Generated.c **** 
  11:Timer/MainPage__Generated.c **** Ft_Esd_Theme * Ft_Esd_Theme_GetCurrent();
  12:Timer/MainPage__Generated.c **** static ft_int16_t MainPage_ESD3_Label_Font__Property(void *context) { return 31; }
  27              		.loc 1 12 0
  28              		.cfi_startproc
  29              		@ args = 0, pretend = 0, frame = 0
  30              		@ frame_needed = 0, uses_anonymous_args = 0
  31              		@ link register save eliminated.
  32              	.LVL0:
  33              		.loc 1 12 0
  34 0000 1F20     		movs	r0, #31
  35              	.LVL1:
  36 0002 7047     		bx	lr
  37              		.cfi_endproc
  38              	.LFE15:
  40              		.section	.text.MainPage_ESD3_Label_Text__Property,"ax",%progbits
  41              		.align	1
  42              		.syntax unified
  43              		.thumb
  44              		.thumb_func
  45              		.fpu fpv5-sp-d16
  47              	MainPage_ESD3_Label_Text__Property:
  48              	.LFB16:
ARM GAS  /var/folders/n8/cvzdcwlj0vl4g_wtyz1ffy300000gn/T//ccmFkjb6.s 			page 2


  13:Timer/MainPage__Generated.c **** static const char * MainPage_ESD3_Label_Text__Property(void *context) { return "ESD3"; }
  49              		.loc 1 13 0
  50              		.cfi_startproc
  51              		@ args = 0, pretend = 0, frame = 0
  52              		@ frame_needed = 0, uses_anonymous_args = 0
  53              		@ link register save eliminated.
  54              	.LVL2:
  55              		.loc 1 13 0
  56 0000 0048     		ldr	r0, .L3
  57              	.LVL3:
  58 0002 7047     		bx	lr
  59              	.L4:
  60              		.align	2
  61              	.L3:
  62 0004 00000000 		.word	.LC0
  63              		.cfi_endproc
  64              	.LFE16:
  66              		.section	.text.MainPage_ESD3_Label_X__Property,"ax",%progbits
  67              		.align	1
  68              		.syntax unified
  69              		.thumb
  70              		.thumb_func
  71              		.fpu fpv5-sp-d16
  73              	MainPage_ESD3_Label_X__Property:
  74              	.LFB17:
  14:Timer/MainPage__Generated.c **** static ft_int16_t MainPage_ESD3_Label_X__Property(void *context) { return 6; }
  75              		.loc 1 14 0
  76              		.cfi_startproc
  77              		@ args = 0, pretend = 0, frame = 0
  78              		@ frame_needed = 0, uses_anonymous_args = 0
  79              		@ link register save eliminated.
  80              	.LVL4:
  81              		.loc 1 14 0
  82 0000 0620     		movs	r0, #6
  83              	.LVL5:
  84 0002 7047     		bx	lr
  85              		.cfi_endproc
  86              	.LFE17:
  88              		.section	.text.MainPage_ESD_Push_Button_2_X__Property,"ax",%progbits
  89              		.align	1
  90              		.syntax unified
  91              		.thumb
  92              		.thumb_func
  93              		.fpu fpv5-sp-d16
  95              	MainPage_ESD_Push_Button_2_X__Property:
  96              	.LFB18:
  15:Timer/MainPage__Generated.c **** static ft_int16_t MainPage_ESD_Push_Button_2_X__Property(void *context) { return 576; }
  97              		.loc 1 15 0
  98              		.cfi_startproc
  99              		@ args = 0, pretend = 0, frame = 0
 100              		@ frame_needed = 0, uses_anonymous_args = 0
 101              		@ link register save eliminated.
 102              	.LVL6:
 103              		.loc 1 15 0
 104 0000 4FF41070 		mov	r0, #576
 105              	.LVL7:
 106 0004 7047     		bx	lr
ARM GAS  /var/folders/n8/cvzdcwlj0vl4g_wtyz1ffy300000gn/T//ccmFkjb6.s 			page 3


 107              		.cfi_endproc
 108              	.LFE18:
 110              		.section	.text.MainPage_ESD_Push_Button_2_Y__Property,"ax",%progbits
 111              		.align	1
 112              		.syntax unified
 113              		.thumb
 114              		.thumb_func
 115              		.fpu fpv5-sp-d16
 117              	MainPage_ESD_Push_Button_2_Y__Property:
 118              	.LFB19:
  16:Timer/MainPage__Generated.c **** static ft_int16_t MainPage_ESD_Push_Button_2_Y__Property(void *context) { return 188; }
 119              		.loc 1 16 0
 120              		.cfi_startproc
 121              		@ args = 0, pretend = 0, frame = 0
 122              		@ frame_needed = 0, uses_anonymous_args = 0
 123              		@ link register save eliminated.
 124              	.LVL8:
 125              		.loc 1 16 0
 126 0000 BC20     		movs	r0, #188
 127              	.LVL9:
 128 0002 7047     		bx	lr
 129              		.cfi_endproc
 130              	.LFE19:
 132              		.section	.text.MainPage_ESD_Push_Button_2_Text__Property,"ax",%progbits
 133              		.align	1
 134              		.syntax unified
 135              		.thumb
 136              		.thumb_func
 137              		.fpu fpv5-sp-d16
 139              	MainPage_ESD_Push_Button_2_Text__Property:
 140              	.LFB20:
  17:Timer/MainPage__Generated.c **** static const char * MainPage_ESD_Push_Button_2_Text__Property(void *context) { return "Halt"; }
 141              		.loc 1 17 0
 142              		.cfi_startproc
 143              		@ args = 0, pretend = 0, frame = 0
 144              		@ frame_needed = 0, uses_anonymous_args = 0
 145              		@ link register save eliminated.
 146              	.LVL10:
 147              		.loc 1 17 0
 148 0000 0048     		ldr	r0, .L9
 149              	.LVL11:
 150 0002 7047     		bx	lr
 151              	.L10:
 152              		.align	2
 153              	.L9:
 154 0004 00000000 		.word	.LC1
 155              		.cfi_endproc
 156              	.LFE20:
 158              		.section	.text.MainPage_ESD_Push_Button_X__Property,"ax",%progbits
 159              		.align	1
 160              		.syntax unified
 161              		.thumb
 162              		.thumb_func
 163              		.fpu fpv5-sp-d16
 165              	MainPage_ESD_Push_Button_X__Property:
 166              	.LFB21:
  18:Timer/MainPage__Generated.c **** static ft_int16_t MainPage_ESD_Push_Button_X__Property(void *context) { return 573; }
ARM GAS  /var/folders/n8/cvzdcwlj0vl4g_wtyz1ffy300000gn/T//ccmFkjb6.s 			page 4


 167              		.loc 1 18 0
 168              		.cfi_startproc
 169              		@ args = 0, pretend = 0, frame = 0
 170              		@ frame_needed = 0, uses_anonymous_args = 0
 171              		@ link register save eliminated.
 172              	.LVL12:
 173              		.loc 1 18 0
 174 0000 40F23D20 		movw	r0, #573
 175              	.LVL13:
 176 0004 7047     		bx	lr
 177              		.cfi_endproc
 178              	.LFE21:
 180              		.section	.text.MainPage_ESD_Push_Button_Y__Property,"ax",%progbits
 181              		.align	1
 182              		.syntax unified
 183              		.thumb
 184              		.thumb_func
 185              		.fpu fpv5-sp-d16
 187              	MainPage_ESD_Push_Button_Y__Property:
 188              	.LFB22:
  19:Timer/MainPage__Generated.c **** static ft_int16_t MainPage_ESD_Push_Button_Y__Property(void *context) { return 126; }
 189              		.loc 1 19 0
 190              		.cfi_startproc
 191              		@ args = 0, pretend = 0, frame = 0
 192              		@ frame_needed = 0, uses_anonymous_args = 0
 193              		@ link register save eliminated.
 194              	.LVL14:
 195              		.loc 1 19 0
 196 0000 7E20     		movs	r0, #126
 197              	.LVL15:
 198 0002 7047     		bx	lr
 199              		.cfi_endproc
 200              	.LFE22:
 202              		.section	.text.MainPage_ESD_Push_Button_Text__Property,"ax",%progbits
 203              		.align	1
 204              		.syntax unified
 205              		.thumb
 206              		.thumb_func
 207              		.fpu fpv5-sp-d16
 209              	MainPage_ESD_Push_Button_Text__Property:
 210              	.LFB23:
  20:Timer/MainPage__Generated.c **** static const char * MainPage_ESD_Push_Button_Text__Property(void *context) { return "Run"; }
 211              		.loc 1 20 0
 212              		.cfi_startproc
 213              		@ args = 0, pretend = 0, frame = 0
 214              		@ frame_needed = 0, uses_anonymous_args = 0
 215              		@ link register save eliminated.
 216              	.LVL16:
 217              		.loc 1 20 0
 218 0000 0048     		ldr	r0, .L14
 219              	.LVL17:
 220 0002 7047     		bx	lr
 221              	.L15:
 222              		.align	2
 223              	.L14:
 224 0004 00000000 		.word	.LC2
 225              		.cfi_endproc
ARM GAS  /var/folders/n8/cvzdcwlj0vl4g_wtyz1ffy300000gn/T//ccmFkjb6.s 			page 5


 226              	.LFE23:
 228              		.section	.text.MainPage_ESD_SpinBox_X__Property,"ax",%progbits
 229              		.align	1
 230              		.syntax unified
 231              		.thumb
 232              		.thumb_func
 233              		.fpu fpv5-sp-d16
 235              	MainPage_ESD_SpinBox_X__Property:
 236              	.LFB24:
  21:Timer/MainPage__Generated.c **** static ft_int16_t MainPage_ESD_SpinBox_X__Property(void *context) { return 18; }
 237              		.loc 1 21 0
 238              		.cfi_startproc
 239              		@ args = 0, pretend = 0, frame = 0
 240              		@ frame_needed = 0, uses_anonymous_args = 0
 241              		@ link register save eliminated.
 242              	.LVL18:
 243              		.loc 1 21 0
 244 0000 1220     		movs	r0, #18
 245              	.LVL19:
 246 0002 7047     		bx	lr
 247              		.cfi_endproc
 248              	.LFE24:
 250              		.section	.text.MainPage_ESD_SpinBox_Y__Property,"ax",%progbits
 251              		.align	1
 252              		.syntax unified
 253              		.thumb
 254              		.thumb_func
 255              		.fpu fpv5-sp-d16
 257              	MainPage_ESD_SpinBox_Y__Property:
 258              	.LFB25:
  22:Timer/MainPage__Generated.c **** static ft_int16_t MainPage_ESD_SpinBox_Y__Property(void *context) { return 258; }
 259              		.loc 1 22 0
 260              		.cfi_startproc
 261              		@ args = 0, pretend = 0, frame = 0
 262              		@ frame_needed = 0, uses_anonymous_args = 0
 263              		@ link register save eliminated.
 264              	.LVL20:
 265              		.loc 1 22 0
 266 0000 4FF48170 		mov	r0, #258
 267              	.LVL21:
 268 0004 7047     		bx	lr
 269              		.cfi_endproc
 270              	.LFE25:
 272              		.section	.text.MainPage_ESD_SpinBox_3_X__Property,"ax",%progbits
 273              		.align	1
 274              		.syntax unified
 275              		.thumb
 276              		.thumb_func
 277              		.fpu fpv5-sp-d16
 279              	MainPage_ESD_SpinBox_3_X__Property:
 280              	.LFB26:
  23:Timer/MainPage__Generated.c **** static ft_int16_t MainPage_ESD_SpinBox_3_X__Property(void *context) { return 527; }
 281              		.loc 1 23 0
 282              		.cfi_startproc
 283              		@ args = 0, pretend = 0, frame = 0
 284              		@ frame_needed = 0, uses_anonymous_args = 0
 285              		@ link register save eliminated.
ARM GAS  /var/folders/n8/cvzdcwlj0vl4g_wtyz1ffy300000gn/T//ccmFkjb6.s 			page 6


 286              	.LVL22:
 287              		.loc 1 23 0
 288 0000 40F20F20 		movw	r0, #527
 289              	.LVL23:
 290 0004 7047     		bx	lr
 291              		.cfi_endproc
 292              	.LFE26:
 294              		.section	.text.MainPage_ESD_SpinBox_3_Y__Property,"ax",%progbits
 295              		.align	1
 296              		.syntax unified
 297              		.thumb
 298              		.thumb_func
 299              		.fpu fpv5-sp-d16
 301              	MainPage_ESD_SpinBox_3_Y__Property:
 302              	.LFB27:
  24:Timer/MainPage__Generated.c **** static ft_int16_t MainPage_ESD_SpinBox_3_Y__Property(void *context) { return 258; }
 303              		.loc 1 24 0
 304              		.cfi_startproc
 305              		@ args = 0, pretend = 0, frame = 0
 306              		@ frame_needed = 0, uses_anonymous_args = 0
 307              		@ link register save eliminated.
 308              	.LVL24:
 309              		.loc 1 24 0
 310 0000 4FF48170 		mov	r0, #258
 311              	.LVL25:
 312 0004 7047     		bx	lr
 313              		.cfi_endproc
 314              	.LFE27:
 316              		.section	.text.MainPage_ESD_SpinBox_2_X__Property,"ax",%progbits
 317              		.align	1
 318              		.syntax unified
 319              		.thumb
 320              		.thumb_func
 321              		.fpu fpv5-sp-d16
 323              	MainPage_ESD_SpinBox_2_X__Property:
 324              	.LFB28:
  25:Timer/MainPage__Generated.c **** static ft_int16_t MainPage_ESD_SpinBox_2_X__Property(void *context) { return 272; }
 325              		.loc 1 25 0
 326              		.cfi_startproc
 327              		@ args = 0, pretend = 0, frame = 0
 328              		@ frame_needed = 0, uses_anonymous_args = 0
 329              		@ link register save eliminated.
 330              	.LVL26:
 331              		.loc 1 25 0
 332 0000 4FF48870 		mov	r0, #272
 333              	.LVL27:
 334 0004 7047     		bx	lr
 335              		.cfi_endproc
 336              	.LFE28:
 338              		.section	.text.MainPage_ESD_SpinBox_2_Y__Property,"ax",%progbits
 339              		.align	1
 340              		.syntax unified
 341              		.thumb
 342              		.thumb_func
 343              		.fpu fpv5-sp-d16
 345              	MainPage_ESD_SpinBox_2_Y__Property:
 346              	.LFB29:
ARM GAS  /var/folders/n8/cvzdcwlj0vl4g_wtyz1ffy300000gn/T//ccmFkjb6.s 			page 7


  26:Timer/MainPage__Generated.c **** static ft_int16_t MainPage_ESD_SpinBox_2_Y__Property(void *context) { return 258; }
 347              		.loc 1 26 0
 348              		.cfi_startproc
 349              		@ args = 0, pretend = 0, frame = 0
 350              		@ frame_needed = 0, uses_anonymous_args = 0
 351              		@ link register save eliminated.
 352              	.LVL28:
 353              		.loc 1 26 0
 354 0000 4FF48170 		mov	r0, #258
 355              	.LVL29:
 356 0004 7047     		bx	lr
 357              		.cfi_endproc
 358              	.LFE29:
 360              		.section	.text.MainPage_ESD_Push_Button_Pushed__Signal,"ax",%progbits
 361              		.align	1
 362              		.syntax unified
 363              		.thumb
 364              		.thumb_func
 365              		.fpu fpv5-sp-d16
 367              	MainPage_ESD_Push_Button_Pushed__Signal:
 368              	.LFB40:
  27:Timer/MainPage__Generated.c **** 
  28:Timer/MainPage__Generated.c **** static void MainPage_ESD_Timer_2_Fired__Signal(void *context);
  29:Timer/MainPage__Generated.c **** static void MainPage_ESD_Timer_Fired__Signal(void *context);
  30:Timer/MainPage__Generated.c **** static void MainPage_ESD_Timer_3_Fired__Signal(void *context);
  31:Timer/MainPage__Generated.c **** static void MainPage_ESD_Push_Button_2_Pushed__Signal(void *context);
  32:Timer/MainPage__Generated.c **** static void MainPage_ESD_Push_Button_Pushed__Signal(void *context);
  33:Timer/MainPage__Generated.c **** 
  34:Timer/MainPage__Generated.c **** void MainPage__Initializer(MainPage *context)
  35:Timer/MainPage__Generated.c **** {
  36:Timer/MainPage__Generated.c **** 	context->Parent = 0;
  37:Timer/MainPage__Generated.c **** 	Ft_Esd_Timer__Initializer(&context->ESD_Timer_2);
  38:Timer/MainPage__Generated.c **** 	context->ESD_Timer_2.Parent = context;
  39:Timer/MainPage__Generated.c **** 	context->ESD_Timer_2.TimeoutMs = 300L;
  40:Timer/MainPage__Generated.c **** 	context->ESD_Timer_2.Repeat = 1;
  41:Timer/MainPage__Generated.c **** 	context->ESD_Timer_2.Fired = MainPage_ESD_Timer_2_Fired__Signal;
  42:Timer/MainPage__Generated.c **** 	Ft_Esd_Timer__Initializer(&context->ESD_Timer);
  43:Timer/MainPage__Generated.c **** 	context->ESD_Timer.Parent = context;
  44:Timer/MainPage__Generated.c **** 	context->ESD_Timer.Repeat = 1;
  45:Timer/MainPage__Generated.c **** 	context->ESD_Timer.Fired = MainPage_ESD_Timer_Fired__Signal;
  46:Timer/MainPage__Generated.c **** 	Ft_Esd_Timer__Initializer(&context->ESD_Timer_3);
  47:Timer/MainPage__Generated.c **** 	context->ESD_Timer_3.Parent = context;
  48:Timer/MainPage__Generated.c **** 	context->ESD_Timer_3.TimeoutMs = 90L;
  49:Timer/MainPage__Generated.c **** 	context->ESD_Timer_3.Repeat = 1;
  50:Timer/MainPage__Generated.c **** 	context->ESD_Timer_3.Fired = MainPage_ESD_Timer_3_Fired__Signal;
  51:Timer/MainPage__Generated.c **** 	Ft_Esd_Label__Initializer(&context->ESD3_Label);
  52:Timer/MainPage__Generated.c **** 	context->ESD3_Label.Parent = context;
  53:Timer/MainPage__Generated.c **** 	context->ESD3_Label.Font = MainPage_ESD3_Label_Font__Property;
  54:Timer/MainPage__Generated.c **** 	context->ESD3_Label.Text = MainPage_ESD3_Label_Text__Property;
  55:Timer/MainPage__Generated.c **** 	context->ESD3_Label.X = MainPage_ESD3_Label_X__Property;
  56:Timer/MainPage__Generated.c **** 	Ft_Esd_PushButton__Initializer(&context->ESD_Push_Button_2);
  57:Timer/MainPage__Generated.c **** 	context->ESD_Push_Button_2.Parent = context;
  58:Timer/MainPage__Generated.c **** 	context->ESD_Push_Button_2.X = MainPage_ESD_Push_Button_2_X__Property;
  59:Timer/MainPage__Generated.c **** 	context->ESD_Push_Button_2.Y = MainPage_ESD_Push_Button_2_Y__Property;
  60:Timer/MainPage__Generated.c **** 	context->ESD_Push_Button_2.Text = MainPage_ESD_Push_Button_2_Text__Property;
  61:Timer/MainPage__Generated.c **** 	context->ESD_Push_Button_2.Pushed = MainPage_ESD_Push_Button_2_Pushed__Signal;
  62:Timer/MainPage__Generated.c **** 	Ft_Esd_PushButton__Initializer(&context->ESD_Push_Button);
ARM GAS  /var/folders/n8/cvzdcwlj0vl4g_wtyz1ffy300000gn/T//ccmFkjb6.s 			page 8


  63:Timer/MainPage__Generated.c **** 	context->ESD_Push_Button.Parent = context;
  64:Timer/MainPage__Generated.c **** 	context->ESD_Push_Button.X = MainPage_ESD_Push_Button_X__Property;
  65:Timer/MainPage__Generated.c **** 	context->ESD_Push_Button.Y = MainPage_ESD_Push_Button_Y__Property;
  66:Timer/MainPage__Generated.c **** 	context->ESD_Push_Button.Text = MainPage_ESD_Push_Button_Text__Property;
  67:Timer/MainPage__Generated.c **** 	context->ESD_Push_Button.Pushed = MainPage_ESD_Push_Button_Pushed__Signal;
  68:Timer/MainPage__Generated.c **** 	Ft_Esd_SpinBox__Initializer(&context->ESD_SpinBox);
  69:Timer/MainPage__Generated.c **** 	context->ESD_SpinBox.Parent = context;
  70:Timer/MainPage__Generated.c **** 	context->ESD_SpinBox.X = MainPage_ESD_SpinBox_X__Property;
  71:Timer/MainPage__Generated.c **** 	context->ESD_SpinBox.Y = MainPage_ESD_SpinBox_Y__Property;
  72:Timer/MainPage__Generated.c **** 	Ft_Esd_SpinBox__Initializer(&context->ESD_SpinBox_3);
  73:Timer/MainPage__Generated.c **** 	context->ESD_SpinBox_3.Parent = context;
  74:Timer/MainPage__Generated.c **** 	context->ESD_SpinBox_3.X = MainPage_ESD_SpinBox_3_X__Property;
  75:Timer/MainPage__Generated.c **** 	context->ESD_SpinBox_3.Y = MainPage_ESD_SpinBox_3_Y__Property;
  76:Timer/MainPage__Generated.c **** 	Ft_Esd_SpinBox__Initializer(&context->ESD_SpinBox_2);
  77:Timer/MainPage__Generated.c **** 	context->ESD_SpinBox_2.Parent = context;
  78:Timer/MainPage__Generated.c **** 	context->ESD_SpinBox_2.X = MainPage_ESD_SpinBox_2_X__Property;
  79:Timer/MainPage__Generated.c **** 	context->ESD_SpinBox_2.Y = MainPage_ESD_SpinBox_2_Y__Property;
  80:Timer/MainPage__Generated.c **** }
  81:Timer/MainPage__Generated.c **** 
  82:Timer/MainPage__Generated.c **** void MainPage_Start(MainPage *context)
  83:Timer/MainPage__Generated.c **** {
  84:Timer/MainPage__Generated.c **** 	void *parent = context->Parent;
  85:Timer/MainPage__Generated.c **** 	Ft_Esd_PushButton_Start(&context->ESD_Push_Button_2);
  86:Timer/MainPage__Generated.c **** 	Ft_Esd_PushButton_Start(&context->ESD_Push_Button);
  87:Timer/MainPage__Generated.c **** 	Ft_Esd_SpinBox_Start(&context->ESD_SpinBox);
  88:Timer/MainPage__Generated.c **** 	Ft_Esd_SpinBox_Start(&context->ESD_SpinBox_3);
  89:Timer/MainPage__Generated.c **** 	Ft_Esd_SpinBox_Start(&context->ESD_SpinBox_2);
  90:Timer/MainPage__Generated.c **** }
  91:Timer/MainPage__Generated.c **** 
  92:Timer/MainPage__Generated.c **** void MainPage_Update(MainPage *context)
  93:Timer/MainPage__Generated.c **** {
  94:Timer/MainPage__Generated.c **** 	void *parent = context->Parent;
  95:Timer/MainPage__Generated.c **** 	Ft_Esd_PushButton_Update(&context->ESD_Push_Button_2);
  96:Timer/MainPage__Generated.c **** 	Ft_Esd_PushButton_Update(&context->ESD_Push_Button);
  97:Timer/MainPage__Generated.c **** 	Ft_Esd_SpinBox_Update(&context->ESD_SpinBox);
  98:Timer/MainPage__Generated.c **** 	Ft_Esd_SpinBox_Update(&context->ESD_SpinBox_3);
  99:Timer/MainPage__Generated.c **** 	Ft_Esd_SpinBox_Update(&context->ESD_SpinBox_2);
 100:Timer/MainPage__Generated.c **** }
 101:Timer/MainPage__Generated.c **** 
 102:Timer/MainPage__Generated.c **** void MainPage_Render(MainPage *context)
 103:Timer/MainPage__Generated.c **** {
 104:Timer/MainPage__Generated.c **** 	void *parent = context->Parent;
 105:Timer/MainPage__Generated.c **** 	Ft_Esd_Label_Render(&context->ESD3_Label);
 106:Timer/MainPage__Generated.c **** 	Ft_Esd_PushButton_Render(&context->ESD_Push_Button_2);
 107:Timer/MainPage__Generated.c **** 	Ft_Esd_PushButton_Render(&context->ESD_Push_Button);
 108:Timer/MainPage__Generated.c **** 	Ft_Esd_SpinBox_Render(&context->ESD_SpinBox);
 109:Timer/MainPage__Generated.c **** 	Ft_Esd_SpinBox_Render(&context->ESD_SpinBox_3);
 110:Timer/MainPage__Generated.c **** 	Ft_Esd_SpinBox_Render(&context->ESD_SpinBox_2);
 111:Timer/MainPage__Generated.c **** }
 112:Timer/MainPage__Generated.c **** 
 113:Timer/MainPage__Generated.c **** void MainPage_Idle(MainPage *context)
 114:Timer/MainPage__Generated.c **** {
 115:Timer/MainPage__Generated.c **** 	void *parent = context->Parent;
 116:Timer/MainPage__Generated.c **** }
 117:Timer/MainPage__Generated.c **** 
 118:Timer/MainPage__Generated.c **** void MainPage_End(MainPage *context)
 119:Timer/MainPage__Generated.c **** {
ARM GAS  /var/folders/n8/cvzdcwlj0vl4g_wtyz1ffy300000gn/T//ccmFkjb6.s 			page 9


 120:Timer/MainPage__Generated.c **** 	void *parent = context->Parent;
 121:Timer/MainPage__Generated.c **** 	Ft_Esd_Timer_End(&context->ESD_Timer_2);
 122:Timer/MainPage__Generated.c **** 	Ft_Esd_Timer_End(&context->ESD_Timer);
 123:Timer/MainPage__Generated.c **** 	Ft_Esd_Timer_End(&context->ESD_Timer_3);
 124:Timer/MainPage__Generated.c **** 	Ft_Esd_PushButton_End(&context->ESD_Push_Button_2);
 125:Timer/MainPage__Generated.c **** 	Ft_Esd_PushButton_End(&context->ESD_Push_Button);
 126:Timer/MainPage__Generated.c **** 	Ft_Esd_SpinBox_End(&context->ESD_SpinBox);
 127:Timer/MainPage__Generated.c **** 	Ft_Esd_SpinBox_End(&context->ESD_SpinBox_3);
 128:Timer/MainPage__Generated.c **** 	Ft_Esd_SpinBox_End(&context->ESD_SpinBox_2);
 129:Timer/MainPage__Generated.c **** }
 130:Timer/MainPage__Generated.c **** 
 131:Timer/MainPage__Generated.c **** void MainPage_ESD_Timer_2_Fired__Signal(void *c)
 132:Timer/MainPage__Generated.c **** {
 133:Timer/MainPage__Generated.c **** 	MainPage *context = (MainPage *)c;
 134:Timer/MainPage__Generated.c **** 	void *parent = context->Parent;
 135:Timer/MainPage__Generated.c **** 	Ft_Esd_SpinBox_Increase(&context->ESD_SpinBox_2);
 136:Timer/MainPage__Generated.c **** }
 137:Timer/MainPage__Generated.c **** 
 138:Timer/MainPage__Generated.c **** void MainPage_ESD_Timer_Fired__Signal(void *c)
 139:Timer/MainPage__Generated.c **** {
 140:Timer/MainPage__Generated.c **** 	MainPage *context = (MainPage *)c;
 141:Timer/MainPage__Generated.c **** 	void *parent = context->Parent;
 142:Timer/MainPage__Generated.c **** 	Ft_Esd_SpinBox_Increase(&context->ESD_SpinBox);
 143:Timer/MainPage__Generated.c **** }
 144:Timer/MainPage__Generated.c **** 
 145:Timer/MainPage__Generated.c **** void MainPage_ESD_Timer_3_Fired__Signal(void *c)
 146:Timer/MainPage__Generated.c **** {
 147:Timer/MainPage__Generated.c **** 	MainPage *context = (MainPage *)c;
 148:Timer/MainPage__Generated.c **** 	void *parent = context->Parent;
 149:Timer/MainPage__Generated.c **** 	Ft_Esd_SpinBox_Increase(&context->ESD_SpinBox_3);
 150:Timer/MainPage__Generated.c **** }
 151:Timer/MainPage__Generated.c **** 
 152:Timer/MainPage__Generated.c **** void MainPage_ESD_Push_Button_2_Pushed__Signal(void *c)
 153:Timer/MainPage__Generated.c **** {
 154:Timer/MainPage__Generated.c **** 	MainPage *context = (MainPage *)c;
 155:Timer/MainPage__Generated.c **** 	void *parent = context->Parent;
 156:Timer/MainPage__Generated.c **** 	Ft_Esd_Timer_Halt(&context->ESD_Timer_2);
 157:Timer/MainPage__Generated.c **** 	Ft_Esd_Timer_Halt(&context->ESD_Timer);
 158:Timer/MainPage__Generated.c **** 	Ft_Esd_Timer_Halt(&context->ESD_Timer_3);
 159:Timer/MainPage__Generated.c **** }
 160:Timer/MainPage__Generated.c **** 
 161:Timer/MainPage__Generated.c **** void MainPage_ESD_Push_Button_Pushed__Signal(void *c)
 162:Timer/MainPage__Generated.c **** {
 369              		.loc 1 162 0
 370              		.cfi_startproc
 371              		@ args = 0, pretend = 0, frame = 0
 372              		@ frame_needed = 0, uses_anonymous_args = 0
 373              	.LVL30:
 374 0000 10B5     		push	{r4, lr}
 375              	.LCFI0:
 376              		.cfi_def_cfa_offset 8
 377              		.cfi_offset 4, -8
 378              		.cfi_offset 14, -4
 379 0002 0446     		mov	r4, r0
 380              	.LVL31:
 163:Timer/MainPage__Generated.c **** 	MainPage *context = (MainPage *)c;
 164:Timer/MainPage__Generated.c **** 	void *parent = context->Parent;
ARM GAS  /var/folders/n8/cvzdcwlj0vl4g_wtyz1ffy300000gn/T//ccmFkjb6.s 			page 10


 165:Timer/MainPage__Generated.c **** 	Ft_Esd_Timer_Run(&context->ESD_Timer_2);
 381              		.loc 1 165 0
 382 0004 0430     		adds	r0, r0, #4
 383              	.LVL32:
 384 0006 FFF7FEFF 		bl	Ft_Esd_Timer_Run
 385              	.LVL33:
 166:Timer/MainPage__Generated.c **** 	Ft_Esd_Timer_Run(&context->ESD_Timer);
 386              		.loc 1 166 0
 387 000a 04F11400 		add	r0, r4, #20
 388 000e FFF7FEFF 		bl	Ft_Esd_Timer_Run
 389              	.LVL34:
 167:Timer/MainPage__Generated.c **** 	Ft_Esd_Timer_Run(&context->ESD_Timer_3);
 390              		.loc 1 167 0
 391 0012 04F12400 		add	r0, r4, #36
 392 0016 FFF7FEFF 		bl	Ft_Esd_Timer_Run
 393              	.LVL35:
 168:Timer/MainPage__Generated.c **** }
 394              		.loc 1 168 0
 395 001a 10BD     		pop	{r4, pc}
 396              		.cfi_endproc
 397              	.LFE40:
 399              		.section	.text.MainPage_ESD_Push_Button_2_Pushed__Signal,"ax",%progbits
 400              		.align	1
 401              		.syntax unified
 402              		.thumb
 403              		.thumb_func
 404              		.fpu fpv5-sp-d16
 406              	MainPage_ESD_Push_Button_2_Pushed__Signal:
 407              	.LFB39:
 153:Timer/MainPage__Generated.c **** 	MainPage *context = (MainPage *)c;
 408              		.loc 1 153 0
 409              		.cfi_startproc
 410              		@ args = 0, pretend = 0, frame = 0
 411              		@ frame_needed = 0, uses_anonymous_args = 0
 412              	.LVL36:
 413 0000 10B5     		push	{r4, lr}
 414              	.LCFI1:
 415              		.cfi_def_cfa_offset 8
 416              		.cfi_offset 4, -8
 417              		.cfi_offset 14, -4
 418 0002 0446     		mov	r4, r0
 419              	.LVL37:
 156:Timer/MainPage__Generated.c **** 	Ft_Esd_Timer_Halt(&context->ESD_Timer);
 420              		.loc 1 156 0
 421 0004 0430     		adds	r0, r0, #4
 422              	.LVL38:
 423 0006 FFF7FEFF 		bl	Ft_Esd_Timer_Halt
 424              	.LVL39:
 157:Timer/MainPage__Generated.c **** 	Ft_Esd_Timer_Halt(&context->ESD_Timer_3);
 425              		.loc 1 157 0
 426 000a 04F11400 		add	r0, r4, #20
 427 000e FFF7FEFF 		bl	Ft_Esd_Timer_Halt
 428              	.LVL40:
 158:Timer/MainPage__Generated.c **** }
 429              		.loc 1 158 0
 430 0012 04F12400 		add	r0, r4, #36
 431 0016 FFF7FEFF 		bl	Ft_Esd_Timer_Halt
ARM GAS  /var/folders/n8/cvzdcwlj0vl4g_wtyz1ffy300000gn/T//ccmFkjb6.s 			page 11


 432              	.LVL41:
 159:Timer/MainPage__Generated.c **** 
 433              		.loc 1 159 0
 434 001a 10BD     		pop	{r4, pc}
 435              		.cfi_endproc
 436              	.LFE39:
 438              		.section	.text.MainPage_ESD_Timer_3_Fired__Signal,"ax",%progbits
 439              		.align	1
 440              		.syntax unified
 441              		.thumb
 442              		.thumb_func
 443              		.fpu fpv5-sp-d16
 445              	MainPage_ESD_Timer_3_Fired__Signal:
 446              	.LFB38:
 146:Timer/MainPage__Generated.c **** 	MainPage *context = (MainPage *)c;
 447              		.loc 1 146 0
 448              		.cfi_startproc
 449              		@ args = 0, pretend = 0, frame = 0
 450              		@ frame_needed = 0, uses_anonymous_args = 0
 451              	.LVL42:
 452 0000 08B5     		push	{r3, lr}
 453              	.LCFI2:
 454              		.cfi_def_cfa_offset 8
 455              		.cfi_offset 3, -8
 456              		.cfi_offset 14, -4
 457              	.LVL43:
 149:Timer/MainPage__Generated.c **** }
 458              		.loc 1 149 0
 459 0002 00F50370 		add	r0, r0, #524
 460              	.LVL44:
 461 0006 FFF7FEFF 		bl	Ft_Esd_SpinBox_Increase
 462              	.LVL45:
 150:Timer/MainPage__Generated.c **** 
 463              		.loc 1 150 0
 464 000a 08BD     		pop	{r3, pc}
 465              		.cfi_endproc
 466              	.LFE38:
 468              		.section	.text.MainPage_ESD_Timer_Fired__Signal,"ax",%progbits
 469              		.align	1
 470              		.syntax unified
 471              		.thumb
 472              		.thumb_func
 473              		.fpu fpv5-sp-d16
 475              	MainPage_ESD_Timer_Fired__Signal:
 476              	.LFB37:
 139:Timer/MainPage__Generated.c **** 	MainPage *context = (MainPage *)c;
 477              		.loc 1 139 0
 478              		.cfi_startproc
 479              		@ args = 0, pretend = 0, frame = 0
 480              		@ frame_needed = 0, uses_anonymous_args = 0
 481              	.LVL46:
 482 0000 08B5     		push	{r3, lr}
 483              	.LCFI3:
 484              		.cfi_def_cfa_offset 8
 485              		.cfi_offset 3, -8
 486              		.cfi_offset 14, -4
 487              	.LVL47:
ARM GAS  /var/folders/n8/cvzdcwlj0vl4g_wtyz1ffy300000gn/T//ccmFkjb6.s 			page 12


 142:Timer/MainPage__Generated.c **** }
 488              		.loc 1 142 0
 489 0002 EC30     		adds	r0, r0, #236
 490              	.LVL48:
 491 0004 FFF7FEFF 		bl	Ft_Esd_SpinBox_Increase
 492              	.LVL49:
 143:Timer/MainPage__Generated.c **** 
 493              		.loc 1 143 0
 494 0008 08BD     		pop	{r3, pc}
 495              		.cfi_endproc
 496              	.LFE37:
 498              		.section	.text.MainPage_ESD_Timer_2_Fired__Signal,"ax",%progbits
 499              		.align	1
 500              		.syntax unified
 501              		.thumb
 502              		.thumb_func
 503              		.fpu fpv5-sp-d16
 505              	MainPage_ESD_Timer_2_Fired__Signal:
 506              	.LFB36:
 132:Timer/MainPage__Generated.c **** 	MainPage *context = (MainPage *)c;
 507              		.loc 1 132 0
 508              		.cfi_startproc
 509              		@ args = 0, pretend = 0, frame = 0
 510              		@ frame_needed = 0, uses_anonymous_args = 0
 511              	.LVL50:
 512 0000 08B5     		push	{r3, lr}
 513              	.LCFI4:
 514              		.cfi_def_cfa_offset 8
 515              		.cfi_offset 3, -8
 516              		.cfi_offset 14, -4
 517              	.LVL51:
 135:Timer/MainPage__Generated.c **** }
 518              		.loc 1 135 0
 519 0002 00F54B70 		add	r0, r0, #812
 520              	.LVL52:
 521 0006 FFF7FEFF 		bl	Ft_Esd_SpinBox_Increase
 522              	.LVL53:
 136:Timer/MainPage__Generated.c **** 
 523              		.loc 1 136 0
 524 000a 08BD     		pop	{r3, pc}
 525              		.cfi_endproc
 526              	.LFE36:
 528              		.section	.text.MainPage__Initializer,"ax",%progbits
 529              		.align	1
 530              		.global	MainPage__Initializer
 531              		.syntax unified
 532              		.thumb
 533              		.thumb_func
 534              		.fpu fpv5-sp-d16
 536              	MainPage__Initializer:
 537              	.LFB30:
  35:Timer/MainPage__Generated.c **** 	context->Parent = 0;
 538              		.loc 1 35 0
 539              		.cfi_startproc
 540              		@ args = 0, pretend = 0, frame = 0
 541              		@ frame_needed = 0, uses_anonymous_args = 0
 542              	.LVL54:
ARM GAS  /var/folders/n8/cvzdcwlj0vl4g_wtyz1ffy300000gn/T//ccmFkjb6.s 			page 13


 543 0000 38B5     		push	{r3, r4, r5, lr}
 544              	.LCFI5:
 545              		.cfi_def_cfa_offset 16
 546              		.cfi_offset 3, -16
 547              		.cfi_offset 4, -12
 548              		.cfi_offset 5, -8
 549              		.cfi_offset 14, -4
 550 0002 0446     		mov	r4, r0
  36:Timer/MainPage__Generated.c **** 	Ft_Esd_Timer__Initializer(&context->ESD_Timer_2);
 551              		.loc 1 36 0
 552 0004 0023     		movs	r3, #0
 553 0006 40F8043B 		str	r3, [r0], #4
 554              	.LVL55:
  37:Timer/MainPage__Generated.c **** 	context->ESD_Timer_2.Parent = context;
 555              		.loc 1 37 0
 556 000a FFF7FEFF 		bl	Ft_Esd_Timer__Initializer
 557              	.LVL56:
  38:Timer/MainPage__Generated.c **** 	context->ESD_Timer_2.TimeoutMs = 300L;
 558              		.loc 1 38 0
 559 000e 6460     		str	r4, [r4, #4]
  39:Timer/MainPage__Generated.c **** 	context->ESD_Timer_2.Repeat = 1;
 560              		.loc 1 39 0
 561 0010 4FF49673 		mov	r3, #300
 562 0014 E360     		str	r3, [r4, #12]
  40:Timer/MainPage__Generated.c **** 	context->ESD_Timer_2.Fired = MainPage_ESD_Timer_2_Fired__Signal;
 563              		.loc 1 40 0
 564 0016 0125     		movs	r5, #1
 565 0018 2574     		strb	r5, [r4, #16]
  41:Timer/MainPage__Generated.c **** 	Ft_Esd_Timer__Initializer(&context->ESD_Timer);
 566              		.loc 1 41 0
 567 001a 334B     		ldr	r3, .L34
 568 001c A360     		str	r3, [r4, #8]
  42:Timer/MainPage__Generated.c **** 	context->ESD_Timer.Parent = context;
 569              		.loc 1 42 0
 570 001e 04F11400 		add	r0, r4, #20
 571 0022 FFF7FEFF 		bl	Ft_Esd_Timer__Initializer
 572              	.LVL57:
  43:Timer/MainPage__Generated.c **** 	context->ESD_Timer.Repeat = 1;
 573              		.loc 1 43 0
 574 0026 6461     		str	r4, [r4, #20]
  44:Timer/MainPage__Generated.c **** 	context->ESD_Timer.Fired = MainPage_ESD_Timer_Fired__Signal;
 575              		.loc 1 44 0
 576 0028 84F82050 		strb	r5, [r4, #32]
  45:Timer/MainPage__Generated.c **** 	Ft_Esd_Timer__Initializer(&context->ESD_Timer_3);
 577              		.loc 1 45 0
 578 002c 2F4B     		ldr	r3, .L34+4
 579 002e A361     		str	r3, [r4, #24]
  46:Timer/MainPage__Generated.c **** 	context->ESD_Timer_3.Parent = context;
 580              		.loc 1 46 0
 581 0030 04F12400 		add	r0, r4, #36
 582 0034 FFF7FEFF 		bl	Ft_Esd_Timer__Initializer
 583              	.LVL58:
  47:Timer/MainPage__Generated.c **** 	context->ESD_Timer_3.TimeoutMs = 90L;
 584              		.loc 1 47 0
 585 0038 6462     		str	r4, [r4, #36]
  48:Timer/MainPage__Generated.c **** 	context->ESD_Timer_3.Repeat = 1;
 586              		.loc 1 48 0
ARM GAS  /var/folders/n8/cvzdcwlj0vl4g_wtyz1ffy300000gn/T//ccmFkjb6.s 			page 14


 587 003a 5A23     		movs	r3, #90
 588 003c E362     		str	r3, [r4, #44]
  49:Timer/MainPage__Generated.c **** 	context->ESD_Timer_3.Fired = MainPage_ESD_Timer_3_Fired__Signal;
 589              		.loc 1 49 0
 590 003e 84F83050 		strb	r5, [r4, #48]
  50:Timer/MainPage__Generated.c **** 	Ft_Esd_Label__Initializer(&context->ESD3_Label);
 591              		.loc 1 50 0
 592 0042 2B4B     		ldr	r3, .L34+8
 593 0044 A362     		str	r3, [r4, #40]
  51:Timer/MainPage__Generated.c **** 	context->ESD3_Label.Parent = context;
 594              		.loc 1 51 0
 595 0046 04F13400 		add	r0, r4, #52
 596 004a FFF7FEFF 		bl	Ft_Esd_Label__Initializer
 597              	.LVL59:
  52:Timer/MainPage__Generated.c **** 	context->ESD3_Label.Font = MainPage_ESD3_Label_Font__Property;
 598              		.loc 1 52 0
 599 004e 6463     		str	r4, [r4, #52]
  53:Timer/MainPage__Generated.c **** 	context->ESD3_Label.Text = MainPage_ESD3_Label_Text__Property;
 600              		.loc 1 53 0
 601 0050 284B     		ldr	r3, .L34+12
 602 0052 E363     		str	r3, [r4, #60]
  54:Timer/MainPage__Generated.c **** 	context->ESD3_Label.X = MainPage_ESD3_Label_X__Property;
 603              		.loc 1 54 0
 604 0054 284B     		ldr	r3, .L34+16
 605 0056 2364     		str	r3, [r4, #64]
  55:Timer/MainPage__Generated.c **** 	Ft_Esd_PushButton__Initializer(&context->ESD_Push_Button_2);
 606              		.loc 1 55 0
 607 0058 284B     		ldr	r3, .L34+20
 608 005a 6364     		str	r3, [r4, #68]
  56:Timer/MainPage__Generated.c **** 	context->ESD_Push_Button_2.Parent = context;
 609              		.loc 1 56 0
 610 005c 04F15C00 		add	r0, r4, #92
 611 0060 FFF7FEFF 		bl	Ft_Esd_PushButton__Initializer
 612              	.LVL60:
  57:Timer/MainPage__Generated.c **** 	context->ESD_Push_Button_2.X = MainPage_ESD_Push_Button_2_X__Property;
 613              		.loc 1 57 0
 614 0064 E465     		str	r4, [r4, #92]
  58:Timer/MainPage__Generated.c **** 	context->ESD_Push_Button_2.Y = MainPage_ESD_Push_Button_2_Y__Property;
 615              		.loc 1 58 0
 616 0066 264B     		ldr	r3, .L34+24
 617 0068 6366     		str	r3, [r4, #100]
  59:Timer/MainPage__Generated.c **** 	context->ESD_Push_Button_2.Text = MainPage_ESD_Push_Button_2_Text__Property;
 618              		.loc 1 59 0
 619 006a 264B     		ldr	r3, .L34+28
 620 006c A366     		str	r3, [r4, #104]
  60:Timer/MainPage__Generated.c **** 	context->ESD_Push_Button_2.Pushed = MainPage_ESD_Push_Button_2_Pushed__Signal;
 621              		.loc 1 60 0
 622 006e 264B     		ldr	r3, .L34+32
 623 0070 A367     		str	r3, [r4, #120]
  61:Timer/MainPage__Generated.c **** 	Ft_Esd_PushButton__Initializer(&context->ESD_Push_Button);
 624              		.loc 1 61 0
 625 0072 264B     		ldr	r3, .L34+36
 626 0074 C4F8A030 		str	r3, [r4, #160]
  62:Timer/MainPage__Generated.c **** 	context->ESD_Push_Button.Parent = context;
 627              		.loc 1 62 0
 628 0078 04F1A400 		add	r0, r4, #164
 629 007c FFF7FEFF 		bl	Ft_Esd_PushButton__Initializer
ARM GAS  /var/folders/n8/cvzdcwlj0vl4g_wtyz1ffy300000gn/T//ccmFkjb6.s 			page 15


 630              	.LVL61:
  63:Timer/MainPage__Generated.c **** 	context->ESD_Push_Button.X = MainPage_ESD_Push_Button_X__Property;
 631              		.loc 1 63 0
 632 0080 C4F8A440 		str	r4, [r4, #164]
  64:Timer/MainPage__Generated.c **** 	context->ESD_Push_Button.Y = MainPage_ESD_Push_Button_Y__Property;
 633              		.loc 1 64 0
 634 0084 224B     		ldr	r3, .L34+40
 635 0086 C4F8AC30 		str	r3, [r4, #172]
  65:Timer/MainPage__Generated.c **** 	context->ESD_Push_Button.Text = MainPage_ESD_Push_Button_Text__Property;
 636              		.loc 1 65 0
 637 008a 224B     		ldr	r3, .L34+44
 638 008c C4F8B030 		str	r3, [r4, #176]
  66:Timer/MainPage__Generated.c **** 	context->ESD_Push_Button.Pushed = MainPage_ESD_Push_Button_Pushed__Signal;
 639              		.loc 1 66 0
 640 0090 214B     		ldr	r3, .L34+48
 641 0092 C4F8C030 		str	r3, [r4, #192]
  67:Timer/MainPage__Generated.c **** 	Ft_Esd_SpinBox__Initializer(&context->ESD_SpinBox);
 642              		.loc 1 67 0
 643 0096 214B     		ldr	r3, .L34+52
 644 0098 C4F8E830 		str	r3, [r4, #232]
  68:Timer/MainPage__Generated.c **** 	context->ESD_SpinBox.Parent = context;
 645              		.loc 1 68 0
 646 009c 04F1EC00 		add	r0, r4, #236
 647 00a0 FFF7FEFF 		bl	Ft_Esd_SpinBox__Initializer
 648              	.LVL62:
  69:Timer/MainPage__Generated.c **** 	context->ESD_SpinBox.X = MainPage_ESD_SpinBox_X__Property;
 649              		.loc 1 69 0
 650 00a4 C4F8EC40 		str	r4, [r4, #236]
  70:Timer/MainPage__Generated.c **** 	context->ESD_SpinBox.Y = MainPage_ESD_SpinBox_Y__Property;
 651              		.loc 1 70 0
 652 00a8 1D4B     		ldr	r3, .L34+56
 653 00aa C4F80C31 		str	r3, [r4, #268]
  71:Timer/MainPage__Generated.c **** 	Ft_Esd_SpinBox__Initializer(&context->ESD_SpinBox_3);
 654              		.loc 1 71 0
 655 00ae 1D4B     		ldr	r3, .L34+60
 656 00b0 C4F81031 		str	r3, [r4, #272]
  72:Timer/MainPage__Generated.c **** 	context->ESD_SpinBox_3.Parent = context;
 657              		.loc 1 72 0
 658 00b4 04F50370 		add	r0, r4, #524
 659 00b8 FFF7FEFF 		bl	Ft_Esd_SpinBox__Initializer
 660              	.LVL63:
  73:Timer/MainPage__Generated.c **** 	context->ESD_SpinBox_3.X = MainPage_ESD_SpinBox_3_X__Property;
 661              		.loc 1 73 0
 662 00bc C4F80C42 		str	r4, [r4, #524]
  74:Timer/MainPage__Generated.c **** 	context->ESD_SpinBox_3.Y = MainPage_ESD_SpinBox_3_Y__Property;
 663              		.loc 1 74 0
 664 00c0 194B     		ldr	r3, .L34+64
 665 00c2 C4F82C32 		str	r3, [r4, #556]
  75:Timer/MainPage__Generated.c **** 	Ft_Esd_SpinBox__Initializer(&context->ESD_SpinBox_2);
 666              		.loc 1 75 0
 667 00c6 194B     		ldr	r3, .L34+68
 668 00c8 C4F83032 		str	r3, [r4, #560]
  76:Timer/MainPage__Generated.c **** 	context->ESD_SpinBox_2.Parent = context;
 669              		.loc 1 76 0
 670 00cc 04F54B70 		add	r0, r4, #812
 671 00d0 FFF7FEFF 		bl	Ft_Esd_SpinBox__Initializer
 672              	.LVL64:
ARM GAS  /var/folders/n8/cvzdcwlj0vl4g_wtyz1ffy300000gn/T//ccmFkjb6.s 			page 16


  77:Timer/MainPage__Generated.c **** 	context->ESD_SpinBox_2.X = MainPage_ESD_SpinBox_2_X__Property;
 673              		.loc 1 77 0
 674 00d4 C4F82C43 		str	r4, [r4, #812]
  78:Timer/MainPage__Generated.c **** 	context->ESD_SpinBox_2.Y = MainPage_ESD_SpinBox_2_Y__Property;
 675              		.loc 1 78 0
 676 00d8 154B     		ldr	r3, .L34+72
 677 00da C4F84C33 		str	r3, [r4, #844]
  79:Timer/MainPage__Generated.c **** }
 678              		.loc 1 79 0
 679 00de 154B     		ldr	r3, .L34+76
 680 00e0 C4F85033 		str	r3, [r4, #848]
  80:Timer/MainPage__Generated.c **** 
 681              		.loc 1 80 0
 682 00e4 38BD     		pop	{r3, r4, r5, pc}
 683              	.LVL65:
 684              	.L35:
 685 00e6 00BF     		.align	2
 686              	.L34:
 687 00e8 00000000 		.word	MainPage_ESD_Timer_2_Fired__Signal
 688 00ec 00000000 		.word	MainPage_ESD_Timer_Fired__Signal
 689 00f0 00000000 		.word	MainPage_ESD_Timer_3_Fired__Signal
 690 00f4 00000000 		.word	MainPage_ESD3_Label_Font__Property
 691 00f8 00000000 		.word	MainPage_ESD3_Label_Text__Property
 692 00fc 00000000 		.word	MainPage_ESD3_Label_X__Property
 693 0100 00000000 		.word	MainPage_ESD_Push_Button_2_X__Property
 694 0104 00000000 		.word	MainPage_ESD_Push_Button_2_Y__Property
 695 0108 00000000 		.word	MainPage_ESD_Push_Button_2_Text__Property
 696 010c 00000000 		.word	MainPage_ESD_Push_Button_2_Pushed__Signal
 697 0110 00000000 		.word	MainPage_ESD_Push_Button_X__Property
 698 0114 00000000 		.word	MainPage_ESD_Push_Button_Y__Property
 699 0118 00000000 		.word	MainPage_ESD_Push_Button_Text__Property
 700 011c 00000000 		.word	MainPage_ESD_Push_Button_Pushed__Signal
 701 0120 00000000 		.word	MainPage_ESD_SpinBox_X__Property
 702 0124 00000000 		.word	MainPage_ESD_SpinBox_Y__Property
 703 0128 00000000 		.word	MainPage_ESD_SpinBox_3_X__Property
 704 012c 00000000 		.word	MainPage_ESD_SpinBox_3_Y__Property
 705 0130 00000000 		.word	MainPage_ESD_SpinBox_2_X__Property
 706 0134 00000000 		.word	MainPage_ESD_SpinBox_2_Y__Property
 707              		.cfi_endproc
 708              	.LFE30:
 710              		.section	.text.MainPage_Start,"ax",%progbits
 711              		.align	1
 712              		.global	MainPage_Start
 713              		.syntax unified
 714              		.thumb
 715              		.thumb_func
 716              		.fpu fpv5-sp-d16
 718              	MainPage_Start:
 719              	.LFB31:
  83:Timer/MainPage__Generated.c **** 	void *parent = context->Parent;
 720              		.loc 1 83 0
 721              		.cfi_startproc
 722              		@ args = 0, pretend = 0, frame = 0
 723              		@ frame_needed = 0, uses_anonymous_args = 0
 724              	.LVL66:
 725 0000 10B5     		push	{r4, lr}
 726              	.LCFI6:
ARM GAS  /var/folders/n8/cvzdcwlj0vl4g_wtyz1ffy300000gn/T//ccmFkjb6.s 			page 17


 727              		.cfi_def_cfa_offset 8
 728              		.cfi_offset 4, -8
 729              		.cfi_offset 14, -4
 730 0002 0446     		mov	r4, r0
 731              	.LVL67:
  85:Timer/MainPage__Generated.c **** 	Ft_Esd_PushButton_Start(&context->ESD_Push_Button);
 732              		.loc 1 85 0
 733 0004 5C30     		adds	r0, r0, #92
 734              	.LVL68:
 735 0006 FFF7FEFF 		bl	Ft_Esd_PushButton_Start
 736              	.LVL69:
  86:Timer/MainPage__Generated.c **** 	Ft_Esd_SpinBox_Start(&context->ESD_SpinBox);
 737              		.loc 1 86 0
 738 000a 04F1A400 		add	r0, r4, #164
 739 000e FFF7FEFF 		bl	Ft_Esd_PushButton_Start
 740              	.LVL70:
  87:Timer/MainPage__Generated.c **** 	Ft_Esd_SpinBox_Start(&context->ESD_SpinBox_3);
 741              		.loc 1 87 0
 742 0012 04F1EC00 		add	r0, r4, #236
 743 0016 FFF7FEFF 		bl	Ft_Esd_SpinBox_Start
 744              	.LVL71:
  88:Timer/MainPage__Generated.c **** 	Ft_Esd_SpinBox_Start(&context->ESD_SpinBox_2);
 745              		.loc 1 88 0
 746 001a 04F50370 		add	r0, r4, #524
 747 001e FFF7FEFF 		bl	Ft_Esd_SpinBox_Start
 748              	.LVL72:
  89:Timer/MainPage__Generated.c **** }
 749              		.loc 1 89 0
 750 0022 04F54B70 		add	r0, r4, #812
 751 0026 FFF7FEFF 		bl	Ft_Esd_SpinBox_Start
 752              	.LVL73:
  90:Timer/MainPage__Generated.c **** 
 753              		.loc 1 90 0
 754 002a 10BD     		pop	{r4, pc}
 755              		.cfi_endproc
 756              	.LFE31:
 758              		.section	.text.MainPage_Update,"ax",%progbits
 759              		.align	1
 760              		.global	MainPage_Update
 761              		.syntax unified
 762              		.thumb
 763              		.thumb_func
 764              		.fpu fpv5-sp-d16
 766              	MainPage_Update:
 767              	.LFB32:
  93:Timer/MainPage__Generated.c **** 	void *parent = context->Parent;
 768              		.loc 1 93 0
 769              		.cfi_startproc
 770              		@ args = 0, pretend = 0, frame = 0
 771              		@ frame_needed = 0, uses_anonymous_args = 0
 772              	.LVL74:
 773 0000 10B5     		push	{r4, lr}
 774              	.LCFI7:
 775              		.cfi_def_cfa_offset 8
 776              		.cfi_offset 4, -8
 777              		.cfi_offset 14, -4
 778 0002 0446     		mov	r4, r0
ARM GAS  /var/folders/n8/cvzdcwlj0vl4g_wtyz1ffy300000gn/T//ccmFkjb6.s 			page 18


 779              	.LVL75:
  95:Timer/MainPage__Generated.c **** 	Ft_Esd_PushButton_Update(&context->ESD_Push_Button);
 780              		.loc 1 95 0
 781 0004 5C30     		adds	r0, r0, #92
 782              	.LVL76:
 783 0006 FFF7FEFF 		bl	Ft_Esd_PushButton_Update
 784              	.LVL77:
  96:Timer/MainPage__Generated.c **** 	Ft_Esd_SpinBox_Update(&context->ESD_SpinBox);
 785              		.loc 1 96 0
 786 000a 04F1A400 		add	r0, r4, #164
 787 000e FFF7FEFF 		bl	Ft_Esd_PushButton_Update
 788              	.LVL78:
  97:Timer/MainPage__Generated.c **** 	Ft_Esd_SpinBox_Update(&context->ESD_SpinBox_3);
 789              		.loc 1 97 0
 790 0012 04F1EC00 		add	r0, r4, #236
 791 0016 FFF7FEFF 		bl	Ft_Esd_SpinBox_Update
 792              	.LVL79:
  98:Timer/MainPage__Generated.c **** 	Ft_Esd_SpinBox_Update(&context->ESD_SpinBox_2);
 793              		.loc 1 98 0
 794 001a 04F50370 		add	r0, r4, #524
 795 001e FFF7FEFF 		bl	Ft_Esd_SpinBox_Update
 796              	.LVL80:
  99:Timer/MainPage__Generated.c **** }
 797              		.loc 1 99 0
 798 0022 04F54B70 		add	r0, r4, #812
 799 0026 FFF7FEFF 		bl	Ft_Esd_SpinBox_Update
 800              	.LVL81:
 100:Timer/MainPage__Generated.c **** 
 801              		.loc 1 100 0
 802 002a 10BD     		pop	{r4, pc}
 803              		.cfi_endproc
 804              	.LFE32:
 806              		.section	.text.MainPage_Render,"ax",%progbits
 807              		.align	1
 808              		.global	MainPage_Render
 809              		.syntax unified
 810              		.thumb
 811              		.thumb_func
 812              		.fpu fpv5-sp-d16
 814              	MainPage_Render:
 815              	.LFB33:
 103:Timer/MainPage__Generated.c **** 	void *parent = context->Parent;
 816              		.loc 1 103 0
 817              		.cfi_startproc
 818              		@ args = 0, pretend = 0, frame = 0
 819              		@ frame_needed = 0, uses_anonymous_args = 0
 820              	.LVL82:
 821 0000 10B5     		push	{r4, lr}
 822              	.LCFI8:
 823              		.cfi_def_cfa_offset 8
 824              		.cfi_offset 4, -8
 825              		.cfi_offset 14, -4
 826 0002 0446     		mov	r4, r0
 827              	.LVL83:
 105:Timer/MainPage__Generated.c **** 	Ft_Esd_PushButton_Render(&context->ESD_Push_Button_2);
 828              		.loc 1 105 0
 829 0004 3430     		adds	r0, r0, #52
ARM GAS  /var/folders/n8/cvzdcwlj0vl4g_wtyz1ffy300000gn/T//ccmFkjb6.s 			page 19


 830              	.LVL84:
 831 0006 FFF7FEFF 		bl	Ft_Esd_Label_Render
 832              	.LVL85:
 106:Timer/MainPage__Generated.c **** 	Ft_Esd_PushButton_Render(&context->ESD_Push_Button);
 833              		.loc 1 106 0
 834 000a 04F15C00 		add	r0, r4, #92
 835 000e FFF7FEFF 		bl	Ft_Esd_PushButton_Render
 836              	.LVL86:
 107:Timer/MainPage__Generated.c **** 	Ft_Esd_SpinBox_Render(&context->ESD_SpinBox);
 837              		.loc 1 107 0
 838 0012 04F1A400 		add	r0, r4, #164
 839 0016 FFF7FEFF 		bl	Ft_Esd_PushButton_Render
 840              	.LVL87:
 108:Timer/MainPage__Generated.c **** 	Ft_Esd_SpinBox_Render(&context->ESD_SpinBox_3);
 841              		.loc 1 108 0
 842 001a 04F1EC00 		add	r0, r4, #236
 843 001e FFF7FEFF 		bl	Ft_Esd_SpinBox_Render
 844              	.LVL88:
 109:Timer/MainPage__Generated.c **** 	Ft_Esd_SpinBox_Render(&context->ESD_SpinBox_2);
 845              		.loc 1 109 0
 846 0022 04F50370 		add	r0, r4, #524
 847 0026 FFF7FEFF 		bl	Ft_Esd_SpinBox_Render
 848              	.LVL89:
 110:Timer/MainPage__Generated.c **** }
 849              		.loc 1 110 0
 850 002a 04F54B70 		add	r0, r4, #812
 851 002e FFF7FEFF 		bl	Ft_Esd_SpinBox_Render
 852              	.LVL90:
 111:Timer/MainPage__Generated.c **** 
 853              		.loc 1 111 0
 854 0032 10BD     		pop	{r4, pc}
 855              		.cfi_endproc
 856              	.LFE33:
 858              		.section	.text.MainPage_Idle,"ax",%progbits
 859              		.align	1
 860              		.global	MainPage_Idle
 861              		.syntax unified
 862              		.thumb
 863              		.thumb_func
 864              		.fpu fpv5-sp-d16
 866              	MainPage_Idle:
 867              	.LFB34:
 114:Timer/MainPage__Generated.c **** 	void *parent = context->Parent;
 868              		.loc 1 114 0
 869              		.cfi_startproc
 870              		@ args = 0, pretend = 0, frame = 0
 871              		@ frame_needed = 0, uses_anonymous_args = 0
 872              		@ link register save eliminated.
 873              	.LVL91:
 116:Timer/MainPage__Generated.c **** 
 874              		.loc 1 116 0
 875 0000 7047     		bx	lr
 876              		.cfi_endproc
 877              	.LFE34:
 879              		.section	.text.MainPage_End,"ax",%progbits
 880              		.align	1
 881              		.global	MainPage_End
ARM GAS  /var/folders/n8/cvzdcwlj0vl4g_wtyz1ffy300000gn/T//ccmFkjb6.s 			page 20


 882              		.syntax unified
 883              		.thumb
 884              		.thumb_func
 885              		.fpu fpv5-sp-d16
 887              	MainPage_End:
 888              	.LFB35:
 119:Timer/MainPage__Generated.c **** 	void *parent = context->Parent;
 889              		.loc 1 119 0
 890              		.cfi_startproc
 891              		@ args = 0, pretend = 0, frame = 0
 892              		@ frame_needed = 0, uses_anonymous_args = 0
 893              	.LVL92:
 894 0000 10B5     		push	{r4, lr}
 895              	.LCFI9:
 896              		.cfi_def_cfa_offset 8
 897              		.cfi_offset 4, -8
 898              		.cfi_offset 14, -4
 899 0002 0446     		mov	r4, r0
 900              	.LVL93:
 121:Timer/MainPage__Generated.c **** 	Ft_Esd_Timer_End(&context->ESD_Timer);
 901              		.loc 1 121 0
 902 0004 0430     		adds	r0, r0, #4
 903              	.LVL94:
 904 0006 FFF7FEFF 		bl	Ft_Esd_Timer_End
 905              	.LVL95:
 122:Timer/MainPage__Generated.c **** 	Ft_Esd_Timer_End(&context->ESD_Timer_3);
 906              		.loc 1 122 0
 907 000a 04F11400 		add	r0, r4, #20
 908 000e FFF7FEFF 		bl	Ft_Esd_Timer_End
 909              	.LVL96:
 123:Timer/MainPage__Generated.c **** 	Ft_Esd_PushButton_End(&context->ESD_Push_Button_2);
 910              		.loc 1 123 0
 911 0012 04F12400 		add	r0, r4, #36
 912 0016 FFF7FEFF 		bl	Ft_Esd_Timer_End
 913              	.LVL97:
 124:Timer/MainPage__Generated.c **** 	Ft_Esd_PushButton_End(&context->ESD_Push_Button);
 914              		.loc 1 124 0
 915 001a 04F15C00 		add	r0, r4, #92
 916 001e FFF7FEFF 		bl	Ft_Esd_PushButton_End
 917              	.LVL98:
 125:Timer/MainPage__Generated.c **** 	Ft_Esd_SpinBox_End(&context->ESD_SpinBox);
 918              		.loc 1 125 0
 919 0022 04F1A400 		add	r0, r4, #164
 920 0026 FFF7FEFF 		bl	Ft_Esd_PushButton_End
 921              	.LVL99:
 126:Timer/MainPage__Generated.c **** 	Ft_Esd_SpinBox_End(&context->ESD_SpinBox_3);
 922              		.loc 1 126 0
 923 002a 04F1EC00 		add	r0, r4, #236
 924 002e FFF7FEFF 		bl	Ft_Esd_SpinBox_End
 925              	.LVL100:
 127:Timer/MainPage__Generated.c **** 	Ft_Esd_SpinBox_End(&context->ESD_SpinBox_2);
 926              		.loc 1 127 0
 927 0032 04F50370 		add	r0, r4, #524
 928 0036 FFF7FEFF 		bl	Ft_Esd_SpinBox_End
 929              	.LVL101:
 128:Timer/MainPage__Generated.c **** }
 930              		.loc 1 128 0
ARM GAS  /var/folders/n8/cvzdcwlj0vl4g_wtyz1ffy300000gn/T//ccmFkjb6.s 			page 21


 931 003a 04F54B70 		add	r0, r4, #812
 932 003e FFF7FEFF 		bl	Ft_Esd_SpinBox_End
 933              	.LVL102:
 129:Timer/MainPage__Generated.c **** 
 934              		.loc 1 129 0
 935 0042 10BD     		pop	{r4, pc}
 936              		.cfi_endproc
 937              	.LFE35:
 939              		.section	.rodata.MainPage_ESD3_Label_Text__Property.str1.4,"aMS",%progbits,1
 940              		.align	2
 941              	.LC0:
 942 0000 45534433 		.ascii	"ESD3\000"
 942      00
 943              		.section	.rodata.MainPage_ESD_Push_Button_2_Text__Property.str1.4,"aMS",%progbits,1
 944              		.align	2
 945              	.LC1:
 946 0000 48616C74 		.ascii	"Halt\000"
 946      00
 947              		.section	.rodata.MainPage_ESD_Push_Button_Text__Property.str1.4,"aMS",%progbits,1
 948              		.align	2
 949              	.LC2:
 950 0000 52756E00 		.ascii	"Run\000"
 951              		.text
 952              	.Letext0:
 953              		.file 2 "FT_Eve_Hal/FT_DataTypes.h"
 954              		.file 3 "/usr/local/Cellar/arm-none-eabi-gcc/20180627/arm-none-eabi/include/sys/lock.h"
 955              		.file 4 "/usr/local/Cellar/arm-none-eabi-gcc/20180627/arm-none-eabi/include/sys/_types.h"
 956              		.file 5 "/usr/local/Cellar/arm-none-eabi-gcc/20180627/lib/gcc/arm-none-eabi/7.3.1/include/stddef.h
 957              		.file 6 "/usr/local/Cellar/arm-none-eabi-gcc/20180627/arm-none-eabi/include/sys/unistd.h"
 958              		.file 7 "/usr/local/Cellar/arm-none-eabi-gcc/20180627/arm-none-eabi/include/sys/reent.h"
 959              		.file 8 "/usr/local/Cellar/arm-none-eabi-gcc/20180627/arm-none-eabi/include/stdlib.h"
 960              		.file 9 "FT_Esd_Framework/Ft_Esd.h"
 961              		.file 10 "FT_Esd_Widgets/FT_Esd_Theme.h"
 962              		.file 11 "FT_Esd_Widgets/Ft_Esd_DefaultTheme.h"
 963              		.file 12 "FT_Esd_Widgets/Ft_Esd_Label.h"
 964              		.file 13 "FT_Esd_Framework/Ft_Esd_TouchTag.h"
 965              		.file 14 "FT_Esd_Widgets/Ft_Esd_PushButton.h"
 966              		.file 15 "FT_Esd_Widgets/LayoutMargin.h"
 967              		.file 16 "FT_Esd_Widgets/LayoutSplit.h"
 968              		.file 17 "FT_Esd_Widgets/Ft_Esd_SpinBox.h"
 969              		.file 18 "FT_Esd_Framework/Ft_Esd_Timer.h"
 970              		.file 19 "Timer/MainPage.h"
ARM GAS  /var/folders/n8/cvzdcwlj0vl4g_wtyz1ffy300000gn/T//ccmFkjb6.s 			page 22

