ARM GAS  /var/folders/n8/cvzdcwlj0vl4g_wtyz1ffy300000gn/T//cciQpF2r.s 			page 1


   1              		.cpu cortex-m7
   2              		.eabi_attribute 27, 1
   3              		.eabi_attribute 28, 1
   4              		.eabi_attribute 20, 1
   5              		.eabi_attribute 21, 1
   6              		.eabi_attribute 23, 3
   7              		.eabi_attribute 24, 1
   8              		.eabi_attribute 25, 1
   9              		.eabi_attribute 26, 1
  10              		.eabi_attribute 30, 1
  11              		.eabi_attribute 34, 1
  12              		.eabi_attribute 18, 4
  13              		.file	"stm32f7xx_hal_msp.c"
  14              		.text
  15              	.Ltext0:
  16              		.cfi_sections	.debug_frame
  17              		.section	.text.HAL_MspInit,"ax",%progbits
  18              		.align	1
  19              		.global	HAL_MspInit
  20              		.syntax unified
  21              		.thumb
  22              		.thumb_func
  23              		.fpu fpv5-sp-d16
  25              	HAL_MspInit:
  26              	.LFB138:
  27              		.file 1 "Src/stm32f7xx_hal_msp.c"
   1:Src/stm32f7xx_hal_msp.c **** /* USER CODE BEGIN Header */
   2:Src/stm32f7xx_hal_msp.c **** /**
   3:Src/stm32f7xx_hal_msp.c ****   ******************************************************************************
   4:Src/stm32f7xx_hal_msp.c ****   * File Name          : stm32f7xx_hal_msp.c
   5:Src/stm32f7xx_hal_msp.c ****   * Description        : This file provides code for the MSP Initialization 
   6:Src/stm32f7xx_hal_msp.c ****   *                      and de-Initialization codes.
   7:Src/stm32f7xx_hal_msp.c ****   ******************************************************************************
   8:Src/stm32f7xx_hal_msp.c ****   ** This notice applies to any and all portions of this file
   9:Src/stm32f7xx_hal_msp.c ****   * that are not between comment pairs USER CODE BEGIN and
  10:Src/stm32f7xx_hal_msp.c ****   * USER CODE END. Other portions of this file, whether 
  11:Src/stm32f7xx_hal_msp.c ****   * inserted by the user or by software development tools
  12:Src/stm32f7xx_hal_msp.c ****   * are owned by their respective copyright owners.
  13:Src/stm32f7xx_hal_msp.c ****   *
  14:Src/stm32f7xx_hal_msp.c ****   * COPYRIGHT(c) 2019 STMicroelectronics
  15:Src/stm32f7xx_hal_msp.c ****   *
  16:Src/stm32f7xx_hal_msp.c ****   * Redistribution and use in source and binary forms, with or without modification,
  17:Src/stm32f7xx_hal_msp.c ****   * are permitted provided that the following conditions are met:
  18:Src/stm32f7xx_hal_msp.c ****   *   1. Redistributions of source code must retain the above copyright notice,
  19:Src/stm32f7xx_hal_msp.c ****   *      this list of conditions and the following disclaimer.
  20:Src/stm32f7xx_hal_msp.c ****   *   2. Redistributions in binary form must reproduce the above copyright notice,
  21:Src/stm32f7xx_hal_msp.c ****   *      this list of conditions and the following disclaimer in the documentation
  22:Src/stm32f7xx_hal_msp.c ****   *      and/or other materials provided with the distribution.
  23:Src/stm32f7xx_hal_msp.c ****   *   3. Neither the name of STMicroelectronics nor the names of its contributors
  24:Src/stm32f7xx_hal_msp.c ****   *      may be used to endorse or promote products derived from this software
  25:Src/stm32f7xx_hal_msp.c ****   *      without specific prior written permission.
  26:Src/stm32f7xx_hal_msp.c ****   *
  27:Src/stm32f7xx_hal_msp.c ****   * THIS SOFTWARE IS PROVIDED BY THE COPYRIGHT HOLDERS AND CONTRIBUTORS "AS IS"
  28:Src/stm32f7xx_hal_msp.c ****   * AND ANY EXPRESS OR IMPLIED WARRANTIES, INCLUDING, BUT NOT LIMITED TO, THE
  29:Src/stm32f7xx_hal_msp.c ****   * IMPLIED WARRANTIES OF MERCHANTABILITY AND FITNESS FOR A PARTICULAR PURPOSE ARE
  30:Src/stm32f7xx_hal_msp.c ****   * DISCLAIMED. IN NO EVENT SHALL THE COPYRIGHT HOLDER OR CONTRIBUTORS BE LIABLE
  31:Src/stm32f7xx_hal_msp.c ****   * FOR ANY DIRECT, INDIRECT, INCIDENTAL, SPECIAL, EXEMPLARY, OR CONSEQUENTIAL
ARM GAS  /var/folders/n8/cvzdcwlj0vl4g_wtyz1ffy300000gn/T//cciQpF2r.s 			page 2


  32:Src/stm32f7xx_hal_msp.c ****   * DAMAGES (INCLUDING, BUT NOT LIMITED TO, PROCUREMENT OF SUBSTITUTE GOODS OR
  33:Src/stm32f7xx_hal_msp.c ****   * SERVICES; LOSS OF USE, DATA, OR PROFITS; OR BUSINESS INTERRUPTION) HOWEVER
  34:Src/stm32f7xx_hal_msp.c ****   * CAUSED AND ON ANY THEORY OF LIABILITY, WHETHER IN CONTRACT, STRICT LIABILITY,
  35:Src/stm32f7xx_hal_msp.c ****   * OR TORT (INCLUDING NEGLIGENCE OR OTHERWISE) ARISING IN ANY WAY OUT OF THE USE
  36:Src/stm32f7xx_hal_msp.c ****   * OF THIS SOFTWARE, EVEN IF ADVISED OF THE POSSIBILITY OF SUCH DAMAGE.
  37:Src/stm32f7xx_hal_msp.c ****   *
  38:Src/stm32f7xx_hal_msp.c ****   ******************************************************************************
  39:Src/stm32f7xx_hal_msp.c ****   */
  40:Src/stm32f7xx_hal_msp.c **** /* USER CODE END Header */
  41:Src/stm32f7xx_hal_msp.c **** 
  42:Src/stm32f7xx_hal_msp.c **** /* Includes ------------------------------------------------------------------*/
  43:Src/stm32f7xx_hal_msp.c **** #include "main.h"
  44:Src/stm32f7xx_hal_msp.c **** /* USER CODE BEGIN Includes */
  45:Src/stm32f7xx_hal_msp.c **** 
  46:Src/stm32f7xx_hal_msp.c **** /* USER CODE END Includes */
  47:Src/stm32f7xx_hal_msp.c **** 
  48:Src/stm32f7xx_hal_msp.c **** /* Private typedef -----------------------------------------------------------*/
  49:Src/stm32f7xx_hal_msp.c **** /* USER CODE BEGIN TD */
  50:Src/stm32f7xx_hal_msp.c **** 
  51:Src/stm32f7xx_hal_msp.c **** /* USER CODE END TD */
  52:Src/stm32f7xx_hal_msp.c **** 
  53:Src/stm32f7xx_hal_msp.c **** /* Private define ------------------------------------------------------------*/
  54:Src/stm32f7xx_hal_msp.c **** /* USER CODE BEGIN Define */
  55:Src/stm32f7xx_hal_msp.c ****  
  56:Src/stm32f7xx_hal_msp.c **** /* USER CODE END Define */
  57:Src/stm32f7xx_hal_msp.c **** 
  58:Src/stm32f7xx_hal_msp.c **** /* Private macro -------------------------------------------------------------*/
  59:Src/stm32f7xx_hal_msp.c **** /* USER CODE BEGIN Macro */
  60:Src/stm32f7xx_hal_msp.c **** 
  61:Src/stm32f7xx_hal_msp.c **** /* USER CODE END Macro */
  62:Src/stm32f7xx_hal_msp.c **** 
  63:Src/stm32f7xx_hal_msp.c **** /* Private variables ---------------------------------------------------------*/
  64:Src/stm32f7xx_hal_msp.c **** /* USER CODE BEGIN PV */
  65:Src/stm32f7xx_hal_msp.c **** 
  66:Src/stm32f7xx_hal_msp.c **** /* USER CODE END PV */
  67:Src/stm32f7xx_hal_msp.c **** 
  68:Src/stm32f7xx_hal_msp.c **** /* Private function prototypes -----------------------------------------------*/
  69:Src/stm32f7xx_hal_msp.c **** /* USER CODE BEGIN PFP */
  70:Src/stm32f7xx_hal_msp.c **** 
  71:Src/stm32f7xx_hal_msp.c **** /* USER CODE END PFP */
  72:Src/stm32f7xx_hal_msp.c **** 
  73:Src/stm32f7xx_hal_msp.c **** /* External functions --------------------------------------------------------*/
  74:Src/stm32f7xx_hal_msp.c **** /* USER CODE BEGIN ExternalFunctions */
  75:Src/stm32f7xx_hal_msp.c **** 
  76:Src/stm32f7xx_hal_msp.c **** /* USER CODE END ExternalFunctions */
  77:Src/stm32f7xx_hal_msp.c **** 
  78:Src/stm32f7xx_hal_msp.c **** /* USER CODE BEGIN 0 */
  79:Src/stm32f7xx_hal_msp.c **** 
  80:Src/stm32f7xx_hal_msp.c **** /* USER CODE END 0 */
  81:Src/stm32f7xx_hal_msp.c **** /**
  82:Src/stm32f7xx_hal_msp.c ****   * Initializes the Global MSP.
  83:Src/stm32f7xx_hal_msp.c ****   */
  84:Src/stm32f7xx_hal_msp.c **** void HAL_MspInit(void)
  85:Src/stm32f7xx_hal_msp.c **** {
  28              		.loc 1 85 0
  29              		.cfi_startproc
  30              		@ args = 0, pretend = 0, frame = 8
ARM GAS  /var/folders/n8/cvzdcwlj0vl4g_wtyz1ffy300000gn/T//cciQpF2r.s 			page 3


  31              		@ frame_needed = 0, uses_anonymous_args = 0
  32              		@ link register save eliminated.
  33 0000 82B0     		sub	sp, sp, #8
  34              	.LCFI0:
  35              		.cfi_def_cfa_offset 8
  36              	.LBB2:
  86:Src/stm32f7xx_hal_msp.c ****   /* USER CODE BEGIN MspInit 0 */
  87:Src/stm32f7xx_hal_msp.c **** 
  88:Src/stm32f7xx_hal_msp.c ****   /* USER CODE END MspInit 0 */
  89:Src/stm32f7xx_hal_msp.c **** 
  90:Src/stm32f7xx_hal_msp.c ****   __HAL_RCC_PWR_CLK_ENABLE();
  37              		.loc 1 90 0
  38 0002 0A4B     		ldr	r3, .L3
  39 0004 1A6C     		ldr	r2, [r3, #64]
  40 0006 42F08052 		orr	r2, r2, #268435456
  41 000a 1A64     		str	r2, [r3, #64]
  42 000c 1A6C     		ldr	r2, [r3, #64]
  43 000e 02F08052 		and	r2, r2, #268435456
  44 0012 0092     		str	r2, [sp]
  45 0014 009A     		ldr	r2, [sp]
  46              	.LBE2:
  47              	.LBB3:
  91:Src/stm32f7xx_hal_msp.c ****   __HAL_RCC_SYSCFG_CLK_ENABLE();
  48              		.loc 1 91 0
  49 0016 5A6C     		ldr	r2, [r3, #68]
  50 0018 42F48042 		orr	r2, r2, #16384
  51 001c 5A64     		str	r2, [r3, #68]
  52 001e 5B6C     		ldr	r3, [r3, #68]
  53 0020 03F48043 		and	r3, r3, #16384
  54 0024 0193     		str	r3, [sp, #4]
  55 0026 019B     		ldr	r3, [sp, #4]
  56              	.LBE3:
  92:Src/stm32f7xx_hal_msp.c **** 
  93:Src/stm32f7xx_hal_msp.c ****   /* System interrupt init*/
  94:Src/stm32f7xx_hal_msp.c **** 
  95:Src/stm32f7xx_hal_msp.c ****   /* USER CODE BEGIN MspInit 1 */
  96:Src/stm32f7xx_hal_msp.c **** 
  97:Src/stm32f7xx_hal_msp.c ****   /* USER CODE END MspInit 1 */
  98:Src/stm32f7xx_hal_msp.c **** }
  57              		.loc 1 98 0
  58 0028 02B0     		add	sp, sp, #8
  59              	.LCFI1:
  60              		.cfi_def_cfa_offset 0
  61              		@ sp needed
  62 002a 7047     		bx	lr
  63              	.L4:
  64              		.align	2
  65              	.L3:
  66 002c 00380240 		.word	1073887232
  67              		.cfi_endproc
  68              	.LFE138:
  70              		.section	.text.HAL_SPI_MspInit,"ax",%progbits
  71              		.align	1
  72              		.global	HAL_SPI_MspInit
  73              		.syntax unified
  74              		.thumb
  75              		.thumb_func
ARM GAS  /var/folders/n8/cvzdcwlj0vl4g_wtyz1ffy300000gn/T//cciQpF2r.s 			page 4


  76              		.fpu fpv5-sp-d16
  78              	HAL_SPI_MspInit:
  79              	.LFB139:
  99:Src/stm32f7xx_hal_msp.c **** 
 100:Src/stm32f7xx_hal_msp.c **** /**
 101:Src/stm32f7xx_hal_msp.c **** * @brief SPI MSP Initialization
 102:Src/stm32f7xx_hal_msp.c **** * This function configures the hardware resources used in this example
 103:Src/stm32f7xx_hal_msp.c **** * @param hspi: SPI handle pointer
 104:Src/stm32f7xx_hal_msp.c **** * @retval None
 105:Src/stm32f7xx_hal_msp.c **** */
 106:Src/stm32f7xx_hal_msp.c **** void HAL_SPI_MspInit(SPI_HandleTypeDef* hspi)
 107:Src/stm32f7xx_hal_msp.c **** {
  80              		.loc 1 107 0
  81              		.cfi_startproc
  82              		@ args = 0, pretend = 0, frame = 40
  83              		@ frame_needed = 0, uses_anonymous_args = 0
  84              	.LVL0:
  85 0000 70B5     		push	{r4, r5, r6, lr}
  86              	.LCFI2:
  87              		.cfi_def_cfa_offset 16
  88              		.cfi_offset 4, -16
  89              		.cfi_offset 5, -12
  90              		.cfi_offset 6, -8
  91              		.cfi_offset 14, -4
  92 0002 8AB0     		sub	sp, sp, #40
  93              	.LCFI3:
  94              		.cfi_def_cfa_offset 56
 108:Src/stm32f7xx_hal_msp.c **** 
 109:Src/stm32f7xx_hal_msp.c ****   GPIO_InitTypeDef GPIO_InitStruct = {0};
  95              		.loc 1 109 0
  96 0004 0023     		movs	r3, #0
  97 0006 0593     		str	r3, [sp, #20]
  98 0008 0693     		str	r3, [sp, #24]
  99 000a 0793     		str	r3, [sp, #28]
 100 000c 0893     		str	r3, [sp, #32]
 101 000e 0993     		str	r3, [sp, #36]
 110:Src/stm32f7xx_hal_msp.c ****   if(hspi->Instance==SPI1)
 102              		.loc 1 110 0
 103 0010 0368     		ldr	r3, [r0]
 104 0012 2E4A     		ldr	r2, .L11
 105 0014 9342     		cmp	r3, r2
 106 0016 04D0     		beq	.L9
 111:Src/stm32f7xx_hal_msp.c ****   {
 112:Src/stm32f7xx_hal_msp.c ****   /* USER CODE BEGIN SPI1_MspInit 0 */
 113:Src/stm32f7xx_hal_msp.c **** 
 114:Src/stm32f7xx_hal_msp.c ****   /* USER CODE END SPI1_MspInit 0 */
 115:Src/stm32f7xx_hal_msp.c ****     /* Peripheral clock enable */
 116:Src/stm32f7xx_hal_msp.c ****     __HAL_RCC_SPI1_CLK_ENABLE();
 117:Src/stm32f7xx_hal_msp.c ****   
 118:Src/stm32f7xx_hal_msp.c ****     __HAL_RCC_GPIOA_CLK_ENABLE();
 119:Src/stm32f7xx_hal_msp.c ****     /**SPI1 GPIO Configuration    
 120:Src/stm32f7xx_hal_msp.c ****     PA5     ------> SPI1_SCK
 121:Src/stm32f7xx_hal_msp.c ****     PA6     ------> SPI1_MISO
 122:Src/stm32f7xx_hal_msp.c ****     PA7     ------> SPI1_MOSI 
 123:Src/stm32f7xx_hal_msp.c ****     */
 124:Src/stm32f7xx_hal_msp.c ****     GPIO_InitStruct.Pin = GPIO_PIN_5|GPIO_PIN_6|GPIO_PIN_7;
 125:Src/stm32f7xx_hal_msp.c ****     GPIO_InitStruct.Mode = GPIO_MODE_AF_PP;
ARM GAS  /var/folders/n8/cvzdcwlj0vl4g_wtyz1ffy300000gn/T//cciQpF2r.s 			page 5


 126:Src/stm32f7xx_hal_msp.c ****     GPIO_InitStruct.Pull = GPIO_NOPULL;
 127:Src/stm32f7xx_hal_msp.c ****     GPIO_InitStruct.Speed = GPIO_SPEED_FREQ_VERY_HIGH;
 128:Src/stm32f7xx_hal_msp.c ****     GPIO_InitStruct.Alternate = GPIO_AF5_SPI1;
 129:Src/stm32f7xx_hal_msp.c ****     HAL_GPIO_Init(GPIOA, &GPIO_InitStruct);
 130:Src/stm32f7xx_hal_msp.c **** 
 131:Src/stm32f7xx_hal_msp.c ****   /* USER CODE BEGIN SPI1_MspInit 1 */
 132:Src/stm32f7xx_hal_msp.c **** 
 133:Src/stm32f7xx_hal_msp.c ****   /* USER CODE END SPI1_MspInit 1 */
 134:Src/stm32f7xx_hal_msp.c ****   }
 135:Src/stm32f7xx_hal_msp.c ****   else if(hspi->Instance==SPI2)
 107              		.loc 1 135 0
 108 0018 2D4A     		ldr	r2, .L11+4
 109 001a 9342     		cmp	r3, r2
 110 001c 21D0     		beq	.L10
 111              	.LVL1:
 112              	.L5:
 136:Src/stm32f7xx_hal_msp.c ****   {
 137:Src/stm32f7xx_hal_msp.c ****   /* USER CODE BEGIN SPI2_MspInit 0 */
 138:Src/stm32f7xx_hal_msp.c **** 
 139:Src/stm32f7xx_hal_msp.c ****   /* USER CODE END SPI2_MspInit 0 */
 140:Src/stm32f7xx_hal_msp.c ****     /* Peripheral clock enable */
 141:Src/stm32f7xx_hal_msp.c ****     __HAL_RCC_SPI2_CLK_ENABLE();
 142:Src/stm32f7xx_hal_msp.c ****   
 143:Src/stm32f7xx_hal_msp.c ****     __HAL_RCC_GPIOC_CLK_ENABLE();
 144:Src/stm32f7xx_hal_msp.c ****     __HAL_RCC_GPIOB_CLK_ENABLE();
 145:Src/stm32f7xx_hal_msp.c ****     /**SPI2 GPIO Configuration    
 146:Src/stm32f7xx_hal_msp.c ****     PC1     ------> SPI2_MOSI
 147:Src/stm32f7xx_hal_msp.c ****     PC2     ------> SPI2_MISO
 148:Src/stm32f7xx_hal_msp.c ****     PB10     ------> SPI2_SCK 
 149:Src/stm32f7xx_hal_msp.c ****     */
 150:Src/stm32f7xx_hal_msp.c ****     GPIO_InitStruct.Pin = GPIO_PIN_1|GPIO_PIN_2;
 151:Src/stm32f7xx_hal_msp.c ****     GPIO_InitStruct.Mode = GPIO_MODE_AF_PP;
 152:Src/stm32f7xx_hal_msp.c ****     GPIO_InitStruct.Pull = GPIO_NOPULL;
 153:Src/stm32f7xx_hal_msp.c ****     GPIO_InitStruct.Speed = GPIO_SPEED_FREQ_VERY_HIGH;
 154:Src/stm32f7xx_hal_msp.c ****     GPIO_InitStruct.Alternate = GPIO_AF5_SPI2;
 155:Src/stm32f7xx_hal_msp.c ****     HAL_GPIO_Init(GPIOC, &GPIO_InitStruct);
 156:Src/stm32f7xx_hal_msp.c **** 
 157:Src/stm32f7xx_hal_msp.c ****     GPIO_InitStruct.Pin = GPIO_PIN_10;
 158:Src/stm32f7xx_hal_msp.c ****     GPIO_InitStruct.Mode = GPIO_MODE_AF_PP;
 159:Src/stm32f7xx_hal_msp.c ****     GPIO_InitStruct.Pull = GPIO_NOPULL;
 160:Src/stm32f7xx_hal_msp.c ****     GPIO_InitStruct.Speed = GPIO_SPEED_FREQ_VERY_HIGH;
 161:Src/stm32f7xx_hal_msp.c ****     GPIO_InitStruct.Alternate = GPIO_AF5_SPI2;
 162:Src/stm32f7xx_hal_msp.c ****     HAL_GPIO_Init(GPIOB, &GPIO_InitStruct);
 163:Src/stm32f7xx_hal_msp.c **** 
 164:Src/stm32f7xx_hal_msp.c ****   /* USER CODE BEGIN SPI2_MspInit 1 */
 165:Src/stm32f7xx_hal_msp.c **** 
 166:Src/stm32f7xx_hal_msp.c ****   /* USER CODE END SPI2_MspInit 1 */
 167:Src/stm32f7xx_hal_msp.c ****   }
 168:Src/stm32f7xx_hal_msp.c **** 
 169:Src/stm32f7xx_hal_msp.c **** }
 113              		.loc 1 169 0
 114 001e 0AB0     		add	sp, sp, #40
 115              	.LCFI4:
 116              		.cfi_remember_state
 117              		.cfi_def_cfa_offset 16
 118              		@ sp needed
 119 0020 70BD     		pop	{r4, r5, r6, pc}
ARM GAS  /var/folders/n8/cvzdcwlj0vl4g_wtyz1ffy300000gn/T//cciQpF2r.s 			page 6


 120              	.LVL2:
 121              	.L9:
 122              	.LCFI5:
 123              		.cfi_restore_state
 124              	.LBB4:
 116:Src/stm32f7xx_hal_msp.c ****   
 125              		.loc 1 116 0
 126 0022 2C4B     		ldr	r3, .L11+8
 127 0024 5A6C     		ldr	r2, [r3, #68]
 128 0026 42F48052 		orr	r2, r2, #4096
 129 002a 5A64     		str	r2, [r3, #68]
 130 002c 5A6C     		ldr	r2, [r3, #68]
 131 002e 02F48052 		and	r2, r2, #4096
 132 0032 0092     		str	r2, [sp]
 133 0034 009A     		ldr	r2, [sp]
 134              	.LBE4:
 135              	.LBB5:
 118:Src/stm32f7xx_hal_msp.c ****     /**SPI1 GPIO Configuration    
 136              		.loc 1 118 0
 137 0036 1A6B     		ldr	r2, [r3, #48]
 138 0038 42F00102 		orr	r2, r2, #1
 139 003c 1A63     		str	r2, [r3, #48]
 140 003e 1B6B     		ldr	r3, [r3, #48]
 141 0040 03F00103 		and	r3, r3, #1
 142 0044 0193     		str	r3, [sp, #4]
 143 0046 019B     		ldr	r3, [sp, #4]
 144              	.LBE5:
 124:Src/stm32f7xx_hal_msp.c ****     GPIO_InitStruct.Mode = GPIO_MODE_AF_PP;
 145              		.loc 1 124 0
 146 0048 E023     		movs	r3, #224
 147 004a 0593     		str	r3, [sp, #20]
 125:Src/stm32f7xx_hal_msp.c ****     GPIO_InitStruct.Pull = GPIO_NOPULL;
 148              		.loc 1 125 0
 149 004c 0223     		movs	r3, #2
 150 004e 0693     		str	r3, [sp, #24]
 127:Src/stm32f7xx_hal_msp.c ****     GPIO_InitStruct.Alternate = GPIO_AF5_SPI1;
 151              		.loc 1 127 0
 152 0050 0323     		movs	r3, #3
 153 0052 0893     		str	r3, [sp, #32]
 128:Src/stm32f7xx_hal_msp.c ****     HAL_GPIO_Init(GPIOA, &GPIO_InitStruct);
 154              		.loc 1 128 0
 155 0054 0523     		movs	r3, #5
 156 0056 0993     		str	r3, [sp, #36]
 129:Src/stm32f7xx_hal_msp.c **** 
 157              		.loc 1 129 0
 158 0058 05A9     		add	r1, sp, #20
 159 005a 1F48     		ldr	r0, .L11+12
 160              	.LVL3:
 161 005c FFF7FEFF 		bl	HAL_GPIO_Init
 162              	.LVL4:
 163 0060 DDE7     		b	.L5
 164              	.LVL5:
 165              	.L10:
 166              	.LBB6:
 141:Src/stm32f7xx_hal_msp.c ****   
 167              		.loc 1 141 0
 168 0062 1C4B     		ldr	r3, .L11+8
ARM GAS  /var/folders/n8/cvzdcwlj0vl4g_wtyz1ffy300000gn/T//cciQpF2r.s 			page 7


 169 0064 1A6C     		ldr	r2, [r3, #64]
 170 0066 42F48042 		orr	r2, r2, #16384
 171 006a 1A64     		str	r2, [r3, #64]
 172 006c 1A6C     		ldr	r2, [r3, #64]
 173 006e 02F48042 		and	r2, r2, #16384
 174 0072 0292     		str	r2, [sp, #8]
 175 0074 029A     		ldr	r2, [sp, #8]
 176              	.LBE6:
 177              	.LBB7:
 143:Src/stm32f7xx_hal_msp.c ****     __HAL_RCC_GPIOB_CLK_ENABLE();
 178              		.loc 1 143 0
 179 0076 1A6B     		ldr	r2, [r3, #48]
 180 0078 42F00402 		orr	r2, r2, #4
 181 007c 1A63     		str	r2, [r3, #48]
 182 007e 1A6B     		ldr	r2, [r3, #48]
 183 0080 02F00402 		and	r2, r2, #4
 184 0084 0392     		str	r2, [sp, #12]
 185 0086 039A     		ldr	r2, [sp, #12]
 186              	.LBE7:
 187              	.LBB8:
 144:Src/stm32f7xx_hal_msp.c ****     /**SPI2 GPIO Configuration    
 188              		.loc 1 144 0
 189 0088 1A6B     		ldr	r2, [r3, #48]
 190 008a 42F00202 		orr	r2, r2, #2
 191 008e 1A63     		str	r2, [r3, #48]
 192 0090 1B6B     		ldr	r3, [r3, #48]
 193 0092 03F00203 		and	r3, r3, #2
 194 0096 0493     		str	r3, [sp, #16]
 195 0098 049B     		ldr	r3, [sp, #16]
 196              	.LBE8:
 150:Src/stm32f7xx_hal_msp.c ****     GPIO_InitStruct.Mode = GPIO_MODE_AF_PP;
 197              		.loc 1 150 0
 198 009a 0623     		movs	r3, #6
 199 009c 0593     		str	r3, [sp, #20]
 151:Src/stm32f7xx_hal_msp.c ****     GPIO_InitStruct.Pull = GPIO_NOPULL;
 200              		.loc 1 151 0
 201 009e 0226     		movs	r6, #2
 202 00a0 0696     		str	r6, [sp, #24]
 153:Src/stm32f7xx_hal_msp.c ****     GPIO_InitStruct.Alternate = GPIO_AF5_SPI2;
 203              		.loc 1 153 0
 204 00a2 0325     		movs	r5, #3
 205 00a4 0895     		str	r5, [sp, #32]
 154:Src/stm32f7xx_hal_msp.c ****     HAL_GPIO_Init(GPIOC, &GPIO_InitStruct);
 206              		.loc 1 154 0
 207 00a6 0524     		movs	r4, #5
 208 00a8 0994     		str	r4, [sp, #36]
 155:Src/stm32f7xx_hal_msp.c **** 
 209              		.loc 1 155 0
 210 00aa 05A9     		add	r1, sp, #20
 211 00ac 0B48     		ldr	r0, .L11+16
 212              	.LVL6:
 213 00ae FFF7FEFF 		bl	HAL_GPIO_Init
 214              	.LVL7:
 157:Src/stm32f7xx_hal_msp.c ****     GPIO_InitStruct.Mode = GPIO_MODE_AF_PP;
 215              		.loc 1 157 0
 216 00b2 4FF48063 		mov	r3, #1024
 217 00b6 0593     		str	r3, [sp, #20]
ARM GAS  /var/folders/n8/cvzdcwlj0vl4g_wtyz1ffy300000gn/T//cciQpF2r.s 			page 8


 158:Src/stm32f7xx_hal_msp.c ****     GPIO_InitStruct.Pull = GPIO_NOPULL;
 218              		.loc 1 158 0
 219 00b8 0696     		str	r6, [sp, #24]
 159:Src/stm32f7xx_hal_msp.c ****     GPIO_InitStruct.Speed = GPIO_SPEED_FREQ_VERY_HIGH;
 220              		.loc 1 159 0
 221 00ba 0023     		movs	r3, #0
 222 00bc 0793     		str	r3, [sp, #28]
 160:Src/stm32f7xx_hal_msp.c ****     GPIO_InitStruct.Alternate = GPIO_AF5_SPI2;
 223              		.loc 1 160 0
 224 00be 0895     		str	r5, [sp, #32]
 161:Src/stm32f7xx_hal_msp.c ****     HAL_GPIO_Init(GPIOB, &GPIO_InitStruct);
 225              		.loc 1 161 0
 226 00c0 0994     		str	r4, [sp, #36]
 162:Src/stm32f7xx_hal_msp.c **** 
 227              		.loc 1 162 0
 228 00c2 05A9     		add	r1, sp, #20
 229 00c4 0648     		ldr	r0, .L11+20
 230 00c6 FFF7FEFF 		bl	HAL_GPIO_Init
 231              	.LVL8:
 232              		.loc 1 169 0
 233 00ca A8E7     		b	.L5
 234              	.L12:
 235              		.align	2
 236              	.L11:
 237 00cc 00300140 		.word	1073819648
 238 00d0 00380040 		.word	1073756160
 239 00d4 00380240 		.word	1073887232
 240 00d8 00000240 		.word	1073872896
 241 00dc 00080240 		.word	1073874944
 242 00e0 00040240 		.word	1073873920
 243              		.cfi_endproc
 244              	.LFE139:
 246              		.section	.text.HAL_SPI_MspDeInit,"ax",%progbits
 247              		.align	1
 248              		.global	HAL_SPI_MspDeInit
 249              		.syntax unified
 250              		.thumb
 251              		.thumb_func
 252              		.fpu fpv5-sp-d16
 254              	HAL_SPI_MspDeInit:
 255              	.LFB140:
 170:Src/stm32f7xx_hal_msp.c **** 
 171:Src/stm32f7xx_hal_msp.c **** /**
 172:Src/stm32f7xx_hal_msp.c **** * @brief SPI MSP De-Initialization
 173:Src/stm32f7xx_hal_msp.c **** * This function freeze the hardware resources used in this example
 174:Src/stm32f7xx_hal_msp.c **** * @param hspi: SPI handle pointer
 175:Src/stm32f7xx_hal_msp.c **** * @retval None
 176:Src/stm32f7xx_hal_msp.c **** */
 177:Src/stm32f7xx_hal_msp.c **** 
 178:Src/stm32f7xx_hal_msp.c **** void HAL_SPI_MspDeInit(SPI_HandleTypeDef* hspi)
 179:Src/stm32f7xx_hal_msp.c **** {
 256              		.loc 1 179 0
 257              		.cfi_startproc
 258              		@ args = 0, pretend = 0, frame = 0
 259              		@ frame_needed = 0, uses_anonymous_args = 0
 260              	.LVL9:
 261 0000 08B5     		push	{r3, lr}
ARM GAS  /var/folders/n8/cvzdcwlj0vl4g_wtyz1ffy300000gn/T//cciQpF2r.s 			page 9


 262              	.LCFI6:
 263              		.cfi_def_cfa_offset 8
 264              		.cfi_offset 3, -8
 265              		.cfi_offset 14, -4
 180:Src/stm32f7xx_hal_msp.c **** 
 181:Src/stm32f7xx_hal_msp.c ****   if(hspi->Instance==SPI1)
 266              		.loc 1 181 0
 267 0002 0368     		ldr	r3, [r0]
 268 0004 104A     		ldr	r2, .L19
 269 0006 9342     		cmp	r3, r2
 270 0008 03D0     		beq	.L17
 182:Src/stm32f7xx_hal_msp.c ****   {
 183:Src/stm32f7xx_hal_msp.c ****   /* USER CODE BEGIN SPI1_MspDeInit 0 */
 184:Src/stm32f7xx_hal_msp.c **** 
 185:Src/stm32f7xx_hal_msp.c ****   /* USER CODE END SPI1_MspDeInit 0 */
 186:Src/stm32f7xx_hal_msp.c ****     /* Peripheral clock disable */
 187:Src/stm32f7xx_hal_msp.c ****     __HAL_RCC_SPI1_CLK_DISABLE();
 188:Src/stm32f7xx_hal_msp.c ****   
 189:Src/stm32f7xx_hal_msp.c ****     /**SPI1 GPIO Configuration    
 190:Src/stm32f7xx_hal_msp.c ****     PA5     ------> SPI1_SCK
 191:Src/stm32f7xx_hal_msp.c ****     PA6     ------> SPI1_MISO
 192:Src/stm32f7xx_hal_msp.c ****     PA7     ------> SPI1_MOSI 
 193:Src/stm32f7xx_hal_msp.c ****     */
 194:Src/stm32f7xx_hal_msp.c ****     HAL_GPIO_DeInit(GPIOA, GPIO_PIN_5|GPIO_PIN_6|GPIO_PIN_7);
 195:Src/stm32f7xx_hal_msp.c **** 
 196:Src/stm32f7xx_hal_msp.c ****   /* USER CODE BEGIN SPI1_MspDeInit 1 */
 197:Src/stm32f7xx_hal_msp.c **** 
 198:Src/stm32f7xx_hal_msp.c ****   /* USER CODE END SPI1_MspDeInit 1 */
 199:Src/stm32f7xx_hal_msp.c ****   }
 200:Src/stm32f7xx_hal_msp.c ****   else if(hspi->Instance==SPI2)
 271              		.loc 1 200 0
 272 000a 104A     		ldr	r2, .L19+4
 273 000c 9342     		cmp	r3, r2
 274 000e 0BD0     		beq	.L18
 275              	.LVL10:
 276              	.L13:
 201:Src/stm32f7xx_hal_msp.c ****   {
 202:Src/stm32f7xx_hal_msp.c ****   /* USER CODE BEGIN SPI2_MspDeInit 0 */
 203:Src/stm32f7xx_hal_msp.c **** 
 204:Src/stm32f7xx_hal_msp.c ****   /* USER CODE END SPI2_MspDeInit 0 */
 205:Src/stm32f7xx_hal_msp.c ****     /* Peripheral clock disable */
 206:Src/stm32f7xx_hal_msp.c ****     __HAL_RCC_SPI2_CLK_DISABLE();
 207:Src/stm32f7xx_hal_msp.c ****   
 208:Src/stm32f7xx_hal_msp.c ****     /**SPI2 GPIO Configuration    
 209:Src/stm32f7xx_hal_msp.c ****     PC1     ------> SPI2_MOSI
 210:Src/stm32f7xx_hal_msp.c ****     PC2     ------> SPI2_MISO
 211:Src/stm32f7xx_hal_msp.c ****     PB10     ------> SPI2_SCK 
 212:Src/stm32f7xx_hal_msp.c ****     */
 213:Src/stm32f7xx_hal_msp.c ****     HAL_GPIO_DeInit(GPIOC, GPIO_PIN_1|GPIO_PIN_2);
 214:Src/stm32f7xx_hal_msp.c **** 
 215:Src/stm32f7xx_hal_msp.c ****     HAL_GPIO_DeInit(GPIOB, GPIO_PIN_10);
 216:Src/stm32f7xx_hal_msp.c **** 
 217:Src/stm32f7xx_hal_msp.c ****   /* USER CODE BEGIN SPI2_MspDeInit 1 */
 218:Src/stm32f7xx_hal_msp.c **** 
 219:Src/stm32f7xx_hal_msp.c ****   /* USER CODE END SPI2_MspDeInit 1 */
 220:Src/stm32f7xx_hal_msp.c ****   }
 221:Src/stm32f7xx_hal_msp.c **** 
ARM GAS  /var/folders/n8/cvzdcwlj0vl4g_wtyz1ffy300000gn/T//cciQpF2r.s 			page 10


 222:Src/stm32f7xx_hal_msp.c **** }
 277              		.loc 1 222 0
 278 0010 08BD     		pop	{r3, pc}
 279              	.LVL11:
 280              	.L17:
 187:Src/stm32f7xx_hal_msp.c ****   
 281              		.loc 1 187 0
 282 0012 02F58432 		add	r2, r2, #67584
 283 0016 536C     		ldr	r3, [r2, #68]
 284 0018 23F48053 		bic	r3, r3, #4096
 285 001c 5364     		str	r3, [r2, #68]
 194:Src/stm32f7xx_hal_msp.c **** 
 286              		.loc 1 194 0
 287 001e E021     		movs	r1, #224
 288 0020 0B48     		ldr	r0, .L19+8
 289              	.LVL12:
 290 0022 FFF7FEFF 		bl	HAL_GPIO_DeInit
 291              	.LVL13:
 292 0026 F3E7     		b	.L13
 293              	.LVL14:
 294              	.L18:
 206:Src/stm32f7xx_hal_msp.c ****   
 295              		.loc 1 206 0
 296 0028 02F50032 		add	r2, r2, #131072
 297 002c 136C     		ldr	r3, [r2, #64]
 298 002e 23F48043 		bic	r3, r3, #16384
 299 0032 1364     		str	r3, [r2, #64]
 213:Src/stm32f7xx_hal_msp.c **** 
 300              		.loc 1 213 0
 301 0034 0621     		movs	r1, #6
 302 0036 0748     		ldr	r0, .L19+12
 303              	.LVL15:
 304 0038 FFF7FEFF 		bl	HAL_GPIO_DeInit
 305              	.LVL16:
 215:Src/stm32f7xx_hal_msp.c **** 
 306              		.loc 1 215 0
 307 003c 4FF48061 		mov	r1, #1024
 308 0040 0548     		ldr	r0, .L19+16
 309 0042 FFF7FEFF 		bl	HAL_GPIO_DeInit
 310              	.LVL17:
 311              		.loc 1 222 0
 312 0046 E3E7     		b	.L13
 313              	.L20:
 314              		.align	2
 315              	.L19:
 316 0048 00300140 		.word	1073819648
 317 004c 00380040 		.word	1073756160
 318 0050 00000240 		.word	1073872896
 319 0054 00080240 		.word	1073874944
 320 0058 00040240 		.word	1073873920
 321              		.cfi_endproc
 322              	.LFE140:
 324              		.text
 325              	.Letext0:
 326              		.file 2 "/usr/local/Cellar/arm-none-eabi-gcc/20180627/arm-none-eabi/include/machine/_default_types
 327              		.file 3 "/usr/local/Cellar/arm-none-eabi-gcc/20180627/arm-none-eabi/include/sys/_stdint.h"
 328              		.file 4 "Drivers/CMSIS/Include/core_cm7.h"
ARM GAS  /var/folders/n8/cvzdcwlj0vl4g_wtyz1ffy300000gn/T//cciQpF2r.s 			page 11


 329              		.file 5 "Drivers/CMSIS/Device/ST/STM32F7xx/Include/system_stm32f7xx.h"
 330              		.file 6 "Drivers/CMSIS/Device/ST/STM32F7xx/Include/stm32f746xx.h"
 331              		.file 7 "/usr/local/Cellar/arm-none-eabi-gcc/20180627/arm-none-eabi/include/sys/lock.h"
 332              		.file 8 "/usr/local/Cellar/arm-none-eabi-gcc/20180627/arm-none-eabi/include/sys/_types.h"
 333              		.file 9 "/usr/local/Cellar/arm-none-eabi-gcc/20180627/lib/gcc/arm-none-eabi/7.3.1/include/stddef.h
 334              		.file 10 "/usr/local/Cellar/arm-none-eabi-gcc/20180627/arm-none-eabi/include/sys/reent.h"
 335              		.file 11 "Drivers/STM32F7xx_HAL_Driver/Inc/stm32f7xx_hal_def.h"
 336              		.file 12 "Drivers/STM32F7xx_HAL_Driver/Inc/stm32f7xx_hal_gpio.h"
 337              		.file 13 "Drivers/STM32F7xx_HAL_Driver/Inc/stm32f7xx_hal_dma.h"
 338              		.file 14 "Drivers/STM32F7xx_HAL_Driver/Inc/stm32f7xx_hal_spi.h"
ARM GAS  /var/folders/n8/cvzdcwlj0vl4g_wtyz1ffy300000gn/T//cciQpF2r.s 			page 12

