ARM GAS  /var/folders/n8/cvzdcwlj0vl4g_wtyz1ffy300000gn/T//ccVKMAl6.s 			page 1


   1              		.cpu cortex-m7
   2              		.eabi_attribute 27, 1
   3              		.eabi_attribute 28, 1
   4              		.eabi_attribute 20, 1
   5              		.eabi_attribute 21, 1
   6              		.eabi_attribute 23, 3
   7              		.eabi_attribute 24, 1
   8              		.eabi_attribute 25, 1
   9              		.eabi_attribute 26, 1
  10              		.eabi_attribute 30, 1
  11              		.eabi_attribute 34, 1
  12              		.eabi_attribute 18, 4
  13              		.file	"SwitchBool__Generated.c"
  14              		.text
  15              	.Ltext0:
  16              		.cfi_sections	.debug_frame
  17              		.section	.text.SwitchBool__Initializer,"ax",%progbits
  18              		.align	1
  19              		.global	SwitchBool__Initializer
  20              		.syntax unified
  21              		.thumb
  22              		.thumb_func
  23              		.fpu fpv5-sp-d16
  25              	SwitchBool__Initializer:
  26              	.LFB3:
  27              		.file 1 "FT_Esd_Widgets/SwitchBool__Generated.c"
   1:FT_Esd_Widgets/SwitchBool__Generated.c **** /*
   2:FT_Esd_Widgets/SwitchBool__Generated.c **** This file is automatically generated
   3:FT_Esd_Widgets/SwitchBool__Generated.c **** SwitchBool
   4:FT_Esd_Widgets/SwitchBool__Generated.c **** C Source
   5:FT_Esd_Widgets/SwitchBool__Generated.c **** */
   6:FT_Esd_Widgets/SwitchBool__Generated.c **** 
   7:FT_Esd_Widgets/SwitchBool__Generated.c **** #include "SwitchBool.h"
   8:FT_Esd_Widgets/SwitchBool__Generated.c **** 
   9:FT_Esd_Widgets/SwitchBool__Generated.c **** extern void Ft_Esd_Noop(void *context);
  10:FT_Esd_Widgets/SwitchBool__Generated.c **** 
  11:FT_Esd_Widgets/SwitchBool__Generated.c **** 
  12:FT_Esd_Widgets/SwitchBool__Generated.c **** 
  13:FT_Esd_Widgets/SwitchBool__Generated.c **** void SwitchBool__Initializer(SwitchBool *context)
  14:FT_Esd_Widgets/SwitchBool__Generated.c **** {
  28              		.loc 1 14 0
  29              		.cfi_startproc
  30              		@ args = 0, pretend = 0, frame = 0
  31              		@ frame_needed = 0, uses_anonymous_args = 0
  32              		@ link register save eliminated.
  33              	.LVL0:
  15:FT_Esd_Widgets/SwitchBool__Generated.c **** 	context->Parent = 0;
  34              		.loc 1 15 0
  35 0000 0023     		movs	r3, #0
  36 0002 0360     		str	r3, [r0]
  16:FT_Esd_Widgets/SwitchBool__Generated.c **** 	context->Boolean = 0;
  37              		.loc 1 16 0
  38 0004 0371     		strb	r3, [r0, #4]
  17:FT_Esd_Widgets/SwitchBool__Generated.c **** }
  39              		.loc 1 17 0
  40 0006 7047     		bx	lr
  41              		.cfi_endproc
ARM GAS  /var/folders/n8/cvzdcwlj0vl4g_wtyz1ffy300000gn/T//ccVKMAl6.s 			page 2


  42              	.LFE3:
  44              		.section	.text.SwitchBool_SetTrue,"ax",%progbits
  45              		.align	1
  46              		.global	SwitchBool_SetTrue
  47              		.syntax unified
  48              		.thumb
  49              		.thumb_func
  50              		.fpu fpv5-sp-d16
  52              	SwitchBool_SetTrue:
  53              	.LFB4:
  18:FT_Esd_Widgets/SwitchBool__Generated.c **** 
  19:FT_Esd_Widgets/SwitchBool__Generated.c **** void SwitchBool_SetTrue(SwitchBool *context)
  20:FT_Esd_Widgets/SwitchBool__Generated.c **** {
  54              		.loc 1 20 0
  55              		.cfi_startproc
  56              		@ args = 0, pretend = 0, frame = 0
  57              		@ frame_needed = 0, uses_anonymous_args = 0
  58              		@ link register save eliminated.
  59              	.LVL1:
  21:FT_Esd_Widgets/SwitchBool__Generated.c **** 	void *parent = context->Parent;
  22:FT_Esd_Widgets/SwitchBool__Generated.c **** 	ft_bool_t set_variable = 1;
  23:FT_Esd_Widgets/SwitchBool__Generated.c **** 	context->Boolean = set_variable;
  60              		.loc 1 23 0
  61 0000 0123     		movs	r3, #1
  62 0002 0371     		strb	r3, [r0, #4]
  24:FT_Esd_Widgets/SwitchBool__Generated.c **** }
  63              		.loc 1 24 0
  64 0004 7047     		bx	lr
  65              		.cfi_endproc
  66              	.LFE4:
  68              		.section	.text.SwitchBool_Value,"ax",%progbits
  69              		.align	1
  70              		.global	SwitchBool_Value
  71              		.syntax unified
  72              		.thumb
  73              		.thumb_func
  74              		.fpu fpv5-sp-d16
  76              	SwitchBool_Value:
  77              	.LFB5:
  25:FT_Esd_Widgets/SwitchBool__Generated.c **** 
  26:FT_Esd_Widgets/SwitchBool__Generated.c **** ft_bool_t SwitchBool_Value(SwitchBool *context)
  27:FT_Esd_Widgets/SwitchBool__Generated.c **** {
  78              		.loc 1 27 0
  79              		.cfi_startproc
  80              		@ args = 0, pretend = 0, frame = 0
  81              		@ frame_needed = 0, uses_anonymous_args = 0
  82              		@ link register save eliminated.
  83              	.LVL2:
  28:FT_Esd_Widgets/SwitchBool__Generated.c **** 	void *parent = context->Parent;
  29:FT_Esd_Widgets/SwitchBool__Generated.c **** 	return context->Boolean;
  30:FT_Esd_Widgets/SwitchBool__Generated.c **** }
  84              		.loc 1 30 0
  85 0000 0079     		ldrb	r0, [r0, #4]	@ zero_extendqisi2
  86              	.LVL3:
  87 0002 7047     		bx	lr
  88              		.cfi_endproc
  89              	.LFE5:
ARM GAS  /var/folders/n8/cvzdcwlj0vl4g_wtyz1ffy300000gn/T//ccVKMAl6.s 			page 3


  91              		.section	.text.SwitchBool_SetFalse,"ax",%progbits
  92              		.align	1
  93              		.global	SwitchBool_SetFalse
  94              		.syntax unified
  95              		.thumb
  96              		.thumb_func
  97              		.fpu fpv5-sp-d16
  99              	SwitchBool_SetFalse:
 100              	.LFB6:
  31:FT_Esd_Widgets/SwitchBool__Generated.c **** 
  32:FT_Esd_Widgets/SwitchBool__Generated.c **** void SwitchBool_SetFalse(SwitchBool *context)
  33:FT_Esd_Widgets/SwitchBool__Generated.c **** {
 101              		.loc 1 33 0
 102              		.cfi_startproc
 103              		@ args = 0, pretend = 0, frame = 0
 104              		@ frame_needed = 0, uses_anonymous_args = 0
 105              		@ link register save eliminated.
 106              	.LVL4:
  34:FT_Esd_Widgets/SwitchBool__Generated.c **** 	void *parent = context->Parent;
  35:FT_Esd_Widgets/SwitchBool__Generated.c **** 	ft_bool_t set_variable_1 = 0;
  36:FT_Esd_Widgets/SwitchBool__Generated.c **** 	context->Boolean = set_variable_1;
 107              		.loc 1 36 0
 108 0000 0023     		movs	r3, #0
 109 0002 0371     		strb	r3, [r0, #4]
  37:FT_Esd_Widgets/SwitchBool__Generated.c **** }
 110              		.loc 1 37 0
 111 0004 7047     		bx	lr
 112              		.cfi_endproc
 113              	.LFE6:
 115              		.section	.text.SwitchBool_Switch,"ax",%progbits
 116              		.align	1
 117              		.global	SwitchBool_Switch
 118              		.syntax unified
 119              		.thumb
 120              		.thumb_func
 121              		.fpu fpv5-sp-d16
 123              	SwitchBool_Switch:
 124              	.LFB7:
  38:FT_Esd_Widgets/SwitchBool__Generated.c **** 
  39:FT_Esd_Widgets/SwitchBool__Generated.c **** void SwitchBool_Switch(SwitchBool *context)
  40:FT_Esd_Widgets/SwitchBool__Generated.c **** {
 125              		.loc 1 40 0
 126              		.cfi_startproc
 127              		@ args = 0, pretend = 0, frame = 0
 128              		@ frame_needed = 0, uses_anonymous_args = 0
 129              		@ link register save eliminated.
 130              	.LVL5:
  41:FT_Esd_Widgets/SwitchBool__Generated.c **** 	void *parent = context->Parent;
  42:FT_Esd_Widgets/SwitchBool__Generated.c **** 	ft_bool_t value = context->Boolean;
 131              		.loc 1 42 0
 132 0000 0379     		ldrb	r3, [r0, #4]	@ zero_extendqisi2
 133              	.LVL6:
  43:FT_Esd_Widgets/SwitchBool__Generated.c **** 	int set_variable_2 = !value;
 134              		.loc 1 43 0
 135 0002 B3FA83F3 		clz	r3, r3
 136              	.LVL7:
 137 0006 5B09     		lsrs	r3, r3, #5
ARM GAS  /var/folders/n8/cvzdcwlj0vl4g_wtyz1ffy300000gn/T//ccVKMAl6.s 			page 4


 138              	.LVL8:
  44:FT_Esd_Widgets/SwitchBool__Generated.c **** 	context->Boolean = set_variable_2;
 139              		.loc 1 44 0
 140 0008 0371     		strb	r3, [r0, #4]
 141              	.LVL9:
  45:FT_Esd_Widgets/SwitchBool__Generated.c **** }
 142              		.loc 1 45 0
 143 000a 7047     		bx	lr
 144              		.cfi_endproc
 145              	.LFE7:
 147              		.text
 148              	.Letext0:
 149              		.file 2 "FT_Eve_Hal/FT_DataTypes.h"
 150              		.file 3 "/usr/local/Cellar/arm-none-eabi-gcc/20180627/arm-none-eabi/include/sys/lock.h"
 151              		.file 4 "/usr/local/Cellar/arm-none-eabi-gcc/20180627/arm-none-eabi/include/sys/_types.h"
 152              		.file 5 "/usr/local/Cellar/arm-none-eabi-gcc/20180627/lib/gcc/arm-none-eabi/7.3.1/include/stddef.h
 153              		.file 6 "/usr/local/Cellar/arm-none-eabi-gcc/20180627/arm-none-eabi/include/sys/unistd.h"
 154              		.file 7 "/usr/local/Cellar/arm-none-eabi-gcc/20180627/arm-none-eabi/include/sys/reent.h"
 155              		.file 8 "/usr/local/Cellar/arm-none-eabi-gcc/20180627/arm-none-eabi/include/stdlib.h"
 156              		.file 9 "FT_Esd_Widgets/SwitchBool.h"
ARM GAS  /var/folders/n8/cvzdcwlj0vl4g_wtyz1ffy300000gn/T//ccVKMAl6.s 			page 5

