ARM GAS  /var/folders/n8/cvzdcwlj0vl4g_wtyz1ffy300000gn/T//ccSP2wFo.s 			page 1


   1              		.cpu cortex-m7
   2              		.eabi_attribute 27, 1
   3              		.eabi_attribute 28, 1
   4              		.eabi_attribute 20, 1
   5              		.eabi_attribute 21, 1
   6              		.eabi_attribute 23, 3
   7              		.eabi_attribute 24, 1
   8              		.eabi_attribute 25, 1
   9              		.eabi_attribute 26, 1
  10              		.eabi_attribute 30, 6
  11              		.eabi_attribute 34, 1
  12              		.eabi_attribute 18, 4
  13              		.file	"Ft_Esd_IntCounter__Generated.c"
  14              		.text
  15              	.Ltext0:
  16              		.cfi_sections	.debug_frame
  17              		.section	.text.Ft_Esd_IntCounter__Initializer,"ax",%progbits
  18              		.align	1
  19              		.global	Ft_Esd_IntCounter__Initializer
  20              		.syntax unified
  21              		.thumb
  22              		.thumb_func
  23              		.fpu fpv5-sp-d16
  25              	Ft_Esd_IntCounter__Initializer:
  26              	.LFB3:
  27              		.file 1 "FT_Esd_Widgets/Ft_Esd_IntCounter__Generated.c"
   1:FT_Esd_Widgets/Ft_Esd_IntCounter__Generated.c **** /*
   2:FT_Esd_Widgets/Ft_Esd_IntCounter__Generated.c **** This file is automatically generated
   3:FT_Esd_Widgets/Ft_Esd_IntCounter__Generated.c **** Ft_Esd_IntCounter
   4:FT_Esd_Widgets/Ft_Esd_IntCounter__Generated.c **** C Source
   5:FT_Esd_Widgets/Ft_Esd_IntCounter__Generated.c **** */
   6:FT_Esd_Widgets/Ft_Esd_IntCounter__Generated.c **** 
   7:FT_Esd_Widgets/Ft_Esd_IntCounter__Generated.c **** #include "Ft_Esd_IntCounter.h"
   8:FT_Esd_Widgets/Ft_Esd_IntCounter__Generated.c **** 
   9:FT_Esd_Widgets/Ft_Esd_IntCounter__Generated.c **** extern void Ft_Esd_Noop(void *context);
  10:FT_Esd_Widgets/Ft_Esd_IntCounter__Generated.c **** 
  11:FT_Esd_Widgets/Ft_Esd_IntCounter__Generated.c **** 
  12:FT_Esd_Widgets/Ft_Esd_IntCounter__Generated.c **** 
  13:FT_Esd_Widgets/Ft_Esd_IntCounter__Generated.c **** void Ft_Esd_IntCounter__Initializer(Ft_Esd_IntCounter *context)
  14:FT_Esd_Widgets/Ft_Esd_IntCounter__Generated.c **** {
  28              		.loc 1 14 0
  29              		.cfi_startproc
  30              		@ args = 0, pretend = 0, frame = 8
  31              		@ frame_needed = 1, uses_anonymous_args = 0
  32              		@ link register save eliminated.
  33 0000 80B4     		push	{r7}
  34              	.LCFI0:
  35              		.cfi_def_cfa_offset 4
  36              		.cfi_offset 7, -4
  37 0002 83B0     		sub	sp, sp, #12
  38              	.LCFI1:
  39              		.cfi_def_cfa_offset 16
  40 0004 00AF     		add	r7, sp, #0
  41              	.LCFI2:
  42              		.cfi_def_cfa_register 7
  43 0006 7860     		str	r0, [r7, #4]
  15:FT_Esd_Widgets/Ft_Esd_IntCounter__Generated.c **** 	context->Parent = 0;
ARM GAS  /var/folders/n8/cvzdcwlj0vl4g_wtyz1ffy300000gn/T//ccSP2wFo.s 			page 2


  44              		.loc 1 15 0
  45 0008 7B68     		ldr	r3, [r7, #4]
  46 000a 0022     		movs	r2, #0
  47 000c 1A60     		str	r2, [r3]
  16:FT_Esd_Widgets/Ft_Esd_IntCounter__Generated.c **** 	context->Value = 0L;
  48              		.loc 1 16 0
  49 000e 7B68     		ldr	r3, [r7, #4]
  50 0010 0022     		movs	r2, #0
  51 0012 5A60     		str	r2, [r3, #4]
  17:FT_Esd_Widgets/Ft_Esd_IntCounter__Generated.c **** 	context->Step = 1L;
  52              		.loc 1 17 0
  53 0014 7B68     		ldr	r3, [r7, #4]
  54 0016 0122     		movs	r2, #1
  55 0018 9A60     		str	r2, [r3, #8]
  18:FT_Esd_Widgets/Ft_Esd_IntCounter__Generated.c **** }
  56              		.loc 1 18 0
  57 001a 00BF     		nop
  58 001c 0C37     		adds	r7, r7, #12
  59              	.LCFI3:
  60              		.cfi_def_cfa_offset 4
  61 001e BD46     		mov	sp, r7
  62              	.LCFI4:
  63              		.cfi_def_cfa_register 13
  64              		@ sp needed
  65 0020 5DF8047B 		ldr	r7, [sp], #4
  66              	.LCFI5:
  67              		.cfi_restore 7
  68              		.cfi_def_cfa_offset 0
  69 0024 7047     		bx	lr
  70              		.cfi_endproc
  71              	.LFE3:
  73              		.section	.text.Ft_Esd_IntCounter_Inc,"ax",%progbits
  74              		.align	1
  75              		.global	Ft_Esd_IntCounter_Inc
  76              		.syntax unified
  77              		.thumb
  78              		.thumb_func
  79              		.fpu fpv5-sp-d16
  81              	Ft_Esd_IntCounter_Inc:
  82              	.LFB4:
  19:FT_Esd_Widgets/Ft_Esd_IntCounter__Generated.c **** 
  20:FT_Esd_Widgets/Ft_Esd_IntCounter__Generated.c **** void Ft_Esd_IntCounter_Inc(Ft_Esd_IntCounter *context)
  21:FT_Esd_Widgets/Ft_Esd_IntCounter__Generated.c **** {
  83              		.loc 1 21 0
  84              		.cfi_startproc
  85              		@ args = 0, pretend = 0, frame = 24
  86              		@ frame_needed = 1, uses_anonymous_args = 0
  87              		@ link register save eliminated.
  88 0000 80B4     		push	{r7}
  89              	.LCFI6:
  90              		.cfi_def_cfa_offset 4
  91              		.cfi_offset 7, -4
  92 0002 87B0     		sub	sp, sp, #28
  93              	.LCFI7:
  94              		.cfi_def_cfa_offset 32
  95 0004 00AF     		add	r7, sp, #0
  96              	.LCFI8:
ARM GAS  /var/folders/n8/cvzdcwlj0vl4g_wtyz1ffy300000gn/T//ccSP2wFo.s 			page 3


  97              		.cfi_def_cfa_register 7
  98 0006 7860     		str	r0, [r7, #4]
  22:FT_Esd_Widgets/Ft_Esd_IntCounter__Generated.c **** 	void *parent = context->Parent;
  99              		.loc 1 22 0
 100 0008 7B68     		ldr	r3, [r7, #4]
 101 000a 1B68     		ldr	r3, [r3]
 102 000c 7B61     		str	r3, [r7, #20]
  23:FT_Esd_Widgets/Ft_Esd_IntCounter__Generated.c **** 	int left = context->Value;
 103              		.loc 1 23 0
 104 000e 7B68     		ldr	r3, [r7, #4]
 105 0010 5B68     		ldr	r3, [r3, #4]
 106 0012 3B61     		str	r3, [r7, #16]
  24:FT_Esd_Widgets/Ft_Esd_IntCounter__Generated.c **** 	int right = context->Step;
 107              		.loc 1 24 0
 108 0014 7B68     		ldr	r3, [r7, #4]
 109 0016 9B68     		ldr	r3, [r3, #8]
 110 0018 FB60     		str	r3, [r7, #12]
  25:FT_Esd_Widgets/Ft_Esd_IntCounter__Generated.c **** 	int set_variable = left + right;
 111              		.loc 1 25 0
 112 001a 3A69     		ldr	r2, [r7, #16]
 113 001c FB68     		ldr	r3, [r7, #12]
 114 001e 1344     		add	r3, r3, r2
 115 0020 BB60     		str	r3, [r7, #8]
  26:FT_Esd_Widgets/Ft_Esd_IntCounter__Generated.c **** 	context->Value = set_variable;
 116              		.loc 1 26 0
 117 0022 7B68     		ldr	r3, [r7, #4]
 118 0024 BA68     		ldr	r2, [r7, #8]
 119 0026 5A60     		str	r2, [r3, #4]
  27:FT_Esd_Widgets/Ft_Esd_IntCounter__Generated.c **** }
 120              		.loc 1 27 0
 121 0028 00BF     		nop
 122 002a 1C37     		adds	r7, r7, #28
 123              	.LCFI9:
 124              		.cfi_def_cfa_offset 4
 125 002c BD46     		mov	sp, r7
 126              	.LCFI10:
 127              		.cfi_def_cfa_register 13
 128              		@ sp needed
 129 002e 5DF8047B 		ldr	r7, [sp], #4
 130              	.LCFI11:
 131              		.cfi_restore 7
 132              		.cfi_def_cfa_offset 0
 133 0032 7047     		bx	lr
 134              		.cfi_endproc
 135              	.LFE4:
 137              		.section	.text.Ft_Esd_IntCounter_Dec,"ax",%progbits
 138              		.align	1
 139              		.global	Ft_Esd_IntCounter_Dec
 140              		.syntax unified
 141              		.thumb
 142              		.thumb_func
 143              		.fpu fpv5-sp-d16
 145              	Ft_Esd_IntCounter_Dec:
 146              	.LFB5:
  28:FT_Esd_Widgets/Ft_Esd_IntCounter__Generated.c **** 
  29:FT_Esd_Widgets/Ft_Esd_IntCounter__Generated.c **** void Ft_Esd_IntCounter_Dec(Ft_Esd_IntCounter *context)
  30:FT_Esd_Widgets/Ft_Esd_IntCounter__Generated.c **** {
ARM GAS  /var/folders/n8/cvzdcwlj0vl4g_wtyz1ffy300000gn/T//ccSP2wFo.s 			page 4


 147              		.loc 1 30 0
 148              		.cfi_startproc
 149              		@ args = 0, pretend = 0, frame = 24
 150              		@ frame_needed = 1, uses_anonymous_args = 0
 151              		@ link register save eliminated.
 152 0000 80B4     		push	{r7}
 153              	.LCFI12:
 154              		.cfi_def_cfa_offset 4
 155              		.cfi_offset 7, -4
 156 0002 87B0     		sub	sp, sp, #28
 157              	.LCFI13:
 158              		.cfi_def_cfa_offset 32
 159 0004 00AF     		add	r7, sp, #0
 160              	.LCFI14:
 161              		.cfi_def_cfa_register 7
 162 0006 7860     		str	r0, [r7, #4]
  31:FT_Esd_Widgets/Ft_Esd_IntCounter__Generated.c **** 	void *parent = context->Parent;
 163              		.loc 1 31 0
 164 0008 7B68     		ldr	r3, [r7, #4]
 165 000a 1B68     		ldr	r3, [r3]
 166 000c 7B61     		str	r3, [r7, #20]
  32:FT_Esd_Widgets/Ft_Esd_IntCounter__Generated.c **** 	int left_1 = context->Value;
 167              		.loc 1 32 0
 168 000e 7B68     		ldr	r3, [r7, #4]
 169 0010 5B68     		ldr	r3, [r3, #4]
 170 0012 3B61     		str	r3, [r7, #16]
  33:FT_Esd_Widgets/Ft_Esd_IntCounter__Generated.c **** 	int right_1 = context->Step;
 171              		.loc 1 33 0
 172 0014 7B68     		ldr	r3, [r7, #4]
 173 0016 9B68     		ldr	r3, [r3, #8]
 174 0018 FB60     		str	r3, [r7, #12]
  34:FT_Esd_Widgets/Ft_Esd_IntCounter__Generated.c **** 	int set_variable_1 = left_1 - right_1;
 175              		.loc 1 34 0
 176 001a 3A69     		ldr	r2, [r7, #16]
 177 001c FB68     		ldr	r3, [r7, #12]
 178 001e D31A     		subs	r3, r2, r3
 179 0020 BB60     		str	r3, [r7, #8]
  35:FT_Esd_Widgets/Ft_Esd_IntCounter__Generated.c **** 	context->Value = set_variable_1;
 180              		.loc 1 35 0
 181 0022 7B68     		ldr	r3, [r7, #4]
 182 0024 BA68     		ldr	r2, [r7, #8]
 183 0026 5A60     		str	r2, [r3, #4]
  36:FT_Esd_Widgets/Ft_Esd_IntCounter__Generated.c **** }
 184              		.loc 1 36 0
 185 0028 00BF     		nop
 186 002a 1C37     		adds	r7, r7, #28
 187              	.LCFI15:
 188              		.cfi_def_cfa_offset 4
 189 002c BD46     		mov	sp, r7
 190              	.LCFI16:
 191              		.cfi_def_cfa_register 13
 192              		@ sp needed
 193 002e 5DF8047B 		ldr	r7, [sp], #4
 194              	.LCFI17:
 195              		.cfi_restore 7
 196              		.cfi_def_cfa_offset 0
 197 0032 7047     		bx	lr
ARM GAS  /var/folders/n8/cvzdcwlj0vl4g_wtyz1ffy300000gn/T//ccSP2wFo.s 			page 5


 198              		.cfi_endproc
 199              	.LFE5:
 201              		.text
 202              	.Letext0:
 203              		.file 2 "/usr/local/Cellar/arm-none-eabi-gcc/20180627/arm-none-eabi/include/sys/lock.h"
 204              		.file 3 "/usr/local/Cellar/arm-none-eabi-gcc/20180627/arm-none-eabi/include/sys/_types.h"
 205              		.file 4 "/usr/local/Cellar/arm-none-eabi-gcc/20180627/lib/gcc/arm-none-eabi/7.3.1/include/stddef.h
 206              		.file 5 "/usr/local/Cellar/arm-none-eabi-gcc/20180627/arm-none-eabi/include/sys/unistd.h"
 207              		.file 6 "/usr/local/Cellar/arm-none-eabi-gcc/20180627/arm-none-eabi/include/sys/reent.h"
 208              		.file 7 "/usr/local/Cellar/arm-none-eabi-gcc/20180627/arm-none-eabi/include/stdlib.h"
 209              		.file 8 "FT_Esd_Widgets/Ft_Esd_IntCounter.h"
ARM GAS  /var/folders/n8/cvzdcwlj0vl4g_wtyz1ffy300000gn/T//ccSP2wFo.s 			page 6

