ARM GAS  /var/folders/n8/cvzdcwlj0vl4g_wtyz1ffy300000gn/T//ccIxDFcw.s 			page 1


   1              		.cpu cortex-m7
   2              		.eabi_attribute 27, 1
   3              		.eabi_attribute 28, 1
   4              		.eabi_attribute 20, 1
   5              		.eabi_attribute 21, 1
   6              		.eabi_attribute 23, 3
   7              		.eabi_attribute 24, 1
   8              		.eabi_attribute 25, 1
   9              		.eabi_attribute 26, 1
  10              		.eabi_attribute 30, 6
  11              		.eabi_attribute 34, 1
  12              		.eabi_attribute 18, 4
  13              		.file	"Ft_Esd_RadioButton.c"
  14              		.text
  15              	.Ltext0:
  16              		.cfi_sections	.debug_frame
  17              		.section	.bss.Ft_Esd_RadioButton_GlobalChecked,"aw",%nobits
  18              		.align	2
  21              	Ft_Esd_RadioButton_GlobalChecked:
  22 0000 00000000 		.space	4
  23              		.section	.text.Ft_Esd_RadioButton_Check_Signal,"ax",%progbits
  24              		.align	1
  25              		.global	Ft_Esd_RadioButton_Check_Signal
  26              		.syntax unified
  27              		.thumb
  28              		.thumb_func
  29              		.fpu fpv5-sp-d16
  31              	Ft_Esd_RadioButton_Check_Signal:
  32              	.LFB9:
  33              		.file 1 "FT_Esd_Widgets/Ft_Esd_RadioButton.c"
   1:FT_Esd_Widgets/Ft_Esd_RadioButton.c **** #include "Ft_Esd.h"
   2:FT_Esd_Widgets/Ft_Esd_RadioButton.c **** #include "Ft_Esd_RadioButton.h"
   3:FT_Esd_Widgets/Ft_Esd_RadioButton.c **** 
   4:FT_Esd_Widgets/Ft_Esd_RadioButton.c **** static Ft_Esd_RadioButton *Ft_Esd_RadioButton_GlobalChecked = 0;
   5:FT_Esd_Widgets/Ft_Esd_RadioButton.c **** 
   6:FT_Esd_Widgets/Ft_Esd_RadioButton.c **** ESD_METHOD(Ft_Esd_RadioButton_Check_Signal, Context = Ft_Esd_RadioButton)
   7:FT_Esd_Widgets/Ft_Esd_RadioButton.c **** void Ft_Esd_RadioButton_Check_Signal(Ft_Esd_RadioButton *context)
   8:FT_Esd_Widgets/Ft_Esd_RadioButton.c **** {
  34              		.loc 1 8 0
  35              		.cfi_startproc
  36              		@ args = 0, pretend = 0, frame = 16
  37              		@ frame_needed = 1, uses_anonymous_args = 0
  38 0000 80B5     		push	{r7, lr}
  39              	.LCFI0:
  40              		.cfi_def_cfa_offset 8
  41              		.cfi_offset 7, -8
  42              		.cfi_offset 14, -4
  43 0002 84B0     		sub	sp, sp, #16
  44              	.LCFI1:
  45              		.cfi_def_cfa_offset 24
  46 0004 00AF     		add	r7, sp, #0
  47              	.LCFI2:
  48              		.cfi_def_cfa_register 7
  49 0006 7860     		str	r0, [r7, #4]
   9:FT_Esd_Widgets/Ft_Esd_RadioButton.c **** 	Ft_Esd_RadioGroup *rg = context->RadioGroup(context->Parent);
  50              		.loc 1 9 0
  51 0008 7B68     		ldr	r3, [r7, #4]
ARM GAS  /var/folders/n8/cvzdcwlj0vl4g_wtyz1ffy300000gn/T//ccIxDFcw.s 			page 2


  52 000a 1B6B     		ldr	r3, [r3, #48]
  53 000c 7A68     		ldr	r2, [r7, #4]
  54 000e 1268     		ldr	r2, [r2]
  55 0010 1046     		mov	r0, r2
  56 0012 9847     		blx	r3
  57              	.LVL0:
  58 0014 F860     		str	r0, [r7, #12]
  10:FT_Esd_Widgets/Ft_Esd_RadioButton.c **** 	if (rg) rg->Checked = context;
  59              		.loc 1 10 0
  60 0016 FB68     		ldr	r3, [r7, #12]
  61 0018 002B     		cmp	r3, #0
  62 001a 03D0     		beq	.L2
  63              		.loc 1 10 0 is_stmt 0 discriminator 1
  64 001c FB68     		ldr	r3, [r7, #12]
  65 001e 7A68     		ldr	r2, [r7, #4]
  66 0020 5A60     		str	r2, [r3, #4]
  11:FT_Esd_Widgets/Ft_Esd_RadioButton.c **** 	else Ft_Esd_RadioButton_GlobalChecked = context;
  12:FT_Esd_Widgets/Ft_Esd_RadioButton.c **** }
  67              		.loc 1 12 0 is_stmt 1 discriminator 1
  68 0022 02E0     		b	.L4
  69              	.L2:
  11:FT_Esd_Widgets/Ft_Esd_RadioButton.c **** 	else Ft_Esd_RadioButton_GlobalChecked = context;
  70              		.loc 1 11 0
  71 0024 034A     		ldr	r2, .L5
  72 0026 7B68     		ldr	r3, [r7, #4]
  73 0028 1360     		str	r3, [r2]
  74              	.L4:
  75              		.loc 1 12 0
  76 002a 00BF     		nop
  77 002c 1037     		adds	r7, r7, #16
  78              	.LCFI3:
  79              		.cfi_def_cfa_offset 8
  80 002e BD46     		mov	sp, r7
  81              	.LCFI4:
  82              		.cfi_def_cfa_register 13
  83              		@ sp needed
  84 0030 80BD     		pop	{r7, pc}
  85              	.L6:
  86 0032 00BF     		.align	2
  87              	.L5:
  88 0034 00000000 		.word	Ft_Esd_RadioButton_GlobalChecked
  89              		.cfi_endproc
  90              	.LFE9:
  92              		.section	.text.Ft_Esd_RadioButton_IsChecked,"ax",%progbits
  93              		.align	1
  94              		.global	Ft_Esd_RadioButton_IsChecked
  95              		.syntax unified
  96              		.thumb
  97              		.thumb_func
  98              		.fpu fpv5-sp-d16
 100              	Ft_Esd_RadioButton_IsChecked:
 101              	.LFB10:
  13:FT_Esd_Widgets/Ft_Esd_RadioButton.c **** 
  14:FT_Esd_Widgets/Ft_Esd_RadioButton.c **** ESD_METHOD(Ft_Esd_RadioButton_IsChecked, Context = Ft_Esd_RadioButton, Type = ft_bool_t)
  15:FT_Esd_Widgets/Ft_Esd_RadioButton.c **** ft_bool_t Ft_Esd_RadioButton_IsChecked(Ft_Esd_RadioButton *context)
  16:FT_Esd_Widgets/Ft_Esd_RadioButton.c **** {
 102              		.loc 1 16 0
ARM GAS  /var/folders/n8/cvzdcwlj0vl4g_wtyz1ffy300000gn/T//ccIxDFcw.s 			page 3


 103              		.cfi_startproc
 104              		@ args = 0, pretend = 0, frame = 16
 105              		@ frame_needed = 1, uses_anonymous_args = 0
 106 0000 80B5     		push	{r7, lr}
 107              	.LCFI5:
 108              		.cfi_def_cfa_offset 8
 109              		.cfi_offset 7, -8
 110              		.cfi_offset 14, -4
 111 0002 84B0     		sub	sp, sp, #16
 112              	.LCFI6:
 113              		.cfi_def_cfa_offset 24
 114 0004 00AF     		add	r7, sp, #0
 115              	.LCFI7:
 116              		.cfi_def_cfa_register 7
 117 0006 7860     		str	r0, [r7, #4]
  17:FT_Esd_Widgets/Ft_Esd_RadioButton.c **** 	Ft_Esd_RadioGroup *rg = context->RadioGroup(context->Parent);
 118              		.loc 1 17 0
 119 0008 7B68     		ldr	r3, [r7, #4]
 120 000a 1B6B     		ldr	r3, [r3, #48]
 121 000c 7A68     		ldr	r2, [r7, #4]
 122 000e 1268     		ldr	r2, [r2]
 123 0010 1046     		mov	r0, r2
 124 0012 9847     		blx	r3
 125              	.LVL1:
 126 0014 F860     		str	r0, [r7, #12]
  18:FT_Esd_Widgets/Ft_Esd_RadioButton.c **** 	if (rg) return rg->Checked == context;
 127              		.loc 1 18 0
 128 0016 FB68     		ldr	r3, [r7, #12]
 129 0018 002B     		cmp	r3, #0
 130 001a 08D0     		beq	.L8
 131              		.loc 1 18 0 is_stmt 0 discriminator 1
 132 001c FB68     		ldr	r3, [r7, #12]
 133 001e 5B68     		ldr	r3, [r3, #4]
 134 0020 7A68     		ldr	r2, [r7, #4]
 135 0022 9A42     		cmp	r2, r3
 136 0024 0CBF     		ite	eq
 137 0026 0123     		moveq	r3, #1
 138 0028 0023     		movne	r3, #0
 139 002a DBB2     		uxtb	r3, r3
 140 002c 07E0     		b	.L9
 141              	.L8:
  19:FT_Esd_Widgets/Ft_Esd_RadioButton.c **** 	else return Ft_Esd_RadioButton_GlobalChecked == context;
 142              		.loc 1 19 0 is_stmt 1
 143 002e 064B     		ldr	r3, .L10
 144 0030 1B68     		ldr	r3, [r3]
 145 0032 7A68     		ldr	r2, [r7, #4]
 146 0034 9A42     		cmp	r2, r3
 147 0036 0CBF     		ite	eq
 148 0038 0123     		moveq	r3, #1
 149 003a 0023     		movne	r3, #0
 150 003c DBB2     		uxtb	r3, r3
 151              	.L9:
  20:FT_Esd_Widgets/Ft_Esd_RadioButton.c **** }
 152              		.loc 1 20 0
 153 003e 1846     		mov	r0, r3
 154 0040 1037     		adds	r7, r7, #16
 155              	.LCFI8:
ARM GAS  /var/folders/n8/cvzdcwlj0vl4g_wtyz1ffy300000gn/T//ccIxDFcw.s 			page 4


 156              		.cfi_def_cfa_offset 8
 157 0042 BD46     		mov	sp, r7
 158              	.LCFI9:
 159              		.cfi_def_cfa_register 13
 160              		@ sp needed
 161 0044 80BD     		pop	{r7, pc}
 162              	.L11:
 163 0046 00BF     		.align	2
 164              	.L10:
 165 0048 00000000 		.word	Ft_Esd_RadioButton_GlobalChecked
 166              		.cfi_endproc
 167              	.LFE10:
 169              		.text
 170              	.Letext0:
 171              		.file 2 "FT_Eve_Hal/FT_DataTypes.h"
 172              		.file 3 "/usr/local/Cellar/arm-none-eabi-gcc/20180627/arm-none-eabi/include/sys/lock.h"
 173              		.file 4 "/usr/local/Cellar/arm-none-eabi-gcc/20180627/arm-none-eabi/include/sys/_types.h"
 174              		.file 5 "/usr/local/Cellar/arm-none-eabi-gcc/20180627/lib/gcc/arm-none-eabi/7.3.1/include/stddef.h
 175              		.file 6 "/usr/local/Cellar/arm-none-eabi-gcc/20180627/arm-none-eabi/include/sys/unistd.h"
 176              		.file 7 "/usr/local/Cellar/arm-none-eabi-gcc/20180627/arm-none-eabi/include/sys/reent.h"
 177              		.file 8 "/usr/local/Cellar/arm-none-eabi-gcc/20180627/arm-none-eabi/include/stdlib.h"
 178              		.file 9 "FT_Esd_Framework/Ft_Esd.h"
 179              		.file 10 "FT_Esd_Widgets/FT_Esd_Theme.h"
 180              		.file 11 "FT_Esd_Widgets/Ft_Esd_DefaultTheme.h"
 181              		.file 12 "FT_Esd_Widgets/Ft_Esd_Label.h"
 182              		.file 13 "FT_Esd_Widgets/Ft_Esd_RadioGroup.h"
 183              		.file 14 "FT_Esd_Framework/Ft_Esd_TouchTag.h"
 184              		.file 15 "FT_Esd_Widgets/Ft_Esd_RadioButton.h"
ARM GAS  /var/folders/n8/cvzdcwlj0vl4g_wtyz1ffy300000gn/T//ccIxDFcw.s 			page 5

