ARM GAS  /var/folders/n8/cvzdcwlj0vl4g_wtyz1ffy300000gn/T//cck2libV.s 			page 1


   1              		.cpu cortex-m7
   2              		.eabi_attribute 27, 1
   3              		.eabi_attribute 28, 1
   4              		.eabi_attribute 20, 1
   5              		.eabi_attribute 21, 1
   6              		.eabi_attribute 23, 3
   7              		.eabi_attribute 24, 1
   8              		.eabi_attribute 25, 1
   9              		.eabi_attribute 26, 1
  10              		.eabi_attribute 30, 6
  11              		.eabi_attribute 34, 1
  12              		.eabi_attribute 18, 4
  13              		.file	"Ft_Esd_TouchArea.c"
  14              		.text
  15              	.Ltext0:
  16              		.cfi_sections	.debug_frame
  17              		.section	.text.Ft_Esd_TouchArea_IsInBounds,"ax",%progbits
  18              		.align	1
  19              		.global	Ft_Esd_TouchArea_IsInBounds
  20              		.syntax unified
  21              		.thumb
  22              		.thumb_func
  23              		.fpu fpv5-sp-d16
  25              	Ft_Esd_TouchArea_IsInBounds:
  26              	.LFB3:
  27              		.file 1 "FT_Esd_Framework/Ft_Esd_TouchArea.c"
   1:FT_Esd_Framework/Ft_Esd_TouchArea.c **** #include "Ft_Esd.h"
   2:FT_Esd_Framework/Ft_Esd_TouchArea.c **** #include "Ft_Esd_TouchArea.h"
   3:FT_Esd_Framework/Ft_Esd_TouchArea.c **** #include "Ft_Esd_TouchTag.h"
   4:FT_Esd_Framework/Ft_Esd_TouchArea.c **** 
   5:FT_Esd_Framework/Ft_Esd_TouchArea.c **** ESD_METHOD(Ft_Esd_TouchArea_IsInBounds, Context = Ft_Esd_TouchArea, Type = ft_bool_t)
   6:FT_Esd_Framework/Ft_Esd_TouchArea.c **** ft_bool_t Ft_Esd_TouchArea_IsInBounds(Ft_Esd_TouchArea *context)
   7:FT_Esd_Framework/Ft_Esd_TouchArea.c **** {
  28              		.loc 1 7 0
  29              		.cfi_startproc
  30              		@ args = 0, pretend = 0, frame = 24
  31              		@ frame_needed = 1, uses_anonymous_args = 0
  32 0000 90B5     		push	{r4, r7, lr}
  33              	.LCFI0:
  34              		.cfi_def_cfa_offset 12
  35              		.cfi_offset 4, -12
  36              		.cfi_offset 7, -8
  37              		.cfi_offset 14, -4
  38 0002 87B0     		sub	sp, sp, #28
  39              	.LCFI1:
  40              		.cfi_def_cfa_offset 40
  41 0004 00AF     		add	r7, sp, #0
  42              	.LCFI2:
  43              		.cfi_def_cfa_register 7
  44 0006 7860     		str	r0, [r7, #4]
   8:FT_Esd_Framework/Ft_Esd_TouchArea.c **** 	ft_int16_t x = Ft_Esd_TouchTag_TouchX(0);
  45              		.loc 1 8 0
  46 0008 0020     		movs	r0, #0
  47 000a FFF7FEFF 		bl	Ft_Esd_TouchTag_TouchX
  48 000e 0346     		mov	r3, r0
  49 0010 FB82     		strh	r3, [r7, #22]	@ movhi
   9:FT_Esd_Framework/Ft_Esd_TouchArea.c **** 	int boundX = context->X(context->Parent);
ARM GAS  /var/folders/n8/cvzdcwlj0vl4g_wtyz1ffy300000gn/T//cck2libV.s 			page 2


  50              		.loc 1 9 0
  51 0012 7B68     		ldr	r3, [r7, #4]
  52 0014 5B69     		ldr	r3, [r3, #20]
  53 0016 7A68     		ldr	r2, [r7, #4]
  54 0018 1268     		ldr	r2, [r2]
  55 001a 1046     		mov	r0, r2
  56 001c 9847     		blx	r3
  57              	.LVL0:
  58 001e 3861     		str	r0, [r7, #16]
  10:FT_Esd_Framework/Ft_Esd_TouchArea.c **** 	if (x >= boundX && x < (boundX + context->Width(context->Parent)))
  59              		.loc 1 10 0
  60 0020 B7F91630 		ldrsh	r3, [r7, #22]
  61 0024 3A69     		ldr	r2, [r7, #16]
  62 0026 9A42     		cmp	r2, r3
  63 0028 2CDC     		bgt	.L2
  64              		.loc 1 10 0 is_stmt 0 discriminator 1
  65 002a B7F91640 		ldrsh	r4, [r7, #22]
  66 002e 7B68     		ldr	r3, [r7, #4]
  67 0030 DB69     		ldr	r3, [r3, #28]
  68 0032 7A68     		ldr	r2, [r7, #4]
  69 0034 1268     		ldr	r2, [r2]
  70 0036 1046     		mov	r0, r2
  71 0038 9847     		blx	r3
  72              	.LVL1:
  73 003a 0246     		mov	r2, r0
  74 003c 3B69     		ldr	r3, [r7, #16]
  75 003e 1344     		add	r3, r3, r2
  76 0040 9C42     		cmp	r4, r3
  77 0042 1FDA     		bge	.L2
  78              	.LBB2:
  11:FT_Esd_Framework/Ft_Esd_TouchArea.c **** 	{
  12:FT_Esd_Framework/Ft_Esd_TouchArea.c **** 		ft_int16_t y = Ft_Esd_TouchTag_TouchY(0);
  79              		.loc 1 12 0 is_stmt 1
  80 0044 0020     		movs	r0, #0
  81 0046 FFF7FEFF 		bl	Ft_Esd_TouchTag_TouchY
  82 004a 0346     		mov	r3, r0
  83 004c FB81     		strh	r3, [r7, #14]	@ movhi
  13:FT_Esd_Framework/Ft_Esd_TouchArea.c **** 		int boundY = context->Y(context->Parent);
  84              		.loc 1 13 0
  85 004e 7B68     		ldr	r3, [r7, #4]
  86 0050 9B69     		ldr	r3, [r3, #24]
  87 0052 7A68     		ldr	r2, [r7, #4]
  88 0054 1268     		ldr	r2, [r2]
  89 0056 1046     		mov	r0, r2
  90 0058 9847     		blx	r3
  91              	.LVL2:
  92 005a B860     		str	r0, [r7, #8]
  14:FT_Esd_Framework/Ft_Esd_TouchArea.c **** 		if (y > boundY && y < (boundY + context->Height(context->Parent)))
  93              		.loc 1 14 0
  94 005c B7F90E30 		ldrsh	r3, [r7, #14]
  95 0060 BA68     		ldr	r2, [r7, #8]
  96 0062 9A42     		cmp	r2, r3
  97 0064 0EDA     		bge	.L2
  98              		.loc 1 14 0 is_stmt 0 discriminator 1
  99 0066 B7F90E40 		ldrsh	r4, [r7, #14]
 100 006a 7B68     		ldr	r3, [r7, #4]
 101 006c 1B6A     		ldr	r3, [r3, #32]
ARM GAS  /var/folders/n8/cvzdcwlj0vl4g_wtyz1ffy300000gn/T//cck2libV.s 			page 3


 102 006e 7A68     		ldr	r2, [r7, #4]
 103 0070 1268     		ldr	r2, [r2]
 104 0072 1046     		mov	r0, r2
 105 0074 9847     		blx	r3
 106              	.LVL3:
 107 0076 0246     		mov	r2, r0
 108 0078 BB68     		ldr	r3, [r7, #8]
 109 007a 1344     		add	r3, r3, r2
 110 007c 9C42     		cmp	r4, r3
 111 007e 01DA     		bge	.L2
  15:FT_Esd_Framework/Ft_Esd_TouchArea.c **** 		{
  16:FT_Esd_Framework/Ft_Esd_TouchArea.c **** 			return 1;
 112              		.loc 1 16 0 is_stmt 1
 113 0080 0123     		movs	r3, #1
 114 0082 00E0     		b	.L3
 115              	.L2:
 116              	.LBE2:
  17:FT_Esd_Framework/Ft_Esd_TouchArea.c **** 		}
  18:FT_Esd_Framework/Ft_Esd_TouchArea.c **** 	}
  19:FT_Esd_Framework/Ft_Esd_TouchArea.c **** 	return 0;
 117              		.loc 1 19 0
 118 0084 0023     		movs	r3, #0
 119              	.L3:
  20:FT_Esd_Framework/Ft_Esd_TouchArea.c **** }
 120              		.loc 1 20 0
 121 0086 1846     		mov	r0, r3
 122 0088 1C37     		adds	r7, r7, #28
 123              	.LCFI3:
 124              		.cfi_def_cfa_offset 12
 125 008a BD46     		mov	sp, r7
 126              	.LCFI4:
 127              		.cfi_def_cfa_register 13
 128              		@ sp needed
 129 008c 90BD     		pop	{r4, r7, pc}
 130              		.cfi_endproc
 131              	.LFE3:
 133              		.section	.text.Ft_Esd_TouchArea_Update_TouchTag,"ax",%progbits
 134              		.align	1
 135              		.global	Ft_Esd_TouchArea_Update_TouchTag
 136              		.syntax unified
 137              		.thumb
 138              		.thumb_func
 139              		.fpu fpv5-sp-d16
 141              	Ft_Esd_TouchArea_Update_TouchTag:
 142              	.LFB4:
  21:FT_Esd_Framework/Ft_Esd_TouchArea.c **** 
  22:FT_Esd_Framework/Ft_Esd_TouchArea.c **** ESD_METHOD(Ft_Esd_TouchArea_Update_TouchTag, Context = Ft_Esd_TouchArea)
  23:FT_Esd_Framework/Ft_Esd_TouchArea.c **** void Ft_Esd_TouchArea_Update_TouchTag(Ft_Esd_TouchArea *context)
  24:FT_Esd_Framework/Ft_Esd_TouchArea.c **** {
 143              		.loc 1 24 0
 144              		.cfi_startproc
 145              		@ args = 0, pretend = 0, frame = 8
 146              		@ frame_needed = 1, uses_anonymous_args = 0
 147 0000 80B5     		push	{r7, lr}
 148              	.LCFI5:
 149              		.cfi_def_cfa_offset 8
 150              		.cfi_offset 7, -8
ARM GAS  /var/folders/n8/cvzdcwlj0vl4g_wtyz1ffy300000gn/T//cck2libV.s 			page 4


 151              		.cfi_offset 14, -4
 152 0002 82B0     		sub	sp, sp, #8
 153              	.LCFI6:
 154              		.cfi_def_cfa_offset 16
 155 0004 00AF     		add	r7, sp, #0
 156              	.LCFI7:
 157              		.cfi_def_cfa_register 7
 158 0006 7860     		str	r0, [r7, #4]
  25:FT_Esd_Framework/Ft_Esd_TouchArea.c **** 	Ft_Esd_TouchTag_Update(0);
 159              		.loc 1 25 0
 160 0008 0020     		movs	r0, #0
 161 000a FFF7FEFF 		bl	Ft_Esd_TouchTag_Update
  26:FT_Esd_Framework/Ft_Esd_TouchArea.c **** }
 162              		.loc 1 26 0
 163 000e 00BF     		nop
 164 0010 0837     		adds	r7, r7, #8
 165              	.LCFI8:
 166              		.cfi_def_cfa_offset 8
 167 0012 BD46     		mov	sp, r7
 168              	.LCFI9:
 169              		.cfi_def_cfa_register 13
 170              		@ sp needed
 171 0014 80BD     		pop	{r7, pc}
 172              		.cfi_endproc
 173              	.LFE4:
 175              		.text
 176              	.Letext0:
 177              		.file 2 "FT_Eve_Hal/FT_DataTypes.h"
 178              		.file 3 "/usr/local/Cellar/arm-none-eabi-gcc/20180627/arm-none-eabi/include/sys/lock.h"
 179              		.file 4 "/usr/local/Cellar/arm-none-eabi-gcc/20180627/arm-none-eabi/include/sys/_types.h"
 180              		.file 5 "/usr/local/Cellar/arm-none-eabi-gcc/20180627/lib/gcc/arm-none-eabi/7.3.1/include/stddef.h
 181              		.file 6 "/usr/local/Cellar/arm-none-eabi-gcc/20180627/arm-none-eabi/include/sys/unistd.h"
 182              		.file 7 "/usr/local/Cellar/arm-none-eabi-gcc/20180627/arm-none-eabi/include/sys/reent.h"
 183              		.file 8 "/usr/local/Cellar/arm-none-eabi-gcc/20180627/arm-none-eabi/include/stdlib.h"
 184              		.file 9 "FT_Esd_Framework/Ft_Esd_TouchArea.h"
ARM GAS  /var/folders/n8/cvzdcwlj0vl4g_wtyz1ffy300000gn/T//cck2libV.s 			page 5

