ARM GAS  /var/folders/n8/cvzdcwlj0vl4g_wtyz1ffy300000gn/T//ccDaDwNX.s 			page 1


   1              		.cpu cortex-m7
   2              		.eabi_attribute 27, 1
   3              		.eabi_attribute 28, 1
   4              		.eabi_attribute 20, 1
   5              		.eabi_attribute 21, 1
   6              		.eabi_attribute 23, 3
   7              		.eabi_attribute 24, 1
   8              		.eabi_attribute 25, 1
   9              		.eabi_attribute 26, 1
  10              		.eabi_attribute 30, 6
  11              		.eabi_attribute 34, 1
  12              		.eabi_attribute 18, 4
  13              		.file	"Ft_Esd_TouchArea__Generated.c"
  14              		.text
  15              	.Ltext0:
  16              		.cfi_sections	.debug_frame
  17              		.section	.text.Ft_Esd_TouchArea_X__Default,"ax",%progbits
  18              		.align	1
  19              		.global	Ft_Esd_TouchArea_X__Default
  20              		.syntax unified
  21              		.thumb
  22              		.thumb_func
  23              		.fpu fpv5-sp-d16
  25              	Ft_Esd_TouchArea_X__Default:
  26              	.LFB3:
  27              		.file 1 "FT_Esd_Framework/Ft_Esd_TouchArea__Generated.c"
   1:FT_Esd_Framework/Ft_Esd_TouchArea__Generated.c **** /*
   2:FT_Esd_Framework/Ft_Esd_TouchArea__Generated.c **** This file is automatically generated
   3:FT_Esd_Framework/Ft_Esd_TouchArea__Generated.c **** Ft_Esd_TouchArea
   4:FT_Esd_Framework/Ft_Esd_TouchArea__Generated.c **** C Source
   5:FT_Esd_Framework/Ft_Esd_TouchArea__Generated.c **** */
   6:FT_Esd_Framework/Ft_Esd_TouchArea__Generated.c **** 
   7:FT_Esd_Framework/Ft_Esd_TouchArea__Generated.c **** #include "Ft_Esd_TouchArea.h"
   8:FT_Esd_Framework/Ft_Esd_TouchArea__Generated.c **** 
   9:FT_Esd_Framework/Ft_Esd_TouchArea__Generated.c **** #include "Ft_Esd_TouchTag.h"
  10:FT_Esd_Framework/Ft_Esd_TouchArea__Generated.c **** 
  11:FT_Esd_Framework/Ft_Esd_TouchArea__Generated.c **** extern void Ft_Esd_Noop(void *context);
  12:FT_Esd_Framework/Ft_Esd_TouchArea__Generated.c **** int Ft_Esd_TouchArea_X__Default(void *context) { return 0L; }
  28              		.loc 1 12 0
  29              		.cfi_startproc
  30              		@ args = 0, pretend = 0, frame = 8
  31              		@ frame_needed = 1, uses_anonymous_args = 0
  32              		@ link register save eliminated.
  33 0000 80B4     		push	{r7}
  34              	.LCFI0:
  35              		.cfi_def_cfa_offset 4
  36              		.cfi_offset 7, -4
  37 0002 83B0     		sub	sp, sp, #12
  38              	.LCFI1:
  39              		.cfi_def_cfa_offset 16
  40 0004 00AF     		add	r7, sp, #0
  41              	.LCFI2:
  42              		.cfi_def_cfa_register 7
  43 0006 7860     		str	r0, [r7, #4]
  44              		.loc 1 12 0
  45 0008 0023     		movs	r3, #0
  46 000a 1846     		mov	r0, r3
ARM GAS  /var/folders/n8/cvzdcwlj0vl4g_wtyz1ffy300000gn/T//ccDaDwNX.s 			page 2


  47 000c 0C37     		adds	r7, r7, #12
  48              	.LCFI3:
  49              		.cfi_def_cfa_offset 4
  50 000e BD46     		mov	sp, r7
  51              	.LCFI4:
  52              		.cfi_def_cfa_register 13
  53              		@ sp needed
  54 0010 5DF8047B 		ldr	r7, [sp], #4
  55              	.LCFI5:
  56              		.cfi_restore 7
  57              		.cfi_def_cfa_offset 0
  58 0014 7047     		bx	lr
  59              		.cfi_endproc
  60              	.LFE3:
  62              		.section	.text.Ft_Esd_TouchArea_Y__Default,"ax",%progbits
  63              		.align	1
  64              		.global	Ft_Esd_TouchArea_Y__Default
  65              		.syntax unified
  66              		.thumb
  67              		.thumb_func
  68              		.fpu fpv5-sp-d16
  70              	Ft_Esd_TouchArea_Y__Default:
  71              	.LFB4:
  13:FT_Esd_Framework/Ft_Esd_TouchArea__Generated.c **** int Ft_Esd_TouchArea_Y__Default(void *context) { return 0L; }
  72              		.loc 1 13 0
  73              		.cfi_startproc
  74              		@ args = 0, pretend = 0, frame = 8
  75              		@ frame_needed = 1, uses_anonymous_args = 0
  76              		@ link register save eliminated.
  77 0000 80B4     		push	{r7}
  78              	.LCFI6:
  79              		.cfi_def_cfa_offset 4
  80              		.cfi_offset 7, -4
  81 0002 83B0     		sub	sp, sp, #12
  82              	.LCFI7:
  83              		.cfi_def_cfa_offset 16
  84 0004 00AF     		add	r7, sp, #0
  85              	.LCFI8:
  86              		.cfi_def_cfa_register 7
  87 0006 7860     		str	r0, [r7, #4]
  88              		.loc 1 13 0
  89 0008 0023     		movs	r3, #0
  90 000a 1846     		mov	r0, r3
  91 000c 0C37     		adds	r7, r7, #12
  92              	.LCFI9:
  93              		.cfi_def_cfa_offset 4
  94 000e BD46     		mov	sp, r7
  95              	.LCFI10:
  96              		.cfi_def_cfa_register 13
  97              		@ sp needed
  98 0010 5DF8047B 		ldr	r7, [sp], #4
  99              	.LCFI11:
 100              		.cfi_restore 7
 101              		.cfi_def_cfa_offset 0
 102 0014 7047     		bx	lr
 103              		.cfi_endproc
 104              	.LFE4:
ARM GAS  /var/folders/n8/cvzdcwlj0vl4g_wtyz1ffy300000gn/T//ccDaDwNX.s 			page 3


 106              		.section	.text.Ft_Esd_TouchArea_Width__Default,"ax",%progbits
 107              		.align	1
 108              		.global	Ft_Esd_TouchArea_Width__Default
 109              		.syntax unified
 110              		.thumb
 111              		.thumb_func
 112              		.fpu fpv5-sp-d16
 114              	Ft_Esd_TouchArea_Width__Default:
 115              	.LFB5:
  14:FT_Esd_Framework/Ft_Esd_TouchArea__Generated.c **** int Ft_Esd_TouchArea_Width__Default(void *context) { return 0L; }
 116              		.loc 1 14 0
 117              		.cfi_startproc
 118              		@ args = 0, pretend = 0, frame = 8
 119              		@ frame_needed = 1, uses_anonymous_args = 0
 120              		@ link register save eliminated.
 121 0000 80B4     		push	{r7}
 122              	.LCFI12:
 123              		.cfi_def_cfa_offset 4
 124              		.cfi_offset 7, -4
 125 0002 83B0     		sub	sp, sp, #12
 126              	.LCFI13:
 127              		.cfi_def_cfa_offset 16
 128 0004 00AF     		add	r7, sp, #0
 129              	.LCFI14:
 130              		.cfi_def_cfa_register 7
 131 0006 7860     		str	r0, [r7, #4]
 132              		.loc 1 14 0
 133 0008 0023     		movs	r3, #0
 134 000a 1846     		mov	r0, r3
 135 000c 0C37     		adds	r7, r7, #12
 136              	.LCFI15:
 137              		.cfi_def_cfa_offset 4
 138 000e BD46     		mov	sp, r7
 139              	.LCFI16:
 140              		.cfi_def_cfa_register 13
 141              		@ sp needed
 142 0010 5DF8047B 		ldr	r7, [sp], #4
 143              	.LCFI17:
 144              		.cfi_restore 7
 145              		.cfi_def_cfa_offset 0
 146 0014 7047     		bx	lr
 147              		.cfi_endproc
 148              	.LFE5:
 150              		.section	.text.Ft_Esd_TouchArea_Height__Default,"ax",%progbits
 151              		.align	1
 152              		.global	Ft_Esd_TouchArea_Height__Default
 153              		.syntax unified
 154              		.thumb
 155              		.thumb_func
 156              		.fpu fpv5-sp-d16
 158              	Ft_Esd_TouchArea_Height__Default:
 159              	.LFB6:
  15:FT_Esd_Framework/Ft_Esd_TouchArea__Generated.c **** int Ft_Esd_TouchArea_Height__Default(void *context) { return 0L; }
 160              		.loc 1 15 0
 161              		.cfi_startproc
 162              		@ args = 0, pretend = 0, frame = 8
 163              		@ frame_needed = 1, uses_anonymous_args = 0
ARM GAS  /var/folders/n8/cvzdcwlj0vl4g_wtyz1ffy300000gn/T//ccDaDwNX.s 			page 4


 164              		@ link register save eliminated.
 165 0000 80B4     		push	{r7}
 166              	.LCFI18:
 167              		.cfi_def_cfa_offset 4
 168              		.cfi_offset 7, -4
 169 0002 83B0     		sub	sp, sp, #12
 170              	.LCFI19:
 171              		.cfi_def_cfa_offset 16
 172 0004 00AF     		add	r7, sp, #0
 173              	.LCFI20:
 174              		.cfi_def_cfa_register 7
 175 0006 7860     		str	r0, [r7, #4]
 176              		.loc 1 15 0
 177 0008 0023     		movs	r3, #0
 178 000a 1846     		mov	r0, r3
 179 000c 0C37     		adds	r7, r7, #12
 180              	.LCFI21:
 181              		.cfi_def_cfa_offset 4
 182 000e BD46     		mov	sp, r7
 183              	.LCFI22:
 184              		.cfi_def_cfa_register 13
 185              		@ sp needed
 186 0010 5DF8047B 		ldr	r7, [sp], #4
 187              	.LCFI23:
 188              		.cfi_restore 7
 189              		.cfi_def_cfa_offset 0
 190 0014 7047     		bx	lr
 191              		.cfi_endproc
 192              	.LFE6:
 194              		.section	.text.Ft_Esd_TouchArea__Initializer,"ax",%progbits
 195              		.align	1
 196              		.global	Ft_Esd_TouchArea__Initializer
 197              		.syntax unified
 198              		.thumb
 199              		.thumb_func
 200              		.fpu fpv5-sp-d16
 202              	Ft_Esd_TouchArea__Initializer:
 203              	.LFB7:
  16:FT_Esd_Framework/Ft_Esd_TouchArea__Generated.c **** 
  17:FT_Esd_Framework/Ft_Esd_TouchArea__Generated.c **** 
  18:FT_Esd_Framework/Ft_Esd_TouchArea__Generated.c **** 
  19:FT_Esd_Framework/Ft_Esd_TouchArea__Generated.c **** void Ft_Esd_TouchArea__Initializer(Ft_Esd_TouchArea *context)
  20:FT_Esd_Framework/Ft_Esd_TouchArea__Generated.c **** {
 204              		.loc 1 20 0
 205              		.cfi_startproc
 206              		@ args = 0, pretend = 0, frame = 8
 207              		@ frame_needed = 1, uses_anonymous_args = 0
 208              		@ link register save eliminated.
 209 0000 80B4     		push	{r7}
 210              	.LCFI24:
 211              		.cfi_def_cfa_offset 4
 212              		.cfi_offset 7, -4
 213 0002 83B0     		sub	sp, sp, #12
 214              	.LCFI25:
 215              		.cfi_def_cfa_offset 16
 216 0004 00AF     		add	r7, sp, #0
 217              	.LCFI26:
ARM GAS  /var/folders/n8/cvzdcwlj0vl4g_wtyz1ffy300000gn/T//ccDaDwNX.s 			page 5


 218              		.cfi_def_cfa_register 7
 219 0006 7860     		str	r0, [r7, #4]
  21:FT_Esd_Framework/Ft_Esd_TouchArea__Generated.c **** 	context->Parent = 0;
 220              		.loc 1 21 0
 221 0008 7B68     		ldr	r3, [r7, #4]
 222 000a 0022     		movs	r2, #0
 223 000c 1A60     		str	r2, [r3]
  22:FT_Esd_Framework/Ft_Esd_TouchArea__Generated.c **** 	context->Up = Ft_Esd_Noop;
 224              		.loc 1 22 0
 225 000e 7B68     		ldr	r3, [r7, #4]
 226 0010 0E4A     		ldr	r2, .L10
 227 0012 5A60     		str	r2, [r3, #4]
  23:FT_Esd_Framework/Ft_Esd_TouchArea__Generated.c **** 	context->LastTouching = 0;
 228              		.loc 1 23 0
 229 0014 7B68     		ldr	r3, [r7, #4]
 230 0016 0022     		movs	r2, #0
 231 0018 1A72     		strb	r2, [r3, #8]
  24:FT_Esd_Framework/Ft_Esd_TouchArea__Generated.c **** 	context->Down = Ft_Esd_Noop;
 232              		.loc 1 24 0
 233 001a 7B68     		ldr	r3, [r7, #4]
 234 001c 0B4A     		ldr	r2, .L10
 235 001e DA60     		str	r2, [r3, #12]
  25:FT_Esd_Framework/Ft_Esd_TouchArea__Generated.c **** 	context->Touching = 0;
 236              		.loc 1 25 0
 237 0020 7B68     		ldr	r3, [r7, #4]
 238 0022 0022     		movs	r2, #0
 239 0024 1A74     		strb	r2, [r3, #16]
  26:FT_Esd_Framework/Ft_Esd_TouchArea__Generated.c **** 	context->X = Ft_Esd_TouchArea_X__Default;
 240              		.loc 1 26 0
 241 0026 7B68     		ldr	r3, [r7, #4]
 242 0028 094A     		ldr	r2, .L10+4
 243 002a 5A61     		str	r2, [r3, #20]
  27:FT_Esd_Framework/Ft_Esd_TouchArea__Generated.c **** 	context->Y = Ft_Esd_TouchArea_Y__Default;
 244              		.loc 1 27 0
 245 002c 7B68     		ldr	r3, [r7, #4]
 246 002e 094A     		ldr	r2, .L10+8
 247 0030 9A61     		str	r2, [r3, #24]
  28:FT_Esd_Framework/Ft_Esd_TouchArea__Generated.c **** 	context->Width = Ft_Esd_TouchArea_Width__Default;
 248              		.loc 1 28 0
 249 0032 7B68     		ldr	r3, [r7, #4]
 250 0034 084A     		ldr	r2, .L10+12
 251 0036 DA61     		str	r2, [r3, #28]
  29:FT_Esd_Framework/Ft_Esd_TouchArea__Generated.c **** 	context->Height = Ft_Esd_TouchArea_Height__Default;
 252              		.loc 1 29 0
 253 0038 7B68     		ldr	r3, [r7, #4]
 254 003a 084A     		ldr	r2, .L10+16
 255 003c 1A62     		str	r2, [r3, #32]
  30:FT_Esd_Framework/Ft_Esd_TouchArea__Generated.c **** }
 256              		.loc 1 30 0
 257 003e 00BF     		nop
 258 0040 0C37     		adds	r7, r7, #12
 259              	.LCFI27:
 260              		.cfi_def_cfa_offset 4
 261 0042 BD46     		mov	sp, r7
 262              	.LCFI28:
 263              		.cfi_def_cfa_register 13
 264              		@ sp needed
ARM GAS  /var/folders/n8/cvzdcwlj0vl4g_wtyz1ffy300000gn/T//ccDaDwNX.s 			page 6


 265 0044 5DF8047B 		ldr	r7, [sp], #4
 266              	.LCFI29:
 267              		.cfi_restore 7
 268              		.cfi_def_cfa_offset 0
 269 0048 7047     		bx	lr
 270              	.L11:
 271 004a 00BF     		.align	2
 272              	.L10:
 273 004c 00000000 		.word	Ft_Esd_Noop
 274 0050 00000000 		.word	Ft_Esd_TouchArea_X__Default
 275 0054 00000000 		.word	Ft_Esd_TouchArea_Y__Default
 276 0058 00000000 		.word	Ft_Esd_TouchArea_Width__Default
 277 005c 00000000 		.word	Ft_Esd_TouchArea_Height__Default
 278              		.cfi_endproc
 279              	.LFE7:
 281              		.section	.text.Ft_Esd_TouchArea_Update,"ax",%progbits
 282              		.align	1
 283              		.global	Ft_Esd_TouchArea_Update
 284              		.syntax unified
 285              		.thumb
 286              		.thumb_func
 287              		.fpu fpv5-sp-d16
 289              	Ft_Esd_TouchArea_Update:
 290              	.LFB8:
  31:FT_Esd_Framework/Ft_Esd_TouchArea__Generated.c **** 
  32:FT_Esd_Framework/Ft_Esd_TouchArea__Generated.c **** static ft_bool_t Ft_Esd_TouchArea_Ft_Esd_TouchArea_IsInBounds__return(Ft_Esd_TouchArea *context);
  33:FT_Esd_Framework/Ft_Esd_TouchArea__Generated.c **** 
  34:FT_Esd_Framework/Ft_Esd_TouchArea__Generated.c **** void Ft_Esd_TouchArea_Update_TouchTag(Ft_Esd_TouchArea *context);
  35:FT_Esd_Framework/Ft_Esd_TouchArea__Generated.c **** ft_uint8_t Ft_Esd_TouchTag_CurrentTag(Ft_Esd_TouchTag *);
  36:FT_Esd_Framework/Ft_Esd_TouchArea__Generated.c **** ft_bool_t Ft_Esd_TouchArea_IsInBounds(Ft_Esd_TouchArea *context);
  37:FT_Esd_Framework/Ft_Esd_TouchArea__Generated.c **** ft_int16_t Ft_Esd_TouchTag_TouchX(Ft_Esd_TouchTag *);
  38:FT_Esd_Framework/Ft_Esd_TouchArea__Generated.c **** ft_int16_t Ft_Esd_TouchTag_TouchY(Ft_Esd_TouchTag *);
  39:FT_Esd_Framework/Ft_Esd_TouchArea__Generated.c **** 
  40:FT_Esd_Framework/Ft_Esd_TouchArea__Generated.c **** void Ft_Esd_TouchArea_Update(Ft_Esd_TouchArea *context)
  41:FT_Esd_Framework/Ft_Esd_TouchArea__Generated.c **** {
 291              		.loc 1 41 0
 292              		.cfi_startproc
 293              		@ args = 0, pretend = 0, frame = 64
 294              		@ frame_needed = 1, uses_anonymous_args = 0
 295 0000 80B5     		push	{r7, lr}
 296              	.LCFI30:
 297              		.cfi_def_cfa_offset 8
 298              		.cfi_offset 7, -8
 299              		.cfi_offset 14, -4
 300 0002 90B0     		sub	sp, sp, #64
 301              	.LCFI31:
 302              		.cfi_def_cfa_offset 72
 303 0004 00AF     		add	r7, sp, #0
 304              	.LCFI32:
 305              		.cfi_def_cfa_register 7
 306 0006 7860     		str	r0, [r7, #4]
  42:FT_Esd_Framework/Ft_Esd_TouchArea__Generated.c **** 	void *parent = context->Parent;
 307              		.loc 1 42 0
 308 0008 7B68     		ldr	r3, [r7, #4]
 309 000a 1B68     		ldr	r3, [r3]
 310 000c FB63     		str	r3, [r7, #60]
  43:FT_Esd_Framework/Ft_Esd_TouchArea__Generated.c **** 	Ft_Esd_TouchArea_Update_TouchTag(context);
ARM GAS  /var/folders/n8/cvzdcwlj0vl4g_wtyz1ffy300000gn/T//ccDaDwNX.s 			page 7


 311              		.loc 1 43 0
 312 000e 7868     		ldr	r0, [r7, #4]
 313 0010 FFF7FEFF 		bl	Ft_Esd_TouchArea_Update_TouchTag
  44:FT_Esd_Framework/Ft_Esd_TouchArea__Generated.c **** 	Ft_Esd_TouchTag * context_1 = 0x0;
 314              		.loc 1 44 0
 315 0014 0023     		movs	r3, #0
 316 0016 BB63     		str	r3, [r7, #56]
  45:FT_Esd_Framework/Ft_Esd_TouchArea__Generated.c **** 	ft_uint8_t left_1 = Ft_Esd_TouchTag_CurrentTag(context_1);
 317              		.loc 1 45 0
 318 0018 B86B     		ldr	r0, [r7, #56]
 319 001a FFF7FEFF 		bl	Ft_Esd_TouchTag_CurrentTag
 320 001e 0346     		mov	r3, r0
 321 0020 87F83730 		strb	r3, [r7, #55]
  46:FT_Esd_Framework/Ft_Esd_TouchArea__Generated.c **** 	ft_uint8_t right = 0;
 322              		.loc 1 46 0
 323 0024 0023     		movs	r3, #0
 324 0026 87F83630 		strb	r3, [r7, #54]
  47:FT_Esd_Framework/Ft_Esd_TouchArea__Generated.c **** 	int left = left_1 != right;
 325              		.loc 1 47 0
 326 002a 97F83720 		ldrb	r2, [r7, #55]	@ zero_extendqisi2
 327 002e 97F83630 		ldrb	r3, [r7, #54]	@ zero_extendqisi2
 328 0032 9A42     		cmp	r2, r3
 329 0034 14BF     		ite	ne
 330 0036 0123     		movne	r3, #1
 331 0038 0023     		moveq	r3, #0
 332 003a DBB2     		uxtb	r3, r3
 333 003c 3B63     		str	r3, [r7, #48]
  48:FT_Esd_Framework/Ft_Esd_TouchArea__Generated.c **** 	ft_bool_t right_1 = context->LastTouching;
 334              		.loc 1 48 0
 335 003e 7B68     		ldr	r3, [r7, #4]
 336 0040 1B7A     		ldrb	r3, [r3, #8]
 337 0042 87F82F30 		strb	r3, [r7, #47]
  49:FT_Esd_Framework/Ft_Esd_TouchArea__Generated.c **** 	int if_1 = left != right_1;
 338              		.loc 1 49 0
 339 0046 97F82F30 		ldrb	r3, [r7, #47]	@ zero_extendqisi2
 340 004a 3A6B     		ldr	r2, [r7, #48]
 341 004c 9A42     		cmp	r2, r3
 342 004e 14BF     		ite	ne
 343 0050 0123     		movne	r3, #1
 344 0052 0023     		moveq	r3, #0
 345 0054 DBB2     		uxtb	r3, r3
 346 0056 BB62     		str	r3, [r7, #40]
  50:FT_Esd_Framework/Ft_Esd_TouchArea__Generated.c **** 	if (if_1)
 347              		.loc 1 50 0
 348 0058 BB6A     		ldr	r3, [r7, #40]
 349 005a 002B     		cmp	r3, #0
 350 005c 40D0     		beq	.L18
 351              	.LBB2:
  51:FT_Esd_Framework/Ft_Esd_TouchArea__Generated.c **** 	{
  52:FT_Esd_Framework/Ft_Esd_TouchArea__Generated.c **** 		ft_bool_t if_2 = context->Touching;
 352              		.loc 1 52 0
 353 005e 7B68     		ldr	r3, [r7, #4]
 354 0060 1B7C     		ldrb	r3, [r3, #16]
 355 0062 87F82730 		strb	r3, [r7, #39]
  53:FT_Esd_Framework/Ft_Esd_TouchArea__Generated.c **** 		if (if_2)
 356              		.loc 1 53 0
 357 0066 97F82730 		ldrb	r3, [r7, #39]	@ zero_extendqisi2
ARM GAS  /var/folders/n8/cvzdcwlj0vl4g_wtyz1ffy300000gn/T//ccDaDwNX.s 			page 8


 358 006a 002B     		cmp	r3, #0
 359 006c 03D0     		beq	.L14
  54:FT_Esd_Framework/Ft_Esd_TouchArea__Generated.c **** 		{
  55:FT_Esd_Framework/Ft_Esd_TouchArea__Generated.c **** 			context->Up(parent);
 360              		.loc 1 55 0
 361 006e 7B68     		ldr	r3, [r7, #4]
 362 0070 5B68     		ldr	r3, [r3, #4]
 363 0072 F86B     		ldr	r0, [r7, #60]
 364 0074 9847     		blx	r3
 365              	.LVL0:
 366              	.L14:
  56:FT_Esd_Framework/Ft_Esd_TouchArea__Generated.c **** 		}
  57:FT_Esd_Framework/Ft_Esd_TouchArea__Generated.c **** 		else
  58:FT_Esd_Framework/Ft_Esd_TouchArea__Generated.c **** 		{
  59:FT_Esd_Framework/Ft_Esd_TouchArea__Generated.c **** 		}
  60:FT_Esd_Framework/Ft_Esd_TouchArea__Generated.c **** 		Ft_Esd_TouchTag * context_2 = 0x0;
 367              		.loc 1 60 0
 368 0076 0023     		movs	r3, #0
 369 0078 3B62     		str	r3, [r7, #32]
  61:FT_Esd_Framework/Ft_Esd_TouchArea__Generated.c **** 		ft_uint8_t left_2 = Ft_Esd_TouchTag_CurrentTag(context_2);
 370              		.loc 1 61 0
 371 007a 386A     		ldr	r0, [r7, #32]
 372 007c FFF7FEFF 		bl	Ft_Esd_TouchTag_CurrentTag
 373 0080 0346     		mov	r3, r0
 374 0082 FB77     		strb	r3, [r7, #31]
  62:FT_Esd_Framework/Ft_Esd_TouchArea__Generated.c **** 		ft_uint8_t right_2 = 0;
 375              		.loc 1 62 0
 376 0084 0023     		movs	r3, #0
 377 0086 BB77     		strb	r3, [r7, #30]
  63:FT_Esd_Framework/Ft_Esd_TouchArea__Generated.c **** 		int set_lasttouching = left_2 != right_2;
 378              		.loc 1 63 0
 379 0088 FA7F     		ldrb	r2, [r7, #31]	@ zero_extendqisi2
 380 008a BB7F     		ldrb	r3, [r7, #30]	@ zero_extendqisi2
 381 008c 9A42     		cmp	r2, r3
 382 008e 14BF     		ite	ne
 383 0090 0123     		movne	r3, #1
 384 0092 0023     		moveq	r3, #0
 385 0094 DBB2     		uxtb	r3, r3
 386 0096 BB61     		str	r3, [r7, #24]
  64:FT_Esd_Framework/Ft_Esd_TouchArea__Generated.c **** 		context->LastTouching = set_lasttouching;
 387              		.loc 1 64 0
 388 0098 BB69     		ldr	r3, [r7, #24]
 389 009a DAB2     		uxtb	r2, r3
 390 009c 7B68     		ldr	r3, [r7, #4]
 391 009e 1A72     		strb	r2, [r3, #8]
  65:FT_Esd_Framework/Ft_Esd_TouchArea__Generated.c **** 		ft_bool_t left_3 = context->LastTouching;
 392              		.loc 1 65 0
 393 00a0 7B68     		ldr	r3, [r7, #4]
 394 00a2 1B7A     		ldrb	r3, [r3, #8]
 395 00a4 FB75     		strb	r3, [r7, #23]
  66:FT_Esd_Framework/Ft_Esd_TouchArea__Generated.c **** 		ft_bool_t right_3 = Ft_Esd_TouchArea_Ft_Esd_TouchArea_IsInBounds__return(context);
 396              		.loc 1 66 0
 397 00a6 7868     		ldr	r0, [r7, #4]
 398 00a8 FFF7FEFF 		bl	Ft_Esd_TouchArea_Ft_Esd_TouchArea_IsInBounds__return
 399 00ac 0346     		mov	r3, r0
 400 00ae BB75     		strb	r3, [r7, #22]
  67:FT_Esd_Framework/Ft_Esd_TouchArea__Generated.c **** 		int set_if_touch_down_in_bounds = left_3 && right_3;
ARM GAS  /var/folders/n8/cvzdcwlj0vl4g_wtyz1ffy300000gn/T//ccDaDwNX.s 			page 9


 401              		.loc 1 67 0
 402 00b0 FB7D     		ldrb	r3, [r7, #23]	@ zero_extendqisi2
 403 00b2 002B     		cmp	r3, #0
 404 00b4 04D0     		beq	.L15
 405              		.loc 1 67 0 is_stmt 0 discriminator 1
 406 00b6 BB7D     		ldrb	r3, [r7, #22]	@ zero_extendqisi2
 407 00b8 002B     		cmp	r3, #0
 408 00ba 01D0     		beq	.L15
 409              		.loc 1 67 0 discriminator 3
 410 00bc 0123     		movs	r3, #1
 411 00be 00E0     		b	.L16
 412              	.L15:
 413              		.loc 1 67 0 discriminator 4
 414 00c0 0023     		movs	r3, #0
 415              	.L16:
 416              		.loc 1 67 0 discriminator 6
 417 00c2 3B61     		str	r3, [r7, #16]
  68:FT_Esd_Framework/Ft_Esd_TouchArea__Generated.c **** 		context->Touching = set_if_touch_down_in_bounds;
 418              		.loc 1 68 0 is_stmt 1 discriminator 6
 419 00c4 3B69     		ldr	r3, [r7, #16]
 420 00c6 DAB2     		uxtb	r2, r3
 421 00c8 7B68     		ldr	r3, [r7, #4]
 422 00ca 1A74     		strb	r2, [r3, #16]
  69:FT_Esd_Framework/Ft_Esd_TouchArea__Generated.c **** 		ft_bool_t if_3 = context->Touching;
 423              		.loc 1 69 0 discriminator 6
 424 00cc 7B68     		ldr	r3, [r7, #4]
 425 00ce 1B7C     		ldrb	r3, [r3, #16]
 426 00d0 FB73     		strb	r3, [r7, #15]
  70:FT_Esd_Framework/Ft_Esd_TouchArea__Generated.c **** 		if (if_3)
 427              		.loc 1 70 0 discriminator 6
 428 00d2 FB7B     		ldrb	r3, [r7, #15]	@ zero_extendqisi2
 429 00d4 002B     		cmp	r3, #0
 430 00d6 03D0     		beq	.L18
  71:FT_Esd_Framework/Ft_Esd_TouchArea__Generated.c **** 		{
  72:FT_Esd_Framework/Ft_Esd_TouchArea__Generated.c **** 			context->Down(parent);
 431              		.loc 1 72 0
 432 00d8 7B68     		ldr	r3, [r7, #4]
 433 00da DB68     		ldr	r3, [r3, #12]
 434 00dc F86B     		ldr	r0, [r7, #60]
 435 00de 9847     		blx	r3
 436              	.LVL1:
 437              	.L18:
 438              	.LBE2:
  73:FT_Esd_Framework/Ft_Esd_TouchArea__Generated.c **** 		}
  74:FT_Esd_Framework/Ft_Esd_TouchArea__Generated.c **** 		else
  75:FT_Esd_Framework/Ft_Esd_TouchArea__Generated.c **** 		{
  76:FT_Esd_Framework/Ft_Esd_TouchArea__Generated.c **** 		}
  77:FT_Esd_Framework/Ft_Esd_TouchArea__Generated.c **** 	}
  78:FT_Esd_Framework/Ft_Esd_TouchArea__Generated.c **** 	else
  79:FT_Esd_Framework/Ft_Esd_TouchArea__Generated.c **** 	{
  80:FT_Esd_Framework/Ft_Esd_TouchArea__Generated.c **** 	}
  81:FT_Esd_Framework/Ft_Esd_TouchArea__Generated.c **** }
 439              		.loc 1 81 0
 440 00e0 00BF     		nop
 441 00e2 4037     		adds	r7, r7, #64
 442              	.LCFI33:
 443              		.cfi_def_cfa_offset 8
ARM GAS  /var/folders/n8/cvzdcwlj0vl4g_wtyz1ffy300000gn/T//ccDaDwNX.s 			page 10


 444 00e4 BD46     		mov	sp, r7
 445              	.LCFI34:
 446              		.cfi_def_cfa_register 13
 447              		@ sp needed
 448 00e6 80BD     		pop	{r7, pc}
 449              		.cfi_endproc
 450              	.LFE8:
 452              		.section	.text.Ft_Esd_TouchArea_Ft_Esd_TouchArea_IsInBounds__return,"ax",%progbits
 453              		.align	1
 454              		.syntax unified
 455              		.thumb
 456              		.thumb_func
 457              		.fpu fpv5-sp-d16
 459              	Ft_Esd_TouchArea_Ft_Esd_TouchArea_IsInBounds__return:
 460              	.LFB9:
  82:FT_Esd_Framework/Ft_Esd_TouchArea__Generated.c **** 
  83:FT_Esd_Framework/Ft_Esd_TouchArea__Generated.c **** ft_bool_t Ft_Esd_TouchArea_Ft_Esd_TouchArea_IsInBounds__return(Ft_Esd_TouchArea *context)
  84:FT_Esd_Framework/Ft_Esd_TouchArea__Generated.c **** {
 461              		.loc 1 84 0
 462              		.cfi_startproc
 463              		@ args = 0, pretend = 0, frame = 16
 464              		@ frame_needed = 1, uses_anonymous_args = 0
 465 0000 80B5     		push	{r7, lr}
 466              	.LCFI35:
 467              		.cfi_def_cfa_offset 8
 468              		.cfi_offset 7, -8
 469              		.cfi_offset 14, -4
 470 0002 84B0     		sub	sp, sp, #16
 471              	.LCFI36:
 472              		.cfi_def_cfa_offset 24
 473 0004 00AF     		add	r7, sp, #0
 474              	.LCFI37:
 475              		.cfi_def_cfa_register 7
 476 0006 7860     		str	r0, [r7, #4]
  85:FT_Esd_Framework/Ft_Esd_TouchArea__Generated.c **** 	void *parent = context->Parent;
 477              		.loc 1 85 0
 478 0008 7B68     		ldr	r3, [r7, #4]
 479 000a 1B68     		ldr	r3, [r3]
 480 000c FB60     		str	r3, [r7, #12]
  86:FT_Esd_Framework/Ft_Esd_TouchArea__Generated.c **** 	return Ft_Esd_TouchArea_IsInBounds(context);
 481              		.loc 1 86 0
 482 000e 7868     		ldr	r0, [r7, #4]
 483 0010 FFF7FEFF 		bl	Ft_Esd_TouchArea_IsInBounds
 484 0014 0346     		mov	r3, r0
  87:FT_Esd_Framework/Ft_Esd_TouchArea__Generated.c **** }
 485              		.loc 1 87 0
 486 0016 1846     		mov	r0, r3
 487 0018 1037     		adds	r7, r7, #16
 488              	.LCFI38:
 489              		.cfi_def_cfa_offset 8
 490 001a BD46     		mov	sp, r7
 491              	.LCFI39:
 492              		.cfi_def_cfa_register 13
 493              		@ sp needed
 494 001c 80BD     		pop	{r7, pc}
 495              		.cfi_endproc
 496              	.LFE9:
ARM GAS  /var/folders/n8/cvzdcwlj0vl4g_wtyz1ffy300000gn/T//ccDaDwNX.s 			page 11


 498              		.section	.text.Ft_Esd_TouchArea_Inside,"ax",%progbits
 499              		.align	1
 500              		.global	Ft_Esd_TouchArea_Inside
 501              		.syntax unified
 502              		.thumb
 503              		.thumb_func
 504              		.fpu fpv5-sp-d16
 506              	Ft_Esd_TouchArea_Inside:
 507              	.LFB10:
  88:FT_Esd_Framework/Ft_Esd_TouchArea__Generated.c **** 
  89:FT_Esd_Framework/Ft_Esd_TouchArea__Generated.c **** ft_bool_t Ft_Esd_TouchArea_Inside(Ft_Esd_TouchArea *context)
  90:FT_Esd_Framework/Ft_Esd_TouchArea__Generated.c **** {
 508              		.loc 1 90 0
 509              		.cfi_startproc
 510              		@ args = 0, pretend = 0, frame = 16
 511              		@ frame_needed = 1, uses_anonymous_args = 0
 512 0000 80B5     		push	{r7, lr}
 513              	.LCFI40:
 514              		.cfi_def_cfa_offset 8
 515              		.cfi_offset 7, -8
 516              		.cfi_offset 14, -4
 517 0002 84B0     		sub	sp, sp, #16
 518              	.LCFI41:
 519              		.cfi_def_cfa_offset 24
 520 0004 00AF     		add	r7, sp, #0
 521              	.LCFI42:
 522              		.cfi_def_cfa_register 7
 523 0006 7860     		str	r0, [r7, #4]
  91:FT_Esd_Framework/Ft_Esd_TouchArea__Generated.c **** 	void *parent = context->Parent;
 524              		.loc 1 91 0
 525 0008 7B68     		ldr	r3, [r7, #4]
 526 000a 1B68     		ldr	r3, [r3]
 527 000c FB60     		str	r3, [r7, #12]
  92:FT_Esd_Framework/Ft_Esd_TouchArea__Generated.c **** 	ft_bool_t left_4 = context->Touching;
 528              		.loc 1 92 0
 529 000e 7B68     		ldr	r3, [r7, #4]
 530 0010 1B7C     		ldrb	r3, [r3, #16]
 531 0012 FB72     		strb	r3, [r7, #11]
  93:FT_Esd_Framework/Ft_Esd_TouchArea__Generated.c **** 	ft_bool_t right_4 = Ft_Esd_TouchArea_Ft_Esd_TouchArea_IsInBounds__return(context);
 532              		.loc 1 93 0
 533 0014 7868     		ldr	r0, [r7, #4]
 534 0016 FFF7FEFF 		bl	Ft_Esd_TouchArea_Ft_Esd_TouchArea_IsInBounds__return
 535 001a 0346     		mov	r3, r0
 536 001c BB72     		strb	r3, [r7, #10]
  94:FT_Esd_Framework/Ft_Esd_TouchArea__Generated.c **** 	return left_4 && right_4;
 537              		.loc 1 94 0
 538 001e FB7A     		ldrb	r3, [r7, #11]	@ zero_extendqisi2
 539 0020 002B     		cmp	r3, #0
 540 0022 04D0     		beq	.L22
 541              		.loc 1 94 0 is_stmt 0 discriminator 1
 542 0024 BB7A     		ldrb	r3, [r7, #10]	@ zero_extendqisi2
 543 0026 002B     		cmp	r3, #0
 544 0028 01D0     		beq	.L22
 545              		.loc 1 94 0 discriminator 3
 546 002a 0123     		movs	r3, #1
 547 002c 00E0     		b	.L23
 548              	.L22:
ARM GAS  /var/folders/n8/cvzdcwlj0vl4g_wtyz1ffy300000gn/T//ccDaDwNX.s 			page 12


 549              		.loc 1 94 0 discriminator 4
 550 002e 0023     		movs	r3, #0
 551              	.L23:
 552              		.loc 1 94 0 discriminator 6
 553 0030 DBB2     		uxtb	r3, r3
  95:FT_Esd_Framework/Ft_Esd_TouchArea__Generated.c **** }
 554              		.loc 1 95 0 is_stmt 1 discriminator 6
 555 0032 1846     		mov	r0, r3
 556 0034 1037     		adds	r7, r7, #16
 557              	.LCFI43:
 558              		.cfi_def_cfa_offset 8
 559 0036 BD46     		mov	sp, r7
 560              	.LCFI44:
 561              		.cfi_def_cfa_register 13
 562              		@ sp needed
 563 0038 80BD     		pop	{r7, pc}
 564              		.cfi_endproc
 565              	.LFE10:
 567              		.section	.text.Ft_Esd_TouchArea_Hover,"ax",%progbits
 568              		.align	1
 569              		.global	Ft_Esd_TouchArea_Hover
 570              		.syntax unified
 571              		.thumb
 572              		.thumb_func
 573              		.fpu fpv5-sp-d16
 575              	Ft_Esd_TouchArea_Hover:
 576              	.LFB11:
  96:FT_Esd_Framework/Ft_Esd_TouchArea__Generated.c **** 
  97:FT_Esd_Framework/Ft_Esd_TouchArea__Generated.c **** ft_bool_t Ft_Esd_TouchArea_Hover(Ft_Esd_TouchArea *context)
  98:FT_Esd_Framework/Ft_Esd_TouchArea__Generated.c **** {
 577              		.loc 1 98 0
 578              		.cfi_startproc
 579              		@ args = 0, pretend = 0, frame = 16
 580              		@ frame_needed = 1, uses_anonymous_args = 0
 581 0000 80B5     		push	{r7, lr}
 582              	.LCFI45:
 583              		.cfi_def_cfa_offset 8
 584              		.cfi_offset 7, -8
 585              		.cfi_offset 14, -4
 586 0002 84B0     		sub	sp, sp, #16
 587              	.LCFI46:
 588              		.cfi_def_cfa_offset 24
 589 0004 00AF     		add	r7, sp, #0
 590              	.LCFI47:
 591              		.cfi_def_cfa_register 7
 592 0006 7860     		str	r0, [r7, #4]
  99:FT_Esd_Framework/Ft_Esd_TouchArea__Generated.c **** 	void *parent = context->Parent;
 593              		.loc 1 99 0
 594 0008 7B68     		ldr	r3, [r7, #4]
 595 000a 1B68     		ldr	r3, [r3]
 596 000c FB60     		str	r3, [r7, #12]
 100:FT_Esd_Framework/Ft_Esd_TouchArea__Generated.c **** 	return Ft_Esd_TouchArea_Ft_Esd_TouchArea_IsInBounds__return(context);
 597              		.loc 1 100 0
 598 000e 7868     		ldr	r0, [r7, #4]
 599 0010 FFF7FEFF 		bl	Ft_Esd_TouchArea_Ft_Esd_TouchArea_IsInBounds__return
 600 0014 0346     		mov	r3, r0
 101:FT_Esd_Framework/Ft_Esd_TouchArea__Generated.c **** }
ARM GAS  /var/folders/n8/cvzdcwlj0vl4g_wtyz1ffy300000gn/T//ccDaDwNX.s 			page 13


 601              		.loc 1 101 0
 602 0016 1846     		mov	r0, r3
 603 0018 1037     		adds	r7, r7, #16
 604              	.LCFI48:
 605              		.cfi_def_cfa_offset 8
 606 001a BD46     		mov	sp, r7
 607              	.LCFI49:
 608              		.cfi_def_cfa_register 13
 609              		@ sp needed
 610 001c 80BD     		pop	{r7, pc}
 611              		.cfi_endproc
 612              	.LFE11:
 614              		.section	.text.Ft_Esd_TouchArea_TouchX,"ax",%progbits
 615              		.align	1
 616              		.global	Ft_Esd_TouchArea_TouchX
 617              		.syntax unified
 618              		.thumb
 619              		.thumb_func
 620              		.fpu fpv5-sp-d16
 622              	Ft_Esd_TouchArea_TouchX:
 623              	.LFB12:
 102:FT_Esd_Framework/Ft_Esd_TouchArea__Generated.c **** 
 103:FT_Esd_Framework/Ft_Esd_TouchArea__Generated.c **** ft_int16_t Ft_Esd_TouchArea_TouchX(Ft_Esd_TouchArea *context)
 104:FT_Esd_Framework/Ft_Esd_TouchArea__Generated.c **** {
 624              		.loc 1 104 0
 625              		.cfi_startproc
 626              		@ args = 0, pretend = 0, frame = 16
 627              		@ frame_needed = 1, uses_anonymous_args = 0
 628 0000 80B5     		push	{r7, lr}
 629              	.LCFI50:
 630              		.cfi_def_cfa_offset 8
 631              		.cfi_offset 7, -8
 632              		.cfi_offset 14, -4
 633 0002 84B0     		sub	sp, sp, #16
 634              	.LCFI51:
 635              		.cfi_def_cfa_offset 24
 636 0004 00AF     		add	r7, sp, #0
 637              	.LCFI52:
 638              		.cfi_def_cfa_register 7
 639 0006 7860     		str	r0, [r7, #4]
 105:FT_Esd_Framework/Ft_Esd_TouchArea__Generated.c **** 	void *parent = context->Parent;
 640              		.loc 1 105 0
 641 0008 7B68     		ldr	r3, [r7, #4]
 642 000a 1B68     		ldr	r3, [r3]
 643 000c FB60     		str	r3, [r7, #12]
 106:FT_Esd_Framework/Ft_Esd_TouchArea__Generated.c **** 	Ft_Esd_TouchTag * context_3 = 0x0;
 644              		.loc 1 106 0
 645 000e 0023     		movs	r3, #0
 646 0010 BB60     		str	r3, [r7, #8]
 107:FT_Esd_Framework/Ft_Esd_TouchArea__Generated.c **** 	return Ft_Esd_TouchTag_TouchX(context_3);
 647              		.loc 1 107 0
 648 0012 B868     		ldr	r0, [r7, #8]
 649 0014 FFF7FEFF 		bl	Ft_Esd_TouchTag_TouchX
 650 0018 0346     		mov	r3, r0
 108:FT_Esd_Framework/Ft_Esd_TouchArea__Generated.c **** }
 651              		.loc 1 108 0
 652 001a 1846     		mov	r0, r3
ARM GAS  /var/folders/n8/cvzdcwlj0vl4g_wtyz1ffy300000gn/T//ccDaDwNX.s 			page 14


 653 001c 1037     		adds	r7, r7, #16
 654              	.LCFI53:
 655              		.cfi_def_cfa_offset 8
 656 001e BD46     		mov	sp, r7
 657              	.LCFI54:
 658              		.cfi_def_cfa_register 13
 659              		@ sp needed
 660 0020 80BD     		pop	{r7, pc}
 661              		.cfi_endproc
 662              	.LFE12:
 664              		.section	.text.Ft_Esd_TouchArea_TouchY,"ax",%progbits
 665              		.align	1
 666              		.global	Ft_Esd_TouchArea_TouchY
 667              		.syntax unified
 668              		.thumb
 669              		.thumb_func
 670              		.fpu fpv5-sp-d16
 672              	Ft_Esd_TouchArea_TouchY:
 673              	.LFB13:
 109:FT_Esd_Framework/Ft_Esd_TouchArea__Generated.c **** 
 110:FT_Esd_Framework/Ft_Esd_TouchArea__Generated.c **** ft_int16_t Ft_Esd_TouchArea_TouchY(Ft_Esd_TouchArea *context)
 111:FT_Esd_Framework/Ft_Esd_TouchArea__Generated.c **** {
 674              		.loc 1 111 0
 675              		.cfi_startproc
 676              		@ args = 0, pretend = 0, frame = 16
 677              		@ frame_needed = 1, uses_anonymous_args = 0
 678 0000 80B5     		push	{r7, lr}
 679              	.LCFI55:
 680              		.cfi_def_cfa_offset 8
 681              		.cfi_offset 7, -8
 682              		.cfi_offset 14, -4
 683 0002 84B0     		sub	sp, sp, #16
 684              	.LCFI56:
 685              		.cfi_def_cfa_offset 24
 686 0004 00AF     		add	r7, sp, #0
 687              	.LCFI57:
 688              		.cfi_def_cfa_register 7
 689 0006 7860     		str	r0, [r7, #4]
 112:FT_Esd_Framework/Ft_Esd_TouchArea__Generated.c **** 	void *parent = context->Parent;
 690              		.loc 1 112 0
 691 0008 7B68     		ldr	r3, [r7, #4]
 692 000a 1B68     		ldr	r3, [r3]
 693 000c FB60     		str	r3, [r7, #12]
 113:FT_Esd_Framework/Ft_Esd_TouchArea__Generated.c **** 	Ft_Esd_TouchTag * context_4 = 0x0;
 694              		.loc 1 113 0
 695 000e 0023     		movs	r3, #0
 696 0010 BB60     		str	r3, [r7, #8]
 114:FT_Esd_Framework/Ft_Esd_TouchArea__Generated.c **** 	return Ft_Esd_TouchTag_TouchY(context_4);
 697              		.loc 1 114 0
 698 0012 B868     		ldr	r0, [r7, #8]
 699 0014 FFF7FEFF 		bl	Ft_Esd_TouchTag_TouchY
 700 0018 0346     		mov	r3, r0
 115:FT_Esd_Framework/Ft_Esd_TouchArea__Generated.c **** }
 701              		.loc 1 115 0
 702 001a 1846     		mov	r0, r3
 703 001c 1037     		adds	r7, r7, #16
 704              	.LCFI58:
ARM GAS  /var/folders/n8/cvzdcwlj0vl4g_wtyz1ffy300000gn/T//ccDaDwNX.s 			page 15


 705              		.cfi_def_cfa_offset 8
 706 001e BD46     		mov	sp, r7
 707              	.LCFI59:
 708              		.cfi_def_cfa_register 13
 709              		@ sp needed
 710 0020 80BD     		pop	{r7, pc}
 711              		.cfi_endproc
 712              	.LFE13:
 714              		.text
 715              	.Letext0:
 716              		.file 2 "FT_Eve_Hal/FT_DataTypes.h"
 717              		.file 3 "/usr/local/Cellar/arm-none-eabi-gcc/20180627/arm-none-eabi/include/sys/lock.h"
 718              		.file 4 "/usr/local/Cellar/arm-none-eabi-gcc/20180627/arm-none-eabi/include/sys/_types.h"
 719              		.file 5 "/usr/local/Cellar/arm-none-eabi-gcc/20180627/lib/gcc/arm-none-eabi/7.3.1/include/stddef.h
 720              		.file 6 "/usr/local/Cellar/arm-none-eabi-gcc/20180627/arm-none-eabi/include/sys/unistd.h"
 721              		.file 7 "/usr/local/Cellar/arm-none-eabi-gcc/20180627/arm-none-eabi/include/sys/reent.h"
 722              		.file 8 "/usr/local/Cellar/arm-none-eabi-gcc/20180627/arm-none-eabi/include/stdlib.h"
 723              		.file 9 "FT_Esd_Framework/Ft_Esd_TouchArea.h"
 724              		.file 10 "FT_Esd_Framework/Ft_Esd_TouchTag.h"
ARM GAS  /var/folders/n8/cvzdcwlj0vl4g_wtyz1ffy300000gn/T//ccDaDwNX.s 			page 16

