ARM GAS  /var/folders/n8/cvzdcwlj0vl4g_wtyz1ffy300000gn/T//ccBKBiSu.s 			page 1


   1              		.cpu cortex-m7
   2              		.eabi_attribute 27, 1
   3              		.eabi_attribute 28, 1
   4              		.eabi_attribute 20, 1
   5              		.eabi_attribute 21, 1
   6              		.eabi_attribute 23, 3
   7              		.eabi_attribute 24, 1
   8              		.eabi_attribute 25, 1
   9              		.eabi_attribute 26, 1
  10              		.eabi_attribute 30, 6
  11              		.eabi_attribute 34, 1
  12              		.eabi_attribute 18, 4
  13              		.file	"Ft_Esd_TouchTag.c"
  14              		.text
  15              	.Ltext0:
  16              		.cfi_sections	.debug_frame
  17              		.section	.data.s_LastTagFrame,"aw",%progbits
  18              		.align	2
  21              	s_LastTagFrame:
  22 0000 FFFFFFFF 		.word	-1
  23              		.section	.data.s_NullTag,"aw",%progbits
  24              		.align	2
  27              	s_NullTag:
  28 0000 00000000 		.space	4
  29 0004 00000000 		.word	Ft_Esd_Noop
  30 0008 00000000 		.word	Ft_Esd_Noop
  31 000c 00000000 		.word	Ft_Esd_Noop
  32 0010 00000000 		.word	0
  33 0014 00000000 		.word	0
  34              		.section	.bss.s_SuppressCurrentTags,"aw",%nobits
  37              	s_SuppressCurrentTags:
  38 0000 00       		.space	1
  39              		.section	.bss.s_GpuRegTouchTag,"aw",%nobits
  42              	s_GpuRegTouchTag:
  43 0000 00       		.space	1
  44              		.section	.bss.s_TagDown,"aw",%nobits
  47              	s_TagDown:
  48 0000 00       		.space	1
  49              		.section	.bss.s_TagUp,"aw",%nobits
  52              	s_TagUp:
  53 0000 00       		.space	1
  54              		.section	.bss.s_TouchPos,"aw",%nobits
  55              		.align	2
  58              	s_TouchPos:
  59 0000 00000000 		.space	4
  60              		.section	.data.s_TagHandlers,"aw",%progbits
  61              		.align	2
  64              	s_TagHandlers:
  65 0000 00000000 		.word	s_NullTag
  66 0004 00000000 		.space	1016
  66      00000000 
  66      00000000 
  66      00000000 
  66      00000000 
  67 03fc 00000000 		.word	s_NullTag
  68              		.section	.text.Ft_Esd_TouchTag__Initializer,"ax",%progbits
  69              		.align	1
ARM GAS  /var/folders/n8/cvzdcwlj0vl4g_wtyz1ffy300000gn/T//ccBKBiSu.s 			page 2


  70              		.global	Ft_Esd_TouchTag__Initializer
  71              		.syntax unified
  72              		.thumb
  73              		.thumb_func
  74              		.fpu fpv5-sp-d16
  76              	Ft_Esd_TouchTag__Initializer:
  77              	.LFB3:
  78              		.file 1 "FT_Esd_Framework/Ft_Esd_TouchTag.c"
   1:FT_Esd_Framework/Ft_Esd_TouchTag.c **** 
   2:FT_Esd_Framework/Ft_Esd_TouchTag.c **** #include "Ft_Esd_TouchTag.h"
   3:FT_Esd_Framework/Ft_Esd_TouchTag.c **** #include "Ft_Gpu_Hal.h"
   4:FT_Esd_Framework/Ft_Esd_TouchTag.c **** 
   5:FT_Esd_Framework/Ft_Esd_TouchTag.c **** extern void Ft_Esd_Noop(void *context);
   6:FT_Esd_Framework/Ft_Esd_TouchTag.c **** 
   7:FT_Esd_Framework/Ft_Esd_TouchTag.c **** extern Ft_Gpu_Hal_Context_t *Ft_Esd_Host;
   8:FT_Esd_Framework/Ft_Esd_TouchTag.c **** extern ft_uint32_t Ft_Esd_Frame;
   9:FT_Esd_Framework/Ft_Esd_TouchTag.c **** 
  10:FT_Esd_Framework/Ft_Esd_TouchTag.c **** static ft_uint32_t s_LastTagFrame = ~0;
  11:FT_Esd_Framework/Ft_Esd_TouchTag.c **** static Ft_Esd_TouchTag s_NullTag = {
  12:FT_Esd_Framework/Ft_Esd_TouchTag.c **** 	.Down = Ft_Esd_Noop,
  13:FT_Esd_Framework/Ft_Esd_TouchTag.c **** 	.Up = Ft_Esd_Noop,
  14:FT_Esd_Framework/Ft_Esd_TouchTag.c **** 	.Tap = Ft_Esd_Noop,
  15:FT_Esd_Framework/Ft_Esd_TouchTag.c **** 	.Tag = 0,
  16:FT_Esd_Framework/Ft_Esd_TouchTag.c **** 	.Set = 0
  17:FT_Esd_Framework/Ft_Esd_TouchTag.c **** };
  18:FT_Esd_Framework/Ft_Esd_TouchTag.c **** static ft_bool_t s_SuppressCurrentTags = 0;
  19:FT_Esd_Framework/Ft_Esd_TouchTag.c **** static ft_uint8_t s_GpuRegTouchTag = 0;
  20:FT_Esd_Framework/Ft_Esd_TouchTag.c **** static ft_uint8_t s_TagDown = 0;
  21:FT_Esd_Framework/Ft_Esd_TouchTag.c **** static ft_uint8_t s_TagUp = 0;
  22:FT_Esd_Framework/Ft_Esd_TouchTag.c **** typedef union {
  23:FT_Esd_Framework/Ft_Esd_TouchTag.c **** 	ft_uint32_t XY;
  24:FT_Esd_Framework/Ft_Esd_TouchTag.c **** 	struct {
  25:FT_Esd_Framework/Ft_Esd_TouchTag.c **** 		ft_int16_t Y;
  26:FT_Esd_Framework/Ft_Esd_TouchTag.c **** 		ft_int16_t X;
  27:FT_Esd_Framework/Ft_Esd_TouchTag.c **** 	};
  28:FT_Esd_Framework/Ft_Esd_TouchTag.c **** } Ft_Esd_TouchPos_t;
  29:FT_Esd_Framework/Ft_Esd_TouchTag.c **** static Ft_Esd_TouchPos_t s_TouchPos = { 0 };
  30:FT_Esd_Framework/Ft_Esd_TouchTag.c **** 
  31:FT_Esd_Framework/Ft_Esd_TouchTag.c **** static Ft_Esd_TouchTag *s_TagHandlers[256] = {
  32:FT_Esd_Framework/Ft_Esd_TouchTag.c **** 	[0] = &s_NullTag,
  33:FT_Esd_Framework/Ft_Esd_TouchTag.c **** 	[255] = &s_NullTag
  34:FT_Esd_Framework/Ft_Esd_TouchTag.c **** };
  35:FT_Esd_Framework/Ft_Esd_TouchTag.c **** 
  36:FT_Esd_Framework/Ft_Esd_TouchTag.c **** void Ft_Esd_TouchTag__Initializer(Ft_Esd_TouchTag *context)
  37:FT_Esd_Framework/Ft_Esd_TouchTag.c **** {
  79              		.loc 1 37 0
  80              		.cfi_startproc
  81              		@ args = 0, pretend = 0, frame = 8
  82              		@ frame_needed = 1, uses_anonymous_args = 0
  83              		@ link register save eliminated.
  84 0000 B0B4     		push	{r4, r5, r7}
  85              	.LCFI0:
  86              		.cfi_def_cfa_offset 12
  87              		.cfi_offset 4, -12
  88              		.cfi_offset 5, -8
  89              		.cfi_offset 7, -4
  90 0002 83B0     		sub	sp, sp, #12
ARM GAS  /var/folders/n8/cvzdcwlj0vl4g_wtyz1ffy300000gn/T//ccBKBiSu.s 			page 3


  91              	.LCFI1:
  92              		.cfi_def_cfa_offset 24
  93 0004 00AF     		add	r7, sp, #0
  94              	.LCFI2:
  95              		.cfi_def_cfa_register 7
  96 0006 7860     		str	r0, [r7, #4]
  38:FT_Esd_Framework/Ft_Esd_TouchTag.c **** 	*context = s_NullTag;
  97              		.loc 1 38 0
  98 0008 7B68     		ldr	r3, [r7, #4]
  99 000a 074A     		ldr	r2, .L2
 100 000c 1C46     		mov	r4, r3
 101 000e 1546     		mov	r5, r2
 102 0010 0FCD     		ldmia	r5!, {r0, r1, r2, r3}
 103 0012 0FC4     		stmia	r4!, {r0, r1, r2, r3}
 104 0014 95E80300 		ldm	r5, {r0, r1}
 105 0018 84E80300 		stm	r4, {r0, r1}
  39:FT_Esd_Framework/Ft_Esd_TouchTag.c **** }
 106              		.loc 1 39 0
 107 001c 00BF     		nop
 108 001e 0C37     		adds	r7, r7, #12
 109              	.LCFI3:
 110              		.cfi_def_cfa_offset 12
 111 0020 BD46     		mov	sp, r7
 112              	.LCFI4:
 113              		.cfi_def_cfa_register 13
 114              		@ sp needed
 115 0022 B0BC     		pop	{r4, r5, r7}
 116              	.LCFI5:
 117              		.cfi_restore 7
 118              		.cfi_restore 5
 119              		.cfi_restore 4
 120              		.cfi_def_cfa_offset 0
 121 0024 7047     		bx	lr
 122              	.L3:
 123 0026 00BF     		.align	2
 124              	.L2:
 125 0028 00000000 		.word	s_NullTag
 126              		.cfi_endproc
 127              	.LFE3:
 129              		.section	.text.Ft_Esd_TouchTag_Start,"ax",%progbits
 130              		.align	1
 131              		.global	Ft_Esd_TouchTag_Start
 132              		.syntax unified
 133              		.thumb
 134              		.thumb_func
 135              		.fpu fpv5-sp-d16
 137              	Ft_Esd_TouchTag_Start:
 138              	.LFB4:
  40:FT_Esd_Framework/Ft_Esd_TouchTag.c **** 
  41:FT_Esd_Framework/Ft_Esd_TouchTag.c **** void Ft_Esd_TouchTag_Start(Ft_Esd_TouchTag *context)
  42:FT_Esd_Framework/Ft_Esd_TouchTag.c **** {
 139              		.loc 1 42 0
 140              		.cfi_startproc
 141              		@ args = 0, pretend = 0, frame = 16
 142              		@ frame_needed = 1, uses_anonymous_args = 0
 143 0000 80B5     		push	{r7, lr}
 144              	.LCFI6:
ARM GAS  /var/folders/n8/cvzdcwlj0vl4g_wtyz1ffy300000gn/T//ccBKBiSu.s 			page 4


 145              		.cfi_def_cfa_offset 8
 146              		.cfi_offset 7, -8
 147              		.cfi_offset 14, -4
 148 0002 84B0     		sub	sp, sp, #16
 149              	.LCFI7:
 150              		.cfi_def_cfa_offset 24
 151 0004 00AF     		add	r7, sp, #0
 152              	.LCFI8:
 153              		.cfi_def_cfa_register 7
 154 0006 7860     		str	r0, [r7, #4]
  43:FT_Esd_Framework/Ft_Esd_TouchTag.c **** #if ESD_SIMULATION
  44:FT_Esd_Framework/Ft_Esd_TouchTag.c **** 	if (s_LastTagFrame > Ft_Esd_Frame && (s_LastTagFrame != ~0))
  45:FT_Esd_Framework/Ft_Esd_TouchTag.c **** 	{
  46:FT_Esd_Framework/Ft_Esd_TouchTag.c **** 		// Reset static
  47:FT_Esd_Framework/Ft_Esd_TouchTag.c **** 		s_LastTagFrame = ~0;
  48:FT_Esd_Framework/Ft_Esd_TouchTag.c **** 		for (int i = 1; i < 255; ++i)
  49:FT_Esd_Framework/Ft_Esd_TouchTag.c **** 		{
  50:FT_Esd_Framework/Ft_Esd_TouchTag.c **** 			s_TagHandlers[i] = NULL;
  51:FT_Esd_Framework/Ft_Esd_TouchTag.c **** 		}
  52:FT_Esd_Framework/Ft_Esd_TouchTag.c **** 		s_GpuRegTouchTag = 0;
  53:FT_Esd_Framework/Ft_Esd_TouchTag.c **** 		s_TagDown = 0;
  54:FT_Esd_Framework/Ft_Esd_TouchTag.c **** 		s_TagUp = 0;
  55:FT_Esd_Framework/Ft_Esd_TouchTag.c **** 		s_TouchPos.XY = 0;
  56:FT_Esd_Framework/Ft_Esd_TouchTag.c **** 	}
  57:FT_Esd_Framework/Ft_Esd_TouchTag.c **** #endif
  58:FT_Esd_Framework/Ft_Esd_TouchTag.c **** 
  59:FT_Esd_Framework/Ft_Esd_TouchTag.c **** 	if (context->Tag)
 155              		.loc 1 59 0
 156 0008 7B68     		ldr	r3, [r7, #4]
 157 000a 1B69     		ldr	r3, [r3, #16]
 158 000c 002B     		cmp	r3, #0
 159 000e 02D0     		beq	.L5
  60:FT_Esd_Framework/Ft_Esd_TouchTag.c **** 	{
  61:FT_Esd_Framework/Ft_Esd_TouchTag.c **** 		Ft_Esd_TouchTag_End(context);
 160              		.loc 1 61 0
 161 0010 7868     		ldr	r0, [r7, #4]
 162 0012 FFF7FEFF 		bl	Ft_Esd_TouchTag_End
 163              	.L5:
 164              	.LBB2:
  62:FT_Esd_Framework/Ft_Esd_TouchTag.c **** 	}
  63:FT_Esd_Framework/Ft_Esd_TouchTag.c **** 	
  64:FT_Esd_Framework/Ft_Esd_TouchTag.c **** 	// Allocate tag
  65:FT_Esd_Framework/Ft_Esd_TouchTag.c **** 	for (int i = 1; i < 255; ++i)
 165              		.loc 1 65 0
 166 0016 0123     		movs	r3, #1
 167 0018 FB60     		str	r3, [r7, #12]
 168 001a 11E0     		b	.L6
 169              	.L9:
  66:FT_Esd_Framework/Ft_Esd_TouchTag.c **** 	{
  67:FT_Esd_Framework/Ft_Esd_TouchTag.c **** 		if (!s_TagHandlers[i])
 170              		.loc 1 67 0
 171 001c 0C4A     		ldr	r2, .L10
 172 001e FB68     		ldr	r3, [r7, #12]
 173 0020 52F82330 		ldr	r3, [r2, r3, lsl #2]
 174 0024 002B     		cmp	r3, #0
 175 0026 08D1     		bne	.L7
  68:FT_Esd_Framework/Ft_Esd_TouchTag.c **** 		{
ARM GAS  /var/folders/n8/cvzdcwlj0vl4g_wtyz1ffy300000gn/T//ccBKBiSu.s 			page 5


  69:FT_Esd_Framework/Ft_Esd_TouchTag.c **** 			s_TagHandlers[i] = context;
 176              		.loc 1 69 0
 177 0028 0949     		ldr	r1, .L10
 178 002a FB68     		ldr	r3, [r7, #12]
 179 002c 7A68     		ldr	r2, [r7, #4]
 180 002e 41F82320 		str	r2, [r1, r3, lsl #2]
  70:FT_Esd_Framework/Ft_Esd_TouchTag.c **** 			context->Tag = i;
 181              		.loc 1 70 0
 182 0032 7B68     		ldr	r3, [r7, #4]
 183 0034 FA68     		ldr	r2, [r7, #12]
 184 0036 1A61     		str	r2, [r3, #16]
  71:FT_Esd_Framework/Ft_Esd_TouchTag.c **** 			break;
 185              		.loc 1 71 0
 186 0038 05E0     		b	.L8
 187              	.L7:
  65:FT_Esd_Framework/Ft_Esd_TouchTag.c **** 	{
 188              		.loc 1 65 0 discriminator 2
 189 003a FB68     		ldr	r3, [r7, #12]
 190 003c 0133     		adds	r3, r3, #1
 191 003e FB60     		str	r3, [r7, #12]
 192              	.L6:
  65:FT_Esd_Framework/Ft_Esd_TouchTag.c **** 	{
 193              		.loc 1 65 0 is_stmt 0 discriminator 1
 194 0040 FB68     		ldr	r3, [r7, #12]
 195 0042 FE2B     		cmp	r3, #254
 196 0044 EADD     		ble	.L9
 197              	.L8:
 198              	.LBE2:
  72:FT_Esd_Framework/Ft_Esd_TouchTag.c **** 		}
  73:FT_Esd_Framework/Ft_Esd_TouchTag.c **** 	}
  74:FT_Esd_Framework/Ft_Esd_TouchTag.c **** }
 199              		.loc 1 74 0 is_stmt 1
 200 0046 00BF     		nop
 201 0048 1037     		adds	r7, r7, #16
 202              	.LCFI9:
 203              		.cfi_def_cfa_offset 8
 204 004a BD46     		mov	sp, r7
 205              	.LCFI10:
 206              		.cfi_def_cfa_register 13
 207              		@ sp needed
 208 004c 80BD     		pop	{r7, pc}
 209              	.L11:
 210 004e 00BF     		.align	2
 211              	.L10:
 212 0050 00000000 		.word	s_TagHandlers
 213              		.cfi_endproc
 214              	.LFE4:
 216              		.section	.text.Ft_Esd_TouchTag_Update,"ax",%progbits
 217              		.align	1
 218              		.global	Ft_Esd_TouchTag_Update
 219              		.syntax unified
 220              		.thumb
 221              		.thumb_func
 222              		.fpu fpv5-sp-d16
 224              	Ft_Esd_TouchTag_Update:
 225              	.LFB5:
  75:FT_Esd_Framework/Ft_Esd_TouchTag.c **** 
ARM GAS  /var/folders/n8/cvzdcwlj0vl4g_wtyz1ffy300000gn/T//ccBKBiSu.s 			page 6


  76:FT_Esd_Framework/Ft_Esd_TouchTag.c **** void Ft_Esd_TouchTag_Update(Ft_Esd_TouchTag *context)
  77:FT_Esd_Framework/Ft_Esd_TouchTag.c **** {
 226              		.loc 1 77 0
 227              		.cfi_startproc
 228              		@ args = 0, pretend = 0, frame = 16
 229              		@ frame_needed = 1, uses_anonymous_args = 0
 230 0000 80B5     		push	{r7, lr}
 231              	.LCFI11:
 232              		.cfi_def_cfa_offset 8
 233              		.cfi_offset 7, -8
 234              		.cfi_offset 14, -4
 235 0002 84B0     		sub	sp, sp, #16
 236              	.LCFI12:
 237              		.cfi_def_cfa_offset 24
 238 0004 00AF     		add	r7, sp, #0
 239              	.LCFI13:
 240              		.cfi_def_cfa_register 7
 241 0006 7860     		str	r0, [r7, #4]
  78:FT_Esd_Framework/Ft_Esd_TouchTag.c **** 	if (s_LastTagFrame != Ft_Esd_Frame)
 242              		.loc 1 78 0
 243 0008 4A4B     		ldr	r3, .L27
 244 000a 1A68     		ldr	r2, [r3]
 245 000c 4A4B     		ldr	r3, .L27+4
 246 000e 1B68     		ldr	r3, [r3]
 247 0010 9A42     		cmp	r2, r3
 248 0012 43D0     		beq	.L13
 249              	.LBB3:
  79:FT_Esd_Framework/Ft_Esd_TouchTag.c **** 	{
  80:FT_Esd_Framework/Ft_Esd_TouchTag.c **** 		// Global tag update
  81:FT_Esd_Framework/Ft_Esd_TouchTag.c **** 		s_LastTagFrame = Ft_Esd_Frame;
 250              		.loc 1 81 0
 251 0014 484B     		ldr	r3, .L27+4
 252 0016 1B68     		ldr	r3, [r3]
 253 0018 464A     		ldr	r2, .L27
 254 001a 1360     		str	r3, [r2]
  82:FT_Esd_Framework/Ft_Esd_TouchTag.c **** 
  83:FT_Esd_Framework/Ft_Esd_TouchTag.c **** 		// Read registers
  84:FT_Esd_Framework/Ft_Esd_TouchTag.c **** 		ft_uint32_t regTouchXY = Ft_Gpu_Hal_Rd32(Ft_Esd_Host, REG_TOUCH_TAG_XY);
 255              		.loc 1 84 0
 256 001c 474B     		ldr	r3, .L27+8
 257 001e 1B68     		ldr	r3, [r3]
 258 0020 4749     		ldr	r1, .L27+12
 259 0022 1846     		mov	r0, r3
 260 0024 FFF7FEFF 		bl	Ft_Gpu_Hal_Rd32
 261 0028 B860     		str	r0, [r7, #8]
  85:FT_Esd_Framework/Ft_Esd_TouchTag.c **** 		ft_uint8_t regTouchTag;
  86:FT_Esd_Framework/Ft_Esd_TouchTag.c **** 		if (regTouchXY & 0x80008000)
 262              		.loc 1 86 0
 263 002a BB68     		ldr	r3, [r7, #8]
 264 002c 03F08023 		and	r3, r3, #-2147450880
 265 0030 002B     		cmp	r3, #0
 266 0032 02D0     		beq	.L14
  87:FT_Esd_Framework/Ft_Esd_TouchTag.c **** 		{
  88:FT_Esd_Framework/Ft_Esd_TouchTag.c **** 			// No touch
  89:FT_Esd_Framework/Ft_Esd_TouchTag.c **** 			regTouchTag = 0;
 267              		.loc 1 89 0
 268 0034 0023     		movs	r3, #0
ARM GAS  /var/folders/n8/cvzdcwlj0vl4g_wtyz1ffy300000gn/T//ccBKBiSu.s 			page 7


 269 0036 FB73     		strb	r3, [r7, #15]
 270 0038 19E0     		b	.L15
 271              	.L14:
  90:FT_Esd_Framework/Ft_Esd_TouchTag.c **** 		}
  91:FT_Esd_Framework/Ft_Esd_TouchTag.c **** 		else
  92:FT_Esd_Framework/Ft_Esd_TouchTag.c **** 		{
  93:FT_Esd_Framework/Ft_Esd_TouchTag.c **** 			regTouchTag = Ft_Gpu_Hal_Rd8(Ft_Esd_Host, REG_TOUCH_TAG);
 272              		.loc 1 93 0
 273 003a 404B     		ldr	r3, .L27+8
 274 003c 1B68     		ldr	r3, [r3]
 275 003e 4149     		ldr	r1, .L27+16
 276 0040 1846     		mov	r0, r3
 277 0042 FFF7FEFF 		bl	Ft_Gpu_Hal_Rd8
 278 0046 0346     		mov	r3, r0
 279 0048 FB73     		strb	r3, [r7, #15]
  94:FT_Esd_Framework/Ft_Esd_TouchTag.c **** 			if (!regTouchTag)
 280              		.loc 1 94 0
 281 004a FB7B     		ldrb	r3, [r7, #15]	@ zero_extendqisi2
 282 004c 002B     		cmp	r3, #0
 283 004e 02D1     		bne	.L16
  95:FT_Esd_Framework/Ft_Esd_TouchTag.c **** 			{
  96:FT_Esd_Framework/Ft_Esd_TouchTag.c **** 				// Fallback when touching but touch tag 0 reported, stick to the last recorded tag
  97:FT_Esd_Framework/Ft_Esd_TouchTag.c **** 				// Happens when REG_TOUCH_TAG_XY is ahead of REG_TOUCH_TAG (tag is only detected after render),
  98:FT_Esd_Framework/Ft_Esd_TouchTag.c **** 				// Can also happen in case the user improperly draws a tag 0 somewhere, this causes issue when 
  99:FT_Esd_Framework/Ft_Esd_TouchTag.c **** 				regTouchTag = s_GpuRegTouchTag;
 284              		.loc 1 99 0
 285 0050 3D4B     		ldr	r3, .L27+20
 286 0052 1B78     		ldrb	r3, [r3]
 287 0054 FB73     		strb	r3, [r7, #15]
 288              	.L16:
 100:FT_Esd_Framework/Ft_Esd_TouchTag.c **** 			}
 101:FT_Esd_Framework/Ft_Esd_TouchTag.c **** 			if (regTouchTag && s_SuppressCurrentTags)
 289              		.loc 1 101 0
 290 0056 FB7B     		ldrb	r3, [r7, #15]	@ zero_extendqisi2
 291 0058 002B     		cmp	r3, #0
 292 005a 05D0     		beq	.L17
 293              		.loc 1 101 0 is_stmt 0 discriminator 1
 294 005c 3B4B     		ldr	r3, .L27+24
 295 005e 1B78     		ldrb	r3, [r3]	@ zero_extendqisi2
 296 0060 002B     		cmp	r3, #0
 297 0062 01D0     		beq	.L17
 102:FT_Esd_Framework/Ft_Esd_TouchTag.c **** 			{
 103:FT_Esd_Framework/Ft_Esd_TouchTag.c **** 				regTouchTag = 255;
 298              		.loc 1 103 0 is_stmt 1
 299 0064 FF23     		movs	r3, #255
 300 0066 FB73     		strb	r3, [r7, #15]
 301              	.L17:
 104:FT_Esd_Framework/Ft_Esd_TouchTag.c **** 			}
 105:FT_Esd_Framework/Ft_Esd_TouchTag.c **** 			s_TouchPos.XY = regTouchXY;
 302              		.loc 1 105 0
 303 0068 394A     		ldr	r2, .L27+28
 304 006a BB68     		ldr	r3, [r7, #8]
 305 006c 1360     		str	r3, [r2]
 306              	.L15:
 106:FT_Esd_Framework/Ft_Esd_TouchTag.c **** 		}
 107:FT_Esd_Framework/Ft_Esd_TouchTag.c **** 
 108:FT_Esd_Framework/Ft_Esd_TouchTag.c **** 		// Update up and down tags
ARM GAS  /var/folders/n8/cvzdcwlj0vl4g_wtyz1ffy300000gn/T//ccBKBiSu.s 			page 8


 109:FT_Esd_Framework/Ft_Esd_TouchTag.c **** 		if (!s_TagDown)
 307              		.loc 1 109 0
 308 006e 394B     		ldr	r3, .L27+32
 309 0070 1B78     		ldrb	r3, [r3]	@ zero_extendqisi2
 310 0072 002B     		cmp	r3, #0
 311 0074 02D1     		bne	.L18
 110:FT_Esd_Framework/Ft_Esd_TouchTag.c **** 		{
 111:FT_Esd_Framework/Ft_Esd_TouchTag.c **** 			s_TagDown = regTouchTag;
 312              		.loc 1 111 0
 313 0076 374A     		ldr	r2, .L27+32
 314 0078 FB7B     		ldrb	r3, [r7, #15]
 315 007a 1370     		strb	r3, [r2]
 316              	.L18:
 112:FT_Esd_Framework/Ft_Esd_TouchTag.c **** 		}
 113:FT_Esd_Framework/Ft_Esd_TouchTag.c **** 
 114:FT_Esd_Framework/Ft_Esd_TouchTag.c **** 		if (!regTouchTag)
 317              		.loc 1 114 0
 318 007c FB7B     		ldrb	r3, [r7, #15]	@ zero_extendqisi2
 319 007e 002B     		cmp	r3, #0
 320 0080 09D1     		bne	.L19
 115:FT_Esd_Framework/Ft_Esd_TouchTag.c **** 		{
 116:FT_Esd_Framework/Ft_Esd_TouchTag.c **** 			s_TagUp = s_GpuRegTouchTag;
 321              		.loc 1 116 0
 322 0082 314B     		ldr	r3, .L27+20
 323 0084 1A78     		ldrb	r2, [r3]	@ zero_extendqisi2
 324 0086 344B     		ldr	r3, .L27+36
 325 0088 1A70     		strb	r2, [r3]
 117:FT_Esd_Framework/Ft_Esd_TouchTag.c **** 			s_TagDown = 0;
 326              		.loc 1 117 0
 327 008a 324B     		ldr	r3, .L27+32
 328 008c 0022     		movs	r2, #0
 329 008e 1A70     		strb	r2, [r3]
 118:FT_Esd_Framework/Ft_Esd_TouchTag.c **** 			s_SuppressCurrentTags = 0;
 330              		.loc 1 118 0
 331 0090 2E4B     		ldr	r3, .L27+24
 332 0092 0022     		movs	r2, #0
 333 0094 1A70     		strb	r2, [r3]
 334              	.L19:
 119:FT_Esd_Framework/Ft_Esd_TouchTag.c **** 		}
 120:FT_Esd_Framework/Ft_Esd_TouchTag.c **** 
 121:FT_Esd_Framework/Ft_Esd_TouchTag.c **** 		s_GpuRegTouchTag = regTouchTag;
 335              		.loc 1 121 0
 336 0096 2C4A     		ldr	r2, .L27+20
 337 0098 FB7B     		ldrb	r3, [r7, #15]
 338 009a 1370     		strb	r3, [r2]
 339              	.L13:
 340              	.LBE3:
 122:FT_Esd_Framework/Ft_Esd_TouchTag.c **** 	}
 123:FT_Esd_Framework/Ft_Esd_TouchTag.c **** 
 124:FT_Esd_Framework/Ft_Esd_TouchTag.c **** 	if (!context || !context->Tag)
 341              		.loc 1 124 0
 342 009c 7B68     		ldr	r3, [r7, #4]
 343 009e 002B     		cmp	r3, #0
 344 00a0 44D0     		beq	.L26
 345              		.loc 1 124 0 is_stmt 0 discriminator 1
 346 00a2 7B68     		ldr	r3, [r7, #4]
 347 00a4 1B69     		ldr	r3, [r3, #16]
ARM GAS  /var/folders/n8/cvzdcwlj0vl4g_wtyz1ffy300000gn/T//ccBKBiSu.s 			page 9


 348 00a6 002B     		cmp	r3, #0
 349 00a8 40D0     		beq	.L26
 125:FT_Esd_Framework/Ft_Esd_TouchTag.c **** 		return;
 126:FT_Esd_Framework/Ft_Esd_TouchTag.c **** 
 127:FT_Esd_Framework/Ft_Esd_TouchTag.c **** 	if (s_TagHandlers[context->Tag] != context)
 350              		.loc 1 127 0 is_stmt 1
 351 00aa 7B68     		ldr	r3, [r7, #4]
 352 00ac 1B69     		ldr	r3, [r3, #16]
 353 00ae 2B4A     		ldr	r2, .L27+40
 354 00b0 52F82330 		ldr	r3, [r2, r3, lsl #2]
 355 00b4 7A68     		ldr	r2, [r7, #4]
 356 00b6 9A42     		cmp	r2, r3
 357 00b8 05D0     		beq	.L23
 128:FT_Esd_Framework/Ft_Esd_TouchTag.c **** 	{
 129:FT_Esd_Framework/Ft_Esd_TouchTag.c **** 		// Tag was forced taken over by another widget (CMD_KEYS for example), need to get a new tag...
 130:FT_Esd_Framework/Ft_Esd_TouchTag.c **** 		context->Tag = 0;
 358              		.loc 1 130 0
 359 00ba 7B68     		ldr	r3, [r7, #4]
 360 00bc 0022     		movs	r2, #0
 361 00be 1A61     		str	r2, [r3, #16]
 131:FT_Esd_Framework/Ft_Esd_TouchTag.c **** 		Ft_Esd_TouchTag_Start(context);
 362              		.loc 1 131 0
 363 00c0 7868     		ldr	r0, [r7, #4]
 364 00c2 FFF7FEFF 		bl	Ft_Esd_TouchTag_Start
 365              	.L23:
 132:FT_Esd_Framework/Ft_Esd_TouchTag.c **** 	}
 133:FT_Esd_Framework/Ft_Esd_TouchTag.c **** 
 134:FT_Esd_Framework/Ft_Esd_TouchTag.c **** 	// Tag is set
 135:FT_Esd_Framework/Ft_Esd_TouchTag.c **** 	if (context->Set)
 366              		.loc 1 135 0
 367 00c6 7B68     		ldr	r3, [r7, #4]
 368 00c8 5B69     		ldr	r3, [r3, #20]
 369 00ca 002B     		cmp	r3, #0
 370 00cc 1DD0     		beq	.L24
 136:FT_Esd_Framework/Ft_Esd_TouchTag.c **** 	{
 137:FT_Esd_Framework/Ft_Esd_TouchTag.c **** 		// Tag unset
 138:FT_Esd_Framework/Ft_Esd_TouchTag.c **** 		if (s_TagDown != context->Tag)
 371              		.loc 1 138 0
 372 00ce 214B     		ldr	r3, .L27+32
 373 00d0 1B78     		ldrb	r3, [r3]	@ zero_extendqisi2
 374 00d2 1A46     		mov	r2, r3
 375 00d4 7B68     		ldr	r3, [r7, #4]
 376 00d6 1B69     		ldr	r3, [r3, #16]
 377 00d8 9A42     		cmp	r2, r3
 378 00da 28D0     		beq	.L12
 139:FT_Esd_Framework/Ft_Esd_TouchTag.c **** 		{
 140:FT_Esd_Framework/Ft_Esd_TouchTag.c **** 			context->Set = 0;
 379              		.loc 1 140 0
 380 00dc 7B68     		ldr	r3, [r7, #4]
 381 00de 0022     		movs	r2, #0
 382 00e0 5A61     		str	r2, [r3, #20]
 141:FT_Esd_Framework/Ft_Esd_TouchTag.c **** 			context->Up(context->Parent);
 383              		.loc 1 141 0
 384 00e2 7B68     		ldr	r3, [r7, #4]
 385 00e4 9B68     		ldr	r3, [r3, #8]
 386 00e6 7A68     		ldr	r2, [r7, #4]
 387 00e8 1268     		ldr	r2, [r2]
ARM GAS  /var/folders/n8/cvzdcwlj0vl4g_wtyz1ffy300000gn/T//ccBKBiSu.s 			page 10


 388 00ea 1046     		mov	r0, r2
 389 00ec 9847     		blx	r3
 390              	.LVL0:
 142:FT_Esd_Framework/Ft_Esd_TouchTag.c **** 			if (s_TagUp == context->Tag)
 391              		.loc 1 142 0
 392 00ee 1A4B     		ldr	r3, .L27+36
 393 00f0 1B78     		ldrb	r3, [r3]	@ zero_extendqisi2
 394 00f2 1A46     		mov	r2, r3
 395 00f4 7B68     		ldr	r3, [r7, #4]
 396 00f6 1B69     		ldr	r3, [r3, #16]
 397 00f8 9A42     		cmp	r2, r3
 398 00fa 18D1     		bne	.L12
 143:FT_Esd_Framework/Ft_Esd_TouchTag.c **** 			{
 144:FT_Esd_Framework/Ft_Esd_TouchTag.c **** 				// Down and up were the same, tap (TODO: Allow to supress tap when user was swiping)
 145:FT_Esd_Framework/Ft_Esd_TouchTag.c **** 				context->Tap(context->Parent);
 399              		.loc 1 145 0
 400 00fc 7B68     		ldr	r3, [r7, #4]
 401 00fe DB68     		ldr	r3, [r3, #12]
 402 0100 7A68     		ldr	r2, [r7, #4]
 403 0102 1268     		ldr	r2, [r2]
 404 0104 1046     		mov	r0, r2
 405 0106 9847     		blx	r3
 406              	.LVL1:
 407 0108 11E0     		b	.L12
 408              	.L24:
 146:FT_Esd_Framework/Ft_Esd_TouchTag.c **** 			}
 147:FT_Esd_Framework/Ft_Esd_TouchTag.c **** 		}
 148:FT_Esd_Framework/Ft_Esd_TouchTag.c **** 	}
 149:FT_Esd_Framework/Ft_Esd_TouchTag.c **** 	else
 150:FT_Esd_Framework/Ft_Esd_TouchTag.c **** 	{
 151:FT_Esd_Framework/Ft_Esd_TouchTag.c **** 		// Tag set
 152:FT_Esd_Framework/Ft_Esd_TouchTag.c **** 		if (s_TagDown == context->Tag)
 409              		.loc 1 152 0
 410 010a 124B     		ldr	r3, .L27+32
 411 010c 1B78     		ldrb	r3, [r3]	@ zero_extendqisi2
 412 010e 1A46     		mov	r2, r3
 413 0110 7B68     		ldr	r3, [r7, #4]
 414 0112 1B69     		ldr	r3, [r3, #16]
 415 0114 9A42     		cmp	r2, r3
 416 0116 0AD1     		bne	.L12
 153:FT_Esd_Framework/Ft_Esd_TouchTag.c **** 		{
 154:FT_Esd_Framework/Ft_Esd_TouchTag.c **** 			context->Set = 1;
 417              		.loc 1 154 0
 418 0118 7B68     		ldr	r3, [r7, #4]
 419 011a 0122     		movs	r2, #1
 420 011c 5A61     		str	r2, [r3, #20]
 155:FT_Esd_Framework/Ft_Esd_TouchTag.c **** 			context->Down(context->Parent);
 421              		.loc 1 155 0
 422 011e 7B68     		ldr	r3, [r7, #4]
 423 0120 5B68     		ldr	r3, [r3, #4]
 424 0122 7A68     		ldr	r2, [r7, #4]
 425 0124 1268     		ldr	r2, [r2]
 426 0126 1046     		mov	r0, r2
 427 0128 9847     		blx	r3
 428              	.LVL2:
 429 012a 00E0     		b	.L12
 430              	.L26:
ARM GAS  /var/folders/n8/cvzdcwlj0vl4g_wtyz1ffy300000gn/T//ccBKBiSu.s 			page 11


 125:FT_Esd_Framework/Ft_Esd_TouchTag.c **** 
 431              		.loc 1 125 0
 432 012c 00BF     		nop
 433              	.L12:
 156:FT_Esd_Framework/Ft_Esd_TouchTag.c **** 		}
 157:FT_Esd_Framework/Ft_Esd_TouchTag.c **** 	}
 158:FT_Esd_Framework/Ft_Esd_TouchTag.c **** }
 434              		.loc 1 158 0
 435 012e 1037     		adds	r7, r7, #16
 436              	.LCFI14:
 437              		.cfi_def_cfa_offset 8
 438 0130 BD46     		mov	sp, r7
 439              	.LCFI15:
 440              		.cfi_def_cfa_register 13
 441              		@ sp needed
 442 0132 80BD     		pop	{r7, pc}
 443              	.L28:
 444              		.align	2
 445              	.L27:
 446 0134 00000000 		.word	s_LastTagFrame
 447 0138 00000000 		.word	Ft_Esd_Frame
 448 013c 00000000 		.word	Ft_Esd_Host
 449 0140 28213000 		.word	3154216
 450 0144 2C213000 		.word	3154220
 451 0148 00000000 		.word	s_GpuRegTouchTag
 452 014c 00000000 		.word	s_SuppressCurrentTags
 453 0150 00000000 		.word	s_TouchPos
 454 0154 00000000 		.word	s_TagDown
 455 0158 00000000 		.word	s_TagUp
 456 015c 00000000 		.word	s_TagHandlers
 457              		.cfi_endproc
 458              	.LFE5:
 460              		.section	.text.Ft_Esd_TouchTag_End,"ax",%progbits
 461              		.align	1
 462              		.global	Ft_Esd_TouchTag_End
 463              		.syntax unified
 464              		.thumb
 465              		.thumb_func
 466              		.fpu fpv5-sp-d16
 468              	Ft_Esd_TouchTag_End:
 469              	.LFB6:
 159:FT_Esd_Framework/Ft_Esd_TouchTag.c **** 
 160:FT_Esd_Framework/Ft_Esd_TouchTag.c **** void Ft_Esd_TouchTag_End(Ft_Esd_TouchTag *context)
 161:FT_Esd_Framework/Ft_Esd_TouchTag.c **** {
 470              		.loc 1 161 0
 471              		.cfi_startproc
 472              		@ args = 0, pretend = 0, frame = 8
 473              		@ frame_needed = 1, uses_anonymous_args = 0
 474              		@ link register save eliminated.
 475 0000 80B4     		push	{r7}
 476              	.LCFI16:
 477              		.cfi_def_cfa_offset 4
 478              		.cfi_offset 7, -4
 479 0002 83B0     		sub	sp, sp, #12
 480              	.LCFI17:
 481              		.cfi_def_cfa_offset 16
 482 0004 00AF     		add	r7, sp, #0
ARM GAS  /var/folders/n8/cvzdcwlj0vl4g_wtyz1ffy300000gn/T//ccBKBiSu.s 			page 12


 483              	.LCFI18:
 484              		.cfi_def_cfa_register 7
 485 0006 7860     		str	r0, [r7, #4]
 162:FT_Esd_Framework/Ft_Esd_TouchTag.c **** 	if (context->Tag)
 486              		.loc 1 162 0
 487 0008 7B68     		ldr	r3, [r7, #4]
 488 000a 1B69     		ldr	r3, [r3, #16]
 489 000c 002B     		cmp	r3, #0
 490 000e 10D0     		beq	.L32
 163:FT_Esd_Framework/Ft_Esd_TouchTag.c **** 	{
 164:FT_Esd_Framework/Ft_Esd_TouchTag.c **** 		// Free tag
 165:FT_Esd_Framework/Ft_Esd_TouchTag.c **** 		if (s_TagHandlers[context->Tag] == context)
 491              		.loc 1 165 0
 492 0010 7B68     		ldr	r3, [r7, #4]
 493 0012 1B69     		ldr	r3, [r3, #16]
 494 0014 0A4A     		ldr	r2, .L33
 495 0016 52F82330 		ldr	r3, [r2, r3, lsl #2]
 496 001a 7A68     		ldr	r2, [r7, #4]
 497 001c 9A42     		cmp	r2, r3
 498 001e 05D1     		bne	.L31
 166:FT_Esd_Framework/Ft_Esd_TouchTag.c **** 		{
 167:FT_Esd_Framework/Ft_Esd_TouchTag.c **** 			s_TagHandlers[context->Tag] = 0;
 499              		.loc 1 167 0
 500 0020 7B68     		ldr	r3, [r7, #4]
 501 0022 1B69     		ldr	r3, [r3, #16]
 502 0024 064A     		ldr	r2, .L33
 503 0026 0021     		movs	r1, #0
 504 0028 42F82310 		str	r1, [r2, r3, lsl #2]
 505              	.L31:
 168:FT_Esd_Framework/Ft_Esd_TouchTag.c **** 		}
 169:FT_Esd_Framework/Ft_Esd_TouchTag.c **** 		context->Tag = 0;
 506              		.loc 1 169 0
 507 002c 7B68     		ldr	r3, [r7, #4]
 508 002e 0022     		movs	r2, #0
 509 0030 1A61     		str	r2, [r3, #16]
 510              	.L32:
 170:FT_Esd_Framework/Ft_Esd_TouchTag.c **** 	}
 171:FT_Esd_Framework/Ft_Esd_TouchTag.c **** }
 511              		.loc 1 171 0
 512 0032 00BF     		nop
 513 0034 0C37     		adds	r7, r7, #12
 514              	.LCFI19:
 515              		.cfi_def_cfa_offset 4
 516 0036 BD46     		mov	sp, r7
 517              	.LCFI20:
 518              		.cfi_def_cfa_register 13
 519              		@ sp needed
 520 0038 5DF8047B 		ldr	r7, [sp], #4
 521              	.LCFI21:
 522              		.cfi_restore 7
 523              		.cfi_def_cfa_offset 0
 524 003c 7047     		bx	lr
 525              	.L34:
 526 003e 00BF     		.align	2
 527              	.L33:
 528 0040 00000000 		.word	s_TagHandlers
 529              		.cfi_endproc
ARM GAS  /var/folders/n8/cvzdcwlj0vl4g_wtyz1ffy300000gn/T//ccBKBiSu.s 			page 13


 530              	.LFE6:
 532              		.section	.text.Ft_Esd_TouchTag_Touching,"ax",%progbits
 533              		.align	1
 534              		.global	Ft_Esd_TouchTag_Touching
 535              		.syntax unified
 536              		.thumb
 537              		.thumb_func
 538              		.fpu fpv5-sp-d16
 540              	Ft_Esd_TouchTag_Touching:
 541              	.LFB7:
 172:FT_Esd_Framework/Ft_Esd_TouchTag.c **** 
 173:FT_Esd_Framework/Ft_Esd_TouchTag.c **** ft_bool_t Ft_Esd_TouchTag_Touching(Ft_Esd_TouchTag *context)
 174:FT_Esd_Framework/Ft_Esd_TouchTag.c **** {
 542              		.loc 1 174 0
 543              		.cfi_startproc
 544              		@ args = 0, pretend = 0, frame = 8
 545              		@ frame_needed = 1, uses_anonymous_args = 0
 546              		@ link register save eliminated.
 547 0000 80B4     		push	{r7}
 548              	.LCFI22:
 549              		.cfi_def_cfa_offset 4
 550              		.cfi_offset 7, -4
 551 0002 83B0     		sub	sp, sp, #12
 552              	.LCFI23:
 553              		.cfi_def_cfa_offset 16
 554 0004 00AF     		add	r7, sp, #0
 555              	.LCFI24:
 556              		.cfi_def_cfa_register 7
 557 0006 7860     		str	r0, [r7, #4]
 175:FT_Esd_Framework/Ft_Esd_TouchTag.c **** 	return context->Tag && (s_TagDown == context->Tag);
 558              		.loc 1 175 0
 559 0008 7B68     		ldr	r3, [r7, #4]
 560 000a 1B69     		ldr	r3, [r3, #16]
 561 000c 002B     		cmp	r3, #0
 562 000e 08D0     		beq	.L36
 563              		.loc 1 175 0 is_stmt 0 discriminator 1
 564 0010 084B     		ldr	r3, .L39
 565 0012 1B78     		ldrb	r3, [r3]	@ zero_extendqisi2
 566 0014 1A46     		mov	r2, r3
 567 0016 7B68     		ldr	r3, [r7, #4]
 568 0018 1B69     		ldr	r3, [r3, #16]
 569 001a 9A42     		cmp	r2, r3
 570 001c 01D1     		bne	.L36
 571              		.loc 1 175 0 discriminator 3
 572 001e 0123     		movs	r3, #1
 573 0020 00E0     		b	.L37
 574              	.L36:
 575              		.loc 1 175 0 discriminator 4
 576 0022 0023     		movs	r3, #0
 577              	.L37:
 578              		.loc 1 175 0 discriminator 6
 579 0024 DBB2     		uxtb	r3, r3
 176:FT_Esd_Framework/Ft_Esd_TouchTag.c **** }
 580              		.loc 1 176 0 is_stmt 1 discriminator 6
 581 0026 1846     		mov	r0, r3
 582 0028 0C37     		adds	r7, r7, #12
 583              	.LCFI25:
ARM GAS  /var/folders/n8/cvzdcwlj0vl4g_wtyz1ffy300000gn/T//ccBKBiSu.s 			page 14


 584              		.cfi_def_cfa_offset 4
 585 002a BD46     		mov	sp, r7
 586              	.LCFI26:
 587              		.cfi_def_cfa_register 13
 588              		@ sp needed
 589 002c 5DF8047B 		ldr	r7, [sp], #4
 590              	.LCFI27:
 591              		.cfi_restore 7
 592              		.cfi_def_cfa_offset 0
 593 0030 7047     		bx	lr
 594              	.L40:
 595 0032 00BF     		.align	2
 596              	.L39:
 597 0034 00000000 		.word	s_TagDown
 598              		.cfi_endproc
 599              	.LFE7:
 601              		.section	.text.Ft_Esd_TouchTag_Inside,"ax",%progbits
 602              		.align	1
 603              		.global	Ft_Esd_TouchTag_Inside
 604              		.syntax unified
 605              		.thumb
 606              		.thumb_func
 607              		.fpu fpv5-sp-d16
 609              	Ft_Esd_TouchTag_Inside:
 610              	.LFB8:
 177:FT_Esd_Framework/Ft_Esd_TouchTag.c **** 
 178:FT_Esd_Framework/Ft_Esd_TouchTag.c **** ft_bool_t Ft_Esd_TouchTag_Inside(Ft_Esd_TouchTag *context)
 179:FT_Esd_Framework/Ft_Esd_TouchTag.c **** {
 611              		.loc 1 179 0
 612              		.cfi_startproc
 613              		@ args = 0, pretend = 0, frame = 8
 614              		@ frame_needed = 1, uses_anonymous_args = 0
 615              		@ link register save eliminated.
 616 0000 80B4     		push	{r7}
 617              	.LCFI28:
 618              		.cfi_def_cfa_offset 4
 619              		.cfi_offset 7, -4
 620 0002 83B0     		sub	sp, sp, #12
 621              	.LCFI29:
 622              		.cfi_def_cfa_offset 16
 623 0004 00AF     		add	r7, sp, #0
 624              	.LCFI30:
 625              		.cfi_def_cfa_register 7
 626 0006 7860     		str	r0, [r7, #4]
 180:FT_Esd_Framework/Ft_Esd_TouchTag.c **** 	return context->Tag && (s_TagDown == context->Tag) && (s_GpuRegTouchTag == context->Tag);
 627              		.loc 1 180 0
 628 0008 7B68     		ldr	r3, [r7, #4]
 629 000a 1B69     		ldr	r3, [r3, #16]
 630 000c 002B     		cmp	r3, #0
 631 000e 0FD0     		beq	.L42
 632              		.loc 1 180 0 is_stmt 0 discriminator 1
 633 0010 0B4B     		ldr	r3, .L45
 634 0012 1B78     		ldrb	r3, [r3]	@ zero_extendqisi2
 635 0014 1A46     		mov	r2, r3
 636 0016 7B68     		ldr	r3, [r7, #4]
 637 0018 1B69     		ldr	r3, [r3, #16]
 638 001a 9A42     		cmp	r2, r3
ARM GAS  /var/folders/n8/cvzdcwlj0vl4g_wtyz1ffy300000gn/T//ccBKBiSu.s 			page 15


 639 001c 08D1     		bne	.L42
 640              		.loc 1 180 0 discriminator 3
 641 001e 094B     		ldr	r3, .L45+4
 642 0020 1B78     		ldrb	r3, [r3]	@ zero_extendqisi2
 643 0022 1A46     		mov	r2, r3
 644 0024 7B68     		ldr	r3, [r7, #4]
 645 0026 1B69     		ldr	r3, [r3, #16]
 646 0028 9A42     		cmp	r2, r3
 647 002a 01D1     		bne	.L42
 648              		.loc 1 180 0 discriminator 5
 649 002c 0123     		movs	r3, #1
 650 002e 00E0     		b	.L43
 651              	.L42:
 652              		.loc 1 180 0 discriminator 6
 653 0030 0023     		movs	r3, #0
 654              	.L43:
 655              		.loc 1 180 0 discriminator 8
 656 0032 DBB2     		uxtb	r3, r3
 181:FT_Esd_Framework/Ft_Esd_TouchTag.c **** }
 657              		.loc 1 181 0 is_stmt 1 discriminator 8
 658 0034 1846     		mov	r0, r3
 659 0036 0C37     		adds	r7, r7, #12
 660              	.LCFI31:
 661              		.cfi_def_cfa_offset 4
 662 0038 BD46     		mov	sp, r7
 663              	.LCFI32:
 664              		.cfi_def_cfa_register 13
 665              		@ sp needed
 666 003a 5DF8047B 		ldr	r7, [sp], #4
 667              	.LCFI33:
 668              		.cfi_restore 7
 669              		.cfi_def_cfa_offset 0
 670 003e 7047     		bx	lr
 671              	.L46:
 672              		.align	2
 673              	.L45:
 674 0040 00000000 		.word	s_TagDown
 675 0044 00000000 		.word	s_GpuRegTouchTag
 676              		.cfi_endproc
 677              	.LFE8:
 679              		.section	.text.Ft_Esd_TouchTag_Hover,"ax",%progbits
 680              		.align	1
 681              		.global	Ft_Esd_TouchTag_Hover
 682              		.syntax unified
 683              		.thumb
 684              		.thumb_func
 685              		.fpu fpv5-sp-d16
 687              	Ft_Esd_TouchTag_Hover:
 688              	.LFB9:
 182:FT_Esd_Framework/Ft_Esd_TouchTag.c **** 
 183:FT_Esd_Framework/Ft_Esd_TouchTag.c **** ft_bool_t Ft_Esd_TouchTag_Hover(Ft_Esd_TouchTag *context)
 184:FT_Esd_Framework/Ft_Esd_TouchTag.c **** {
 689              		.loc 1 184 0
 690              		.cfi_startproc
 691              		@ args = 0, pretend = 0, frame = 8
 692              		@ frame_needed = 1, uses_anonymous_args = 0
 693              		@ link register save eliminated.
ARM GAS  /var/folders/n8/cvzdcwlj0vl4g_wtyz1ffy300000gn/T//ccBKBiSu.s 			page 16


 694 0000 80B4     		push	{r7}
 695              	.LCFI34:
 696              		.cfi_def_cfa_offset 4
 697              		.cfi_offset 7, -4
 698 0002 83B0     		sub	sp, sp, #12
 699              	.LCFI35:
 700              		.cfi_def_cfa_offset 16
 701 0004 00AF     		add	r7, sp, #0
 702              	.LCFI36:
 703              		.cfi_def_cfa_register 7
 704 0006 7860     		str	r0, [r7, #4]
 185:FT_Esd_Framework/Ft_Esd_TouchTag.c **** 	return context->Tag && (s_GpuRegTouchTag == context->Tag);
 705              		.loc 1 185 0
 706 0008 7B68     		ldr	r3, [r7, #4]
 707 000a 1B69     		ldr	r3, [r3, #16]
 708 000c 002B     		cmp	r3, #0
 709 000e 08D0     		beq	.L48
 710              		.loc 1 185 0 is_stmt 0 discriminator 1
 711 0010 084B     		ldr	r3, .L51
 712 0012 1B78     		ldrb	r3, [r3]	@ zero_extendqisi2
 713 0014 1A46     		mov	r2, r3
 714 0016 7B68     		ldr	r3, [r7, #4]
 715 0018 1B69     		ldr	r3, [r3, #16]
 716 001a 9A42     		cmp	r2, r3
 717 001c 01D1     		bne	.L48
 718              		.loc 1 185 0 discriminator 3
 719 001e 0123     		movs	r3, #1
 720 0020 00E0     		b	.L49
 721              	.L48:
 722              		.loc 1 185 0 discriminator 4
 723 0022 0023     		movs	r3, #0
 724              	.L49:
 725              		.loc 1 185 0 discriminator 6
 726 0024 DBB2     		uxtb	r3, r3
 186:FT_Esd_Framework/Ft_Esd_TouchTag.c **** }
 727              		.loc 1 186 0 is_stmt 1 discriminator 6
 728 0026 1846     		mov	r0, r3
 729 0028 0C37     		adds	r7, r7, #12
 730              	.LCFI37:
 731              		.cfi_def_cfa_offset 4
 732 002a BD46     		mov	sp, r7
 733              	.LCFI38:
 734              		.cfi_def_cfa_register 13
 735              		@ sp needed
 736 002c 5DF8047B 		ldr	r7, [sp], #4
 737              	.LCFI39:
 738              		.cfi_restore 7
 739              		.cfi_def_cfa_offset 0
 740 0030 7047     		bx	lr
 741              	.L52:
 742 0032 00BF     		.align	2
 743              	.L51:
 744 0034 00000000 		.word	s_GpuRegTouchTag
 745              		.cfi_endproc
 746              	.LFE9:
 748              		.section	.text.Ft_Esd_TouchTag_Tag,"ax",%progbits
 749              		.align	1
ARM GAS  /var/folders/n8/cvzdcwlj0vl4g_wtyz1ffy300000gn/T//ccBKBiSu.s 			page 17


 750              		.global	Ft_Esd_TouchTag_Tag
 751              		.syntax unified
 752              		.thumb
 753              		.thumb_func
 754              		.fpu fpv5-sp-d16
 756              	Ft_Esd_TouchTag_Tag:
 757              	.LFB10:
 187:FT_Esd_Framework/Ft_Esd_TouchTag.c **** 
 188:FT_Esd_Framework/Ft_Esd_TouchTag.c **** ft_uint8_t Ft_Esd_TouchTag_Tag(Ft_Esd_TouchTag *context)
 189:FT_Esd_Framework/Ft_Esd_TouchTag.c **** {
 758              		.loc 1 189 0
 759              		.cfi_startproc
 760              		@ args = 0, pretend = 0, frame = 8
 761              		@ frame_needed = 1, uses_anonymous_args = 0
 762              		@ link register save eliminated.
 763 0000 80B4     		push	{r7}
 764              	.LCFI40:
 765              		.cfi_def_cfa_offset 4
 766              		.cfi_offset 7, -4
 767 0002 83B0     		sub	sp, sp, #12
 768              	.LCFI41:
 769              		.cfi_def_cfa_offset 16
 770 0004 00AF     		add	r7, sp, #0
 771              	.LCFI42:
 772              		.cfi_def_cfa_register 7
 773 0006 7860     		str	r0, [r7, #4]
 190:FT_Esd_Framework/Ft_Esd_TouchTag.c **** 	if (context->Tag) return context->Tag;
 774              		.loc 1 190 0
 775 0008 7B68     		ldr	r3, [r7, #4]
 776 000a 1B69     		ldr	r3, [r3, #16]
 777 000c 002B     		cmp	r3, #0
 778 000e 03D0     		beq	.L54
 779              		.loc 1 190 0 is_stmt 0 discriminator 1
 780 0010 7B68     		ldr	r3, [r7, #4]
 781 0012 1B69     		ldr	r3, [r3, #16]
 782 0014 DBB2     		uxtb	r3, r3
 783 0016 00E0     		b	.L55
 784              	.L54:
 191:FT_Esd_Framework/Ft_Esd_TouchTag.c **** 	else return 255; // Always return non-tag value if no tag
 785              		.loc 1 191 0 is_stmt 1
 786 0018 FF23     		movs	r3, #255
 787              	.L55:
 192:FT_Esd_Framework/Ft_Esd_TouchTag.c **** }
 788              		.loc 1 192 0
 789 001a 1846     		mov	r0, r3
 790 001c 0C37     		adds	r7, r7, #12
 791              	.LCFI43:
 792              		.cfi_def_cfa_offset 4
 793 001e BD46     		mov	sp, r7
 794              	.LCFI44:
 795              		.cfi_def_cfa_register 13
 796              		@ sp needed
 797 0020 5DF8047B 		ldr	r7, [sp], #4
 798              	.LCFI45:
 799              		.cfi_restore 7
 800              		.cfi_def_cfa_offset 0
 801 0024 7047     		bx	lr
ARM GAS  /var/folders/n8/cvzdcwlj0vl4g_wtyz1ffy300000gn/T//ccBKBiSu.s 			page 18


 802              		.cfi_endproc
 803              	.LFE10:
 805              		.section	.text.Ft_Esd_TouchTag_CurrentTag,"ax",%progbits
 806              		.align	1
 807              		.global	Ft_Esd_TouchTag_CurrentTag
 808              		.syntax unified
 809              		.thumb
 810              		.thumb_func
 811              		.fpu fpv5-sp-d16
 813              	Ft_Esd_TouchTag_CurrentTag:
 814              	.LFB11:
 193:FT_Esd_Framework/Ft_Esd_TouchTag.c **** 
 194:FT_Esd_Framework/Ft_Esd_TouchTag.c **** ft_uint8_t Ft_Esd_TouchTag_CurrentTag(Ft_Esd_TouchTag *context)
 195:FT_Esd_Framework/Ft_Esd_TouchTag.c **** {
 815              		.loc 1 195 0
 816              		.cfi_startproc
 817              		@ args = 0, pretend = 0, frame = 8
 818              		@ frame_needed = 1, uses_anonymous_args = 0
 819              		@ link register save eliminated.
 820 0000 80B4     		push	{r7}
 821              	.LCFI46:
 822              		.cfi_def_cfa_offset 4
 823              		.cfi_offset 7, -4
 824 0002 83B0     		sub	sp, sp, #12
 825              	.LCFI47:
 826              		.cfi_def_cfa_offset 16
 827 0004 00AF     		add	r7, sp, #0
 828              	.LCFI48:
 829              		.cfi_def_cfa_register 7
 830 0006 7860     		str	r0, [r7, #4]
 196:FT_Esd_Framework/Ft_Esd_TouchTag.c **** 	return s_GpuRegTouchTag;
 831              		.loc 1 196 0
 832 0008 034B     		ldr	r3, .L58
 833 000a 1B78     		ldrb	r3, [r3]	@ zero_extendqisi2
 197:FT_Esd_Framework/Ft_Esd_TouchTag.c **** }
 834              		.loc 1 197 0
 835 000c 1846     		mov	r0, r3
 836 000e 0C37     		adds	r7, r7, #12
 837              	.LCFI49:
 838              		.cfi_def_cfa_offset 4
 839 0010 BD46     		mov	sp, r7
 840              	.LCFI50:
 841              		.cfi_def_cfa_register 13
 842              		@ sp needed
 843 0012 5DF8047B 		ldr	r7, [sp], #4
 844              	.LCFI51:
 845              		.cfi_restore 7
 846              		.cfi_def_cfa_offset 0
 847 0016 7047     		bx	lr
 848              	.L59:
 849              		.align	2
 850              	.L58:
 851 0018 00000000 		.word	s_GpuRegTouchTag
 852              		.cfi_endproc
 853              	.LFE11:
 855              		.section	.text.Ft_Esd_TouchTag_TouchX,"ax",%progbits
 856              		.align	1
ARM GAS  /var/folders/n8/cvzdcwlj0vl4g_wtyz1ffy300000gn/T//ccBKBiSu.s 			page 19


 857              		.global	Ft_Esd_TouchTag_TouchX
 858              		.syntax unified
 859              		.thumb
 860              		.thumb_func
 861              		.fpu fpv5-sp-d16
 863              	Ft_Esd_TouchTag_TouchX:
 864              	.LFB12:
 198:FT_Esd_Framework/Ft_Esd_TouchTag.c **** 
 199:FT_Esd_Framework/Ft_Esd_TouchTag.c **** ft_int16_t Ft_Esd_TouchTag_TouchX(Ft_Esd_TouchTag *context)
 200:FT_Esd_Framework/Ft_Esd_TouchTag.c **** {
 865              		.loc 1 200 0
 866              		.cfi_startproc
 867              		@ args = 0, pretend = 0, frame = 8
 868              		@ frame_needed = 1, uses_anonymous_args = 0
 869              		@ link register save eliminated.
 870 0000 80B4     		push	{r7}
 871              	.LCFI52:
 872              		.cfi_def_cfa_offset 4
 873              		.cfi_offset 7, -4
 874 0002 83B0     		sub	sp, sp, #12
 875              	.LCFI53:
 876              		.cfi_def_cfa_offset 16
 877 0004 00AF     		add	r7, sp, #0
 878              	.LCFI54:
 879              		.cfi_def_cfa_register 7
 880 0006 7860     		str	r0, [r7, #4]
 201:FT_Esd_Framework/Ft_Esd_TouchTag.c **** 	return s_TouchPos.X;
 881              		.loc 1 201 0
 882 0008 044B     		ldr	r3, .L62
 883 000a B3F90230 		ldrsh	r3, [r3, #2]
 202:FT_Esd_Framework/Ft_Esd_TouchTag.c **** }
 884              		.loc 1 202 0
 885 000e 1846     		mov	r0, r3
 886 0010 0C37     		adds	r7, r7, #12
 887              	.LCFI55:
 888              		.cfi_def_cfa_offset 4
 889 0012 BD46     		mov	sp, r7
 890              	.LCFI56:
 891              		.cfi_def_cfa_register 13
 892              		@ sp needed
 893 0014 5DF8047B 		ldr	r7, [sp], #4
 894              	.LCFI57:
 895              		.cfi_restore 7
 896              		.cfi_def_cfa_offset 0
 897 0018 7047     		bx	lr
 898              	.L63:
 899 001a 00BF     		.align	2
 900              	.L62:
 901 001c 00000000 		.word	s_TouchPos
 902              		.cfi_endproc
 903              	.LFE12:
 905              		.section	.text.Ft_Esd_TouchTag_TouchY,"ax",%progbits
 906              		.align	1
 907              		.global	Ft_Esd_TouchTag_TouchY
 908              		.syntax unified
 909              		.thumb
 910              		.thumb_func
ARM GAS  /var/folders/n8/cvzdcwlj0vl4g_wtyz1ffy300000gn/T//ccBKBiSu.s 			page 20


 911              		.fpu fpv5-sp-d16
 913              	Ft_Esd_TouchTag_TouchY:
 914              	.LFB13:
 203:FT_Esd_Framework/Ft_Esd_TouchTag.c **** 
 204:FT_Esd_Framework/Ft_Esd_TouchTag.c **** ft_int16_t Ft_Esd_TouchTag_TouchY(Ft_Esd_TouchTag *context)
 205:FT_Esd_Framework/Ft_Esd_TouchTag.c **** {
 915              		.loc 1 205 0
 916              		.cfi_startproc
 917              		@ args = 0, pretend = 0, frame = 8
 918              		@ frame_needed = 1, uses_anonymous_args = 0
 919              		@ link register save eliminated.
 920 0000 80B4     		push	{r7}
 921              	.LCFI58:
 922              		.cfi_def_cfa_offset 4
 923              		.cfi_offset 7, -4
 924 0002 83B0     		sub	sp, sp, #12
 925              	.LCFI59:
 926              		.cfi_def_cfa_offset 16
 927 0004 00AF     		add	r7, sp, #0
 928              	.LCFI60:
 929              		.cfi_def_cfa_register 7
 930 0006 7860     		str	r0, [r7, #4]
 206:FT_Esd_Framework/Ft_Esd_TouchTag.c **** 	return s_TouchPos.Y;
 931              		.loc 1 206 0
 932 0008 044B     		ldr	r3, .L66
 933 000a B3F90030 		ldrsh	r3, [r3]
 207:FT_Esd_Framework/Ft_Esd_TouchTag.c **** }
 934              		.loc 1 207 0
 935 000e 1846     		mov	r0, r3
 936 0010 0C37     		adds	r7, r7, #12
 937              	.LCFI61:
 938              		.cfi_def_cfa_offset 4
 939 0012 BD46     		mov	sp, r7
 940              	.LCFI62:
 941              		.cfi_def_cfa_register 13
 942              		@ sp needed
 943 0014 5DF8047B 		ldr	r7, [sp], #4
 944              	.LCFI63:
 945              		.cfi_restore 7
 946              		.cfi_def_cfa_offset 0
 947 0018 7047     		bx	lr
 948              	.L67:
 949 001a 00BF     		.align	2
 950              	.L66:
 951 001c 00000000 		.word	s_TouchPos
 952              		.cfi_endproc
 953              	.LFE13:
 955              		.section	.text.Ft_Esd_TouchTag_SuppressCurrentTags,"ax",%progbits
 956              		.align	1
 957              		.global	Ft_Esd_TouchTag_SuppressCurrentTags
 958              		.syntax unified
 959              		.thumb
 960              		.thumb_func
 961              		.fpu fpv5-sp-d16
 963              	Ft_Esd_TouchTag_SuppressCurrentTags:
 964              	.LFB14:
 208:FT_Esd_Framework/Ft_Esd_TouchTag.c **** 
ARM GAS  /var/folders/n8/cvzdcwlj0vl4g_wtyz1ffy300000gn/T//ccBKBiSu.s 			page 21


 209:FT_Esd_Framework/Ft_Esd_TouchTag.c **** void Ft_Esd_TouchTag_SuppressCurrentTags()
 210:FT_Esd_Framework/Ft_Esd_TouchTag.c **** {
 965              		.loc 1 210 0
 966              		.cfi_startproc
 967              		@ args = 0, pretend = 0, frame = 0
 968              		@ frame_needed = 1, uses_anonymous_args = 0
 969              		@ link register save eliminated.
 970 0000 80B4     		push	{r7}
 971              	.LCFI64:
 972              		.cfi_def_cfa_offset 4
 973              		.cfi_offset 7, -4
 974 0002 00AF     		add	r7, sp, #0
 975              	.LCFI65:
 976              		.cfi_def_cfa_register 7
 211:FT_Esd_Framework/Ft_Esd_TouchTag.c **** 	s_SuppressCurrentTags = 1;
 977              		.loc 1 211 0
 978 0004 034B     		ldr	r3, .L69
 979 0006 0122     		movs	r2, #1
 980 0008 1A70     		strb	r2, [r3]
 212:FT_Esd_Framework/Ft_Esd_TouchTag.c **** }
 981              		.loc 1 212 0
 982 000a 00BF     		nop
 983 000c BD46     		mov	sp, r7
 984              	.LCFI66:
 985              		.cfi_def_cfa_register 13
 986              		@ sp needed
 987 000e 5DF8047B 		ldr	r7, [sp], #4
 988              	.LCFI67:
 989              		.cfi_restore 7
 990              		.cfi_def_cfa_offset 0
 991 0012 7047     		bx	lr
 992              	.L70:
 993              		.align	2
 994              	.L69:
 995 0014 00000000 		.word	s_SuppressCurrentTags
 996              		.cfi_endproc
 997              	.LFE14:
 999              		.text
 1000              	.Letext0:
 1001              		.file 2 "FT_Eve_Hal/FT_DataTypes.h"
 1002              		.file 3 "/usr/local/Cellar/arm-none-eabi-gcc/20180627/arm-none-eabi/include/sys/lock.h"
 1003              		.file 4 "/usr/local/Cellar/arm-none-eabi-gcc/20180627/arm-none-eabi/include/sys/_types.h"
 1004              		.file 5 "/usr/local/Cellar/arm-none-eabi-gcc/20180627/lib/gcc/arm-none-eabi/7.3.1/include/stddef.h
 1005              		.file 6 "/usr/local/Cellar/arm-none-eabi-gcc/20180627/arm-none-eabi/include/sys/unistd.h"
 1006              		.file 7 "/usr/local/Cellar/arm-none-eabi-gcc/20180627/arm-none-eabi/include/sys/reent.h"
 1007              		.file 8 "/usr/local/Cellar/arm-none-eabi-gcc/20180627/arm-none-eabi/include/stdlib.h"
 1008              		.file 9 "FT_Eve_Hal/FT_Gpu_Hal.h"
 1009              		.file 10 "FT_Esd_Framework/Ft_Esd_TouchTag.h"
ARM GAS  /var/folders/n8/cvzdcwlj0vl4g_wtyz1ffy300000gn/T//ccBKBiSu.s 			page 22

