ARM GAS  /var/folders/n8/cvzdcwlj0vl4g_wtyz1ffy300000gn/T//cc3GtHRW.s 			page 1


   1              		.cpu cortex-m7
   2              		.eabi_attribute 27, 1
   3              		.eabi_attribute 28, 1
   4              		.eabi_attribute 20, 1
   5              		.eabi_attribute 21, 1
   6              		.eabi_attribute 23, 3
   7              		.eabi_attribute 24, 1
   8              		.eabi_attribute 25, 1
   9              		.eabi_attribute 26, 1
  10              		.eabi_attribute 30, 6
  11              		.eabi_attribute 34, 1
  12              		.eabi_attribute 18, 4
  13              		.file	"Ft_Esd_RadioGroup__Generated.c"
  14              		.text
  15              	.Ltext0:
  16              		.cfi_sections	.debug_frame
  17              		.section	.text.Ft_Esd_RadioGroup__Initializer,"ax",%progbits
  18              		.align	1
  19              		.global	Ft_Esd_RadioGroup__Initializer
  20              		.syntax unified
  21              		.thumb
  22              		.thumb_func
  23              		.fpu fpv5-sp-d16
  25              	Ft_Esd_RadioGroup__Initializer:
  26              	.LFB3:
  27              		.file 1 "FT_Esd_Widgets/Ft_Esd_RadioGroup__Generated.c"
   1:FT_Esd_Widgets/Ft_Esd_RadioGroup__Generated.c **** /*
   2:FT_Esd_Widgets/Ft_Esd_RadioGroup__Generated.c **** This file is automatically generated
   3:FT_Esd_Widgets/Ft_Esd_RadioGroup__Generated.c **** Ft_Esd_RadioGroup
   4:FT_Esd_Widgets/Ft_Esd_RadioGroup__Generated.c **** C Source
   5:FT_Esd_Widgets/Ft_Esd_RadioGroup__Generated.c **** */
   6:FT_Esd_Widgets/Ft_Esd_RadioGroup__Generated.c **** 
   7:FT_Esd_Widgets/Ft_Esd_RadioGroup__Generated.c **** #include "Ft_Esd_RadioGroup.h"
   8:FT_Esd_Widgets/Ft_Esd_RadioGroup__Generated.c **** 
   9:FT_Esd_Widgets/Ft_Esd_RadioGroup__Generated.c **** 
  10:FT_Esd_Widgets/Ft_Esd_RadioGroup__Generated.c **** extern void Ft_Esd_Noop(void *context);
  11:FT_Esd_Widgets/Ft_Esd_RadioGroup__Generated.c **** 
  12:FT_Esd_Widgets/Ft_Esd_RadioGroup__Generated.c **** 
  13:FT_Esd_Widgets/Ft_Esd_RadioGroup__Generated.c **** 
  14:FT_Esd_Widgets/Ft_Esd_RadioGroup__Generated.c **** void Ft_Esd_RadioGroup__Initializer(Ft_Esd_RadioGroup *context)
  15:FT_Esd_Widgets/Ft_Esd_RadioGroup__Generated.c **** {
  28              		.loc 1 15 0
  29              		.cfi_startproc
  30              		@ args = 0, pretend = 0, frame = 8
  31              		@ frame_needed = 1, uses_anonymous_args = 0
  32              		@ link register save eliminated.
  33 0000 80B4     		push	{r7}
  34              	.LCFI0:
  35              		.cfi_def_cfa_offset 4
  36              		.cfi_offset 7, -4
  37 0002 83B0     		sub	sp, sp, #12
  38              	.LCFI1:
  39              		.cfi_def_cfa_offset 16
  40 0004 00AF     		add	r7, sp, #0
  41              	.LCFI2:
  42              		.cfi_def_cfa_register 7
  43 0006 7860     		str	r0, [r7, #4]
ARM GAS  /var/folders/n8/cvzdcwlj0vl4g_wtyz1ffy300000gn/T//cc3GtHRW.s 			page 2


  16:FT_Esd_Widgets/Ft_Esd_RadioGroup__Generated.c **** 	context->Parent = 0;
  44              		.loc 1 16 0
  45 0008 7B68     		ldr	r3, [r7, #4]
  46 000a 0022     		movs	r2, #0
  47 000c 1A60     		str	r2, [r3]
  17:FT_Esd_Widgets/Ft_Esd_RadioGroup__Generated.c **** 	context->Checked = 0x0;
  48              		.loc 1 17 0
  49 000e 7B68     		ldr	r3, [r7, #4]
  50 0010 0022     		movs	r2, #0
  51 0012 5A60     		str	r2, [r3, #4]
  18:FT_Esd_Widgets/Ft_Esd_RadioGroup__Generated.c **** }
  52              		.loc 1 18 0
  53 0014 00BF     		nop
  54 0016 0C37     		adds	r7, r7, #12
  55              	.LCFI3:
  56              		.cfi_def_cfa_offset 4
  57 0018 BD46     		mov	sp, r7
  58              	.LCFI4:
  59              		.cfi_def_cfa_register 13
  60              		@ sp needed
  61 001a 5DF8047B 		ldr	r7, [sp], #4
  62              	.LCFI5:
  63              		.cfi_restore 7
  64              		.cfi_def_cfa_offset 0
  65 001e 7047     		bx	lr
  66              		.cfi_endproc
  67              	.LFE3:
  69              		.section	.text.Ft_Esd_RadioGroup_Reset,"ax",%progbits
  70              		.align	1
  71              		.global	Ft_Esd_RadioGroup_Reset
  72              		.syntax unified
  73              		.thumb
  74              		.thumb_func
  75              		.fpu fpv5-sp-d16
  77              	Ft_Esd_RadioGroup_Reset:
  78              	.LFB4:
  19:FT_Esd_Widgets/Ft_Esd_RadioGroup__Generated.c **** 
  20:FT_Esd_Widgets/Ft_Esd_RadioGroup__Generated.c **** void Ft_Esd_RadioGroup_Reset_Signal(Ft_Esd_RadioGroup *context);
  21:FT_Esd_Widgets/Ft_Esd_RadioGroup__Generated.c **** Ft_Esd_RadioGroup * Ft_Esd_RadioGroup_GetPointer(Ft_Esd_RadioGroup *context);
  22:FT_Esd_Widgets/Ft_Esd_RadioGroup__Generated.c **** 
  23:FT_Esd_Widgets/Ft_Esd_RadioGroup__Generated.c **** void Ft_Esd_RadioGroup_Reset(Ft_Esd_RadioGroup *context)
  24:FT_Esd_Widgets/Ft_Esd_RadioGroup__Generated.c **** {
  79              		.loc 1 24 0
  80              		.cfi_startproc
  81              		@ args = 0, pretend = 0, frame = 16
  82              		@ frame_needed = 1, uses_anonymous_args = 0
  83 0000 80B5     		push	{r7, lr}
  84              	.LCFI6:
  85              		.cfi_def_cfa_offset 8
  86              		.cfi_offset 7, -8
  87              		.cfi_offset 14, -4
  88 0002 84B0     		sub	sp, sp, #16
  89              	.LCFI7:
  90              		.cfi_def_cfa_offset 24
  91 0004 00AF     		add	r7, sp, #0
  92              	.LCFI8:
  93              		.cfi_def_cfa_register 7
ARM GAS  /var/folders/n8/cvzdcwlj0vl4g_wtyz1ffy300000gn/T//cc3GtHRW.s 			page 3


  94 0006 7860     		str	r0, [r7, #4]
  25:FT_Esd_Widgets/Ft_Esd_RadioGroup__Generated.c **** 	void *parent = context->Parent;
  95              		.loc 1 25 0
  96 0008 7B68     		ldr	r3, [r7, #4]
  97 000a 1B68     		ldr	r3, [r3]
  98 000c FB60     		str	r3, [r7, #12]
  26:FT_Esd_Widgets/Ft_Esd_RadioGroup__Generated.c **** 	Ft_Esd_RadioGroup_Reset_Signal(context);
  99              		.loc 1 26 0
 100 000e 7868     		ldr	r0, [r7, #4]
 101 0010 FFF7FEFF 		bl	Ft_Esd_RadioGroup_Reset_Signal
  27:FT_Esd_Widgets/Ft_Esd_RadioGroup__Generated.c **** }
 102              		.loc 1 27 0
 103 0014 00BF     		nop
 104 0016 1037     		adds	r7, r7, #16
 105              	.LCFI9:
 106              		.cfi_def_cfa_offset 8
 107 0018 BD46     		mov	sp, r7
 108              	.LCFI10:
 109              		.cfi_def_cfa_register 13
 110              		@ sp needed
 111 001a 80BD     		pop	{r7, pc}
 112              		.cfi_endproc
 113              	.LFE4:
 115              		.section	.text.Ft_Esd_RadioGroup_Pointer,"ax",%progbits
 116              		.align	1
 117              		.global	Ft_Esd_RadioGroup_Pointer
 118              		.syntax unified
 119              		.thumb
 120              		.thumb_func
 121              		.fpu fpv5-sp-d16
 123              	Ft_Esd_RadioGroup_Pointer:
 124              	.LFB5:
  28:FT_Esd_Widgets/Ft_Esd_RadioGroup__Generated.c **** 
  29:FT_Esd_Widgets/Ft_Esd_RadioGroup__Generated.c **** Ft_Esd_RadioGroup * Ft_Esd_RadioGroup_Pointer(Ft_Esd_RadioGroup *context)
  30:FT_Esd_Widgets/Ft_Esd_RadioGroup__Generated.c **** {
 125              		.loc 1 30 0
 126              		.cfi_startproc
 127              		@ args = 0, pretend = 0, frame = 16
 128              		@ frame_needed = 1, uses_anonymous_args = 0
 129 0000 80B5     		push	{r7, lr}
 130              	.LCFI11:
 131              		.cfi_def_cfa_offset 8
 132              		.cfi_offset 7, -8
 133              		.cfi_offset 14, -4
 134 0002 84B0     		sub	sp, sp, #16
 135              	.LCFI12:
 136              		.cfi_def_cfa_offset 24
 137 0004 00AF     		add	r7, sp, #0
 138              	.LCFI13:
 139              		.cfi_def_cfa_register 7
 140 0006 7860     		str	r0, [r7, #4]
  31:FT_Esd_Widgets/Ft_Esd_RadioGroup__Generated.c **** 	void *parent = context->Parent;
 141              		.loc 1 31 0
 142 0008 7B68     		ldr	r3, [r7, #4]
 143 000a 1B68     		ldr	r3, [r3]
 144 000c FB60     		str	r3, [r7, #12]
  32:FT_Esd_Widgets/Ft_Esd_RadioGroup__Generated.c **** 	return Ft_Esd_RadioGroup_GetPointer(context);
ARM GAS  /var/folders/n8/cvzdcwlj0vl4g_wtyz1ffy300000gn/T//cc3GtHRW.s 			page 4


 145              		.loc 1 32 0
 146 000e 7868     		ldr	r0, [r7, #4]
 147 0010 FFF7FEFF 		bl	Ft_Esd_RadioGroup_GetPointer
 148 0014 0346     		mov	r3, r0
  33:FT_Esd_Widgets/Ft_Esd_RadioGroup__Generated.c **** }
 149              		.loc 1 33 0
 150 0016 1846     		mov	r0, r3
 151 0018 1037     		adds	r7, r7, #16
 152              	.LCFI14:
 153              		.cfi_def_cfa_offset 8
 154 001a BD46     		mov	sp, r7
 155              	.LCFI15:
 156              		.cfi_def_cfa_register 13
 157              		@ sp needed
 158 001c 80BD     		pop	{r7, pc}
 159              		.cfi_endproc
 160              	.LFE5:
 162              		.text
 163              	.Letext0:
 164              		.file 2 "/usr/local/Cellar/arm-none-eabi-gcc/20180627/arm-none-eabi/include/sys/lock.h"
 165              		.file 3 "/usr/local/Cellar/arm-none-eabi-gcc/20180627/arm-none-eabi/include/sys/_types.h"
 166              		.file 4 "/usr/local/Cellar/arm-none-eabi-gcc/20180627/lib/gcc/arm-none-eabi/7.3.1/include/stddef.h
 167              		.file 5 "/usr/local/Cellar/arm-none-eabi-gcc/20180627/arm-none-eabi/include/sys/unistd.h"
 168              		.file 6 "/usr/local/Cellar/arm-none-eabi-gcc/20180627/arm-none-eabi/include/sys/reent.h"
 169              		.file 7 "/usr/local/Cellar/arm-none-eabi-gcc/20180627/arm-none-eabi/include/stdlib.h"
 170              		.file 8 "FT_Esd_Widgets/Ft_Esd_RadioGroup.h"
ARM GAS  /var/folders/n8/cvzdcwlj0vl4g_wtyz1ffy300000gn/T//cc3GtHRW.s 			page 5

