ARM GAS  /var/folders/n8/cvzdcwlj0vl4g_wtyz1ffy300000gn/T//cc6XqDjU.s 			page 1


   1              		.cpu cortex-m7
   2              		.eabi_attribute 27, 1
   3              		.eabi_attribute 28, 1
   4              		.eabi_attribute 20, 1
   5              		.eabi_attribute 21, 1
   6              		.eabi_attribute 23, 3
   7              		.eabi_attribute 24, 1
   8              		.eabi_attribute 25, 1
   9              		.eabi_attribute 26, 1
  10              		.eabi_attribute 30, 6
  11              		.eabi_attribute 34, 1
  12              		.eabi_attribute 18, 4
  13              		.file	"Ft_Esd_PosSizeToRadius__Generated.c"
  14              		.text
  15              	.Ltext0:
  16              		.cfi_sections	.debug_frame
  17              		.section	.text.Ft_Esd_PosSizeToRadius_X__Default,"ax",%progbits
  18              		.align	1
  19              		.global	Ft_Esd_PosSizeToRadius_X__Default
  20              		.syntax unified
  21              		.thumb
  22              		.thumb_func
  23              		.fpu fpv5-sp-d16
  25              	Ft_Esd_PosSizeToRadius_X__Default:
  26              	.LFB3:
  27              		.file 1 "FT_Esd_Widgets/Ft_Esd_PosSizeToRadius__Generated.c"
   1:FT_Esd_Widgets/Ft_Esd_PosSizeToRadius__Generated.c **** /*
   2:FT_Esd_Widgets/Ft_Esd_PosSizeToRadius__Generated.c **** This file is automatically generated
   3:FT_Esd_Widgets/Ft_Esd_PosSizeToRadius__Generated.c **** Ft_Esd_PosSizeToRadius
   4:FT_Esd_Widgets/Ft_Esd_PosSizeToRadius__Generated.c **** C Source
   5:FT_Esd_Widgets/Ft_Esd_PosSizeToRadius__Generated.c **** */
   6:FT_Esd_Widgets/Ft_Esd_PosSizeToRadius__Generated.c **** 
   7:FT_Esd_Widgets/Ft_Esd_PosSizeToRadius__Generated.c **** #include "Ft_Esd_PosSizeToRadius.h"
   8:FT_Esd_Widgets/Ft_Esd_PosSizeToRadius__Generated.c **** 
   9:FT_Esd_Widgets/Ft_Esd_PosSizeToRadius__Generated.c **** extern void Ft_Esd_Noop(void *context);
  10:FT_Esd_Widgets/Ft_Esd_PosSizeToRadius__Generated.c **** ft_int16_t Ft_Esd_PosSizeToRadius_X__Default(void *context) { return 0; }
  28              		.loc 1 10 0
  29              		.cfi_startproc
  30              		@ args = 0, pretend = 0, frame = 8
  31              		@ frame_needed = 1, uses_anonymous_args = 0
  32              		@ link register save eliminated.
  33 0000 80B4     		push	{r7}
  34              	.LCFI0:
  35              		.cfi_def_cfa_offset 4
  36              		.cfi_offset 7, -4
  37 0002 83B0     		sub	sp, sp, #12
  38              	.LCFI1:
  39              		.cfi_def_cfa_offset 16
  40 0004 00AF     		add	r7, sp, #0
  41              	.LCFI2:
  42              		.cfi_def_cfa_register 7
  43 0006 7860     		str	r0, [r7, #4]
  44              		.loc 1 10 0
  45 0008 0023     		movs	r3, #0
  46 000a 1846     		mov	r0, r3
  47 000c 0C37     		adds	r7, r7, #12
  48              	.LCFI3:
ARM GAS  /var/folders/n8/cvzdcwlj0vl4g_wtyz1ffy300000gn/T//cc6XqDjU.s 			page 2


  49              		.cfi_def_cfa_offset 4
  50 000e BD46     		mov	sp, r7
  51              	.LCFI4:
  52              		.cfi_def_cfa_register 13
  53              		@ sp needed
  54 0010 5DF8047B 		ldr	r7, [sp], #4
  55              	.LCFI5:
  56              		.cfi_restore 7
  57              		.cfi_def_cfa_offset 0
  58 0014 7047     		bx	lr
  59              		.cfi_endproc
  60              	.LFE3:
  62              		.section	.text.Ft_Esd_PosSizeToRadius_Y__Default,"ax",%progbits
  63              		.align	1
  64              		.global	Ft_Esd_PosSizeToRadius_Y__Default
  65              		.syntax unified
  66              		.thumb
  67              		.thumb_func
  68              		.fpu fpv5-sp-d16
  70              	Ft_Esd_PosSizeToRadius_Y__Default:
  71              	.LFB4:
  11:FT_Esd_Widgets/Ft_Esd_PosSizeToRadius__Generated.c **** ft_int16_t Ft_Esd_PosSizeToRadius_Y__Default(void *context) { return 0; }
  72              		.loc 1 11 0
  73              		.cfi_startproc
  74              		@ args = 0, pretend = 0, frame = 8
  75              		@ frame_needed = 1, uses_anonymous_args = 0
  76              		@ link register save eliminated.
  77 0000 80B4     		push	{r7}
  78              	.LCFI6:
  79              		.cfi_def_cfa_offset 4
  80              		.cfi_offset 7, -4
  81 0002 83B0     		sub	sp, sp, #12
  82              	.LCFI7:
  83              		.cfi_def_cfa_offset 16
  84 0004 00AF     		add	r7, sp, #0
  85              	.LCFI8:
  86              		.cfi_def_cfa_register 7
  87 0006 7860     		str	r0, [r7, #4]
  88              		.loc 1 11 0
  89 0008 0023     		movs	r3, #0
  90 000a 1846     		mov	r0, r3
  91 000c 0C37     		adds	r7, r7, #12
  92              	.LCFI9:
  93              		.cfi_def_cfa_offset 4
  94 000e BD46     		mov	sp, r7
  95              	.LCFI10:
  96              		.cfi_def_cfa_register 13
  97              		@ sp needed
  98 0010 5DF8047B 		ldr	r7, [sp], #4
  99              	.LCFI11:
 100              		.cfi_restore 7
 101              		.cfi_def_cfa_offset 0
 102 0014 7047     		bx	lr
 103              		.cfi_endproc
 104              	.LFE4:
 106              		.section	.text.Ft_Esd_PosSizeToRadius_Width__Default,"ax",%progbits
 107              		.align	1
ARM GAS  /var/folders/n8/cvzdcwlj0vl4g_wtyz1ffy300000gn/T//cc6XqDjU.s 			page 3


 108              		.global	Ft_Esd_PosSizeToRadius_Width__Default
 109              		.syntax unified
 110              		.thumb
 111              		.thumb_func
 112              		.fpu fpv5-sp-d16
 114              	Ft_Esd_PosSizeToRadius_Width__Default:
 115              	.LFB5:
  12:FT_Esd_Widgets/Ft_Esd_PosSizeToRadius__Generated.c **** ft_int16_t Ft_Esd_PosSizeToRadius_Width__Default(void *context) { return 0; }
 116              		.loc 1 12 0
 117              		.cfi_startproc
 118              		@ args = 0, pretend = 0, frame = 8
 119              		@ frame_needed = 1, uses_anonymous_args = 0
 120              		@ link register save eliminated.
 121 0000 80B4     		push	{r7}
 122              	.LCFI12:
 123              		.cfi_def_cfa_offset 4
 124              		.cfi_offset 7, -4
 125 0002 83B0     		sub	sp, sp, #12
 126              	.LCFI13:
 127              		.cfi_def_cfa_offset 16
 128 0004 00AF     		add	r7, sp, #0
 129              	.LCFI14:
 130              		.cfi_def_cfa_register 7
 131 0006 7860     		str	r0, [r7, #4]
 132              		.loc 1 12 0
 133 0008 0023     		movs	r3, #0
 134 000a 1846     		mov	r0, r3
 135 000c 0C37     		adds	r7, r7, #12
 136              	.LCFI15:
 137              		.cfi_def_cfa_offset 4
 138 000e BD46     		mov	sp, r7
 139              	.LCFI16:
 140              		.cfi_def_cfa_register 13
 141              		@ sp needed
 142 0010 5DF8047B 		ldr	r7, [sp], #4
 143              	.LCFI17:
 144              		.cfi_restore 7
 145              		.cfi_def_cfa_offset 0
 146 0014 7047     		bx	lr
 147              		.cfi_endproc
 148              	.LFE5:
 150              		.section	.text.Ft_Esd_PosSizeToRadius_Height__Default,"ax",%progbits
 151              		.align	1
 152              		.global	Ft_Esd_PosSizeToRadius_Height__Default
 153              		.syntax unified
 154              		.thumb
 155              		.thumb_func
 156              		.fpu fpv5-sp-d16
 158              	Ft_Esd_PosSizeToRadius_Height__Default:
 159              	.LFB6:
  13:FT_Esd_Widgets/Ft_Esd_PosSizeToRadius__Generated.c **** ft_int16_t Ft_Esd_PosSizeToRadius_Height__Default(void *context) { return 0; }
 160              		.loc 1 13 0
 161              		.cfi_startproc
 162              		@ args = 0, pretend = 0, frame = 8
 163              		@ frame_needed = 1, uses_anonymous_args = 0
 164              		@ link register save eliminated.
 165 0000 80B4     		push	{r7}
ARM GAS  /var/folders/n8/cvzdcwlj0vl4g_wtyz1ffy300000gn/T//cc6XqDjU.s 			page 4


 166              	.LCFI18:
 167              		.cfi_def_cfa_offset 4
 168              		.cfi_offset 7, -4
 169 0002 83B0     		sub	sp, sp, #12
 170              	.LCFI19:
 171              		.cfi_def_cfa_offset 16
 172 0004 00AF     		add	r7, sp, #0
 173              	.LCFI20:
 174              		.cfi_def_cfa_register 7
 175 0006 7860     		str	r0, [r7, #4]
 176              		.loc 1 13 0
 177 0008 0023     		movs	r3, #0
 178 000a 1846     		mov	r0, r3
 179 000c 0C37     		adds	r7, r7, #12
 180              	.LCFI21:
 181              		.cfi_def_cfa_offset 4
 182 000e BD46     		mov	sp, r7
 183              	.LCFI22:
 184              		.cfi_def_cfa_register 13
 185              		@ sp needed
 186 0010 5DF8047B 		ldr	r7, [sp], #4
 187              	.LCFI23:
 188              		.cfi_restore 7
 189              		.cfi_def_cfa_offset 0
 190 0014 7047     		bx	lr
 191              		.cfi_endproc
 192              	.LFE6:
 194              		.section	.text.Ft_Esd_PosSizeToRadius__Initializer,"ax",%progbits
 195              		.align	1
 196              		.global	Ft_Esd_PosSizeToRadius__Initializer
 197              		.syntax unified
 198              		.thumb
 199              		.thumb_func
 200              		.fpu fpv5-sp-d16
 202              	Ft_Esd_PosSizeToRadius__Initializer:
 203              	.LFB7:
  14:FT_Esd_Widgets/Ft_Esd_PosSizeToRadius__Generated.c **** 
  15:FT_Esd_Widgets/Ft_Esd_PosSizeToRadius__Generated.c **** 
  16:FT_Esd_Widgets/Ft_Esd_PosSizeToRadius__Generated.c **** 
  17:FT_Esd_Widgets/Ft_Esd_PosSizeToRadius__Generated.c **** void Ft_Esd_PosSizeToRadius__Initializer(Ft_Esd_PosSizeToRadius *context)
  18:FT_Esd_Widgets/Ft_Esd_PosSizeToRadius__Generated.c **** {
 204              		.loc 1 18 0
 205              		.cfi_startproc
 206              		@ args = 0, pretend = 0, frame = 8
 207              		@ frame_needed = 1, uses_anonymous_args = 0
 208              		@ link register save eliminated.
 209 0000 80B4     		push	{r7}
 210              	.LCFI24:
 211              		.cfi_def_cfa_offset 4
 212              		.cfi_offset 7, -4
 213 0002 83B0     		sub	sp, sp, #12
 214              	.LCFI25:
 215              		.cfi_def_cfa_offset 16
 216 0004 00AF     		add	r7, sp, #0
 217              	.LCFI26:
 218              		.cfi_def_cfa_register 7
 219 0006 7860     		str	r0, [r7, #4]
ARM GAS  /var/folders/n8/cvzdcwlj0vl4g_wtyz1ffy300000gn/T//cc6XqDjU.s 			page 5


  19:FT_Esd_Widgets/Ft_Esd_PosSizeToRadius__Generated.c **** 	context->Parent = 0;
 220              		.loc 1 19 0
 221 0008 7B68     		ldr	r3, [r7, #4]
 222 000a 0022     		movs	r2, #0
 223 000c 1A60     		str	r2, [r3]
  20:FT_Esd_Widgets/Ft_Esd_PosSizeToRadius__Generated.c **** 	context->X = Ft_Esd_PosSizeToRadius_X__Default;
 224              		.loc 1 20 0
 225 000e 7B68     		ldr	r3, [r7, #4]
 226 0010 084A     		ldr	r2, .L10
 227 0012 5A60     		str	r2, [r3, #4]
  21:FT_Esd_Widgets/Ft_Esd_PosSizeToRadius__Generated.c **** 	context->Y = Ft_Esd_PosSizeToRadius_Y__Default;
 228              		.loc 1 21 0
 229 0014 7B68     		ldr	r3, [r7, #4]
 230 0016 084A     		ldr	r2, .L10+4
 231 0018 9A60     		str	r2, [r3, #8]
  22:FT_Esd_Widgets/Ft_Esd_PosSizeToRadius__Generated.c **** 	context->Width = Ft_Esd_PosSizeToRadius_Width__Default;
 232              		.loc 1 22 0
 233 001a 7B68     		ldr	r3, [r7, #4]
 234 001c 074A     		ldr	r2, .L10+8
 235 001e DA60     		str	r2, [r3, #12]
  23:FT_Esd_Widgets/Ft_Esd_PosSizeToRadius__Generated.c **** 	context->Height = Ft_Esd_PosSizeToRadius_Height__Default;
 236              		.loc 1 23 0
 237 0020 7B68     		ldr	r3, [r7, #4]
 238 0022 074A     		ldr	r2, .L10+12
 239 0024 1A61     		str	r2, [r3, #16]
  24:FT_Esd_Widgets/Ft_Esd_PosSizeToRadius__Generated.c **** }
 240              		.loc 1 24 0
 241 0026 00BF     		nop
 242 0028 0C37     		adds	r7, r7, #12
 243              	.LCFI27:
 244              		.cfi_def_cfa_offset 4
 245 002a BD46     		mov	sp, r7
 246              	.LCFI28:
 247              		.cfi_def_cfa_register 13
 248              		@ sp needed
 249 002c 5DF8047B 		ldr	r7, [sp], #4
 250              	.LCFI29:
 251              		.cfi_restore 7
 252              		.cfi_def_cfa_offset 0
 253 0030 7047     		bx	lr
 254              	.L11:
 255 0032 00BF     		.align	2
 256              	.L10:
 257 0034 00000000 		.word	Ft_Esd_PosSizeToRadius_X__Default
 258 0038 00000000 		.word	Ft_Esd_PosSizeToRadius_Y__Default
 259 003c 00000000 		.word	Ft_Esd_PosSizeToRadius_Width__Default
 260 0040 00000000 		.word	Ft_Esd_PosSizeToRadius_Height__Default
 261              		.cfi_endproc
 262              	.LFE7:
 264              		.section	.text.Ft_Esd_PosSizeToRadius_Radius,"ax",%progbits
 265              		.align	1
 266              		.global	Ft_Esd_PosSizeToRadius_Radius
 267              		.syntax unified
 268              		.thumb
 269              		.thumb_func
 270              		.fpu fpv5-sp-d16
 272              	Ft_Esd_PosSizeToRadius_Radius:
ARM GAS  /var/folders/n8/cvzdcwlj0vl4g_wtyz1ffy300000gn/T//cc6XqDjU.s 			page 6


 273              	.LFB8:
  25:FT_Esd_Widgets/Ft_Esd_PosSizeToRadius__Generated.c **** 
  26:FT_Esd_Widgets/Ft_Esd_PosSizeToRadius__Generated.c **** ft_int16_t Ft_Esd_PosSizeToRadius_Radius(Ft_Esd_PosSizeToRadius *context)
  27:FT_Esd_Widgets/Ft_Esd_PosSizeToRadius__Generated.c **** {
 274              		.loc 1 27 0
 275              		.cfi_startproc
 276              		@ args = 0, pretend = 0, frame = 40
 277              		@ frame_needed = 1, uses_anonymous_args = 0
 278 0000 80B5     		push	{r7, lr}
 279              	.LCFI30:
 280              		.cfi_def_cfa_offset 8
 281              		.cfi_offset 7, -8
 282              		.cfi_offset 14, -4
 283 0002 8AB0     		sub	sp, sp, #40
 284              	.LCFI31:
 285              		.cfi_def_cfa_offset 48
 286 0004 00AF     		add	r7, sp, #0
 287              	.LCFI32:
 288              		.cfi_def_cfa_register 7
 289 0006 7860     		str	r0, [r7, #4]
  28:FT_Esd_Widgets/Ft_Esd_PosSizeToRadius__Generated.c **** 	void *parent = context->Parent;
 290              		.loc 1 28 0
 291 0008 7B68     		ldr	r3, [r7, #4]
 292 000a 1B68     		ldr	r3, [r3]
 293 000c 7B62     		str	r3, [r7, #36]
  29:FT_Esd_Widgets/Ft_Esd_PosSizeToRadius__Generated.c **** 	ft_int16_t left_1 = context->Width(parent);
 294              		.loc 1 29 0
 295 000e 7B68     		ldr	r3, [r7, #4]
 296 0010 DB68     		ldr	r3, [r3, #12]
 297 0012 786A     		ldr	r0, [r7, #36]
 298 0014 9847     		blx	r3
 299              	.LVL0:
 300 0016 0346     		mov	r3, r0
 301 0018 7B84     		strh	r3, [r7, #34]	@ movhi
  30:FT_Esd_Widgets/Ft_Esd_PosSizeToRadius__Generated.c **** 	ft_int16_t right = 2;
 302              		.loc 1 30 0
 303 001a 0223     		movs	r3, #2
 304 001c 3B84     		strh	r3, [r7, #32]	@ movhi
  31:FT_Esd_Widgets/Ft_Esd_PosSizeToRadius__Generated.c **** 	ft_int16_t left = left_1 / right;
 305              		.loc 1 31 0
 306 001e B7F92220 		ldrsh	r2, [r7, #34]
 307 0022 B7F92030 		ldrsh	r3, [r7, #32]
 308 0026 92FBF3F3 		sdiv	r3, r2, r3
 309 002a FB83     		strh	r3, [r7, #30]	@ movhi
  32:FT_Esd_Widgets/Ft_Esd_PosSizeToRadius__Generated.c **** 	ft_int16_t left_2 = context->Height(parent);
 310              		.loc 1 32 0
 311 002c 7B68     		ldr	r3, [r7, #4]
 312 002e 1B69     		ldr	r3, [r3, #16]
 313 0030 786A     		ldr	r0, [r7, #36]
 314 0032 9847     		blx	r3
 315              	.LVL1:
 316 0034 0346     		mov	r3, r0
 317 0036 BB83     		strh	r3, [r7, #28]	@ movhi
  33:FT_Esd_Widgets/Ft_Esd_PosSizeToRadius__Generated.c **** 	ft_int16_t right_2 = 2;
 318              		.loc 1 33 0
 319 0038 0223     		movs	r3, #2
 320 003a 7B83     		strh	r3, [r7, #26]	@ movhi
ARM GAS  /var/folders/n8/cvzdcwlj0vl4g_wtyz1ffy300000gn/T//cc6XqDjU.s 			page 7


  34:FT_Esd_Widgets/Ft_Esd_PosSizeToRadius__Generated.c **** 	ft_int16_t right_1 = left_2 / right_2;
 321              		.loc 1 34 0
 322 003c B7F91C20 		ldrsh	r2, [r7, #28]
 323 0040 B7F91A30 		ldrsh	r3, [r7, #26]
 324 0044 92FBF3F3 		sdiv	r3, r2, r3
 325 0048 3B83     		strh	r3, [r7, #24]	@ movhi
  35:FT_Esd_Widgets/Ft_Esd_PosSizeToRadius__Generated.c **** 	int if_1 = left > right_1;
 326              		.loc 1 35 0
 327 004a B7F91E20 		ldrsh	r2, [r7, #30]
 328 004e B7F91830 		ldrsh	r3, [r7, #24]
 329 0052 9A42     		cmp	r2, r3
 330 0054 CCBF     		ite	gt
 331 0056 0123     		movgt	r3, #1
 332 0058 0023     		movle	r3, #0
 333 005a DBB2     		uxtb	r3, r3
 334 005c 7B61     		str	r3, [r7, #20]
  36:FT_Esd_Widgets/Ft_Esd_PosSizeToRadius__Generated.c **** 	if (if_1)
 335              		.loc 1 36 0
 336 005e 7B69     		ldr	r3, [r7, #20]
 337 0060 002B     		cmp	r3, #0
 338 0062 0FD0     		beq	.L13
 339              	.LBB2:
  37:FT_Esd_Widgets/Ft_Esd_PosSizeToRadius__Generated.c **** 	{
  38:FT_Esd_Widgets/Ft_Esd_PosSizeToRadius__Generated.c **** 		ft_int16_t left_3 = context->Height(parent);
 340              		.loc 1 38 0
 341 0064 7B68     		ldr	r3, [r7, #4]
 342 0066 1B69     		ldr	r3, [r3, #16]
 343 0068 786A     		ldr	r0, [r7, #36]
 344 006a 9847     		blx	r3
 345              	.LVL2:
 346 006c 0346     		mov	r3, r0
 347 006e FB81     		strh	r3, [r7, #14]	@ movhi
  39:FT_Esd_Widgets/Ft_Esd_PosSizeToRadius__Generated.c **** 		ft_int16_t right_3 = 2;
 348              		.loc 1 39 0
 349 0070 0223     		movs	r3, #2
 350 0072 BB81     		strh	r3, [r7, #12]	@ movhi
  40:FT_Esd_Widgets/Ft_Esd_PosSizeToRadius__Generated.c **** 		return left_3 / right_3;
 351              		.loc 1 40 0
 352 0074 B7F90E20 		ldrsh	r2, [r7, #14]
 353 0078 B7F90C30 		ldrsh	r3, [r7, #12]
 354 007c 92FBF3F3 		sdiv	r3, r2, r3
 355 0080 1BB2     		sxth	r3, r3
 356 0082 0EE0     		b	.L14
 357              	.L13:
 358              	.LBE2:
 359              	.LBB3:
  41:FT_Esd_Widgets/Ft_Esd_PosSizeToRadius__Generated.c **** 	}
  42:FT_Esd_Widgets/Ft_Esd_PosSizeToRadius__Generated.c **** 	else
  43:FT_Esd_Widgets/Ft_Esd_PosSizeToRadius__Generated.c **** 	{
  44:FT_Esd_Widgets/Ft_Esd_PosSizeToRadius__Generated.c **** 		ft_int16_t left_4 = context->Width(parent);
 360              		.loc 1 44 0
 361 0084 7B68     		ldr	r3, [r7, #4]
 362 0086 DB68     		ldr	r3, [r3, #12]
 363 0088 786A     		ldr	r0, [r7, #36]
 364 008a 9847     		blx	r3
 365              	.LVL3:
 366 008c 0346     		mov	r3, r0
ARM GAS  /var/folders/n8/cvzdcwlj0vl4g_wtyz1ffy300000gn/T//cc6XqDjU.s 			page 8


 367 008e 7B82     		strh	r3, [r7, #18]	@ movhi
  45:FT_Esd_Widgets/Ft_Esd_PosSizeToRadius__Generated.c **** 		ft_int16_t right_4 = 2;
 368              		.loc 1 45 0
 369 0090 0223     		movs	r3, #2
 370 0092 3B82     		strh	r3, [r7, #16]	@ movhi
  46:FT_Esd_Widgets/Ft_Esd_PosSizeToRadius__Generated.c **** 		return left_4 / right_4;
 371              		.loc 1 46 0
 372 0094 B7F91220 		ldrsh	r2, [r7, #18]
 373 0098 B7F91030 		ldrsh	r3, [r7, #16]
 374 009c 92FBF3F3 		sdiv	r3, r2, r3
 375 00a0 1BB2     		sxth	r3, r3
 376              	.L14:
 377              	.LBE3:
  47:FT_Esd_Widgets/Ft_Esd_PosSizeToRadius__Generated.c **** 	}
  48:FT_Esd_Widgets/Ft_Esd_PosSizeToRadius__Generated.c **** }
 378              		.loc 1 48 0
 379 00a2 1846     		mov	r0, r3
 380 00a4 2837     		adds	r7, r7, #40
 381              	.LCFI33:
 382              		.cfi_def_cfa_offset 8
 383 00a6 BD46     		mov	sp, r7
 384              	.LCFI34:
 385              		.cfi_def_cfa_register 13
 386              		@ sp needed
 387 00a8 80BD     		pop	{r7, pc}
 388              		.cfi_endproc
 389              	.LFE8:
 391              		.section	.text.Ft_Esd_PosSizeToRadius_CenterX,"ax",%progbits
 392              		.align	1
 393              		.global	Ft_Esd_PosSizeToRadius_CenterX
 394              		.syntax unified
 395              		.thumb
 396              		.thumb_func
 397              		.fpu fpv5-sp-d16
 399              	Ft_Esd_PosSizeToRadius_CenterX:
 400              	.LFB9:
  49:FT_Esd_Widgets/Ft_Esd_PosSizeToRadius__Generated.c **** 
  50:FT_Esd_Widgets/Ft_Esd_PosSizeToRadius__Generated.c **** ft_int16_t Ft_Esd_PosSizeToRadius_CenterX(Ft_Esd_PosSizeToRadius *context)
  51:FT_Esd_Widgets/Ft_Esd_PosSizeToRadius__Generated.c **** {
 401              		.loc 1 51 0
 402              		.cfi_startproc
 403              		@ args = 0, pretend = 0, frame = 24
 404              		@ frame_needed = 1, uses_anonymous_args = 0
 405 0000 80B5     		push	{r7, lr}
 406              	.LCFI35:
 407              		.cfi_def_cfa_offset 8
 408              		.cfi_offset 7, -8
 409              		.cfi_offset 14, -4
 410 0002 86B0     		sub	sp, sp, #24
 411              	.LCFI36:
 412              		.cfi_def_cfa_offset 32
 413 0004 00AF     		add	r7, sp, #0
 414              	.LCFI37:
 415              		.cfi_def_cfa_register 7
 416 0006 7860     		str	r0, [r7, #4]
  52:FT_Esd_Widgets/Ft_Esd_PosSizeToRadius__Generated.c **** 	void *parent = context->Parent;
 417              		.loc 1 52 0
ARM GAS  /var/folders/n8/cvzdcwlj0vl4g_wtyz1ffy300000gn/T//cc6XqDjU.s 			page 9


 418 0008 7B68     		ldr	r3, [r7, #4]
 419 000a 1B68     		ldr	r3, [r3]
 420 000c 7B61     		str	r3, [r7, #20]
  53:FT_Esd_Widgets/Ft_Esd_PosSizeToRadius__Generated.c **** 	ft_int16_t left_5 = context->X(parent);
 421              		.loc 1 53 0
 422 000e 7B68     		ldr	r3, [r7, #4]
 423 0010 5B68     		ldr	r3, [r3, #4]
 424 0012 7869     		ldr	r0, [r7, #20]
 425 0014 9847     		blx	r3
 426              	.LVL4:
 427 0016 0346     		mov	r3, r0
 428 0018 7B82     		strh	r3, [r7, #18]	@ movhi
  54:FT_Esd_Widgets/Ft_Esd_PosSizeToRadius__Generated.c **** 	ft_int16_t left_6 = context->Width(parent);
 429              		.loc 1 54 0
 430 001a 7B68     		ldr	r3, [r7, #4]
 431 001c DB68     		ldr	r3, [r3, #12]
 432 001e 7869     		ldr	r0, [r7, #20]
 433 0020 9847     		blx	r3
 434              	.LVL5:
 435 0022 0346     		mov	r3, r0
 436 0024 3B82     		strh	r3, [r7, #16]	@ movhi
  55:FT_Esd_Widgets/Ft_Esd_PosSizeToRadius__Generated.c **** 	ft_int16_t right_6 = 2;
 437              		.loc 1 55 0
 438 0026 0223     		movs	r3, #2
 439 0028 FB81     		strh	r3, [r7, #14]	@ movhi
  56:FT_Esd_Widgets/Ft_Esd_PosSizeToRadius__Generated.c **** 	ft_int16_t right_5 = left_6 / right_6;
 440              		.loc 1 56 0
 441 002a B7F91020 		ldrsh	r2, [r7, #16]
 442 002e B7F90E30 		ldrsh	r3, [r7, #14]
 443 0032 92FBF3F3 		sdiv	r3, r2, r3
 444 0036 BB81     		strh	r3, [r7, #12]	@ movhi
  57:FT_Esd_Widgets/Ft_Esd_PosSizeToRadius__Generated.c **** 	return left_5 + right_5;
 445              		.loc 1 57 0
 446 0038 7A8A     		ldrh	r2, [r7, #18]
 447 003a BB89     		ldrh	r3, [r7, #12]
 448 003c 1344     		add	r3, r3, r2
 449 003e 9BB2     		uxth	r3, r3
 450 0040 1BB2     		sxth	r3, r3
  58:FT_Esd_Widgets/Ft_Esd_PosSizeToRadius__Generated.c **** }
 451              		.loc 1 58 0
 452 0042 1846     		mov	r0, r3
 453 0044 1837     		adds	r7, r7, #24
 454              	.LCFI38:
 455              		.cfi_def_cfa_offset 8
 456 0046 BD46     		mov	sp, r7
 457              	.LCFI39:
 458              		.cfi_def_cfa_register 13
 459              		@ sp needed
 460 0048 80BD     		pop	{r7, pc}
 461              		.cfi_endproc
 462              	.LFE9:
 464              		.section	.text.Ft_Esd_PosSizeToRadius_CenterY,"ax",%progbits
 465              		.align	1
 466              		.global	Ft_Esd_PosSizeToRadius_CenterY
 467              		.syntax unified
 468              		.thumb
 469              		.thumb_func
ARM GAS  /var/folders/n8/cvzdcwlj0vl4g_wtyz1ffy300000gn/T//cc6XqDjU.s 			page 10


 470              		.fpu fpv5-sp-d16
 472              	Ft_Esd_PosSizeToRadius_CenterY:
 473              	.LFB10:
  59:FT_Esd_Widgets/Ft_Esd_PosSizeToRadius__Generated.c **** 
  60:FT_Esd_Widgets/Ft_Esd_PosSizeToRadius__Generated.c **** ft_int16_t Ft_Esd_PosSizeToRadius_CenterY(Ft_Esd_PosSizeToRadius *context)
  61:FT_Esd_Widgets/Ft_Esd_PosSizeToRadius__Generated.c **** {
 474              		.loc 1 61 0
 475              		.cfi_startproc
 476              		@ args = 0, pretend = 0, frame = 24
 477              		@ frame_needed = 1, uses_anonymous_args = 0
 478 0000 80B5     		push	{r7, lr}
 479              	.LCFI40:
 480              		.cfi_def_cfa_offset 8
 481              		.cfi_offset 7, -8
 482              		.cfi_offset 14, -4
 483 0002 86B0     		sub	sp, sp, #24
 484              	.LCFI41:
 485              		.cfi_def_cfa_offset 32
 486 0004 00AF     		add	r7, sp, #0
 487              	.LCFI42:
 488              		.cfi_def_cfa_register 7
 489 0006 7860     		str	r0, [r7, #4]
  62:FT_Esd_Widgets/Ft_Esd_PosSizeToRadius__Generated.c **** 	void *parent = context->Parent;
 490              		.loc 1 62 0
 491 0008 7B68     		ldr	r3, [r7, #4]
 492 000a 1B68     		ldr	r3, [r3]
 493 000c 7B61     		str	r3, [r7, #20]
  63:FT_Esd_Widgets/Ft_Esd_PosSizeToRadius__Generated.c **** 	ft_int16_t left_7 = context->Y(parent);
 494              		.loc 1 63 0
 495 000e 7B68     		ldr	r3, [r7, #4]
 496 0010 9B68     		ldr	r3, [r3, #8]
 497 0012 7869     		ldr	r0, [r7, #20]
 498 0014 9847     		blx	r3
 499              	.LVL6:
 500 0016 0346     		mov	r3, r0
 501 0018 7B82     		strh	r3, [r7, #18]	@ movhi
  64:FT_Esd_Widgets/Ft_Esd_PosSizeToRadius__Generated.c **** 	ft_int16_t left_8 = context->Height(parent);
 502              		.loc 1 64 0
 503 001a 7B68     		ldr	r3, [r7, #4]
 504 001c 1B69     		ldr	r3, [r3, #16]
 505 001e 7869     		ldr	r0, [r7, #20]
 506 0020 9847     		blx	r3
 507              	.LVL7:
 508 0022 0346     		mov	r3, r0
 509 0024 3B82     		strh	r3, [r7, #16]	@ movhi
  65:FT_Esd_Widgets/Ft_Esd_PosSizeToRadius__Generated.c **** 	ft_int16_t right_8 = 2;
 510              		.loc 1 65 0
 511 0026 0223     		movs	r3, #2
 512 0028 FB81     		strh	r3, [r7, #14]	@ movhi
  66:FT_Esd_Widgets/Ft_Esd_PosSizeToRadius__Generated.c **** 	ft_int16_t right_7 = left_8 / right_8;
 513              		.loc 1 66 0
 514 002a B7F91020 		ldrsh	r2, [r7, #16]
 515 002e B7F90E30 		ldrsh	r3, [r7, #14]
 516 0032 92FBF3F3 		sdiv	r3, r2, r3
 517 0036 BB81     		strh	r3, [r7, #12]	@ movhi
  67:FT_Esd_Widgets/Ft_Esd_PosSizeToRadius__Generated.c **** 	return left_7 + right_7;
 518              		.loc 1 67 0
ARM GAS  /var/folders/n8/cvzdcwlj0vl4g_wtyz1ffy300000gn/T//cc6XqDjU.s 			page 11


 519 0038 7A8A     		ldrh	r2, [r7, #18]
 520 003a BB89     		ldrh	r3, [r7, #12]
 521 003c 1344     		add	r3, r3, r2
 522 003e 9BB2     		uxth	r3, r3
 523 0040 1BB2     		sxth	r3, r3
  68:FT_Esd_Widgets/Ft_Esd_PosSizeToRadius__Generated.c **** }
 524              		.loc 1 68 0
 525 0042 1846     		mov	r0, r3
 526 0044 1837     		adds	r7, r7, #24
 527              	.LCFI43:
 528              		.cfi_def_cfa_offset 8
 529 0046 BD46     		mov	sp, r7
 530              	.LCFI44:
 531              		.cfi_def_cfa_register 13
 532              		@ sp needed
 533 0048 80BD     		pop	{r7, pc}
 534              		.cfi_endproc
 535              	.LFE10:
 537              		.text
 538              	.Letext0:
 539              		.file 2 "FT_Eve_Hal/FT_DataTypes.h"
 540              		.file 3 "/usr/local/Cellar/arm-none-eabi-gcc/20180627/arm-none-eabi/include/sys/lock.h"
 541              		.file 4 "/usr/local/Cellar/arm-none-eabi-gcc/20180627/arm-none-eabi/include/sys/_types.h"
 542              		.file 5 "/usr/local/Cellar/arm-none-eabi-gcc/20180627/lib/gcc/arm-none-eabi/7.3.1/include/stddef.h
 543              		.file 6 "/usr/local/Cellar/arm-none-eabi-gcc/20180627/arm-none-eabi/include/sys/unistd.h"
 544              		.file 7 "/usr/local/Cellar/arm-none-eabi-gcc/20180627/arm-none-eabi/include/sys/reent.h"
 545              		.file 8 "/usr/local/Cellar/arm-none-eabi-gcc/20180627/arm-none-eabi/include/stdlib.h"
 546              		.file 9 "FT_Esd_Widgets/Ft_Esd_PosSizeToRadius.h"
ARM GAS  /var/folders/n8/cvzdcwlj0vl4g_wtyz1ffy300000gn/T//cc6XqDjU.s 			page 12

