ARM GAS  /var/folders/n8/cvzdcwlj0vl4g_wtyz1ffy300000gn/T//ccJnh5X0.s 			page 1


   1              		.cpu cortex-m7
   2              		.eabi_attribute 27, 1
   3              		.eabi_attribute 28, 1
   4              		.eabi_attribute 20, 1
   5              		.eabi_attribute 21, 1
   6              		.eabi_attribute 23, 3
   7              		.eabi_attribute 24, 1
   8              		.eabi_attribute 25, 1
   9              		.eabi_attribute 26, 1
  10              		.eabi_attribute 30, 6
  11              		.eabi_attribute 34, 1
  12              		.eabi_attribute 18, 4
  13              		.file	"Ft_Esd_Timer__Generated.c"
  14              		.text
  15              	.Ltext0:
  16              		.cfi_sections	.debug_frame
  17              		.section	.text.Ft_Esd_Timer__Initializer,"ax",%progbits
  18              		.align	1
  19              		.global	Ft_Esd_Timer__Initializer
  20              		.syntax unified
  21              		.thumb
  22              		.thumb_func
  23              		.fpu fpv5-sp-d16
  25              	Ft_Esd_Timer__Initializer:
  26              	.LFB3:
  27              		.file 1 "FT_Esd_Framework/Ft_Esd_Timer__Generated.c"
   1:FT_Esd_Framework/Ft_Esd_Timer__Generated.c **** /*
   2:FT_Esd_Framework/Ft_Esd_Timer__Generated.c **** This file is automatically generated
   3:FT_Esd_Framework/Ft_Esd_Timer__Generated.c **** Ft_Esd_Timer
   4:FT_Esd_Framework/Ft_Esd_Timer__Generated.c **** C Source
   5:FT_Esd_Framework/Ft_Esd_Timer__Generated.c **** */
   6:FT_Esd_Framework/Ft_Esd_Timer__Generated.c **** 
   7:FT_Esd_Framework/Ft_Esd_Timer__Generated.c **** #include "Ft_Esd_Timer.h"
   8:FT_Esd_Framework/Ft_Esd_Timer__Generated.c **** 
   9:FT_Esd_Framework/Ft_Esd_Timer__Generated.c **** 
  10:FT_Esd_Framework/Ft_Esd_Timer__Generated.c **** extern void Ft_Esd_Noop(void *context);
  11:FT_Esd_Framework/Ft_Esd_Timer__Generated.c **** 
  12:FT_Esd_Framework/Ft_Esd_Timer__Generated.c **** 
  13:FT_Esd_Framework/Ft_Esd_Timer__Generated.c **** 
  14:FT_Esd_Framework/Ft_Esd_Timer__Generated.c **** void Ft_Esd_Timer__Initializer(Ft_Esd_Timer *context)
  15:FT_Esd_Framework/Ft_Esd_Timer__Generated.c **** {
  28              		.loc 1 15 0
  29              		.cfi_startproc
  30              		@ args = 0, pretend = 0, frame = 8
  31              		@ frame_needed = 1, uses_anonymous_args = 0
  32              		@ link register save eliminated.
  33 0000 80B4     		push	{r7}
  34              	.LCFI0:
  35              		.cfi_def_cfa_offset 4
  36              		.cfi_offset 7, -4
  37 0002 83B0     		sub	sp, sp, #12
  38              	.LCFI1:
  39              		.cfi_def_cfa_offset 16
  40 0004 00AF     		add	r7, sp, #0
  41              	.LCFI2:
  42              		.cfi_def_cfa_register 7
  43 0006 7860     		str	r0, [r7, #4]
ARM GAS  /var/folders/n8/cvzdcwlj0vl4g_wtyz1ffy300000gn/T//ccJnh5X0.s 			page 2


  16:FT_Esd_Framework/Ft_Esd_Timer__Generated.c **** 	context->Parent = 0;
  44              		.loc 1 16 0
  45 0008 7B68     		ldr	r3, [r7, #4]
  46 000a 0022     		movs	r2, #0
  47 000c 1A60     		str	r2, [r3]
  17:FT_Esd_Framework/Ft_Esd_Timer__Generated.c **** 	context->Fired = Ft_Esd_Noop;
  48              		.loc 1 17 0
  49 000e 7B68     		ldr	r3, [r7, #4]
  50 0010 074A     		ldr	r2, .L2
  51 0012 5A60     		str	r2, [r3, #4]
  18:FT_Esd_Framework/Ft_Esd_Timer__Generated.c **** 	context->TimeoutMs = 1000L;
  52              		.loc 1 18 0
  53 0014 7B68     		ldr	r3, [r7, #4]
  54 0016 4FF47A72 		mov	r2, #1000
  55 001a 9A60     		str	r2, [r3, #8]
  19:FT_Esd_Framework/Ft_Esd_Timer__Generated.c **** 	context->Repeat = 0;
  56              		.loc 1 19 0
  57 001c 7B68     		ldr	r3, [r7, #4]
  58 001e 0022     		movs	r2, #0
  59 0020 1A73     		strb	r2, [r3, #12]
  20:FT_Esd_Framework/Ft_Esd_Timer__Generated.c **** }
  60              		.loc 1 20 0
  61 0022 00BF     		nop
  62 0024 0C37     		adds	r7, r7, #12
  63              	.LCFI3:
  64              		.cfi_def_cfa_offset 4
  65 0026 BD46     		mov	sp, r7
  66              	.LCFI4:
  67              		.cfi_def_cfa_register 13
  68              		@ sp needed
  69 0028 5DF8047B 		ldr	r7, [sp], #4
  70              	.LCFI5:
  71              		.cfi_restore 7
  72              		.cfi_def_cfa_offset 0
  73 002c 7047     		bx	lr
  74              	.L3:
  75 002e 00BF     		.align	2
  76              	.L2:
  77 0030 00000000 		.word	Ft_Esd_Noop
  78              		.cfi_endproc
  79              	.LFE3:
  81              		.section	.text.Ft_Esd_Timer_Run,"ax",%progbits
  82              		.align	1
  83              		.global	Ft_Esd_Timer_Run
  84              		.syntax unified
  85              		.thumb
  86              		.thumb_func
  87              		.fpu fpv5-sp-d16
  89              	Ft_Esd_Timer_Run:
  90              	.LFB4:
  21:FT_Esd_Framework/Ft_Esd_Timer__Generated.c **** 
  22:FT_Esd_Framework/Ft_Esd_Timer__Generated.c **** void Ft_Esd_Timer_Run_Signal(Ft_Esd_Timer *context);
  23:FT_Esd_Framework/Ft_Esd_Timer__Generated.c **** void Ft_Esd_Timer_End_Signal(Ft_Esd_Timer *context);
  24:FT_Esd_Framework/Ft_Esd_Timer__Generated.c **** 
  25:FT_Esd_Framework/Ft_Esd_Timer__Generated.c **** void Ft_Esd_Timer_Run(Ft_Esd_Timer *context)
  26:FT_Esd_Framework/Ft_Esd_Timer__Generated.c **** {
  91              		.loc 1 26 0
ARM GAS  /var/folders/n8/cvzdcwlj0vl4g_wtyz1ffy300000gn/T//ccJnh5X0.s 			page 3


  92              		.cfi_startproc
  93              		@ args = 0, pretend = 0, frame = 16
  94              		@ frame_needed = 1, uses_anonymous_args = 0
  95 0000 80B5     		push	{r7, lr}
  96              	.LCFI6:
  97              		.cfi_def_cfa_offset 8
  98              		.cfi_offset 7, -8
  99              		.cfi_offset 14, -4
 100 0002 84B0     		sub	sp, sp, #16
 101              	.LCFI7:
 102              		.cfi_def_cfa_offset 24
 103 0004 00AF     		add	r7, sp, #0
 104              	.LCFI8:
 105              		.cfi_def_cfa_register 7
 106 0006 7860     		str	r0, [r7, #4]
  27:FT_Esd_Framework/Ft_Esd_Timer__Generated.c **** 	void *parent = context->Parent;
 107              		.loc 1 27 0
 108 0008 7B68     		ldr	r3, [r7, #4]
 109 000a 1B68     		ldr	r3, [r3]
 110 000c FB60     		str	r3, [r7, #12]
  28:FT_Esd_Framework/Ft_Esd_Timer__Generated.c **** 	Ft_Esd_Timer_Run_Signal(context);
 111              		.loc 1 28 0
 112 000e 7868     		ldr	r0, [r7, #4]
 113 0010 FFF7FEFF 		bl	Ft_Esd_Timer_Run_Signal
  29:FT_Esd_Framework/Ft_Esd_Timer__Generated.c **** }
 114              		.loc 1 29 0
 115 0014 00BF     		nop
 116 0016 1037     		adds	r7, r7, #16
 117              	.LCFI9:
 118              		.cfi_def_cfa_offset 8
 119 0018 BD46     		mov	sp, r7
 120              	.LCFI10:
 121              		.cfi_def_cfa_register 13
 122              		@ sp needed
 123 001a 80BD     		pop	{r7, pc}
 124              		.cfi_endproc
 125              	.LFE4:
 127              		.section	.text.Ft_Esd_Timer_Halt,"ax",%progbits
 128              		.align	1
 129              		.global	Ft_Esd_Timer_Halt
 130              		.syntax unified
 131              		.thumb
 132              		.thumb_func
 133              		.fpu fpv5-sp-d16
 135              	Ft_Esd_Timer_Halt:
 136              	.LFB5:
  30:FT_Esd_Framework/Ft_Esd_Timer__Generated.c **** 
  31:FT_Esd_Framework/Ft_Esd_Timer__Generated.c **** void Ft_Esd_Timer_Halt(Ft_Esd_Timer *context)
  32:FT_Esd_Framework/Ft_Esd_Timer__Generated.c **** {
 137              		.loc 1 32 0
 138              		.cfi_startproc
 139              		@ args = 0, pretend = 0, frame = 16
 140              		@ frame_needed = 1, uses_anonymous_args = 0
 141 0000 80B5     		push	{r7, lr}
 142              	.LCFI11:
 143              		.cfi_def_cfa_offset 8
 144              		.cfi_offset 7, -8
ARM GAS  /var/folders/n8/cvzdcwlj0vl4g_wtyz1ffy300000gn/T//ccJnh5X0.s 			page 4


 145              		.cfi_offset 14, -4
 146 0002 84B0     		sub	sp, sp, #16
 147              	.LCFI12:
 148              		.cfi_def_cfa_offset 24
 149 0004 00AF     		add	r7, sp, #0
 150              	.LCFI13:
 151              		.cfi_def_cfa_register 7
 152 0006 7860     		str	r0, [r7, #4]
  33:FT_Esd_Framework/Ft_Esd_Timer__Generated.c **** 	void *parent = context->Parent;
 153              		.loc 1 33 0
 154 0008 7B68     		ldr	r3, [r7, #4]
 155 000a 1B68     		ldr	r3, [r3]
 156 000c FB60     		str	r3, [r7, #12]
  34:FT_Esd_Framework/Ft_Esd_Timer__Generated.c **** 	Ft_Esd_Timer_End_Signal(context);
 157              		.loc 1 34 0
 158 000e 7868     		ldr	r0, [r7, #4]
 159 0010 FFF7FEFF 		bl	Ft_Esd_Timer_End_Signal
  35:FT_Esd_Framework/Ft_Esd_Timer__Generated.c **** }
 160              		.loc 1 35 0
 161 0014 00BF     		nop
 162 0016 1037     		adds	r7, r7, #16
 163              	.LCFI14:
 164              		.cfi_def_cfa_offset 8
 165 0018 BD46     		mov	sp, r7
 166              	.LCFI15:
 167              		.cfi_def_cfa_register 13
 168              		@ sp needed
 169 001a 80BD     		pop	{r7, pc}
 170              		.cfi_endproc
 171              	.LFE5:
 173              		.section	.text.Ft_Esd_Timer_End,"ax",%progbits
 174              		.align	1
 175              		.global	Ft_Esd_Timer_End
 176              		.syntax unified
 177              		.thumb
 178              		.thumb_func
 179              		.fpu fpv5-sp-d16
 181              	Ft_Esd_Timer_End:
 182              	.LFB6:
  36:FT_Esd_Framework/Ft_Esd_Timer__Generated.c **** 
  37:FT_Esd_Framework/Ft_Esd_Timer__Generated.c **** void Ft_Esd_Timer_End(Ft_Esd_Timer *context)
  38:FT_Esd_Framework/Ft_Esd_Timer__Generated.c **** {
 183              		.loc 1 38 0
 184              		.cfi_startproc
 185              		@ args = 0, pretend = 0, frame = 16
 186              		@ frame_needed = 1, uses_anonymous_args = 0
 187 0000 80B5     		push	{r7, lr}
 188              	.LCFI16:
 189              		.cfi_def_cfa_offset 8
 190              		.cfi_offset 7, -8
 191              		.cfi_offset 14, -4
 192 0002 84B0     		sub	sp, sp, #16
 193              	.LCFI17:
 194              		.cfi_def_cfa_offset 24
 195 0004 00AF     		add	r7, sp, #0
 196              	.LCFI18:
 197              		.cfi_def_cfa_register 7
ARM GAS  /var/folders/n8/cvzdcwlj0vl4g_wtyz1ffy300000gn/T//ccJnh5X0.s 			page 5


 198 0006 7860     		str	r0, [r7, #4]
  39:FT_Esd_Framework/Ft_Esd_Timer__Generated.c **** 	void *parent = context->Parent;
 199              		.loc 1 39 0
 200 0008 7B68     		ldr	r3, [r7, #4]
 201 000a 1B68     		ldr	r3, [r3]
 202 000c FB60     		str	r3, [r7, #12]
  40:FT_Esd_Framework/Ft_Esd_Timer__Generated.c **** 	Ft_Esd_Timer_End_Signal(context);
 203              		.loc 1 40 0
 204 000e 7868     		ldr	r0, [r7, #4]
 205 0010 FFF7FEFF 		bl	Ft_Esd_Timer_End_Signal
  41:FT_Esd_Framework/Ft_Esd_Timer__Generated.c **** }
 206              		.loc 1 41 0
 207 0014 00BF     		nop
 208 0016 1037     		adds	r7, r7, #16
 209              	.LCFI19:
 210              		.cfi_def_cfa_offset 8
 211 0018 BD46     		mov	sp, r7
 212              	.LCFI20:
 213              		.cfi_def_cfa_register 13
 214              		@ sp needed
 215 001a 80BD     		pop	{r7, pc}
 216              		.cfi_endproc
 217              	.LFE6:
 219              		.text
 220              	.Letext0:
 221              		.file 2 "FT_Eve_Hal/FT_DataTypes.h"
 222              		.file 3 "/usr/local/Cellar/arm-none-eabi-gcc/20180627/arm-none-eabi/include/sys/lock.h"
 223              		.file 4 "/usr/local/Cellar/arm-none-eabi-gcc/20180627/arm-none-eabi/include/sys/_types.h"
 224              		.file 5 "/usr/local/Cellar/arm-none-eabi-gcc/20180627/lib/gcc/arm-none-eabi/7.3.1/include/stddef.h
 225              		.file 6 "/usr/local/Cellar/arm-none-eabi-gcc/20180627/arm-none-eabi/include/sys/unistd.h"
 226              		.file 7 "/usr/local/Cellar/arm-none-eabi-gcc/20180627/arm-none-eabi/include/sys/reent.h"
 227              		.file 8 "/usr/local/Cellar/arm-none-eabi-gcc/20180627/arm-none-eabi/include/stdlib.h"
 228              		.file 9 "FT_Esd_Framework/Ft_Esd_Timer.h"
ARM GAS  /var/folders/n8/cvzdcwlj0vl4g_wtyz1ffy300000gn/T//ccJnh5X0.s 			page 6

