ARM GAS  /var/folders/n8/cvzdcwlj0vl4g_wtyz1ffy300000gn/T//ccLY5GZg.s 			page 1


   1              		.cpu cortex-m7
   2              		.eabi_attribute 27, 1
   3              		.eabi_attribute 28, 1
   4              		.eabi_attribute 20, 1
   5              		.eabi_attribute 21, 1
   6              		.eabi_attribute 23, 3
   7              		.eabi_attribute 24, 1
   8              		.eabi_attribute 25, 1
   9              		.eabi_attribute 26, 1
  10              		.eabi_attribute 30, 6
  11              		.eabi_attribute 34, 1
  12              		.eabi_attribute 18, 4
  13              		.file	"Ft_Esd_DemoPage__Generated.c"
  14              		.text
  15              	.Ltext0:
  16              		.cfi_sections	.debug_frame
  17              		.section	.text.Ft_Esd_BitmapCell_GetInfo,"ax",%progbits
  18              		.align	1
  19              		.syntax unified
  20              		.thumb
  21              		.thumb_func
  22              		.fpu fpv5-sp-d16
  24              	Ft_Esd_BitmapCell_GetInfo:
  25              	.LFB9:
  26              		.file 1 "FT_Esd_Framework/Ft_Esd_BitmapInfo.h"
   1:FT_Esd_Framework/Ft_Esd_BitmapInfo.h **** /*
   2:FT_Esd_Framework/Ft_Esd_BitmapInfo.h **** Bitmap info structure
   3:FT_Esd_Framework/Ft_Esd_BitmapInfo.h **** */
   4:FT_Esd_Framework/Ft_Esd_BitmapInfo.h **** 
   5:FT_Esd_Framework/Ft_Esd_BitmapInfo.h **** #ifndef FT_ESD_BITMAPINFO_H
   6:FT_Esd_Framework/Ft_Esd_BitmapInfo.h **** #define FT_ESD_BITMAPINFO_H
   7:FT_Esd_Framework/Ft_Esd_BitmapInfo.h **** 
   8:FT_Esd_Framework/Ft_Esd_BitmapInfo.h **** #include "Ft_Esd.h"
   9:FT_Esd_Framework/Ft_Esd_BitmapInfo.h **** #include "FT_DataTypes.h"
  10:FT_Esd_Framework/Ft_Esd_BitmapInfo.h **** #include "Ft_Esd_GpuAlloc.h"
  11:FT_Esd_Framework/Ft_Esd_BitmapInfo.h **** 
  12:FT_Esd_Framework/Ft_Esd_BitmapInfo.h **** ESD_TYPE(Ft_Esd_BitmapInfo, Native = Struct) // TODO: Struct support, expose values
  13:FT_Esd_Framework/Ft_Esd_BitmapInfo.h **** typedef struct
  14:FT_Esd_Framework/Ft_Esd_BitmapInfo.h **** {
  15:FT_Esd_Framework/Ft_Esd_BitmapInfo.h **** 	ft_int32_t Width;
  16:FT_Esd_Framework/Ft_Esd_BitmapInfo.h **** 	ft_int32_t Height;
  17:FT_Esd_Framework/Ft_Esd_BitmapInfo.h **** 	ft_int32_t Stride;
  18:FT_Esd_Framework/Ft_Esd_BitmapInfo.h **** 	ft_int32_t Format;
  19:FT_Esd_Framework/Ft_Esd_BitmapInfo.h **** 	ft_int32_t Size;
  20:FT_Esd_Framework/Ft_Esd_BitmapInfo.h **** 	const char *File;
  21:FT_Esd_Framework/Ft_Esd_BitmapInfo.h **** 
  22:FT_Esd_Framework/Ft_Esd_BitmapInfo.h **** 	// Handle pointing to the address in RAM_G if it is allocated
  23:FT_Esd_Framework/Ft_Esd_BitmapInfo.h **** 	Ft_Esd_GpuHandle GpuHandle;
  24:FT_Esd_Framework/Ft_Esd_BitmapInfo.h **** 
  25:FT_Esd_Framework/Ft_Esd_BitmapInfo.h **** 	// Bitmap handle that is being used
  26:FT_Esd_Framework/Ft_Esd_BitmapInfo.h **** 	ft_uint32_t BitmapHandle;
  27:FT_Esd_Framework/Ft_Esd_BitmapInfo.h **** 
  28:FT_Esd_Framework/Ft_Esd_BitmapInfo.h **** 	const char *PaletteFile;
  29:FT_Esd_Framework/Ft_Esd_BitmapInfo.h **** 	Ft_Esd_GpuHandle PaletteGpuHandle;
  30:FT_Esd_Framework/Ft_Esd_BitmapInfo.h **** 
  31:FT_Esd_Framework/Ft_Esd_BitmapInfo.h **** 	// When this is set, the allocated ram is not free'd automatically
  32:FT_Esd_Framework/Ft_Esd_BitmapInfo.h **** 	// Use Ft_Esd_GpuAlloc_Free(GpuAlloc, GpuHandle) to free the GPU ram manually
ARM GAS  /var/folders/n8/cvzdcwlj0vl4g_wtyz1ffy300000gn/T//ccLY5GZg.s 			page 2


  33:FT_Esd_Framework/Ft_Esd_BitmapInfo.h **** 	ft_bool_t Persistent;
  34:FT_Esd_Framework/Ft_Esd_BitmapInfo.h **** 
  35:FT_Esd_Framework/Ft_Esd_BitmapInfo.h **** } Ft_Esd_BitmapInfo;
  36:FT_Esd_Framework/Ft_Esd_BitmapInfo.h **** 
  37:FT_Esd_Framework/Ft_Esd_BitmapInfo.h **** ESD_TYPE(Ft_Esd_BitmapInfo *, Native = Pointer, Edit = Library)
  38:FT_Esd_Framework/Ft_Esd_BitmapInfo.h **** 
  39:FT_Esd_Framework/Ft_Esd_BitmapInfo.h **** ESD_TYPE(Ft_Esd_BitmapCell, Native = Struct) // TODO: Struct support, expose values
  40:FT_Esd_Framework/Ft_Esd_BitmapInfo.h **** typedef struct
  41:FT_Esd_Framework/Ft_Esd_BitmapInfo.h **** {
  42:FT_Esd_Framework/Ft_Esd_BitmapInfo.h **** 	Ft_Esd_BitmapInfo *Info;
  43:FT_Esd_Framework/Ft_Esd_BitmapInfo.h **** 	ft_int32_t Cell;
  44:FT_Esd_Framework/Ft_Esd_BitmapInfo.h **** } Ft_Esd_BitmapCell;
  45:FT_Esd_Framework/Ft_Esd_BitmapInfo.h **** 
  46:FT_Esd_Framework/Ft_Esd_BitmapInfo.h **** ESD_TYPE(Ft_Esd_BitmapCell *, Native = Pointer, Edit = Library)
  47:FT_Esd_Framework/Ft_Esd_BitmapInfo.h **** 
  48:FT_Esd_Framework/Ft_Esd_BitmapInfo.h **** // Attempts to load the specified bitmap if it has not been loaded into RAM_G yet.
  49:FT_Esd_Framework/Ft_Esd_BitmapInfo.h **** // Call during the Update cycle of each frame to keep the bitmap flagged as in use, otherwise the m
  50:FT_Esd_Framework/Ft_Esd_BitmapInfo.h **** ESD_FUNCTION(Ft_Esd_LoadBitmap, Type = ft_uint32_t, Include = "Ft_Esd_BitmapInfo.h", DisplayName = 
  51:FT_Esd_Framework/Ft_Esd_BitmapInfo.h **** ESD_PARAMETER(bitmapInfo, Type = Ft_Esd_BitmapInfo *)
  52:FT_Esd_Framework/Ft_Esd_BitmapInfo.h **** ft_uint32_t Ft_Esd_LoadBitmap(Ft_Esd_BitmapInfo *bitmapInfo);
  53:FT_Esd_Framework/Ft_Esd_BitmapInfo.h **** 
  54:FT_Esd_Framework/Ft_Esd_BitmapInfo.h **** ESD_FUNCTION(Ft_Esd_LoadPalette, Type = ft_uint32_t, Include = "Ft_Esd_BitmapInfo.h", DisplayName =
  55:FT_Esd_Framework/Ft_Esd_BitmapInfo.h **** ESD_PARAMETER(bitmapInfo, Type = Ft_Esd_BitmapInfo *)
  56:FT_Esd_Framework/Ft_Esd_BitmapInfo.h **** ft_uint32_t Ft_Esd_LoadPalette(Ft_Esd_BitmapInfo *bitmapInfo);
  57:FT_Esd_Framework/Ft_Esd_BitmapInfo.h **** 
  58:FT_Esd_Framework/Ft_Esd_BitmapInfo.h **** ESD_ENUM(_BitmapResourceFormat, DisplayName = "Bitmap Format")
  59:FT_Esd_Framework/Ft_Esd_BitmapInfo.h **** ESD_IDENTIFIER(ARGB1555)
  60:FT_Esd_Framework/Ft_Esd_BitmapInfo.h **** ESD_IDENTIFIER(L1)
  61:FT_Esd_Framework/Ft_Esd_BitmapInfo.h **** ESD_IDENTIFIER(L2)
  62:FT_Esd_Framework/Ft_Esd_BitmapInfo.h **** ESD_IDENTIFIER(L4)
  63:FT_Esd_Framework/Ft_Esd_BitmapInfo.h **** ESD_IDENTIFIER(L8)
  64:FT_Esd_Framework/Ft_Esd_BitmapInfo.h **** ESD_IDENTIFIER(RGB332)
  65:FT_Esd_Framework/Ft_Esd_BitmapInfo.h **** ESD_IDENTIFIER(ARGB2)
  66:FT_Esd_Framework/Ft_Esd_BitmapInfo.h **** ESD_IDENTIFIER(ARGB4)
  67:FT_Esd_Framework/Ft_Esd_BitmapInfo.h **** ESD_IDENTIFIER(RGB565)
  68:FT_Esd_Framework/Ft_Esd_BitmapInfo.h **** ESD_IDENTIFIER(PALETTED565)
  69:FT_Esd_Framework/Ft_Esd_BitmapInfo.h **** ESD_IDENTIFIER(PALETTED4444)
  70:FT_Esd_Framework/Ft_Esd_BitmapInfo.h **** // ESD_IDENTIFIER(PALETTED8)
  71:FT_Esd_Framework/Ft_Esd_BitmapInfo.h **** // ESD_IDENTIFIER(JPEG)
  72:FT_Esd_Framework/Ft_Esd_BitmapInfo.h **** // ESD_IDENTIFIER(PNG)
  73:FT_Esd_Framework/Ft_Esd_BitmapInfo.h **** ESD_END()
  74:FT_Esd_Framework/Ft_Esd_BitmapInfo.h **** 
  75:FT_Esd_Framework/Ft_Esd_BitmapInfo.h **** ESD_LOGIC(Ft_Esd_SwitchBitmapCell, Callback, Include = "Ft_Esd_BitmapInfo.h", DisplayName = "Switch
  76:FT_Esd_Framework/Ft_Esd_BitmapInfo.h **** typedef struct
  77:FT_Esd_Framework/Ft_Esd_BitmapInfo.h **** {
  78:FT_Esd_Framework/Ft_Esd_BitmapInfo.h **** 	// Callback
  79:FT_Esd_Framework/Ft_Esd_BitmapInfo.h **** 	void *Parent;
  80:FT_Esd_Framework/Ft_Esd_BitmapInfo.h **** 
  81:FT_Esd_Framework/Ft_Esd_BitmapInfo.h **** 	//
  82:FT_Esd_Framework/Ft_Esd_BitmapInfo.h **** 	// Input
  83:FT_Esd_Framework/Ft_Esd_BitmapInfo.h **** 	//
  84:FT_Esd_Framework/Ft_Esd_BitmapInfo.h **** 
  85:FT_Esd_Framework/Ft_Esd_BitmapInfo.h **** 	ESD_INPUT(BitmapInfo, Type = Ft_Esd_BitmapInfo *, DisplayName = "Bitmap Info")
  86:FT_Esd_Framework/Ft_Esd_BitmapInfo.h **** 	Ft_Esd_BitmapInfo *(* BitmapInfo)(void *context);
  87:FT_Esd_Framework/Ft_Esd_BitmapInfo.h **** 
  88:FT_Esd_Framework/Ft_Esd_BitmapInfo.h **** 	ESD_INPUT(Cell, Type = ft_uint8_t, DisplayName = "Cell")
  89:FT_Esd_Framework/Ft_Esd_BitmapInfo.h **** 	ft_uint8_t(* Cell)(void *context);
ARM GAS  /var/folders/n8/cvzdcwlj0vl4g_wtyz1ffy300000gn/T//ccLY5GZg.s 			page 3


  90:FT_Esd_Framework/Ft_Esd_BitmapInfo.h **** 
  91:FT_Esd_Framework/Ft_Esd_BitmapInfo.h **** 	//
  92:FT_Esd_Framework/Ft_Esd_BitmapInfo.h **** 	// Variables
  93:FT_Esd_Framework/Ft_Esd_BitmapInfo.h **** 	//
  94:FT_Esd_Framework/Ft_Esd_BitmapInfo.h **** 
  95:FT_Esd_Framework/Ft_Esd_BitmapInfo.h **** 	// BitmapCell object
  96:FT_Esd_Framework/Ft_Esd_BitmapInfo.h **** 	Ft_Esd_BitmapCell BitmapCell;
  97:FT_Esd_Framework/Ft_Esd_BitmapInfo.h **** 
  98:FT_Esd_Framework/Ft_Esd_BitmapInfo.h **** } Ft_Esd_SwitchBitmapCell;
  99:FT_Esd_Framework/Ft_Esd_BitmapInfo.h **** 
 100:FT_Esd_Framework/Ft_Esd_BitmapInfo.h **** void Ft_Esd_SwitchBitmapCell__Initializer(Ft_Esd_SwitchBitmapCell *context);
 101:FT_Esd_Framework/Ft_Esd_BitmapInfo.h **** 
 102:FT_Esd_Framework/Ft_Esd_BitmapInfo.h **** ESD_OUTPUT(BitmapCell, Type = Ft_Esd_BitmapCell *, DisplayName = "Bitmap Cell")
 103:FT_Esd_Framework/Ft_Esd_BitmapInfo.h **** Ft_Esd_BitmapCell *Ft_Esd_SwitchBitmapCell_BitmapCell(Ft_Esd_SwitchBitmapCell *context);
 104:FT_Esd_Framework/Ft_Esd_BitmapInfo.h **** 
 105:FT_Esd_Framework/Ft_Esd_BitmapInfo.h **** ESD_UPDATE(Ft_Esd_BitmapPersist, DisplayName = "Bitmap Persist", Category = EsdUtilities)
 106:FT_Esd_Framework/Ft_Esd_BitmapInfo.h **** ESD_PARAMETER(bitmapCell, Type = Ft_Esd_BitmapCell *)
 107:FT_Esd_Framework/Ft_Esd_BitmapInfo.h **** void Ft_Esd_BitmapPersist(Ft_Esd_BitmapCell *bitmapCell);
 108:FT_Esd_Framework/Ft_Esd_BitmapInfo.h **** 
 109:FT_Esd_Framework/Ft_Esd_BitmapInfo.h **** ESD_FUNCTION(Ft_Esd_BitmapCell_GetInfo, Type = Ft_Esd_BitmapInfo *, DisplayName = "ESD BitmapCell G
 110:FT_Esd_Framework/Ft_Esd_BitmapInfo.h **** ESD_PARAMETER(bitmapCell, Type = Ft_Esd_BitmapCell *)
 111:FT_Esd_Framework/Ft_Esd_BitmapInfo.h **** static Ft_Esd_BitmapInfo *Ft_Esd_BitmapCell_GetInfo(Ft_Esd_BitmapCell *bitmapCell)
 112:FT_Esd_Framework/Ft_Esd_BitmapInfo.h **** {
  27              		.loc 1 112 0
  28              		.cfi_startproc
  29              		@ args = 0, pretend = 0, frame = 8
  30              		@ frame_needed = 1, uses_anonymous_args = 0
  31              		@ link register save eliminated.
  32 0000 80B4     		push	{r7}
  33              	.LCFI0:
  34              		.cfi_def_cfa_offset 4
  35              		.cfi_offset 7, -4
  36 0002 83B0     		sub	sp, sp, #12
  37              	.LCFI1:
  38              		.cfi_def_cfa_offset 16
  39 0004 00AF     		add	r7, sp, #0
  40              	.LCFI2:
  41              		.cfi_def_cfa_register 7
  42 0006 7860     		str	r0, [r7, #4]
 113:FT_Esd_Framework/Ft_Esd_BitmapInfo.h **** 	if (!bitmapCell) return 0;
  43              		.loc 1 113 0
  44 0008 7B68     		ldr	r3, [r7, #4]
  45 000a 002B     		cmp	r3, #0
  46 000c 01D1     		bne	.L2
  47              		.loc 1 113 0 is_stmt 0 discriminator 1
  48 000e 0023     		movs	r3, #0
  49 0010 01E0     		b	.L3
  50              	.L2:
 114:FT_Esd_Framework/Ft_Esd_BitmapInfo.h **** 	return bitmapCell->Info;
  51              		.loc 1 114 0 is_stmt 1
  52 0012 7B68     		ldr	r3, [r7, #4]
  53 0014 1B68     		ldr	r3, [r3]
  54              	.L3:
 115:FT_Esd_Framework/Ft_Esd_BitmapInfo.h **** }
  55              		.loc 1 115 0
  56 0016 1846     		mov	r0, r3
  57 0018 0C37     		adds	r7, r7, #12
ARM GAS  /var/folders/n8/cvzdcwlj0vl4g_wtyz1ffy300000gn/T//ccLY5GZg.s 			page 4


  58              	.LCFI3:
  59              		.cfi_def_cfa_offset 4
  60 001a BD46     		mov	sp, r7
  61              	.LCFI4:
  62              		.cfi_def_cfa_register 13
  63              		@ sp needed
  64 001c 5DF8047B 		ldr	r7, [sp], #4
  65              	.LCFI5:
  66              		.cfi_restore 7
  67              		.cfi_def_cfa_offset 0
  68 0020 7047     		bx	lr
  69              		.cfi_endproc
  70              	.LFE9:
  72              		.section	.text.Ft_Esd_DemoPage_ESD_ProgressBar_X__Property,"ax",%progbits
  73              		.align	1
  74              		.syntax unified
  75              		.thumb
  76              		.thumb_func
  77              		.fpu fpv5-sp-d16
  79              	Ft_Esd_DemoPage_ESD_ProgressBar_X__Property:
  80              	.LFB30:
  81              		.file 2 "FT_Esd_Widgets/Ft_Esd_DemoPage__Generated.c"
   1:FT_Esd_Widgets/Ft_Esd_DemoPage__Generated.c **** /*
   2:FT_Esd_Widgets/Ft_Esd_DemoPage__Generated.c **** This file is automatically generated
   3:FT_Esd_Widgets/Ft_Esd_DemoPage__Generated.c **** Ft_Esd_DemoPage
   4:FT_Esd_Widgets/Ft_Esd_DemoPage__Generated.c **** C Source
   5:FT_Esd_Widgets/Ft_Esd_DemoPage__Generated.c **** */
   6:FT_Esd_Widgets/Ft_Esd_DemoPage__Generated.c **** 
   7:FT_Esd_Widgets/Ft_Esd_DemoPage__Generated.c **** #include "Ft_Esd_DemoPage.h"
   8:FT_Esd_Widgets/Ft_Esd_DemoPage__Generated.c **** 
   9:FT_Esd_Widgets/Ft_Esd_DemoPage__Generated.c **** #include "Ft_Esd_Elements.h"
  10:FT_Esd_Widgets/Ft_Esd_DemoPage__Generated.c **** 
  11:FT_Esd_Widgets/Ft_Esd_DemoPage__Generated.c **** extern void Ft_Esd_Noop(void *context);
  12:FT_Esd_Widgets/Ft_Esd_DemoPage__Generated.c **** 
  13:FT_Esd_Widgets/Ft_Esd_DemoPage__Generated.c **** Ft_Esd_Theme * Ft_Esd_Theme_GetCurrent();
  14:FT_Esd_Widgets/Ft_Esd_DemoPage__Generated.c **** static ft_int16_t Ft_Esd_DemoPage_ESD_ProgressBar_X__Property(void *context) { return 389; }
  82              		.loc 2 14 0
  83              		.cfi_startproc
  84              		@ args = 0, pretend = 0, frame = 8
  85              		@ frame_needed = 1, uses_anonymous_args = 0
  86              		@ link register save eliminated.
  87 0000 80B4     		push	{r7}
  88              	.LCFI6:
  89              		.cfi_def_cfa_offset 4
  90              		.cfi_offset 7, -4
  91 0002 83B0     		sub	sp, sp, #12
  92              	.LCFI7:
  93              		.cfi_def_cfa_offset 16
  94 0004 00AF     		add	r7, sp, #0
  95              	.LCFI8:
  96              		.cfi_def_cfa_register 7
  97 0006 7860     		str	r0, [r7, #4]
  98              		.loc 2 14 0
  99 0008 40F28513 		movw	r3, #389
 100 000c 1846     		mov	r0, r3
 101 000e 0C37     		adds	r7, r7, #12
 102              	.LCFI9:
ARM GAS  /var/folders/n8/cvzdcwlj0vl4g_wtyz1ffy300000gn/T//ccLY5GZg.s 			page 5


 103              		.cfi_def_cfa_offset 4
 104 0010 BD46     		mov	sp, r7
 105              	.LCFI10:
 106              		.cfi_def_cfa_register 13
 107              		@ sp needed
 108 0012 5DF8047B 		ldr	r7, [sp], #4
 109              	.LCFI11:
 110              		.cfi_restore 7
 111              		.cfi_def_cfa_offset 0
 112 0016 7047     		bx	lr
 113              		.cfi_endproc
 114              	.LFE30:
 116              		.section	.text.Ft_Esd_DemoPage_ESD_ProgressBar_Y__Property,"ax",%progbits
 117              		.align	1
 118              		.syntax unified
 119              		.thumb
 120              		.thumb_func
 121              		.fpu fpv5-sp-d16
 123              	Ft_Esd_DemoPage_ESD_ProgressBar_Y__Property:
 124              	.LFB31:
  15:FT_Esd_Widgets/Ft_Esd_DemoPage__Generated.c **** static ft_int16_t Ft_Esd_DemoPage_ESD_ProgressBar_Y__Property(void *context) { return 286; }
 125              		.loc 2 15 0
 126              		.cfi_startproc
 127              		@ args = 0, pretend = 0, frame = 8
 128              		@ frame_needed = 1, uses_anonymous_args = 0
 129              		@ link register save eliminated.
 130 0000 80B4     		push	{r7}
 131              	.LCFI12:
 132              		.cfi_def_cfa_offset 4
 133              		.cfi_offset 7, -4
 134 0002 83B0     		sub	sp, sp, #12
 135              	.LCFI13:
 136              		.cfi_def_cfa_offset 16
 137 0004 00AF     		add	r7, sp, #0
 138              	.LCFI14:
 139              		.cfi_def_cfa_register 7
 140 0006 7860     		str	r0, [r7, #4]
 141              		.loc 2 15 0
 142 0008 4FF48F73 		mov	r3, #286
 143 000c 1846     		mov	r0, r3
 144 000e 0C37     		adds	r7, r7, #12
 145              	.LCFI15:
 146              		.cfi_def_cfa_offset 4
 147 0010 BD46     		mov	sp, r7
 148              	.LCFI16:
 149              		.cfi_def_cfa_register 13
 150              		@ sp needed
 151 0012 5DF8047B 		ldr	r7, [sp], #4
 152              	.LCFI17:
 153              		.cfi_restore 7
 154              		.cfi_def_cfa_offset 0
 155 0016 7047     		bx	lr
 156              		.cfi_endproc
 157              	.LFE31:
 159              		.section	.text.Ft_Esd_DemoPage_ESD_ProgressBar_Height__Property,"ax",%progbits
 160              		.align	1
 161              		.syntax unified
ARM GAS  /var/folders/n8/cvzdcwlj0vl4g_wtyz1ffy300000gn/T//ccLY5GZg.s 			page 6


 162              		.thumb
 163              		.thumb_func
 164              		.fpu fpv5-sp-d16
 166              	Ft_Esd_DemoPage_ESD_ProgressBar_Height__Property:
 167              	.LFB32:
  16:FT_Esd_Widgets/Ft_Esd_DemoPage__Generated.c **** static ft_int16_t Ft_Esd_DemoPage_ESD_ProgressBar_Height__Property(void *context) { return 25; }
 168              		.loc 2 16 0
 169              		.cfi_startproc
 170              		@ args = 0, pretend = 0, frame = 8
 171              		@ frame_needed = 1, uses_anonymous_args = 0
 172              		@ link register save eliminated.
 173 0000 80B4     		push	{r7}
 174              	.LCFI18:
 175              		.cfi_def_cfa_offset 4
 176              		.cfi_offset 7, -4
 177 0002 83B0     		sub	sp, sp, #12
 178              	.LCFI19:
 179              		.cfi_def_cfa_offset 16
 180 0004 00AF     		add	r7, sp, #0
 181              	.LCFI20:
 182              		.cfi_def_cfa_register 7
 183 0006 7860     		str	r0, [r7, #4]
 184              		.loc 2 16 0
 185 0008 1923     		movs	r3, #25
 186 000a 1846     		mov	r0, r3
 187 000c 0C37     		adds	r7, r7, #12
 188              	.LCFI21:
 189              		.cfi_def_cfa_offset 4
 190 000e BD46     		mov	sp, r7
 191              	.LCFI22:
 192              		.cfi_def_cfa_register 13
 193              		@ sp needed
 194 0010 5DF8047B 		ldr	r7, [sp], #4
 195              	.LCFI23:
 196              		.cfi_restore 7
 197              		.cfi_def_cfa_offset 0
 198 0014 7047     		bx	lr
 199              		.cfi_endproc
 200              	.LFE32:
 202              		.section	.text.Ft_Esd_DemoPage_ESD_ProgressBar_Range__Property,"ax",%progbits
 203              		.align	1
 204              		.syntax unified
 205              		.thumb
 206              		.thumb_func
 207              		.fpu fpv5-sp-d16
 209              	Ft_Esd_DemoPage_ESD_ProgressBar_Range__Property:
 210              	.LFB33:
  17:FT_Esd_Widgets/Ft_Esd_DemoPage__Generated.c **** static ft_uint16_t Ft_Esd_DemoPage_ESD_ProgressBar_Val__Property(void *context);
  18:FT_Esd_Widgets/Ft_Esd_DemoPage__Generated.c **** static ft_uint16_t Ft_Esd_DemoPage_ESD_ProgressBar_Range__Property(void *context) { return 1000U; }
 211              		.loc 2 18 0
 212              		.cfi_startproc
 213              		@ args = 0, pretend = 0, frame = 8
 214              		@ frame_needed = 1, uses_anonymous_args = 0
 215              		@ link register save eliminated.
 216 0000 80B4     		push	{r7}
 217              	.LCFI24:
 218              		.cfi_def_cfa_offset 4
ARM GAS  /var/folders/n8/cvzdcwlj0vl4g_wtyz1ffy300000gn/T//ccLY5GZg.s 			page 7


 219              		.cfi_offset 7, -4
 220 0002 83B0     		sub	sp, sp, #12
 221              	.LCFI25:
 222              		.cfi_def_cfa_offset 16
 223 0004 00AF     		add	r7, sp, #0
 224              	.LCFI26:
 225              		.cfi_def_cfa_register 7
 226 0006 7860     		str	r0, [r7, #4]
 227              		.loc 2 18 0
 228 0008 4FF47A73 		mov	r3, #1000
 229 000c 1846     		mov	r0, r3
 230 000e 0C37     		adds	r7, r7, #12
 231              	.LCFI27:
 232              		.cfi_def_cfa_offset 4
 233 0010 BD46     		mov	sp, r7
 234              	.LCFI28:
 235              		.cfi_def_cfa_register 13
 236              		@ sp needed
 237 0012 5DF8047B 		ldr	r7, [sp], #4
 238              	.LCFI29:
 239              		.cfi_restore 7
 240              		.cfi_def_cfa_offset 0
 241 0016 7047     		bx	lr
 242              		.cfi_endproc
 243              	.LFE33:
 245              		.section	.text.Ft_Esd_DemoPage_ESD_Gauge_X__Property,"ax",%progbits
 246              		.align	1
 247              		.syntax unified
 248              		.thumb
 249              		.thumb_func
 250              		.fpu fpv5-sp-d16
 252              	Ft_Esd_DemoPage_ESD_Gauge_X__Property:
 253              	.LFB34:
  19:FT_Esd_Widgets/Ft_Esd_DemoPage__Generated.c **** static ft_int16_t Ft_Esd_DemoPage_ESD_Gauge_X__Property(void *context) { return 287; }
 254              		.loc 2 19 0
 255              		.cfi_startproc
 256              		@ args = 0, pretend = 0, frame = 8
 257              		@ frame_needed = 1, uses_anonymous_args = 0
 258              		@ link register save eliminated.
 259 0000 80B4     		push	{r7}
 260              	.LCFI30:
 261              		.cfi_def_cfa_offset 4
 262              		.cfi_offset 7, -4
 263 0002 83B0     		sub	sp, sp, #12
 264              	.LCFI31:
 265              		.cfi_def_cfa_offset 16
 266 0004 00AF     		add	r7, sp, #0
 267              	.LCFI32:
 268              		.cfi_def_cfa_register 7
 269 0006 7860     		str	r0, [r7, #4]
 270              		.loc 2 19 0
 271 0008 40F21F13 		movw	r3, #287
 272 000c 1846     		mov	r0, r3
 273 000e 0C37     		adds	r7, r7, #12
 274              	.LCFI33:
 275              		.cfi_def_cfa_offset 4
 276 0010 BD46     		mov	sp, r7
ARM GAS  /var/folders/n8/cvzdcwlj0vl4g_wtyz1ffy300000gn/T//ccLY5GZg.s 			page 8


 277              	.LCFI34:
 278              		.cfi_def_cfa_register 13
 279              		@ sp needed
 280 0012 5DF8047B 		ldr	r7, [sp], #4
 281              	.LCFI35:
 282              		.cfi_restore 7
 283              		.cfi_def_cfa_offset 0
 284 0016 7047     		bx	lr
 285              		.cfi_endproc
 286              	.LFE34:
 288              		.section	.text.Ft_Esd_DemoPage_ESD_Gauge_Y__Property,"ax",%progbits
 289              		.align	1
 290              		.syntax unified
 291              		.thumb
 292              		.thumb_func
 293              		.fpu fpv5-sp-d16
 295              	Ft_Esd_DemoPage_ESD_Gauge_Y__Property:
 296              	.LFB35:
  20:FT_Esd_Widgets/Ft_Esd_DemoPage__Generated.c **** static ft_int16_t Ft_Esd_DemoPage_ESD_Gauge_Y__Property(void *context) { return 324; }
 297              		.loc 2 20 0
 298              		.cfi_startproc
 299              		@ args = 0, pretend = 0, frame = 8
 300              		@ frame_needed = 1, uses_anonymous_args = 0
 301              		@ link register save eliminated.
 302 0000 80B4     		push	{r7}
 303              	.LCFI36:
 304              		.cfi_def_cfa_offset 4
 305              		.cfi_offset 7, -4
 306 0002 83B0     		sub	sp, sp, #12
 307              	.LCFI37:
 308              		.cfi_def_cfa_offset 16
 309 0004 00AF     		add	r7, sp, #0
 310              	.LCFI38:
 311              		.cfi_def_cfa_register 7
 312 0006 7860     		str	r0, [r7, #4]
 313              		.loc 2 20 0
 314 0008 4FF4A273 		mov	r3, #324
 315 000c 1846     		mov	r0, r3
 316 000e 0C37     		adds	r7, r7, #12
 317              	.LCFI39:
 318              		.cfi_def_cfa_offset 4
 319 0010 BD46     		mov	sp, r7
 320              	.LCFI40:
 321              		.cfi_def_cfa_register 13
 322              		@ sp needed
 323 0012 5DF8047B 		ldr	r7, [sp], #4
 324              	.LCFI41:
 325              		.cfi_restore 7
 326              		.cfi_def_cfa_offset 0
 327 0016 7047     		bx	lr
 328              		.cfi_endproc
 329              	.LFE35:
 331              		.section	.text.Ft_Esd_DemoPage_ESD_Clock_X__Property,"ax",%progbits
 332              		.align	1
 333              		.syntax unified
 334              		.thumb
 335              		.thumb_func
ARM GAS  /var/folders/n8/cvzdcwlj0vl4g_wtyz1ffy300000gn/T//ccLY5GZg.s 			page 9


 336              		.fpu fpv5-sp-d16
 338              	Ft_Esd_DemoPage_ESD_Clock_X__Property:
 339              	.LFB36:
  21:FT_Esd_Widgets/Ft_Esd_DemoPage__Generated.c **** static ft_uint16_t Ft_Esd_DemoPage_ESD_Gauge_Val__Property(void *context);
  22:FT_Esd_Widgets/Ft_Esd_DemoPage__Generated.c **** static ft_int16_t Ft_Esd_DemoPage_ESD_Clock_X__Property(void *context) { return 383; }
 340              		.loc 2 22 0
 341              		.cfi_startproc
 342              		@ args = 0, pretend = 0, frame = 8
 343              		@ frame_needed = 1, uses_anonymous_args = 0
 344              		@ link register save eliminated.
 345 0000 80B4     		push	{r7}
 346              	.LCFI42:
 347              		.cfi_def_cfa_offset 4
 348              		.cfi_offset 7, -4
 349 0002 83B0     		sub	sp, sp, #12
 350              	.LCFI43:
 351              		.cfi_def_cfa_offset 16
 352 0004 00AF     		add	r7, sp, #0
 353              	.LCFI44:
 354              		.cfi_def_cfa_register 7
 355 0006 7860     		str	r0, [r7, #4]
 356              		.loc 2 22 0
 357 0008 40F27F13 		movw	r3, #383
 358 000c 1846     		mov	r0, r3
 359 000e 0C37     		adds	r7, r7, #12
 360              	.LCFI45:
 361              		.cfi_def_cfa_offset 4
 362 0010 BD46     		mov	sp, r7
 363              	.LCFI46:
 364              		.cfi_def_cfa_register 13
 365              		@ sp needed
 366 0012 5DF8047B 		ldr	r7, [sp], #4
 367              	.LCFI47:
 368              		.cfi_restore 7
 369              		.cfi_def_cfa_offset 0
 370 0016 7047     		bx	lr
 371              		.cfi_endproc
 372              	.LFE36:
 374              		.section	.text.Ft_Esd_DemoPage_ESD_Clock_Y__Property,"ax",%progbits
 375              		.align	1
 376              		.syntax unified
 377              		.thumb
 378              		.thumb_func
 379              		.fpu fpv5-sp-d16
 381              	Ft_Esd_DemoPage_ESD_Clock_Y__Property:
 382              	.LFB37:
  23:FT_Esd_Widgets/Ft_Esd_DemoPage__Generated.c **** static ft_int16_t Ft_Esd_DemoPage_ESD_Clock_Y__Property(void *context) { return 98; }
 383              		.loc 2 23 0
 384              		.cfi_startproc
 385              		@ args = 0, pretend = 0, frame = 8
 386              		@ frame_needed = 1, uses_anonymous_args = 0
 387              		@ link register save eliminated.
 388 0000 80B4     		push	{r7}
 389              	.LCFI48:
 390              		.cfi_def_cfa_offset 4
 391              		.cfi_offset 7, -4
 392 0002 83B0     		sub	sp, sp, #12
ARM GAS  /var/folders/n8/cvzdcwlj0vl4g_wtyz1ffy300000gn/T//ccLY5GZg.s 			page 10


 393              	.LCFI49:
 394              		.cfi_def_cfa_offset 16
 395 0004 00AF     		add	r7, sp, #0
 396              	.LCFI50:
 397              		.cfi_def_cfa_register 7
 398 0006 7860     		str	r0, [r7, #4]
 399              		.loc 2 23 0
 400 0008 6223     		movs	r3, #98
 401 000a 1846     		mov	r0, r3
 402 000c 0C37     		adds	r7, r7, #12
 403              	.LCFI51:
 404              		.cfi_def_cfa_offset 4
 405 000e BD46     		mov	sp, r7
 406              	.LCFI52:
 407              		.cfi_def_cfa_register 13
 408              		@ sp needed
 409 0010 5DF8047B 		ldr	r7, [sp], #4
 410              	.LCFI53:
 411              		.cfi_restore 7
 412              		.cfi_def_cfa_offset 0
 413 0014 7047     		bx	lr
 414              		.cfi_endproc
 415              	.LFE37:
 417              		.section	.text.Ft_Esd_DemoPage_ESD_Clock_Interactive__Property,"ax",%progbits
 418              		.align	1
 419              		.syntax unified
 420              		.thumb
 421              		.thumb_func
 422              		.fpu fpv5-sp-d16
 424              	Ft_Esd_DemoPage_ESD_Clock_Interactive__Property:
 425              	.LFB38:
  24:FT_Esd_Widgets/Ft_Esd_DemoPage__Generated.c **** static ft_uint32_t Ft_Esd_DemoPage_ESD_Clock_Ms__Property(void *context);
  25:FT_Esd_Widgets/Ft_Esd_DemoPage__Generated.c **** static ft_bool_t Ft_Esd_DemoPage_ESD_Clock_Interactive__Property(void *context) { return 1; }
 426              		.loc 2 25 0
 427              		.cfi_startproc
 428              		@ args = 0, pretend = 0, frame = 8
 429              		@ frame_needed = 1, uses_anonymous_args = 0
 430              		@ link register save eliminated.
 431 0000 80B4     		push	{r7}
 432              	.LCFI54:
 433              		.cfi_def_cfa_offset 4
 434              		.cfi_offset 7, -4
 435 0002 83B0     		sub	sp, sp, #12
 436              	.LCFI55:
 437              		.cfi_def_cfa_offset 16
 438 0004 00AF     		add	r7, sp, #0
 439              	.LCFI56:
 440              		.cfi_def_cfa_register 7
 441 0006 7860     		str	r0, [r7, #4]
 442              		.loc 2 25 0
 443 0008 0123     		movs	r3, #1
 444 000a 1846     		mov	r0, r3
 445 000c 0C37     		adds	r7, r7, #12
 446              	.LCFI57:
 447              		.cfi_def_cfa_offset 4
 448 000e BD46     		mov	sp, r7
 449              	.LCFI58:
ARM GAS  /var/folders/n8/cvzdcwlj0vl4g_wtyz1ffy300000gn/T//ccLY5GZg.s 			page 11


 450              		.cfi_def_cfa_register 13
 451              		@ sp needed
 452 0010 5DF8047B 		ldr	r7, [sp], #4
 453              	.LCFI59:
 454              		.cfi_restore 7
 455              		.cfi_def_cfa_offset 0
 456 0014 7047     		bx	lr
 457              		.cfi_endproc
 458              	.LFE38:
 460              		.section	.text.Ft_Esd_DemoPage_ESD_PushButton_X__Property,"ax",%progbits
 461              		.align	1
 462              		.syntax unified
 463              		.thumb
 464              		.thumb_func
 465              		.fpu fpv5-sp-d16
 467              	Ft_Esd_DemoPage_ESD_PushButton_X__Property:
 468              	.LFB39:
  26:FT_Esd_Widgets/Ft_Esd_DemoPage__Generated.c **** static ft_int16_t Ft_Esd_DemoPage_ESD_PushButton_X__Property(void *context) { return 26; }
 469              		.loc 2 26 0
 470              		.cfi_startproc
 471              		@ args = 0, pretend = 0, frame = 8
 472              		@ frame_needed = 1, uses_anonymous_args = 0
 473              		@ link register save eliminated.
 474 0000 80B4     		push	{r7}
 475              	.LCFI60:
 476              		.cfi_def_cfa_offset 4
 477              		.cfi_offset 7, -4
 478 0002 83B0     		sub	sp, sp, #12
 479              	.LCFI61:
 480              		.cfi_def_cfa_offset 16
 481 0004 00AF     		add	r7, sp, #0
 482              	.LCFI62:
 483              		.cfi_def_cfa_register 7
 484 0006 7860     		str	r0, [r7, #4]
 485              		.loc 2 26 0
 486 0008 1A23     		movs	r3, #26
 487 000a 1846     		mov	r0, r3
 488 000c 0C37     		adds	r7, r7, #12
 489              	.LCFI63:
 490              		.cfi_def_cfa_offset 4
 491 000e BD46     		mov	sp, r7
 492              	.LCFI64:
 493              		.cfi_def_cfa_register 13
 494              		@ sp needed
 495 0010 5DF8047B 		ldr	r7, [sp], #4
 496              	.LCFI65:
 497              		.cfi_restore 7
 498              		.cfi_def_cfa_offset 0
 499 0014 7047     		bx	lr
 500              		.cfi_endproc
 501              	.LFE39:
 503              		.section	.text.Ft_Esd_DemoPage_ESD_PushButton_Y__Property,"ax",%progbits
 504              		.align	1
 505              		.syntax unified
 506              		.thumb
 507              		.thumb_func
 508              		.fpu fpv5-sp-d16
ARM GAS  /var/folders/n8/cvzdcwlj0vl4g_wtyz1ffy300000gn/T//ccLY5GZg.s 			page 12


 510              	Ft_Esd_DemoPage_ESD_PushButton_Y__Property:
 511              	.LFB40:
  27:FT_Esd_Widgets/Ft_Esd_DemoPage__Generated.c **** static ft_int16_t Ft_Esd_DemoPage_ESD_PushButton_Y__Property(void *context) { return 14; }
 512              		.loc 2 27 0
 513              		.cfi_startproc
 514              		@ args = 0, pretend = 0, frame = 8
 515              		@ frame_needed = 1, uses_anonymous_args = 0
 516              		@ link register save eliminated.
 517 0000 80B4     		push	{r7}
 518              	.LCFI66:
 519              		.cfi_def_cfa_offset 4
 520              		.cfi_offset 7, -4
 521 0002 83B0     		sub	sp, sp, #12
 522              	.LCFI67:
 523              		.cfi_def_cfa_offset 16
 524 0004 00AF     		add	r7, sp, #0
 525              	.LCFI68:
 526              		.cfi_def_cfa_register 7
 527 0006 7860     		str	r0, [r7, #4]
 528              		.loc 2 27 0
 529 0008 0E23     		movs	r3, #14
 530 000a 1846     		mov	r0, r3
 531 000c 0C37     		adds	r7, r7, #12
 532              	.LCFI69:
 533              		.cfi_def_cfa_offset 4
 534 000e BD46     		mov	sp, r7
 535              	.LCFI70:
 536              		.cfi_def_cfa_register 13
 537              		@ sp needed
 538 0010 5DF8047B 		ldr	r7, [sp], #4
 539              	.LCFI71:
 540              		.cfi_restore 7
 541              		.cfi_def_cfa_offset 0
 542 0014 7047     		bx	lr
 543              		.cfi_endproc
 544              	.LFE40:
 546              		.section	.text.Ft_Esd_DemoPage_ESD_Rectangle_X__Property,"ax",%progbits
 547              		.align	1
 548              		.syntax unified
 549              		.thumb
 550              		.thumb_func
 551              		.fpu fpv5-sp-d16
 553              	Ft_Esd_DemoPage_ESD_Rectangle_X__Property:
 554              	.LFB41:
  28:FT_Esd_Widgets/Ft_Esd_DemoPage__Generated.c **** static ft_int16_t Ft_Esd_DemoPage_ESD_Rectangle_X__Property(void *context) { return 431; }
 555              		.loc 2 28 0
 556              		.cfi_startproc
 557              		@ args = 0, pretend = 0, frame = 8
 558              		@ frame_needed = 1, uses_anonymous_args = 0
 559              		@ link register save eliminated.
 560 0000 80B4     		push	{r7}
 561              	.LCFI72:
 562              		.cfi_def_cfa_offset 4
 563              		.cfi_offset 7, -4
 564 0002 83B0     		sub	sp, sp, #12
 565              	.LCFI73:
 566              		.cfi_def_cfa_offset 16
ARM GAS  /var/folders/n8/cvzdcwlj0vl4g_wtyz1ffy300000gn/T//ccLY5GZg.s 			page 13


 567 0004 00AF     		add	r7, sp, #0
 568              	.LCFI74:
 569              		.cfi_def_cfa_register 7
 570 0006 7860     		str	r0, [r7, #4]
 571              		.loc 2 28 0
 572 0008 40F2AF13 		movw	r3, #431
 573 000c 1846     		mov	r0, r3
 574 000e 0C37     		adds	r7, r7, #12
 575              	.LCFI75:
 576              		.cfi_def_cfa_offset 4
 577 0010 BD46     		mov	sp, r7
 578              	.LCFI76:
 579              		.cfi_def_cfa_register 13
 580              		@ sp needed
 581 0012 5DF8047B 		ldr	r7, [sp], #4
 582              	.LCFI77:
 583              		.cfi_restore 7
 584              		.cfi_def_cfa_offset 0
 585 0016 7047     		bx	lr
 586              		.cfi_endproc
 587              	.LFE41:
 589              		.section	.text.Ft_Esd_DemoPage_ESD_Rectangle_Y__Property,"ax",%progbits
 590              		.align	1
 591              		.syntax unified
 592              		.thumb
 593              		.thumb_func
 594              		.fpu fpv5-sp-d16
 596              	Ft_Esd_DemoPage_ESD_Rectangle_Y__Property:
 597              	.LFB42:
  29:FT_Esd_Widgets/Ft_Esd_DemoPage__Generated.c **** static ft_int16_t Ft_Esd_DemoPage_ESD_Rectangle_Y__Property(void *context) { return 13; }
 598              		.loc 2 29 0
 599              		.cfi_startproc
 600              		@ args = 0, pretend = 0, frame = 8
 601              		@ frame_needed = 1, uses_anonymous_args = 0
 602              		@ link register save eliminated.
 603 0000 80B4     		push	{r7}
 604              	.LCFI78:
 605              		.cfi_def_cfa_offset 4
 606              		.cfi_offset 7, -4
 607 0002 83B0     		sub	sp, sp, #12
 608              	.LCFI79:
 609              		.cfi_def_cfa_offset 16
 610 0004 00AF     		add	r7, sp, #0
 611              	.LCFI80:
 612              		.cfi_def_cfa_register 7
 613 0006 7860     		str	r0, [r7, #4]
 614              		.loc 2 29 0
 615 0008 0D23     		movs	r3, #13
 616 000a 1846     		mov	r0, r3
 617 000c 0C37     		adds	r7, r7, #12
 618              	.LCFI81:
 619              		.cfi_def_cfa_offset 4
 620 000e BD46     		mov	sp, r7
 621              	.LCFI82:
 622              		.cfi_def_cfa_register 13
 623              		@ sp needed
 624 0010 5DF8047B 		ldr	r7, [sp], #4
ARM GAS  /var/folders/n8/cvzdcwlj0vl4g_wtyz1ffy300000gn/T//ccLY5GZg.s 			page 14


 625              	.LCFI83:
 626              		.cfi_restore 7
 627              		.cfi_def_cfa_offset 0
 628 0014 7047     		bx	lr
 629              		.cfi_endproc
 630              	.LFE42:
 632              		.section	.text.Ft_Esd_DemoPage_ESD_PushButton_1_X__Property,"ax",%progbits
 633              		.align	1
 634              		.syntax unified
 635              		.thumb
 636              		.thumb_func
 637              		.fpu fpv5-sp-d16
 639              	Ft_Esd_DemoPage_ESD_PushButton_1_X__Property:
 640              	.LFB43:
  30:FT_Esd_Widgets/Ft_Esd_DemoPage__Generated.c **** static ft_int16_t Ft_Esd_DemoPage_ESD_PushButton_1_X__Property(void *context) { return 158; }
 641              		.loc 2 30 0
 642              		.cfi_startproc
 643              		@ args = 0, pretend = 0, frame = 8
 644              		@ frame_needed = 1, uses_anonymous_args = 0
 645              		@ link register save eliminated.
 646 0000 80B4     		push	{r7}
 647              	.LCFI84:
 648              		.cfi_def_cfa_offset 4
 649              		.cfi_offset 7, -4
 650 0002 83B0     		sub	sp, sp, #12
 651              	.LCFI85:
 652              		.cfi_def_cfa_offset 16
 653 0004 00AF     		add	r7, sp, #0
 654              	.LCFI86:
 655              		.cfi_def_cfa_register 7
 656 0006 7860     		str	r0, [r7, #4]
 657              		.loc 2 30 0
 658 0008 9E23     		movs	r3, #158
 659 000a 1846     		mov	r0, r3
 660 000c 0C37     		adds	r7, r7, #12
 661              	.LCFI87:
 662              		.cfi_def_cfa_offset 4
 663 000e BD46     		mov	sp, r7
 664              	.LCFI88:
 665              		.cfi_def_cfa_register 13
 666              		@ sp needed
 667 0010 5DF8047B 		ldr	r7, [sp], #4
 668              	.LCFI89:
 669              		.cfi_restore 7
 670              		.cfi_def_cfa_offset 0
 671 0014 7047     		bx	lr
 672              		.cfi_endproc
 673              	.LFE43:
 675              		.section	.text.Ft_Esd_DemoPage_ESD_PushButton_1_Y__Property,"ax",%progbits
 676              		.align	1
 677              		.syntax unified
 678              		.thumb
 679              		.thumb_func
 680              		.fpu fpv5-sp-d16
 682              	Ft_Esd_DemoPage_ESD_PushButton_1_Y__Property:
 683              	.LFB44:
  31:FT_Esd_Widgets/Ft_Esd_DemoPage__Generated.c **** static ft_int16_t Ft_Esd_DemoPage_ESD_PushButton_1_Y__Property(void *context) { return 13; }
ARM GAS  /var/folders/n8/cvzdcwlj0vl4g_wtyz1ffy300000gn/T//ccLY5GZg.s 			page 15


 684              		.loc 2 31 0
 685              		.cfi_startproc
 686              		@ args = 0, pretend = 0, frame = 8
 687              		@ frame_needed = 1, uses_anonymous_args = 0
 688              		@ link register save eliminated.
 689 0000 80B4     		push	{r7}
 690              	.LCFI90:
 691              		.cfi_def_cfa_offset 4
 692              		.cfi_offset 7, -4
 693 0002 83B0     		sub	sp, sp, #12
 694              	.LCFI91:
 695              		.cfi_def_cfa_offset 16
 696 0004 00AF     		add	r7, sp, #0
 697              	.LCFI92:
 698              		.cfi_def_cfa_register 7
 699 0006 7860     		str	r0, [r7, #4]
 700              		.loc 2 31 0
 701 0008 0D23     		movs	r3, #13
 702 000a 1846     		mov	r0, r3
 703 000c 0C37     		adds	r7, r7, #12
 704              	.LCFI93:
 705              		.cfi_def_cfa_offset 4
 706 000e BD46     		mov	sp, r7
 707              	.LCFI94:
 708              		.cfi_def_cfa_register 13
 709              		@ sp needed
 710 0010 5DF8047B 		ldr	r7, [sp], #4
 711              	.LCFI95:
 712              		.cfi_restore 7
 713              		.cfi_def_cfa_offset 0
 714 0014 7047     		bx	lr
 715              		.cfi_endproc
 716              	.LFE44:
 718              		.section	.text.Ft_Esd_DemoPage_ESD_PushButton_1_Primary__Property,"ax",%progbits
 719              		.align	1
 720              		.syntax unified
 721              		.thumb
 722              		.thumb_func
 723              		.fpu fpv5-sp-d16
 725              	Ft_Esd_DemoPage_ESD_PushButton_1_Primary__Property:
 726              	.LFB45:
  32:FT_Esd_Widgets/Ft_Esd_DemoPage__Generated.c **** static ft_bool_t Ft_Esd_DemoPage_ESD_PushButton_1_Primary__Property(void *context) { return 0; }
 727              		.loc 2 32 0
 728              		.cfi_startproc
 729              		@ args = 0, pretend = 0, frame = 8
 730              		@ frame_needed = 1, uses_anonymous_args = 0
 731              		@ link register save eliminated.
 732 0000 80B4     		push	{r7}
 733              	.LCFI96:
 734              		.cfi_def_cfa_offset 4
 735              		.cfi_offset 7, -4
 736 0002 83B0     		sub	sp, sp, #12
 737              	.LCFI97:
 738              		.cfi_def_cfa_offset 16
 739 0004 00AF     		add	r7, sp, #0
 740              	.LCFI98:
 741              		.cfi_def_cfa_register 7
ARM GAS  /var/folders/n8/cvzdcwlj0vl4g_wtyz1ffy300000gn/T//ccLY5GZg.s 			page 16


 742 0006 7860     		str	r0, [r7, #4]
 743              		.loc 2 32 0
 744 0008 0023     		movs	r3, #0
 745 000a 1846     		mov	r0, r3
 746 000c 0C37     		adds	r7, r7, #12
 747              	.LCFI99:
 748              		.cfi_def_cfa_offset 4
 749 000e BD46     		mov	sp, r7
 750              	.LCFI100:
 751              		.cfi_def_cfa_register 13
 752              		@ sp needed
 753 0010 5DF8047B 		ldr	r7, [sp], #4
 754              	.LCFI101:
 755              		.cfi_restore 7
 756              		.cfi_def_cfa_offset 0
 757 0014 7047     		bx	lr
 758              		.cfi_endproc
 759              	.LFE45:
 761              		.section	.text.Ft_Esd_DemoPage_ESD_Toggle_X__Property,"ax",%progbits
 762              		.align	1
 763              		.syntax unified
 764              		.thumb
 765              		.thumb_func
 766              		.fpu fpv5-sp-d16
 768              	Ft_Esd_DemoPage_ESD_Toggle_X__Property:
 769              	.LFB46:
  33:FT_Esd_Widgets/Ft_Esd_DemoPage__Generated.c **** static ft_int16_t Ft_Esd_DemoPage_ESD_Toggle_X__Property(void *context) { return 450; }
 770              		.loc 2 33 0
 771              		.cfi_startproc
 772              		@ args = 0, pretend = 0, frame = 8
 773              		@ frame_needed = 1, uses_anonymous_args = 0
 774              		@ link register save eliminated.
 775 0000 80B4     		push	{r7}
 776              	.LCFI102:
 777              		.cfi_def_cfa_offset 4
 778              		.cfi_offset 7, -4
 779 0002 83B0     		sub	sp, sp, #12
 780              	.LCFI103:
 781              		.cfi_def_cfa_offset 16
 782 0004 00AF     		add	r7, sp, #0
 783              	.LCFI104:
 784              		.cfi_def_cfa_register 7
 785 0006 7860     		str	r0, [r7, #4]
 786              		.loc 2 33 0
 787 0008 4FF4E173 		mov	r3, #450
 788 000c 1846     		mov	r0, r3
 789 000e 0C37     		adds	r7, r7, #12
 790              	.LCFI105:
 791              		.cfi_def_cfa_offset 4
 792 0010 BD46     		mov	sp, r7
 793              	.LCFI106:
 794              		.cfi_def_cfa_register 13
 795              		@ sp needed
 796 0012 5DF8047B 		ldr	r7, [sp], #4
 797              	.LCFI107:
 798              		.cfi_restore 7
 799              		.cfi_def_cfa_offset 0
ARM GAS  /var/folders/n8/cvzdcwlj0vl4g_wtyz1ffy300000gn/T//ccLY5GZg.s 			page 17


 800 0016 7047     		bx	lr
 801              		.cfi_endproc
 802              	.LFE46:
 804              		.section	.text.Ft_Esd_DemoPage_ESD_Toggle_Y__Property,"ax",%progbits
 805              		.align	1
 806              		.syntax unified
 807              		.thumb
 808              		.thumb_func
 809              		.fpu fpv5-sp-d16
 811              	Ft_Esd_DemoPage_ESD_Toggle_Y__Property:
 812              	.LFB47:
  34:FT_Esd_Widgets/Ft_Esd_DemoPage__Generated.c **** static ft_int16_t Ft_Esd_DemoPage_ESD_Toggle_Y__Property(void *context) { return 331; }
 813              		.loc 2 34 0
 814              		.cfi_startproc
 815              		@ args = 0, pretend = 0, frame = 8
 816              		@ frame_needed = 1, uses_anonymous_args = 0
 817              		@ link register save eliminated.
 818 0000 80B4     		push	{r7}
 819              	.LCFI108:
 820              		.cfi_def_cfa_offset 4
 821              		.cfi_offset 7, -4
 822 0002 83B0     		sub	sp, sp, #12
 823              	.LCFI109:
 824              		.cfi_def_cfa_offset 16
 825 0004 00AF     		add	r7, sp, #0
 826              	.LCFI110:
 827              		.cfi_def_cfa_register 7
 828 0006 7860     		str	r0, [r7, #4]
 829              		.loc 2 34 0
 830 0008 40F24B13 		movw	r3, #331
 831 000c 1846     		mov	r0, r3
 832 000e 0C37     		adds	r7, r7, #12
 833              	.LCFI111:
 834              		.cfi_def_cfa_offset 4
 835 0010 BD46     		mov	sp, r7
 836              	.LCFI112:
 837              		.cfi_def_cfa_register 13
 838              		@ sp needed
 839 0012 5DF8047B 		ldr	r7, [sp], #4
 840              	.LCFI113:
 841              		.cfi_restore 7
 842              		.cfi_def_cfa_offset 0
 843 0016 7047     		bx	lr
 844              		.cfi_endproc
 845              	.LFE47:
 847              		.section	.text.Ft_Esd_DemoPage_ESD_Toggle_Width__Property,"ax",%progbits
 848              		.align	1
 849              		.syntax unified
 850              		.thumb
 851              		.thumb_func
 852              		.fpu fpv5-sp-d16
 854              	Ft_Esd_DemoPage_ESD_Toggle_Width__Property:
 855              	.LFB48:
  35:FT_Esd_Widgets/Ft_Esd_DemoPage__Generated.c **** static ft_int16_t Ft_Esd_DemoPage_ESD_Toggle_Width__Property(void *context) { return 120; }
 856              		.loc 2 35 0
 857              		.cfi_startproc
 858              		@ args = 0, pretend = 0, frame = 8
ARM GAS  /var/folders/n8/cvzdcwlj0vl4g_wtyz1ffy300000gn/T//ccLY5GZg.s 			page 18


 859              		@ frame_needed = 1, uses_anonymous_args = 0
 860              		@ link register save eliminated.
 861 0000 80B4     		push	{r7}
 862              	.LCFI114:
 863              		.cfi_def_cfa_offset 4
 864              		.cfi_offset 7, -4
 865 0002 83B0     		sub	sp, sp, #12
 866              	.LCFI115:
 867              		.cfi_def_cfa_offset 16
 868 0004 00AF     		add	r7, sp, #0
 869              	.LCFI116:
 870              		.cfi_def_cfa_register 7
 871 0006 7860     		str	r0, [r7, #4]
 872              		.loc 2 35 0
 873 0008 7823     		movs	r3, #120
 874 000a 1846     		mov	r0, r3
 875 000c 0C37     		adds	r7, r7, #12
 876              	.LCFI117:
 877              		.cfi_def_cfa_offset 4
 878 000e BD46     		mov	sp, r7
 879              	.LCFI118:
 880              		.cfi_def_cfa_register 13
 881              		@ sp needed
 882 0010 5DF8047B 		ldr	r7, [sp], #4
 883              	.LCFI119:
 884              		.cfi_restore 7
 885              		.cfi_def_cfa_offset 0
 886 0014 7047     		bx	lr
 887              		.cfi_endproc
 888              	.LFE48:
 890              		.section	.text.Ft_Esd_DemoPage_ESD_PushButton_2_X__Property,"ax",%progbits
 891              		.align	1
 892              		.syntax unified
 893              		.thumb
 894              		.thumb_func
 895              		.fpu fpv5-sp-d16
 897              	Ft_Esd_DemoPage_ESD_PushButton_2_X__Property:
 898              	.LFB49:
  36:FT_Esd_Widgets/Ft_Esd_DemoPage__Generated.c **** static ft_int16_t Ft_Esd_DemoPage_ESD_PushButton_2_X__Property(void *context) { return 21; }
 899              		.loc 2 36 0
 900              		.cfi_startproc
 901              		@ args = 0, pretend = 0, frame = 8
 902              		@ frame_needed = 1, uses_anonymous_args = 0
 903              		@ link register save eliminated.
 904 0000 80B4     		push	{r7}
 905              	.LCFI120:
 906              		.cfi_def_cfa_offset 4
 907              		.cfi_offset 7, -4
 908 0002 83B0     		sub	sp, sp, #12
 909              	.LCFI121:
 910              		.cfi_def_cfa_offset 16
 911 0004 00AF     		add	r7, sp, #0
 912              	.LCFI122:
 913              		.cfi_def_cfa_register 7
 914 0006 7860     		str	r0, [r7, #4]
 915              		.loc 2 36 0
 916 0008 1523     		movs	r3, #21
ARM GAS  /var/folders/n8/cvzdcwlj0vl4g_wtyz1ffy300000gn/T//ccLY5GZg.s 			page 19


 917 000a 1846     		mov	r0, r3
 918 000c 0C37     		adds	r7, r7, #12
 919              	.LCFI123:
 920              		.cfi_def_cfa_offset 4
 921 000e BD46     		mov	sp, r7
 922              	.LCFI124:
 923              		.cfi_def_cfa_register 13
 924              		@ sp needed
 925 0010 5DF8047B 		ldr	r7, [sp], #4
 926              	.LCFI125:
 927              		.cfi_restore 7
 928              		.cfi_def_cfa_offset 0
 929 0014 7047     		bx	lr
 930              		.cfi_endproc
 931              	.LFE49:
 933              		.section	.text.Ft_Esd_DemoPage_ESD_PushButton_2_Y__Property,"ax",%progbits
 934              		.align	1
 935              		.syntax unified
 936              		.thumb
 937              		.thumb_func
 938              		.fpu fpv5-sp-d16
 940              	Ft_Esd_DemoPage_ESD_PushButton_2_Y__Property:
 941              	.LFB50:
  37:FT_Esd_Widgets/Ft_Esd_DemoPage__Generated.c **** static ft_int16_t Ft_Esd_DemoPage_ESD_PushButton_2_Y__Property(void *context) { return 66; }
 942              		.loc 2 37 0
 943              		.cfi_startproc
 944              		@ args = 0, pretend = 0, frame = 8
 945              		@ frame_needed = 1, uses_anonymous_args = 0
 946              		@ link register save eliminated.
 947 0000 80B4     		push	{r7}
 948              	.LCFI126:
 949              		.cfi_def_cfa_offset 4
 950              		.cfi_offset 7, -4
 951 0002 83B0     		sub	sp, sp, #12
 952              	.LCFI127:
 953              		.cfi_def_cfa_offset 16
 954 0004 00AF     		add	r7, sp, #0
 955              	.LCFI128:
 956              		.cfi_def_cfa_register 7
 957 0006 7860     		str	r0, [r7, #4]
 958              		.loc 2 37 0
 959 0008 4223     		movs	r3, #66
 960 000a 1846     		mov	r0, r3
 961 000c 0C37     		adds	r7, r7, #12
 962              	.LCFI129:
 963              		.cfi_def_cfa_offset 4
 964 000e BD46     		mov	sp, r7
 965              	.LCFI130:
 966              		.cfi_def_cfa_register 13
 967              		@ sp needed
 968 0010 5DF8047B 		ldr	r7, [sp], #4
 969              	.LCFI131:
 970              		.cfi_restore 7
 971              		.cfi_def_cfa_offset 0
 972 0014 7047     		bx	lr
 973              		.cfi_endproc
 974              	.LFE50:
ARM GAS  /var/folders/n8/cvzdcwlj0vl4g_wtyz1ffy300000gn/T//ccLY5GZg.s 			page 20


 976              		.section	.text.Ft_Esd_DemoPage_ESD_PushButton_2_Primary__Property,"ax",%progbits
 977              		.align	1
 978              		.syntax unified
 979              		.thumb
 980              		.thumb_func
 981              		.fpu fpv5-sp-d16
 983              	Ft_Esd_DemoPage_ESD_PushButton_2_Primary__Property:
 984              	.LFB51:
  38:FT_Esd_Widgets/Ft_Esd_DemoPage__Generated.c **** static ft_bool_t Ft_Esd_DemoPage_ESD_PushButton_2_Primary__Property(void *context) { return 0; }
 985              		.loc 2 38 0
 986              		.cfi_startproc
 987              		@ args = 0, pretend = 0, frame = 8
 988              		@ frame_needed = 1, uses_anonymous_args = 0
 989              		@ link register save eliminated.
 990 0000 80B4     		push	{r7}
 991              	.LCFI132:
 992              		.cfi_def_cfa_offset 4
 993              		.cfi_offset 7, -4
 994 0002 83B0     		sub	sp, sp, #12
 995              	.LCFI133:
 996              		.cfi_def_cfa_offset 16
 997 0004 00AF     		add	r7, sp, #0
 998              	.LCFI134:
 999              		.cfi_def_cfa_register 7
 1000 0006 7860     		str	r0, [r7, #4]
 1001              		.loc 2 38 0
 1002 0008 0023     		movs	r3, #0
 1003 000a 1846     		mov	r0, r3
 1004 000c 0C37     		adds	r7, r7, #12
 1005              	.LCFI135:
 1006              		.cfi_def_cfa_offset 4
 1007 000e BD46     		mov	sp, r7
 1008              	.LCFI136:
 1009              		.cfi_def_cfa_register 13
 1010              		@ sp needed
 1011 0010 5DF8047B 		ldr	r7, [sp], #4
 1012              	.LCFI137:
 1013              		.cfi_restore 7
 1014              		.cfi_def_cfa_offset 0
 1015 0014 7047     		bx	lr
 1016              		.cfi_endproc
 1017              	.LFE51:
 1019              		.section	.text.Ft_Esd_DemoPage_ESD_Label_X__Property,"ax",%progbits
 1020              		.align	1
 1021              		.syntax unified
 1022              		.thumb
 1023              		.thumb_func
 1024              		.fpu fpv5-sp-d16
 1026              	Ft_Esd_DemoPage_ESD_Label_X__Property:
 1027              	.LFB52:
  39:FT_Esd_Widgets/Ft_Esd_DemoPage__Generated.c **** static ft_int16_t Ft_Esd_DemoPage_ESD_Label_X__Property(void *context) { return 158; }
 1028              		.loc 2 39 0
 1029              		.cfi_startproc
 1030              		@ args = 0, pretend = 0, frame = 8
 1031              		@ frame_needed = 1, uses_anonymous_args = 0
 1032              		@ link register save eliminated.
 1033 0000 80B4     		push	{r7}
ARM GAS  /var/folders/n8/cvzdcwlj0vl4g_wtyz1ffy300000gn/T//ccLY5GZg.s 			page 21


 1034              	.LCFI138:
 1035              		.cfi_def_cfa_offset 4
 1036              		.cfi_offset 7, -4
 1037 0002 83B0     		sub	sp, sp, #12
 1038              	.LCFI139:
 1039              		.cfi_def_cfa_offset 16
 1040 0004 00AF     		add	r7, sp, #0
 1041              	.LCFI140:
 1042              		.cfi_def_cfa_register 7
 1043 0006 7860     		str	r0, [r7, #4]
 1044              		.loc 2 39 0
 1045 0008 9E23     		movs	r3, #158
 1046 000a 1846     		mov	r0, r3
 1047 000c 0C37     		adds	r7, r7, #12
 1048              	.LCFI141:
 1049              		.cfi_def_cfa_offset 4
 1050 000e BD46     		mov	sp, r7
 1051              	.LCFI142:
 1052              		.cfi_def_cfa_register 13
 1053              		@ sp needed
 1054 0010 5DF8047B 		ldr	r7, [sp], #4
 1055              	.LCFI143:
 1056              		.cfi_restore 7
 1057              		.cfi_def_cfa_offset 0
 1058 0014 7047     		bx	lr
 1059              		.cfi_endproc
 1060              	.LFE52:
 1062              		.section	.text.Ft_Esd_DemoPage_ESD_Label_Y__Property,"ax",%progbits
 1063              		.align	1
 1064              		.syntax unified
 1065              		.thumb
 1066              		.thumb_func
 1067              		.fpu fpv5-sp-d16
 1069              	Ft_Esd_DemoPage_ESD_Label_Y__Property:
 1070              	.LFB53:
  40:FT_Esd_Widgets/Ft_Esd_DemoPage__Generated.c **** static ft_int16_t Ft_Esd_DemoPage_ESD_Label_Y__Property(void *context) { return 66; }
 1071              		.loc 2 40 0
 1072              		.cfi_startproc
 1073              		@ args = 0, pretend = 0, frame = 8
 1074              		@ frame_needed = 1, uses_anonymous_args = 0
 1075              		@ link register save eliminated.
 1076 0000 80B4     		push	{r7}
 1077              	.LCFI144:
 1078              		.cfi_def_cfa_offset 4
 1079              		.cfi_offset 7, -4
 1080 0002 83B0     		sub	sp, sp, #12
 1081              	.LCFI145:
 1082              		.cfi_def_cfa_offset 16
 1083 0004 00AF     		add	r7, sp, #0
 1084              	.LCFI146:
 1085              		.cfi_def_cfa_register 7
 1086 0006 7860     		str	r0, [r7, #4]
 1087              		.loc 2 40 0
 1088 0008 4223     		movs	r3, #66
 1089 000a 1846     		mov	r0, r3
 1090 000c 0C37     		adds	r7, r7, #12
 1091              	.LCFI147:
ARM GAS  /var/folders/n8/cvzdcwlj0vl4g_wtyz1ffy300000gn/T//ccLY5GZg.s 			page 22


 1092              		.cfi_def_cfa_offset 4
 1093 000e BD46     		mov	sp, r7
 1094              	.LCFI148:
 1095              		.cfi_def_cfa_register 13
 1096              		@ sp needed
 1097 0010 5DF8047B 		ldr	r7, [sp], #4
 1098              	.LCFI149:
 1099              		.cfi_restore 7
 1100              		.cfi_def_cfa_offset 0
 1101 0014 7047     		bx	lr
 1102              		.cfi_endproc
 1103              	.LFE53:
 1105              		.section	.text.Ft_Esd_DemoPage_ESD_PushButton_3_X__Property,"ax",%progbits
 1106              		.align	1
 1107              		.syntax unified
 1108              		.thumb
 1109              		.thumb_func
 1110              		.fpu fpv5-sp-d16
 1112              	Ft_Esd_DemoPage_ESD_PushButton_3_X__Property:
 1113              	.LFB54:
  41:FT_Esd_Widgets/Ft_Esd_DemoPage__Generated.c **** static ft_int16_t Ft_Esd_DemoPage_ESD_PushButton_3_X__Property(void *context) { return 292; }
 1114              		.loc 2 41 0
 1115              		.cfi_startproc
 1116              		@ args = 0, pretend = 0, frame = 8
 1117              		@ frame_needed = 1, uses_anonymous_args = 0
 1118              		@ link register save eliminated.
 1119 0000 80B4     		push	{r7}
 1120              	.LCFI150:
 1121              		.cfi_def_cfa_offset 4
 1122              		.cfi_offset 7, -4
 1123 0002 83B0     		sub	sp, sp, #12
 1124              	.LCFI151:
 1125              		.cfi_def_cfa_offset 16
 1126 0004 00AF     		add	r7, sp, #0
 1127              	.LCFI152:
 1128              		.cfi_def_cfa_register 7
 1129 0006 7860     		str	r0, [r7, #4]
 1130              		.loc 2 41 0
 1131 0008 4FF49273 		mov	r3, #292
 1132 000c 1846     		mov	r0, r3
 1133 000e 0C37     		adds	r7, r7, #12
 1134              	.LCFI153:
 1135              		.cfi_def_cfa_offset 4
 1136 0010 BD46     		mov	sp, r7
 1137              	.LCFI154:
 1138              		.cfi_def_cfa_register 13
 1139              		@ sp needed
 1140 0012 5DF8047B 		ldr	r7, [sp], #4
 1141              	.LCFI155:
 1142              		.cfi_restore 7
 1143              		.cfi_def_cfa_offset 0
 1144 0016 7047     		bx	lr
 1145              		.cfi_endproc
 1146              	.LFE54:
 1148              		.section	.text.Ft_Esd_DemoPage_ESD_PushButton_3_Y__Property,"ax",%progbits
 1149              		.align	1
 1150              		.syntax unified
ARM GAS  /var/folders/n8/cvzdcwlj0vl4g_wtyz1ffy300000gn/T//ccLY5GZg.s 			page 23


 1151              		.thumb
 1152              		.thumb_func
 1153              		.fpu fpv5-sp-d16
 1155              	Ft_Esd_DemoPage_ESD_PushButton_3_Y__Property:
 1156              	.LFB55:
  42:FT_Esd_Widgets/Ft_Esd_DemoPage__Generated.c **** static ft_int16_t Ft_Esd_DemoPage_ESD_PushButton_3_Y__Property(void *context) { return 13; }
 1157              		.loc 2 42 0
 1158              		.cfi_startproc
 1159              		@ args = 0, pretend = 0, frame = 8
 1160              		@ frame_needed = 1, uses_anonymous_args = 0
 1161              		@ link register save eliminated.
 1162 0000 80B4     		push	{r7}
 1163              	.LCFI156:
 1164              		.cfi_def_cfa_offset 4
 1165              		.cfi_offset 7, -4
 1166 0002 83B0     		sub	sp, sp, #12
 1167              	.LCFI157:
 1168              		.cfi_def_cfa_offset 16
 1169 0004 00AF     		add	r7, sp, #0
 1170              	.LCFI158:
 1171              		.cfi_def_cfa_register 7
 1172 0006 7860     		str	r0, [r7, #4]
 1173              		.loc 2 42 0
 1174 0008 0D23     		movs	r3, #13
 1175 000a 1846     		mov	r0, r3
 1176 000c 0C37     		adds	r7, r7, #12
 1177              	.LCFI159:
 1178              		.cfi_def_cfa_offset 4
 1179 000e BD46     		mov	sp, r7
 1180              	.LCFI160:
 1181              		.cfi_def_cfa_register 13
 1182              		@ sp needed
 1183 0010 5DF8047B 		ldr	r7, [sp], #4
 1184              	.LCFI161:
 1185              		.cfi_restore 7
 1186              		.cfi_def_cfa_offset 0
 1187 0014 7047     		bx	lr
 1188              		.cfi_endproc
 1189              	.LFE55:
 1191              		.section	.text.Ft_Esd_DemoPage_ESD_PushButton_3_Primary__Property,"ax",%progbits
 1192              		.align	1
 1193              		.syntax unified
 1194              		.thumb
 1195              		.thumb_func
 1196              		.fpu fpv5-sp-d16
 1198              	Ft_Esd_DemoPage_ESD_PushButton_3_Primary__Property:
 1199              	.LFB56:
  43:FT_Esd_Widgets/Ft_Esd_DemoPage__Generated.c **** static ft_bool_t Ft_Esd_DemoPage_ESD_PushButton_3_Primary__Property(void *context) { return 0; }
 1200              		.loc 2 43 0
 1201              		.cfi_startproc
 1202              		@ args = 0, pretend = 0, frame = 8
 1203              		@ frame_needed = 1, uses_anonymous_args = 0
 1204              		@ link register save eliminated.
 1205 0000 80B4     		push	{r7}
 1206              	.LCFI162:
 1207              		.cfi_def_cfa_offset 4
 1208              		.cfi_offset 7, -4
ARM GAS  /var/folders/n8/cvzdcwlj0vl4g_wtyz1ffy300000gn/T//ccLY5GZg.s 			page 24


 1209 0002 83B0     		sub	sp, sp, #12
 1210              	.LCFI163:
 1211              		.cfi_def_cfa_offset 16
 1212 0004 00AF     		add	r7, sp, #0
 1213              	.LCFI164:
 1214              		.cfi_def_cfa_register 7
 1215 0006 7860     		str	r0, [r7, #4]
 1216              		.loc 2 43 0
 1217 0008 0023     		movs	r3, #0
 1218 000a 1846     		mov	r0, r3
 1219 000c 0C37     		adds	r7, r7, #12
 1220              	.LCFI165:
 1221              		.cfi_def_cfa_offset 4
 1222 000e BD46     		mov	sp, r7
 1223              	.LCFI166:
 1224              		.cfi_def_cfa_register 13
 1225              		@ sp needed
 1226 0010 5DF8047B 		ldr	r7, [sp], #4
 1227              	.LCFI167:
 1228              		.cfi_restore 7
 1229              		.cfi_def_cfa_offset 0
 1230 0014 7047     		bx	lr
 1231              		.cfi_endproc
 1232              	.LFE56:
 1234              		.section	.text.Ft_Esd_DemoPage_ESD_Toggle_1_X__Property,"ax",%progbits
 1235              		.align	1
 1236              		.syntax unified
 1237              		.thumb
 1238              		.thumb_func
 1239              		.fpu fpv5-sp-d16
 1241              	Ft_Esd_DemoPage_ESD_Toggle_1_X__Property:
 1242              	.LFB57:
  44:FT_Esd_Widgets/Ft_Esd_DemoPage__Generated.c **** static ft_int16_t Ft_Esd_DemoPage_ESD_Toggle_1_X__Property(void *context) { return 450; }
 1243              		.loc 2 44 0
 1244              		.cfi_startproc
 1245              		@ args = 0, pretend = 0, frame = 8
 1246              		@ frame_needed = 1, uses_anonymous_args = 0
 1247              		@ link register save eliminated.
 1248 0000 80B4     		push	{r7}
 1249              	.LCFI168:
 1250              		.cfi_def_cfa_offset 4
 1251              		.cfi_offset 7, -4
 1252 0002 83B0     		sub	sp, sp, #12
 1253              	.LCFI169:
 1254              		.cfi_def_cfa_offset 16
 1255 0004 00AF     		add	r7, sp, #0
 1256              	.LCFI170:
 1257              		.cfi_def_cfa_register 7
 1258 0006 7860     		str	r0, [r7, #4]
 1259              		.loc 2 44 0
 1260 0008 4FF4E173 		mov	r3, #450
 1261 000c 1846     		mov	r0, r3
 1262 000e 0C37     		adds	r7, r7, #12
 1263              	.LCFI171:
 1264              		.cfi_def_cfa_offset 4
 1265 0010 BD46     		mov	sp, r7
 1266              	.LCFI172:
ARM GAS  /var/folders/n8/cvzdcwlj0vl4g_wtyz1ffy300000gn/T//ccLY5GZg.s 			page 25


 1267              		.cfi_def_cfa_register 13
 1268              		@ sp needed
 1269 0012 5DF8047B 		ldr	r7, [sp], #4
 1270              	.LCFI173:
 1271              		.cfi_restore 7
 1272              		.cfi_def_cfa_offset 0
 1273 0016 7047     		bx	lr
 1274              		.cfi_endproc
 1275              	.LFE57:
 1277              		.section	.text.Ft_Esd_DemoPage_ESD_Toggle_1_Y__Property,"ax",%progbits
 1278              		.align	1
 1279              		.syntax unified
 1280              		.thumb
 1281              		.thumb_func
 1282              		.fpu fpv5-sp-d16
 1284              	Ft_Esd_DemoPage_ESD_Toggle_1_Y__Property:
 1285              	.LFB58:
  45:FT_Esd_Widgets/Ft_Esd_DemoPage__Generated.c **** static ft_int16_t Ft_Esd_DemoPage_ESD_Toggle_1_Y__Property(void *context) { return 385; }
 1286              		.loc 2 45 0
 1287              		.cfi_startproc
 1288              		@ args = 0, pretend = 0, frame = 8
 1289              		@ frame_needed = 1, uses_anonymous_args = 0
 1290              		@ link register save eliminated.
 1291 0000 80B4     		push	{r7}
 1292              	.LCFI174:
 1293              		.cfi_def_cfa_offset 4
 1294              		.cfi_offset 7, -4
 1295 0002 83B0     		sub	sp, sp, #12
 1296              	.LCFI175:
 1297              		.cfi_def_cfa_offset 16
 1298 0004 00AF     		add	r7, sp, #0
 1299              	.LCFI176:
 1300              		.cfi_def_cfa_register 7
 1301 0006 7860     		str	r0, [r7, #4]
 1302              		.loc 2 45 0
 1303 0008 40F28113 		movw	r3, #385
 1304 000c 1846     		mov	r0, r3
 1305 000e 0C37     		adds	r7, r7, #12
 1306              	.LCFI177:
 1307              		.cfi_def_cfa_offset 4
 1308 0010 BD46     		mov	sp, r7
 1309              	.LCFI178:
 1310              		.cfi_def_cfa_register 13
 1311              		@ sp needed
 1312 0012 5DF8047B 		ldr	r7, [sp], #4
 1313              	.LCFI179:
 1314              		.cfi_restore 7
 1315              		.cfi_def_cfa_offset 0
 1316 0016 7047     		bx	lr
 1317              		.cfi_endproc
 1318              	.LFE58:
 1320              		.section	.text.Ft_Esd_DemoPage_ESD_Toggle_1_Width__Property,"ax",%progbits
 1321              		.align	1
 1322              		.syntax unified
 1323              		.thumb
 1324              		.thumb_func
 1325              		.fpu fpv5-sp-d16
ARM GAS  /var/folders/n8/cvzdcwlj0vl4g_wtyz1ffy300000gn/T//ccLY5GZg.s 			page 26


 1327              	Ft_Esd_DemoPage_ESD_Toggle_1_Width__Property:
 1328              	.LFB59:
  46:FT_Esd_Widgets/Ft_Esd_DemoPage__Generated.c **** static ft_int16_t Ft_Esd_DemoPage_ESD_Toggle_1_Width__Property(void *context) { return 120; }
 1329              		.loc 2 46 0
 1330              		.cfi_startproc
 1331              		@ args = 0, pretend = 0, frame = 8
 1332              		@ frame_needed = 1, uses_anonymous_args = 0
 1333              		@ link register save eliminated.
 1334 0000 80B4     		push	{r7}
 1335              	.LCFI180:
 1336              		.cfi_def_cfa_offset 4
 1337              		.cfi_offset 7, -4
 1338 0002 83B0     		sub	sp, sp, #12
 1339              	.LCFI181:
 1340              		.cfi_def_cfa_offset 16
 1341 0004 00AF     		add	r7, sp, #0
 1342              	.LCFI182:
 1343              		.cfi_def_cfa_register 7
 1344 0006 7860     		str	r0, [r7, #4]
 1345              		.loc 2 46 0
 1346 0008 7823     		movs	r3, #120
 1347 000a 1846     		mov	r0, r3
 1348 000c 0C37     		adds	r7, r7, #12
 1349              	.LCFI183:
 1350              		.cfi_def_cfa_offset 4
 1351 000e BD46     		mov	sp, r7
 1352              	.LCFI184:
 1353              		.cfi_def_cfa_register 13
 1354              		@ sp needed
 1355 0010 5DF8047B 		ldr	r7, [sp], #4
 1356              	.LCFI185:
 1357              		.cfi_restore 7
 1358              		.cfi_def_cfa_offset 0
 1359 0014 7047     		bx	lr
 1360              		.cfi_endproc
 1361              	.LFE59:
 1363              		.section	.text.Ft_Esd_DemoPage_ESD_Toggle_1_Height__Property,"ax",%progbits
 1364              		.align	1
 1365              		.syntax unified
 1366              		.thumb
 1367              		.thumb_func
 1368              		.fpu fpv5-sp-d16
 1370              	Ft_Esd_DemoPage_ESD_Toggle_1_Height__Property:
 1371              	.LFB60:
  47:FT_Esd_Widgets/Ft_Esd_DemoPage__Generated.c **** static ft_int16_t Ft_Esd_DemoPage_ESD_Toggle_1_Height__Property(void *context) { return 74; }
 1372              		.loc 2 47 0
 1373              		.cfi_startproc
 1374              		@ args = 0, pretend = 0, frame = 8
 1375              		@ frame_needed = 1, uses_anonymous_args = 0
 1376              		@ link register save eliminated.
 1377 0000 80B4     		push	{r7}
 1378              	.LCFI186:
 1379              		.cfi_def_cfa_offset 4
 1380              		.cfi_offset 7, -4
 1381 0002 83B0     		sub	sp, sp, #12
 1382              	.LCFI187:
 1383              		.cfi_def_cfa_offset 16
ARM GAS  /var/folders/n8/cvzdcwlj0vl4g_wtyz1ffy300000gn/T//ccLY5GZg.s 			page 27


 1384 0004 00AF     		add	r7, sp, #0
 1385              	.LCFI188:
 1386              		.cfi_def_cfa_register 7
 1387 0006 7860     		str	r0, [r7, #4]
 1388              		.loc 2 47 0
 1389 0008 4A23     		movs	r3, #74
 1390 000a 1846     		mov	r0, r3
 1391 000c 0C37     		adds	r7, r7, #12
 1392              	.LCFI189:
 1393              		.cfi_def_cfa_offset 4
 1394 000e BD46     		mov	sp, r7
 1395              	.LCFI190:
 1396              		.cfi_def_cfa_register 13
 1397              		@ sp needed
 1398 0010 5DF8047B 		ldr	r7, [sp], #4
 1399              	.LCFI191:
 1400              		.cfi_restore 7
 1401              		.cfi_def_cfa_offset 0
 1402 0014 7047     		bx	lr
 1403              		.cfi_endproc
 1404              	.LFE60:
 1406              		.section	.text.Ft_Esd_DemoPage_ESD_Toggle_1_Font__Property,"ax",%progbits
 1407              		.align	1
 1408              		.syntax unified
 1409              		.thumb
 1410              		.thumb_func
 1411              		.fpu fpv5-sp-d16
 1413              	Ft_Esd_DemoPage_ESD_Toggle_1_Font__Property:
 1414              	.LFB61:
  48:FT_Esd_Widgets/Ft_Esd_DemoPage__Generated.c **** static ft_int16_t Ft_Esd_DemoPage_ESD_Toggle_1_Font__Property(void *context) { return 31; }
 1415              		.loc 2 48 0
 1416              		.cfi_startproc
 1417              		@ args = 0, pretend = 0, frame = 8
 1418              		@ frame_needed = 1, uses_anonymous_args = 0
 1419              		@ link register save eliminated.
 1420 0000 80B4     		push	{r7}
 1421              	.LCFI192:
 1422              		.cfi_def_cfa_offset 4
 1423              		.cfi_offset 7, -4
 1424 0002 83B0     		sub	sp, sp, #12
 1425              	.LCFI193:
 1426              		.cfi_def_cfa_offset 16
 1427 0004 00AF     		add	r7, sp, #0
 1428              	.LCFI194:
 1429              		.cfi_def_cfa_register 7
 1430 0006 7860     		str	r0, [r7, #4]
 1431              		.loc 2 48 0
 1432 0008 1F23     		movs	r3, #31
 1433 000a 1846     		mov	r0, r3
 1434 000c 0C37     		adds	r7, r7, #12
 1435              	.LCFI195:
 1436              		.cfi_def_cfa_offset 4
 1437 000e BD46     		mov	sp, r7
 1438              	.LCFI196:
 1439              		.cfi_def_cfa_register 13
 1440              		@ sp needed
 1441 0010 5DF8047B 		ldr	r7, [sp], #4
ARM GAS  /var/folders/n8/cvzdcwlj0vl4g_wtyz1ffy300000gn/T//ccLY5GZg.s 			page 28


 1442              	.LCFI197:
 1443              		.cfi_restore 7
 1444              		.cfi_def_cfa_offset 0
 1445 0014 7047     		bx	lr
 1446              		.cfi_endproc
 1447              	.LFE61:
 1449              		.section	.text.Ft_Esd_DemoPage_ESD_SpinBox_X__Property,"ax",%progbits
 1450              		.align	1
 1451              		.syntax unified
 1452              		.thumb
 1453              		.thumb_func
 1454              		.fpu fpv5-sp-d16
 1456              	Ft_Esd_DemoPage_ESD_SpinBox_X__Property:
 1457              	.LFB62:
  49:FT_Esd_Widgets/Ft_Esd_DemoPage__Generated.c **** static ft_int16_t Ft_Esd_DemoPage_ESD_SpinBox_X__Property(void *context) { return 19; }
 1458              		.loc 2 49 0
 1459              		.cfi_startproc
 1460              		@ args = 0, pretend = 0, frame = 8
 1461              		@ frame_needed = 1, uses_anonymous_args = 0
 1462              		@ link register save eliminated.
 1463 0000 80B4     		push	{r7}
 1464              	.LCFI198:
 1465              		.cfi_def_cfa_offset 4
 1466              		.cfi_offset 7, -4
 1467 0002 83B0     		sub	sp, sp, #12
 1468              	.LCFI199:
 1469              		.cfi_def_cfa_offset 16
 1470 0004 00AF     		add	r7, sp, #0
 1471              	.LCFI200:
 1472              		.cfi_def_cfa_register 7
 1473 0006 7860     		str	r0, [r7, #4]
 1474              		.loc 2 49 0
 1475 0008 1323     		movs	r3, #19
 1476 000a 1846     		mov	r0, r3
 1477 000c 0C37     		adds	r7, r7, #12
 1478              	.LCFI201:
 1479              		.cfi_def_cfa_offset 4
 1480 000e BD46     		mov	sp, r7
 1481              	.LCFI202:
 1482              		.cfi_def_cfa_register 13
 1483              		@ sp needed
 1484 0010 5DF8047B 		ldr	r7, [sp], #4
 1485              	.LCFI203:
 1486              		.cfi_restore 7
 1487              		.cfi_def_cfa_offset 0
 1488 0014 7047     		bx	lr
 1489              		.cfi_endproc
 1490              	.LFE62:
 1492              		.section	.text.Ft_Esd_DemoPage_ESD_SpinBox_Y__Property,"ax",%progbits
 1493              		.align	1
 1494              		.syntax unified
 1495              		.thumb
 1496              		.thumb_func
 1497              		.fpu fpv5-sp-d16
 1499              	Ft_Esd_DemoPage_ESD_SpinBox_Y__Property:
 1500              	.LFB63:
  50:FT_Esd_Widgets/Ft_Esd_DemoPage__Generated.c **** static ft_int16_t Ft_Esd_DemoPage_ESD_SpinBox_Y__Property(void *context) { return 118; }
ARM GAS  /var/folders/n8/cvzdcwlj0vl4g_wtyz1ffy300000gn/T//ccLY5GZg.s 			page 29


 1501              		.loc 2 50 0
 1502              		.cfi_startproc
 1503              		@ args = 0, pretend = 0, frame = 8
 1504              		@ frame_needed = 1, uses_anonymous_args = 0
 1505              		@ link register save eliminated.
 1506 0000 80B4     		push	{r7}
 1507              	.LCFI204:
 1508              		.cfi_def_cfa_offset 4
 1509              		.cfi_offset 7, -4
 1510 0002 83B0     		sub	sp, sp, #12
 1511              	.LCFI205:
 1512              		.cfi_def_cfa_offset 16
 1513 0004 00AF     		add	r7, sp, #0
 1514              	.LCFI206:
 1515              		.cfi_def_cfa_register 7
 1516 0006 7860     		str	r0, [r7, #4]
 1517              		.loc 2 50 0
 1518 0008 7623     		movs	r3, #118
 1519 000a 1846     		mov	r0, r3
 1520 000c 0C37     		adds	r7, r7, #12
 1521              	.LCFI207:
 1522              		.cfi_def_cfa_offset 4
 1523 000e BD46     		mov	sp, r7
 1524              	.LCFI208:
 1525              		.cfi_def_cfa_register 13
 1526              		@ sp needed
 1527 0010 5DF8047B 		ldr	r7, [sp], #4
 1528              	.LCFI209:
 1529              		.cfi_restore 7
 1530              		.cfi_def_cfa_offset 0
 1531 0014 7047     		bx	lr
 1532              		.cfi_endproc
 1533              	.LFE63:
 1535              		.section	.text.Ft_Esd_DemoPage_ESD_SpinBox_Height__Property,"ax",%progbits
 1536              		.align	1
 1537              		.syntax unified
 1538              		.thumb
 1539              		.thumb_func
 1540              		.fpu fpv5-sp-d16
 1542              	Ft_Esd_DemoPage_ESD_SpinBox_Height__Property:
 1543              	.LFB64:
  51:FT_Esd_Widgets/Ft_Esd_DemoPage__Generated.c **** static ft_int16_t Ft_Esd_DemoPage_ESD_SpinBox_Height__Property(void *context) { return 74; }
 1544              		.loc 2 51 0
 1545              		.cfi_startproc
 1546              		@ args = 0, pretend = 0, frame = 8
 1547              		@ frame_needed = 1, uses_anonymous_args = 0
 1548              		@ link register save eliminated.
 1549 0000 80B4     		push	{r7}
 1550              	.LCFI210:
 1551              		.cfi_def_cfa_offset 4
 1552              		.cfi_offset 7, -4
 1553 0002 83B0     		sub	sp, sp, #12
 1554              	.LCFI211:
 1555              		.cfi_def_cfa_offset 16
 1556 0004 00AF     		add	r7, sp, #0
 1557              	.LCFI212:
 1558              		.cfi_def_cfa_register 7
ARM GAS  /var/folders/n8/cvzdcwlj0vl4g_wtyz1ffy300000gn/T//ccLY5GZg.s 			page 30


 1559 0006 7860     		str	r0, [r7, #4]
 1560              		.loc 2 51 0
 1561 0008 4A23     		movs	r3, #74
 1562 000a 1846     		mov	r0, r3
 1563 000c 0C37     		adds	r7, r7, #12
 1564              	.LCFI213:
 1565              		.cfi_def_cfa_offset 4
 1566 000e BD46     		mov	sp, r7
 1567              	.LCFI214:
 1568              		.cfi_def_cfa_register 13
 1569              		@ sp needed
 1570 0010 5DF8047B 		ldr	r7, [sp], #4
 1571              	.LCFI215:
 1572              		.cfi_restore 7
 1573              		.cfi_def_cfa_offset 0
 1574 0014 7047     		bx	lr
 1575              		.cfi_endproc
 1576              	.LFE64:
 1578              		.section	.text.Ft_Esd_DemoPage_ESD_NumericLabel_X__Property,"ax",%progbits
 1579              		.align	1
 1580              		.syntax unified
 1581              		.thumb
 1582              		.thumb_func
 1583              		.fpu fpv5-sp-d16
 1585              	Ft_Esd_DemoPage_ESD_NumericLabel_X__Property:
 1586              	.LFB65:
  52:FT_Esd_Widgets/Ft_Esd_DemoPage__Generated.c **** static ft_int16_t Ft_Esd_DemoPage_ESD_NumericLabel_X__Property(void *context) { return 558; }
 1587              		.loc 2 52 0
 1588              		.cfi_startproc
 1589              		@ args = 0, pretend = 0, frame = 8
 1590              		@ frame_needed = 1, uses_anonymous_args = 0
 1591              		@ link register save eliminated.
 1592 0000 80B4     		push	{r7}
 1593              	.LCFI216:
 1594              		.cfi_def_cfa_offset 4
 1595              		.cfi_offset 7, -4
 1596 0002 83B0     		sub	sp, sp, #12
 1597              	.LCFI217:
 1598              		.cfi_def_cfa_offset 16
 1599 0004 00AF     		add	r7, sp, #0
 1600              	.LCFI218:
 1601              		.cfi_def_cfa_register 7
 1602 0006 7860     		str	r0, [r7, #4]
 1603              		.loc 2 52 0
 1604 0008 40F22E23 		movw	r3, #558
 1605 000c 1846     		mov	r0, r3
 1606 000e 0C37     		adds	r7, r7, #12
 1607              	.LCFI219:
 1608              		.cfi_def_cfa_offset 4
 1609 0010 BD46     		mov	sp, r7
 1610              	.LCFI220:
 1611              		.cfi_def_cfa_register 13
 1612              		@ sp needed
 1613 0012 5DF8047B 		ldr	r7, [sp], #4
 1614              	.LCFI221:
 1615              		.cfi_restore 7
 1616              		.cfi_def_cfa_offset 0
ARM GAS  /var/folders/n8/cvzdcwlj0vl4g_wtyz1ffy300000gn/T//ccLY5GZg.s 			page 31


 1617 0016 7047     		bx	lr
 1618              		.cfi_endproc
 1619              	.LFE65:
 1621              		.section	.text.Ft_Esd_DemoPage_ESD_NumericLabel_Y__Property,"ax",%progbits
 1622              		.align	1
 1623              		.syntax unified
 1624              		.thumb
 1625              		.thumb_func
 1626              		.fpu fpv5-sp-d16
 1628              	Ft_Esd_DemoPage_ESD_NumericLabel_Y__Property:
 1629              	.LFB66:
  53:FT_Esd_Widgets/Ft_Esd_DemoPage__Generated.c **** static ft_int16_t Ft_Esd_DemoPage_ESD_NumericLabel_Y__Property(void *context) { return 42; }
 1630              		.loc 2 53 0
 1631              		.cfi_startproc
 1632              		@ args = 0, pretend = 0, frame = 8
 1633              		@ frame_needed = 1, uses_anonymous_args = 0
 1634              		@ link register save eliminated.
 1635 0000 80B4     		push	{r7}
 1636              	.LCFI222:
 1637              		.cfi_def_cfa_offset 4
 1638              		.cfi_offset 7, -4
 1639 0002 83B0     		sub	sp, sp, #12
 1640              	.LCFI223:
 1641              		.cfi_def_cfa_offset 16
 1642 0004 00AF     		add	r7, sp, #0
 1643              	.LCFI224:
 1644              		.cfi_def_cfa_register 7
 1645 0006 7860     		str	r0, [r7, #4]
 1646              		.loc 2 53 0
 1647 0008 2A23     		movs	r3, #42
 1648 000a 1846     		mov	r0, r3
 1649 000c 0C37     		adds	r7, r7, #12
 1650              	.LCFI225:
 1651              		.cfi_def_cfa_offset 4
 1652 000e BD46     		mov	sp, r7
 1653              	.LCFI226:
 1654              		.cfi_def_cfa_register 13
 1655              		@ sp needed
 1656 0010 5DF8047B 		ldr	r7, [sp], #4
 1657              	.LCFI227:
 1658              		.cfi_restore 7
 1659              		.cfi_def_cfa_offset 0
 1660 0014 7047     		bx	lr
 1661              		.cfi_endproc
 1662              	.LFE66:
 1664              		.section	.text.Ft_Esd_DemoPage_ESD_Label_Button_X__Property,"ax",%progbits
 1665              		.align	1
 1666              		.syntax unified
 1667              		.thumb
 1668              		.thumb_func
 1669              		.fpu fpv5-sp-d16
 1671              	Ft_Esd_DemoPage_ESD_Label_Button_X__Property:
 1672              	.LFB67:
  54:FT_Esd_Widgets/Ft_Esd_DemoPage__Generated.c **** static ft_int32_t Ft_Esd_DemoPage_ESD_NumericLabel_Value__Property(void *context);
  55:FT_Esd_Widgets/Ft_Esd_DemoPage__Generated.c **** static ft_int16_t Ft_Esd_DemoPage_ESD_Label_Button_X__Property(void *context) { return 602; }
 1673              		.loc 2 55 0
 1674              		.cfi_startproc
ARM GAS  /var/folders/n8/cvzdcwlj0vl4g_wtyz1ffy300000gn/T//ccLY5GZg.s 			page 32


 1675              		@ args = 0, pretend = 0, frame = 8
 1676              		@ frame_needed = 1, uses_anonymous_args = 0
 1677              		@ link register save eliminated.
 1678 0000 80B4     		push	{r7}
 1679              	.LCFI228:
 1680              		.cfi_def_cfa_offset 4
 1681              		.cfi_offset 7, -4
 1682 0002 83B0     		sub	sp, sp, #12
 1683              	.LCFI229:
 1684              		.cfi_def_cfa_offset 16
 1685 0004 00AF     		add	r7, sp, #0
 1686              	.LCFI230:
 1687              		.cfi_def_cfa_register 7
 1688 0006 7860     		str	r0, [r7, #4]
 1689              		.loc 2 55 0
 1690 0008 40F25A23 		movw	r3, #602
 1691 000c 1846     		mov	r0, r3
 1692 000e 0C37     		adds	r7, r7, #12
 1693              	.LCFI231:
 1694              		.cfi_def_cfa_offset 4
 1695 0010 BD46     		mov	sp, r7
 1696              	.LCFI232:
 1697              		.cfi_def_cfa_register 13
 1698              		@ sp needed
 1699 0012 5DF8047B 		ldr	r7, [sp], #4
 1700              	.LCFI233:
 1701              		.cfi_restore 7
 1702              		.cfi_def_cfa_offset 0
 1703 0016 7047     		bx	lr
 1704              		.cfi_endproc
 1705              	.LFE67:
 1707              		.section	.text.Ft_Esd_DemoPage_ESD_Label_Button_Y__Property,"ax",%progbits
 1708              		.align	1
 1709              		.syntax unified
 1710              		.thumb
 1711              		.thumb_func
 1712              		.fpu fpv5-sp-d16
 1714              	Ft_Esd_DemoPage_ESD_Label_Button_Y__Property:
 1715              	.LFB68:
  56:FT_Esd_Widgets/Ft_Esd_DemoPage__Generated.c **** static ft_int16_t Ft_Esd_DemoPage_ESD_Label_Button_Y__Property(void *context) { return 290; }
 1716              		.loc 2 56 0
 1717              		.cfi_startproc
 1718              		@ args = 0, pretend = 0, frame = 8
 1719              		@ frame_needed = 1, uses_anonymous_args = 0
 1720              		@ link register save eliminated.
 1721 0000 80B4     		push	{r7}
 1722              	.LCFI234:
 1723              		.cfi_def_cfa_offset 4
 1724              		.cfi_offset 7, -4
 1725 0002 83B0     		sub	sp, sp, #12
 1726              	.LCFI235:
 1727              		.cfi_def_cfa_offset 16
 1728 0004 00AF     		add	r7, sp, #0
 1729              	.LCFI236:
 1730              		.cfi_def_cfa_register 7
 1731 0006 7860     		str	r0, [r7, #4]
 1732              		.loc 2 56 0
ARM GAS  /var/folders/n8/cvzdcwlj0vl4g_wtyz1ffy300000gn/T//ccLY5GZg.s 			page 33


 1733 0008 4FF49173 		mov	r3, #290
 1734 000c 1846     		mov	r0, r3
 1735 000e 0C37     		adds	r7, r7, #12
 1736              	.LCFI237:
 1737              		.cfi_def_cfa_offset 4
 1738 0010 BD46     		mov	sp, r7
 1739              	.LCFI238:
 1740              		.cfi_def_cfa_register 13
 1741              		@ sp needed
 1742 0012 5DF8047B 		ldr	r7, [sp], #4
 1743              	.LCFI239:
 1744              		.cfi_restore 7
 1745              		.cfi_def_cfa_offset 0
 1746 0016 7047     		bx	lr
 1747              		.cfi_endproc
 1748              	.LFE68:
 1750              		.section	.text.Ft_Esd_DemoPage_ESD_SpinBox_1_X__Property,"ax",%progbits
 1751              		.align	1
 1752              		.syntax unified
 1753              		.thumb
 1754              		.thumb_func
 1755              		.fpu fpv5-sp-d16
 1757              	Ft_Esd_DemoPage_ESD_SpinBox_1_X__Property:
 1758              	.LFB69:
  57:FT_Esd_Widgets/Ft_Esd_DemoPage__Generated.c **** static ft_int16_t Ft_Esd_DemoPage_ESD_NumericLabel_1_X__Property(void *context);
  58:FT_Esd_Widgets/Ft_Esd_DemoPage__Generated.c **** static ft_int32_t Ft_Esd_DemoPage_ESD_NumericLabel_1_Value__Property(void *context);
  59:FT_Esd_Widgets/Ft_Esd_DemoPage__Generated.c **** static ft_int16_t Ft_Esd_DemoPage_ESD_SpinBox_1_X__Property(void *context) { return 20; }
 1759              		.loc 2 59 0
 1760              		.cfi_startproc
 1761              		@ args = 0, pretend = 0, frame = 8
 1762              		@ frame_needed = 1, uses_anonymous_args = 0
 1763              		@ link register save eliminated.
 1764 0000 80B4     		push	{r7}
 1765              	.LCFI240:
 1766              		.cfi_def_cfa_offset 4
 1767              		.cfi_offset 7, -4
 1768 0002 83B0     		sub	sp, sp, #12
 1769              	.LCFI241:
 1770              		.cfi_def_cfa_offset 16
 1771 0004 00AF     		add	r7, sp, #0
 1772              	.LCFI242:
 1773              		.cfi_def_cfa_register 7
 1774 0006 7860     		str	r0, [r7, #4]
 1775              		.loc 2 59 0
 1776 0008 1423     		movs	r3, #20
 1777 000a 1846     		mov	r0, r3
 1778 000c 0C37     		adds	r7, r7, #12
 1779              	.LCFI243:
 1780              		.cfi_def_cfa_offset 4
 1781 000e BD46     		mov	sp, r7
 1782              	.LCFI244:
 1783              		.cfi_def_cfa_register 13
 1784              		@ sp needed
 1785 0010 5DF8047B 		ldr	r7, [sp], #4
 1786              	.LCFI245:
 1787              		.cfi_restore 7
 1788              		.cfi_def_cfa_offset 0
ARM GAS  /var/folders/n8/cvzdcwlj0vl4g_wtyz1ffy300000gn/T//ccLY5GZg.s 			page 34


 1789 0014 7047     		bx	lr
 1790              		.cfi_endproc
 1791              	.LFE69:
 1793              		.section	.text.Ft_Esd_DemoPage_ESD_SpinBox_1_Y__Property,"ax",%progbits
 1794              		.align	1
 1795              		.syntax unified
 1796              		.thumb
 1797              		.thumb_func
 1798              		.fpu fpv5-sp-d16
 1800              	Ft_Esd_DemoPage_ESD_SpinBox_1_Y__Property:
 1801              	.LFB70:
  60:FT_Esd_Widgets/Ft_Esd_DemoPage__Generated.c **** static ft_int16_t Ft_Esd_DemoPage_ESD_SpinBox_1_Y__Property(void *context) { return 206; }
 1802              		.loc 2 60 0
 1803              		.cfi_startproc
 1804              		@ args = 0, pretend = 0, frame = 8
 1805              		@ frame_needed = 1, uses_anonymous_args = 0
 1806              		@ link register save eliminated.
 1807 0000 80B4     		push	{r7}
 1808              	.LCFI246:
 1809              		.cfi_def_cfa_offset 4
 1810              		.cfi_offset 7, -4
 1811 0002 83B0     		sub	sp, sp, #12
 1812              	.LCFI247:
 1813              		.cfi_def_cfa_offset 16
 1814 0004 00AF     		add	r7, sp, #0
 1815              	.LCFI248:
 1816              		.cfi_def_cfa_register 7
 1817 0006 7860     		str	r0, [r7, #4]
 1818              		.loc 2 60 0
 1819 0008 CE23     		movs	r3, #206
 1820 000a 1846     		mov	r0, r3
 1821 000c 0C37     		adds	r7, r7, #12
 1822              	.LCFI249:
 1823              		.cfi_def_cfa_offset 4
 1824 000e BD46     		mov	sp, r7
 1825              	.LCFI250:
 1826              		.cfi_def_cfa_register 13
 1827              		@ sp needed
 1828 0010 5DF8047B 		ldr	r7, [sp], #4
 1829              	.LCFI251:
 1830              		.cfi_restore 7
 1831              		.cfi_def_cfa_offset 0
 1832 0014 7047     		bx	lr
 1833              		.cfi_endproc
 1834              	.LFE70:
 1836              		.section	.text.Ft_Esd_DemoPage_ESD_SpinBox_1_Step__Property,"ax",%progbits
 1837              		.align	1
 1838              		.syntax unified
 1839              		.thumb
 1840              		.thumb_func
 1841              		.fpu fpv5-sp-d16
 1843              	Ft_Esd_DemoPage_ESD_SpinBox_1_Step__Property:
 1844              	.LFB71:
  61:FT_Esd_Widgets/Ft_Esd_DemoPage__Generated.c **** static int Ft_Esd_DemoPage_ESD_SpinBox_1_Step__Property(void *context) { return 10L; }
 1845              		.loc 2 61 0
 1846              		.cfi_startproc
 1847              		@ args = 0, pretend = 0, frame = 8
ARM GAS  /var/folders/n8/cvzdcwlj0vl4g_wtyz1ffy300000gn/T//ccLY5GZg.s 			page 35


 1848              		@ frame_needed = 1, uses_anonymous_args = 0
 1849              		@ link register save eliminated.
 1850 0000 80B4     		push	{r7}
 1851              	.LCFI252:
 1852              		.cfi_def_cfa_offset 4
 1853              		.cfi_offset 7, -4
 1854 0002 83B0     		sub	sp, sp, #12
 1855              	.LCFI253:
 1856              		.cfi_def_cfa_offset 16
 1857 0004 00AF     		add	r7, sp, #0
 1858              	.LCFI254:
 1859              		.cfi_def_cfa_register 7
 1860 0006 7860     		str	r0, [r7, #4]
 1861              		.loc 2 61 0
 1862 0008 0A23     		movs	r3, #10
 1863 000a 1846     		mov	r0, r3
 1864 000c 0C37     		adds	r7, r7, #12
 1865              	.LCFI255:
 1866              		.cfi_def_cfa_offset 4
 1867 000e BD46     		mov	sp, r7
 1868              	.LCFI256:
 1869              		.cfi_def_cfa_register 13
 1870              		@ sp needed
 1871 0010 5DF8047B 		ldr	r7, [sp], #4
 1872              	.LCFI257:
 1873              		.cfi_restore 7
 1874              		.cfi_def_cfa_offset 0
 1875 0014 7047     		bx	lr
 1876              		.cfi_endproc
 1877              	.LFE71:
 1879              		.section	.text.Ft_Esd_DemoPage_ESD_SpinBox_2_X__Property,"ax",%progbits
 1880              		.align	1
 1881              		.syntax unified
 1882              		.thumb
 1883              		.thumb_func
 1884              		.fpu fpv5-sp-d16
 1886              	Ft_Esd_DemoPage_ESD_SpinBox_2_X__Property:
 1887              	.LFB72:
  62:FT_Esd_Widgets/Ft_Esd_DemoPage__Generated.c **** static ft_int16_t Ft_Esd_DemoPage_ESD_NumericLabel_2_Y__Property(void *context);
  63:FT_Esd_Widgets/Ft_Esd_DemoPage__Generated.c **** static ft_int32_t Ft_Esd_DemoPage_ESD_NumericLabel_2_Value__Property(void *context);
  64:FT_Esd_Widgets/Ft_Esd_DemoPage__Generated.c **** static ft_int16_t Ft_Esd_DemoPage_ESD_SpinBox_2_X__Property(void *context) { return 21; }
 1888              		.loc 2 64 0
 1889              		.cfi_startproc
 1890              		@ args = 0, pretend = 0, frame = 8
 1891              		@ frame_needed = 1, uses_anonymous_args = 0
 1892              		@ link register save eliminated.
 1893 0000 80B4     		push	{r7}
 1894              	.LCFI258:
 1895              		.cfi_def_cfa_offset 4
 1896              		.cfi_offset 7, -4
 1897 0002 83B0     		sub	sp, sp, #12
 1898              	.LCFI259:
 1899              		.cfi_def_cfa_offset 16
 1900 0004 00AF     		add	r7, sp, #0
 1901              	.LCFI260:
 1902              		.cfi_def_cfa_register 7
 1903 0006 7860     		str	r0, [r7, #4]
ARM GAS  /var/folders/n8/cvzdcwlj0vl4g_wtyz1ffy300000gn/T//ccLY5GZg.s 			page 36


 1904              		.loc 2 64 0
 1905 0008 1523     		movs	r3, #21
 1906 000a 1846     		mov	r0, r3
 1907 000c 0C37     		adds	r7, r7, #12
 1908              	.LCFI261:
 1909              		.cfi_def_cfa_offset 4
 1910 000e BD46     		mov	sp, r7
 1911              	.LCFI262:
 1912              		.cfi_def_cfa_register 13
 1913              		@ sp needed
 1914 0010 5DF8047B 		ldr	r7, [sp], #4
 1915              	.LCFI263:
 1916              		.cfi_restore 7
 1917              		.cfi_def_cfa_offset 0
 1918 0014 7047     		bx	lr
 1919              		.cfi_endproc
 1920              	.LFE72:
 1922              		.section	.text.Ft_Esd_DemoPage_ESD_SpinBox_2_Y__Property,"ax",%progbits
 1923              		.align	1
 1924              		.syntax unified
 1925              		.thumb
 1926              		.thumb_func
 1927              		.fpu fpv5-sp-d16
 1929              	Ft_Esd_DemoPage_ESD_SpinBox_2_Y__Property:
 1930              	.LFB73:
  65:FT_Esd_Widgets/Ft_Esd_DemoPage__Generated.c **** static ft_int16_t Ft_Esd_DemoPage_ESD_SpinBox_2_Y__Property(void *context) { return 301; }
 1931              		.loc 2 65 0
 1932              		.cfi_startproc
 1933              		@ args = 0, pretend = 0, frame = 8
 1934              		@ frame_needed = 1, uses_anonymous_args = 0
 1935              		@ link register save eliminated.
 1936 0000 80B4     		push	{r7}
 1937              	.LCFI264:
 1938              		.cfi_def_cfa_offset 4
 1939              		.cfi_offset 7, -4
 1940 0002 83B0     		sub	sp, sp, #12
 1941              	.LCFI265:
 1942              		.cfi_def_cfa_offset 16
 1943 0004 00AF     		add	r7, sp, #0
 1944              	.LCFI266:
 1945              		.cfi_def_cfa_register 7
 1946 0006 7860     		str	r0, [r7, #4]
 1947              		.loc 2 65 0
 1948 0008 40F22D13 		movw	r3, #301
 1949 000c 1846     		mov	r0, r3
 1950 000e 0C37     		adds	r7, r7, #12
 1951              	.LCFI267:
 1952              		.cfi_def_cfa_offset 4
 1953 0010 BD46     		mov	sp, r7
 1954              	.LCFI268:
 1955              		.cfi_def_cfa_register 13
 1956              		@ sp needed
 1957 0012 5DF8047B 		ldr	r7, [sp], #4
 1958              	.LCFI269:
 1959              		.cfi_restore 7
 1960              		.cfi_def_cfa_offset 0
 1961 0016 7047     		bx	lr
ARM GAS  /var/folders/n8/cvzdcwlj0vl4g_wtyz1ffy300000gn/T//ccLY5GZg.s 			page 37


 1962              		.cfi_endproc
 1963              	.LFE73:
 1965              		.section	.text.Ft_Esd_DemoPage__Initializer,"ax",%progbits
 1966              		.align	1
 1967              		.global	Ft_Esd_DemoPage__Initializer
 1968              		.syntax unified
 1969              		.thumb
 1970              		.thumb_func
 1971              		.fpu fpv5-sp-d16
 1973              	Ft_Esd_DemoPage__Initializer:
 1974              	.LFB74:
  66:FT_Esd_Widgets/Ft_Esd_DemoPage__Generated.c **** 
  67:FT_Esd_Widgets/Ft_Esd_DemoPage__Generated.c **** static void Ft_Esd_DemoPage_ESD_PushButton_Pushed__Signal(void *context);
  68:FT_Esd_Widgets/Ft_Esd_DemoPage__Generated.c **** static void Ft_Esd_DemoPage_ESD_SpinBox_Changed__Writer(void *context, int value);
  69:FT_Esd_Widgets/Ft_Esd_DemoPage__Generated.c **** static void Ft_Esd_DemoPage_ESD_Label_Button_Pushed__Signal(void *context);
  70:FT_Esd_Widgets/Ft_Esd_DemoPage__Generated.c **** static void Ft_Esd_DemoPage_ESD_SpinBox_1_Changed__Writer(void *context, int value);
  71:FT_Esd_Widgets/Ft_Esd_DemoPage__Generated.c **** 
  72:FT_Esd_Widgets/Ft_Esd_DemoPage__Generated.c **** void Ft_Esd_DemoPage__Initializer(Ft_Esd_DemoPage *context)
  73:FT_Esd_Widgets/Ft_Esd_DemoPage__Generated.c **** {
 1975              		.loc 2 73 0
 1976              		.cfi_startproc
 1977              		@ args = 0, pretend = 0, frame = 8
 1978              		@ frame_needed = 1, uses_anonymous_args = 0
 1979 0000 80B5     		push	{r7, lr}
 1980              	.LCFI270:
 1981              		.cfi_def_cfa_offset 8
 1982              		.cfi_offset 7, -8
 1983              		.cfi_offset 14, -4
 1984 0002 82B0     		sub	sp, sp, #8
 1985              	.LCFI271:
 1986              		.cfi_def_cfa_offset 16
 1987 0004 00AF     		add	r7, sp, #0
 1988              	.LCFI272:
 1989              		.cfi_def_cfa_register 7
 1990 0006 7860     		str	r0, [r7, #4]
  74:FT_Esd_Widgets/Ft_Esd_DemoPage__Generated.c **** 	context->Parent = 0;
 1991              		.loc 2 74 0
 1992 0008 7B68     		ldr	r3, [r7, #4]
 1993 000a 0022     		movs	r2, #0
 1994 000c 1A60     		str	r2, [r3]
  75:FT_Esd_Widgets/Ft_Esd_DemoPage__Generated.c **** 	SwitchBool__Initializer(&context->SwitchBool);
 1995              		.loc 2 75 0
 1996 000e 7B68     		ldr	r3, [r7, #4]
 1997 0010 0433     		adds	r3, r3, #4
 1998 0012 1846     		mov	r0, r3
 1999 0014 FFF7FEFF 		bl	SwitchBool__Initializer
  76:FT_Esd_Widgets/Ft_Esd_DemoPage__Generated.c **** 	context->SwitchBool.Parent = context;
 2000              		.loc 2 76 0
 2001 0018 7B68     		ldr	r3, [r7, #4]
 2002 001a 7A68     		ldr	r2, [r7, #4]
 2003 001c 5A60     		str	r2, [r3, #4]
  77:FT_Esd_Widgets/Ft_Esd_DemoPage__Generated.c **** 	Ft_Esd_TouchTag__Initializer(&context->Touch_Tag);
 2004              		.loc 2 77 0
 2005 001e 7B68     		ldr	r3, [r7, #4]
 2006 0020 0C33     		adds	r3, r3, #12
 2007 0022 1846     		mov	r0, r3
 2008 0024 FFF7FEFF 		bl	Ft_Esd_TouchTag__Initializer
ARM GAS  /var/folders/n8/cvzdcwlj0vl4g_wtyz1ffy300000gn/T//ccLY5GZg.s 			page 38


  78:FT_Esd_Widgets/Ft_Esd_DemoPage__Generated.c **** 	context->Touch_Tag.Parent = context;
 2009              		.loc 2 78 0
 2010 0028 7B68     		ldr	r3, [r7, #4]
 2011 002a 7A68     		ldr	r2, [r7, #4]
 2012 002c DA60     		str	r2, [r3, #12]
  79:FT_Esd_Widgets/Ft_Esd_DemoPage__Generated.c **** 	Ft_Esd_ProgressBar__Initializer(&context->ESD_ProgressBar);
 2013              		.loc 2 79 0
 2014 002e 7B68     		ldr	r3, [r7, #4]
 2015 0030 2433     		adds	r3, r3, #36
 2016 0032 1846     		mov	r0, r3
 2017 0034 FFF7FEFF 		bl	Ft_Esd_ProgressBar__Initializer
  80:FT_Esd_Widgets/Ft_Esd_DemoPage__Generated.c **** 	context->ESD_ProgressBar.Parent = context;
 2018              		.loc 2 80 0
 2019 0038 7B68     		ldr	r3, [r7, #4]
 2020 003a 7A68     		ldr	r2, [r7, #4]
 2021 003c 5A62     		str	r2, [r3, #36]
  81:FT_Esd_Widgets/Ft_Esd_DemoPage__Generated.c **** 	context->ESD_ProgressBar.X = Ft_Esd_DemoPage_ESD_ProgressBar_X__Property;
 2022              		.loc 2 81 0
 2023 003e 7B68     		ldr	r3, [r7, #4]
 2024 0040 AE4A     		ldr	r2, .L93
 2025 0042 DA62     		str	r2, [r3, #44]
  82:FT_Esd_Widgets/Ft_Esd_DemoPage__Generated.c **** 	context->ESD_ProgressBar.Y = Ft_Esd_DemoPage_ESD_ProgressBar_Y__Property;
 2026              		.loc 2 82 0
 2027 0044 7B68     		ldr	r3, [r7, #4]
 2028 0046 AE4A     		ldr	r2, .L93+4
 2029 0048 1A63     		str	r2, [r3, #48]
  83:FT_Esd_Widgets/Ft_Esd_DemoPage__Generated.c **** 	context->ESD_ProgressBar.Height = Ft_Esd_DemoPage_ESD_ProgressBar_Height__Property;
 2030              		.loc 2 83 0
 2031 004a 7B68     		ldr	r3, [r7, #4]
 2032 004c AD4A     		ldr	r2, .L93+8
 2033 004e 9A63     		str	r2, [r3, #56]
  84:FT_Esd_Widgets/Ft_Esd_DemoPage__Generated.c **** 	context->ESD_ProgressBar.Val = Ft_Esd_DemoPage_ESD_ProgressBar_Val__Property;
 2034              		.loc 2 84 0
 2035 0050 7B68     		ldr	r3, [r7, #4]
 2036 0052 AD4A     		ldr	r2, .L93+12
 2037 0054 DA63     		str	r2, [r3, #60]
  85:FT_Esd_Widgets/Ft_Esd_DemoPage__Generated.c **** 	context->ESD_ProgressBar.Range = Ft_Esd_DemoPage_ESD_ProgressBar_Range__Property;
 2038              		.loc 2 85 0
 2039 0056 7B68     		ldr	r3, [r7, #4]
 2040 0058 AC4A     		ldr	r2, .L93+16
 2041 005a 1A64     		str	r2, [r3, #64]
  86:FT_Esd_Widgets/Ft_Esd_DemoPage__Generated.c **** 	Ft_Esd_Gauge__Initializer(&context->ESD_Gauge);
 2042              		.loc 2 86 0
 2043 005c 7B68     		ldr	r3, [r7, #4]
 2044 005e 4433     		adds	r3, r3, #68
 2045 0060 1846     		mov	r0, r3
 2046 0062 FFF7FEFF 		bl	Ft_Esd_Gauge__Initializer
  87:FT_Esd_Widgets/Ft_Esd_DemoPage__Generated.c **** 	context->ESD_Gauge.Parent = context;
 2047              		.loc 2 87 0
 2048 0066 7B68     		ldr	r3, [r7, #4]
 2049 0068 7A68     		ldr	r2, [r7, #4]
 2050 006a 5A64     		str	r2, [r3, #68]
  88:FT_Esd_Widgets/Ft_Esd_DemoPage__Generated.c **** 	context->ESD_Gauge.X = Ft_Esd_DemoPage_ESD_Gauge_X__Property;
 2051              		.loc 2 88 0
 2052 006c 7B68     		ldr	r3, [r7, #4]
 2053 006e A84A     		ldr	r2, .L93+20
 2054 0070 DA64     		str	r2, [r3, #76]
ARM GAS  /var/folders/n8/cvzdcwlj0vl4g_wtyz1ffy300000gn/T//ccLY5GZg.s 			page 39


  89:FT_Esd_Widgets/Ft_Esd_DemoPage__Generated.c **** 	context->ESD_Gauge.Y = Ft_Esd_DemoPage_ESD_Gauge_Y__Property;
 2055              		.loc 2 89 0
 2056 0072 7B68     		ldr	r3, [r7, #4]
 2057 0074 A74A     		ldr	r2, .L93+24
 2058 0076 1A65     		str	r2, [r3, #80]
  90:FT_Esd_Widgets/Ft_Esd_DemoPage__Generated.c **** 	context->ESD_Gauge.Val = Ft_Esd_DemoPage_ESD_Gauge_Val__Property;
 2059              		.loc 2 90 0
 2060 0078 7B68     		ldr	r3, [r7, #4]
 2061 007a A74A     		ldr	r2, .L93+28
 2062 007c 5A67     		str	r2, [r3, #116]
  91:FT_Esd_Widgets/Ft_Esd_DemoPage__Generated.c **** 	Ft_Esd_Clock__Initializer(&context->ESD_Clock);
 2063              		.loc 2 91 0
 2064 007e 7B68     		ldr	r3, [r7, #4]
 2065 0080 8433     		adds	r3, r3, #132
 2066 0082 1846     		mov	r0, r3
 2067 0084 FFF7FEFF 		bl	Ft_Esd_Clock__Initializer
  92:FT_Esd_Widgets/Ft_Esd_DemoPage__Generated.c **** 	context->ESD_Clock.Parent = context;
 2068              		.loc 2 92 0
 2069 0088 7B68     		ldr	r3, [r7, #4]
 2070 008a 7A68     		ldr	r2, [r7, #4]
 2071 008c C3F88420 		str	r2, [r3, #132]
  93:FT_Esd_Widgets/Ft_Esd_DemoPage__Generated.c **** 	context->ESD_Clock.X = Ft_Esd_DemoPage_ESD_Clock_X__Property;
 2072              		.loc 2 93 0
 2073 0090 7B68     		ldr	r3, [r7, #4]
 2074 0092 A24A     		ldr	r2, .L93+32
 2075 0094 C3F88C20 		str	r2, [r3, #140]
  94:FT_Esd_Widgets/Ft_Esd_DemoPage__Generated.c **** 	context->ESD_Clock.Y = Ft_Esd_DemoPage_ESD_Clock_Y__Property;
 2076              		.loc 2 94 0
 2077 0098 7B68     		ldr	r3, [r7, #4]
 2078 009a A14A     		ldr	r2, .L93+36
 2079 009c C3F89020 		str	r2, [r3, #144]
  95:FT_Esd_Widgets/Ft_Esd_DemoPage__Generated.c **** 	context->ESD_Clock.Ms = Ft_Esd_DemoPage_ESD_Clock_Ms__Property;
 2080              		.loc 2 95 0
 2081 00a0 7B68     		ldr	r3, [r7, #4]
 2082 00a2 A04A     		ldr	r2, .L93+40
 2083 00a4 C3F8C020 		str	r2, [r3, #192]
  96:FT_Esd_Widgets/Ft_Esd_DemoPage__Generated.c **** 	context->ESD_Clock.Interactive = Ft_Esd_DemoPage_ESD_Clock_Interactive__Property;
 2084              		.loc 2 96 0
 2085 00a8 7B68     		ldr	r3, [r7, #4]
 2086 00aa 9F4A     		ldr	r2, .L93+44
 2087 00ac C3F8DC20 		str	r2, [r3, #220]
  97:FT_Esd_Widgets/Ft_Esd_DemoPage__Generated.c **** 	Ft_Esd_PushButton__Initializer(&context->ESD_PushButton);
 2088              		.loc 2 97 0
 2089 00b0 7B68     		ldr	r3, [r7, #4]
 2090 00b2 E033     		adds	r3, r3, #224
 2091 00b4 1846     		mov	r0, r3
 2092 00b6 FFF7FEFF 		bl	Ft_Esd_PushButton__Initializer
  98:FT_Esd_Widgets/Ft_Esd_DemoPage__Generated.c **** 	context->ESD_PushButton.Parent = context;
 2093              		.loc 2 98 0
 2094 00ba 7B68     		ldr	r3, [r7, #4]
 2095 00bc 7A68     		ldr	r2, [r7, #4]
 2096 00be C3F8E020 		str	r2, [r3, #224]
  99:FT_Esd_Widgets/Ft_Esd_DemoPage__Generated.c **** 	context->ESD_PushButton.X = Ft_Esd_DemoPage_ESD_PushButton_X__Property;
 2097              		.loc 2 99 0
 2098 00c2 7B68     		ldr	r3, [r7, #4]
 2099 00c4 994A     		ldr	r2, .L93+48
 2100 00c6 C3F8E820 		str	r2, [r3, #232]
ARM GAS  /var/folders/n8/cvzdcwlj0vl4g_wtyz1ffy300000gn/T//ccLY5GZg.s 			page 40


 100:FT_Esd_Widgets/Ft_Esd_DemoPage__Generated.c **** 	context->ESD_PushButton.Y = Ft_Esd_DemoPage_ESD_PushButton_Y__Property;
 2101              		.loc 2 100 0
 2102 00ca 7B68     		ldr	r3, [r7, #4]
 2103 00cc 984A     		ldr	r2, .L93+52
 2104 00ce C3F8EC20 		str	r2, [r3, #236]
 101:FT_Esd_Widgets/Ft_Esd_DemoPage__Generated.c **** 	context->ESD_PushButton.Pushed = Ft_Esd_DemoPage_ESD_PushButton_Pushed__Signal;
 2105              		.loc 2 101 0
 2106 00d2 7B68     		ldr	r3, [r7, #4]
 2107 00d4 974A     		ldr	r2, .L93+56
 2108 00d6 C3F82421 		str	r2, [r3, #292]
 102:FT_Esd_Widgets/Ft_Esd_DemoPage__Generated.c **** 	Ft_Esd_Rectangle__Initializer(&context->ESD_Rectangle);
 2109              		.loc 2 102 0
 2110 00da 7B68     		ldr	r3, [r7, #4]
 2111 00dc 03F59473 		add	r3, r3, #296
 2112 00e0 1846     		mov	r0, r3
 2113 00e2 FFF7FEFF 		bl	Ft_Esd_Rectangle__Initializer
 103:FT_Esd_Widgets/Ft_Esd_DemoPage__Generated.c **** 	context->ESD_Rectangle.Parent = context;
 2114              		.loc 2 103 0
 2115 00e6 7B68     		ldr	r3, [r7, #4]
 2116 00e8 7A68     		ldr	r2, [r7, #4]
 2117 00ea C3F82821 		str	r2, [r3, #296]
 104:FT_Esd_Widgets/Ft_Esd_DemoPage__Generated.c **** 	context->ESD_Rectangle.X = Ft_Esd_DemoPage_ESD_Rectangle_X__Property;
 2118              		.loc 2 104 0
 2119 00ee 7B68     		ldr	r3, [r7, #4]
 2120 00f0 914A     		ldr	r2, .L93+60
 2121 00f2 C3F82C21 		str	r2, [r3, #300]
 105:FT_Esd_Widgets/Ft_Esd_DemoPage__Generated.c **** 	context->ESD_Rectangle.Y = Ft_Esd_DemoPage_ESD_Rectangle_Y__Property;
 2122              		.loc 2 105 0
 2123 00f6 7B68     		ldr	r3, [r7, #4]
 2124 00f8 904A     		ldr	r2, .L93+64
 2125 00fa C3F83021 		str	r2, [r3, #304]
 106:FT_Esd_Widgets/Ft_Esd_DemoPage__Generated.c **** 	Ft_Esd_PushButton__Initializer(&context->ESD_PushButton_1);
 2126              		.loc 2 106 0
 2127 00fe 7B68     		ldr	r3, [r7, #4]
 2128 0100 03F5A273 		add	r3, r3, #324
 2129 0104 1846     		mov	r0, r3
 2130 0106 FFF7FEFF 		bl	Ft_Esd_PushButton__Initializer
 107:FT_Esd_Widgets/Ft_Esd_DemoPage__Generated.c **** 	context->ESD_PushButton_1.Parent = context;
 2131              		.loc 2 107 0
 2132 010a 7B68     		ldr	r3, [r7, #4]
 2133 010c 7A68     		ldr	r2, [r7, #4]
 2134 010e C3F84421 		str	r2, [r3, #324]
 108:FT_Esd_Widgets/Ft_Esd_DemoPage__Generated.c **** 	context->ESD_PushButton_1.X = Ft_Esd_DemoPage_ESD_PushButton_1_X__Property;
 2135              		.loc 2 108 0
 2136 0112 7B68     		ldr	r3, [r7, #4]
 2137 0114 8A4A     		ldr	r2, .L93+68
 2138 0116 C3F84C21 		str	r2, [r3, #332]
 109:FT_Esd_Widgets/Ft_Esd_DemoPage__Generated.c **** 	context->ESD_PushButton_1.Y = Ft_Esd_DemoPage_ESD_PushButton_1_Y__Property;
 2139              		.loc 2 109 0
 2140 011a 7B68     		ldr	r3, [r7, #4]
 2141 011c 894A     		ldr	r2, .L93+72
 2142 011e C3F85021 		str	r2, [r3, #336]
 110:FT_Esd_Widgets/Ft_Esd_DemoPage__Generated.c **** 	context->ESD_PushButton_1.Primary = Ft_Esd_DemoPage_ESD_PushButton_1_Primary__Property;
 2143              		.loc 2 110 0
 2144 0122 7B68     		ldr	r3, [r7, #4]
 2145 0124 884A     		ldr	r2, .L93+76
 2146 0126 C3F86821 		str	r2, [r3, #360]
ARM GAS  /var/folders/n8/cvzdcwlj0vl4g_wtyz1ffy300000gn/T//ccLY5GZg.s 			page 41


 111:FT_Esd_Widgets/Ft_Esd_DemoPage__Generated.c **** 	Ft_Esd_Toggle__Initializer(&context->ESD_Toggle);
 2147              		.loc 2 111 0
 2148 012a 7B68     		ldr	r3, [r7, #4]
 2149 012c 03F5C673 		add	r3, r3, #396
 2150 0130 1846     		mov	r0, r3
 2151 0132 FFF7FEFF 		bl	Ft_Esd_Toggle__Initializer
 112:FT_Esd_Widgets/Ft_Esd_DemoPage__Generated.c **** 	context->ESD_Toggle.Parent = context;
 2152              		.loc 2 112 0
 2153 0136 7B68     		ldr	r3, [r7, #4]
 2154 0138 7A68     		ldr	r2, [r7, #4]
 2155 013a C3F88C21 		str	r2, [r3, #396]
 113:FT_Esd_Widgets/Ft_Esd_DemoPage__Generated.c **** 	context->ESD_Toggle.X = Ft_Esd_DemoPage_ESD_Toggle_X__Property;
 2156              		.loc 2 113 0
 2157 013e 7B68     		ldr	r3, [r7, #4]
 2158 0140 824A     		ldr	r2, .L93+80
 2159 0142 C3F89421 		str	r2, [r3, #404]
 114:FT_Esd_Widgets/Ft_Esd_DemoPage__Generated.c **** 	context->ESD_Toggle.Y = Ft_Esd_DemoPage_ESD_Toggle_Y__Property;
 2160              		.loc 2 114 0
 2161 0146 7B68     		ldr	r3, [r7, #4]
 2162 0148 814A     		ldr	r2, .L93+84
 2163 014a C3F89821 		str	r2, [r3, #408]
 115:FT_Esd_Widgets/Ft_Esd_DemoPage__Generated.c **** 	context->ESD_Toggle.Width = Ft_Esd_DemoPage_ESD_Toggle_Width__Property;
 2164              		.loc 2 115 0
 2165 014e 7B68     		ldr	r3, [r7, #4]
 2166 0150 804A     		ldr	r2, .L93+88
 2167 0152 C3F89C21 		str	r2, [r3, #412]
 116:FT_Esd_Widgets/Ft_Esd_DemoPage__Generated.c **** 	Ft_Esd_PushButton__Initializer(&context->ESD_PushButton_2);
 2168              		.loc 2 116 0
 2169 0156 7B68     		ldr	r3, [r7, #4]
 2170 0158 03F5E873 		add	r3, r3, #464
 2171 015c 1846     		mov	r0, r3
 2172 015e FFF7FEFF 		bl	Ft_Esd_PushButton__Initializer
 117:FT_Esd_Widgets/Ft_Esd_DemoPage__Generated.c **** 	context->ESD_PushButton_2.Parent = context;
 2173              		.loc 2 117 0
 2174 0162 7B68     		ldr	r3, [r7, #4]
 2175 0164 7A68     		ldr	r2, [r7, #4]
 2176 0166 C3F8D021 		str	r2, [r3, #464]
 118:FT_Esd_Widgets/Ft_Esd_DemoPage__Generated.c **** 	context->ESD_PushButton_2.X = Ft_Esd_DemoPage_ESD_PushButton_2_X__Property;
 2177              		.loc 2 118 0
 2178 016a 7B68     		ldr	r3, [r7, #4]
 2179 016c 7A4A     		ldr	r2, .L93+92
 2180 016e C3F8D821 		str	r2, [r3, #472]
 119:FT_Esd_Widgets/Ft_Esd_DemoPage__Generated.c **** 	context->ESD_PushButton_2.Y = Ft_Esd_DemoPage_ESD_PushButton_2_Y__Property;
 2181              		.loc 2 119 0
 2182 0172 7B68     		ldr	r3, [r7, #4]
 2183 0174 794A     		ldr	r2, .L93+96
 2184 0176 C3F8DC21 		str	r2, [r3, #476]
 120:FT_Esd_Widgets/Ft_Esd_DemoPage__Generated.c **** 	context->ESD_PushButton_2.Primary = Ft_Esd_DemoPage_ESD_PushButton_2_Primary__Property;
 2185              		.loc 2 120 0
 2186 017a 7B68     		ldr	r3, [r7, #4]
 2187 017c 784A     		ldr	r2, .L93+100
 2188 017e C3F8F421 		str	r2, [r3, #500]
 121:FT_Esd_Widgets/Ft_Esd_DemoPage__Generated.c **** 	Ft_Esd_Label__Initializer(&context->ESD_Label);
 2189              		.loc 2 121 0
 2190 0182 7B68     		ldr	r3, [r7, #4]
 2191 0184 03F50673 		add	r3, r3, #536
 2192 0188 1846     		mov	r0, r3
ARM GAS  /var/folders/n8/cvzdcwlj0vl4g_wtyz1ffy300000gn/T//ccLY5GZg.s 			page 42


 2193 018a FFF7FEFF 		bl	Ft_Esd_Label__Initializer
 122:FT_Esd_Widgets/Ft_Esd_DemoPage__Generated.c **** 	context->ESD_Label.Parent = context;
 2194              		.loc 2 122 0
 2195 018e 7B68     		ldr	r3, [r7, #4]
 2196 0190 7A68     		ldr	r2, [r7, #4]
 2197 0192 C3F81822 		str	r2, [r3, #536]
 123:FT_Esd_Widgets/Ft_Esd_DemoPage__Generated.c **** 	context->ESD_Label.X = Ft_Esd_DemoPage_ESD_Label_X__Property;
 2198              		.loc 2 123 0
 2199 0196 7B68     		ldr	r3, [r7, #4]
 2200 0198 724A     		ldr	r2, .L93+104
 2201 019a C3F82822 		str	r2, [r3, #552]
 124:FT_Esd_Widgets/Ft_Esd_DemoPage__Generated.c **** 	context->ESD_Label.Y = Ft_Esd_DemoPage_ESD_Label_Y__Property;
 2202              		.loc 2 124 0
 2203 019e 7B68     		ldr	r3, [r7, #4]
 2204 01a0 714A     		ldr	r2, .L93+108
 2205 01a2 C3F82C22 		str	r2, [r3, #556]
 125:FT_Esd_Widgets/Ft_Esd_DemoPage__Generated.c **** 	Ft_Esd_PushButton__Initializer(&context->ESD_PushButton_3);
 2206              		.loc 2 125 0
 2207 01a6 7B68     		ldr	r3, [r7, #4]
 2208 01a8 03F51073 		add	r3, r3, #576
 2209 01ac 1846     		mov	r0, r3
 2210 01ae FFF7FEFF 		bl	Ft_Esd_PushButton__Initializer
 126:FT_Esd_Widgets/Ft_Esd_DemoPage__Generated.c **** 	context->ESD_PushButton_3.Parent = context;
 2211              		.loc 2 126 0
 2212 01b2 7B68     		ldr	r3, [r7, #4]
 2213 01b4 7A68     		ldr	r2, [r7, #4]
 2214 01b6 C3F84022 		str	r2, [r3, #576]
 127:FT_Esd_Widgets/Ft_Esd_DemoPage__Generated.c **** 	context->ESD_PushButton_3.X = Ft_Esd_DemoPage_ESD_PushButton_3_X__Property;
 2215              		.loc 2 127 0
 2216 01ba 7B68     		ldr	r3, [r7, #4]
 2217 01bc 6B4A     		ldr	r2, .L93+112
 2218 01be C3F84822 		str	r2, [r3, #584]
 128:FT_Esd_Widgets/Ft_Esd_DemoPage__Generated.c **** 	context->ESD_PushButton_3.Y = Ft_Esd_DemoPage_ESD_PushButton_3_Y__Property;
 2219              		.loc 2 128 0
 2220 01c2 7B68     		ldr	r3, [r7, #4]
 2221 01c4 6A4A     		ldr	r2, .L93+116
 2222 01c6 C3F84C22 		str	r2, [r3, #588]
 129:FT_Esd_Widgets/Ft_Esd_DemoPage__Generated.c **** 	context->ESD_PushButton_3.Primary = Ft_Esd_DemoPage_ESD_PushButton_3_Primary__Property;
 2223              		.loc 2 129 0
 2224 01ca 7B68     		ldr	r3, [r7, #4]
 2225 01cc 694A     		ldr	r2, .L93+120
 2226 01ce C3F86422 		str	r2, [r3, #612]
 130:FT_Esd_Widgets/Ft_Esd_DemoPage__Generated.c **** 	Ft_Esd_Toggle__Initializer(&context->ESD_Toggle_1);
 2227              		.loc 2 130 0
 2228 01d2 7B68     		ldr	r3, [r7, #4]
 2229 01d4 03F52273 		add	r3, r3, #648
 2230 01d8 1846     		mov	r0, r3
 2231 01da FFF7FEFF 		bl	Ft_Esd_Toggle__Initializer
 131:FT_Esd_Widgets/Ft_Esd_DemoPage__Generated.c **** 	context->ESD_Toggle_1.Parent = context;
 2232              		.loc 2 131 0
 2233 01de 7B68     		ldr	r3, [r7, #4]
 2234 01e0 7A68     		ldr	r2, [r7, #4]
 2235 01e2 C3F88822 		str	r2, [r3, #648]
 132:FT_Esd_Widgets/Ft_Esd_DemoPage__Generated.c **** 	context->ESD_Toggle_1.X = Ft_Esd_DemoPage_ESD_Toggle_1_X__Property;
 2236              		.loc 2 132 0
 2237 01e6 7B68     		ldr	r3, [r7, #4]
 2238 01e8 634A     		ldr	r2, .L93+124
ARM GAS  /var/folders/n8/cvzdcwlj0vl4g_wtyz1ffy300000gn/T//ccLY5GZg.s 			page 43


 2239 01ea C3F89022 		str	r2, [r3, #656]
 133:FT_Esd_Widgets/Ft_Esd_DemoPage__Generated.c **** 	context->ESD_Toggle_1.Y = Ft_Esd_DemoPage_ESD_Toggle_1_Y__Property;
 2240              		.loc 2 133 0
 2241 01ee 7B68     		ldr	r3, [r7, #4]
 2242 01f0 624A     		ldr	r2, .L93+128
 2243 01f2 C3F89422 		str	r2, [r3, #660]
 134:FT_Esd_Widgets/Ft_Esd_DemoPage__Generated.c **** 	context->ESD_Toggle_1.Width = Ft_Esd_DemoPage_ESD_Toggle_1_Width__Property;
 2244              		.loc 2 134 0
 2245 01f6 7B68     		ldr	r3, [r7, #4]
 2246 01f8 614A     		ldr	r2, .L93+132
 2247 01fa C3F89822 		str	r2, [r3, #664]
 135:FT_Esd_Widgets/Ft_Esd_DemoPage__Generated.c **** 	context->ESD_Toggle_1.Height = Ft_Esd_DemoPage_ESD_Toggle_1_Height__Property;
 2248              		.loc 2 135 0
 2249 01fe 7B68     		ldr	r3, [r7, #4]
 2250 0200 604A     		ldr	r2, .L93+136
 2251 0202 C3F89C22 		str	r2, [r3, #668]
 136:FT_Esd_Widgets/Ft_Esd_DemoPage__Generated.c **** 	context->ESD_Toggle_1.Font = Ft_Esd_DemoPage_ESD_Toggle_1_Font__Property;
 2252              		.loc 2 136 0
 2253 0206 7B68     		ldr	r3, [r7, #4]
 2254 0208 5F4A     		ldr	r2, .L93+140
 2255 020a C3F8A022 		str	r2, [r3, #672]
 137:FT_Esd_Widgets/Ft_Esd_DemoPage__Generated.c **** 	Ft_Esd_SpinBox__Initializer(&context->ESD_SpinBox);
 2256              		.loc 2 137 0
 2257 020e 7B68     		ldr	r3, [r7, #4]
 2258 0210 03F53373 		add	r3, r3, #716
 2259 0214 1846     		mov	r0, r3
 2260 0216 FFF7FEFF 		bl	Ft_Esd_SpinBox__Initializer
 138:FT_Esd_Widgets/Ft_Esd_DemoPage__Generated.c **** 	context->ESD_SpinBox.Parent = context;
 2261              		.loc 2 138 0
 2262 021a 7B68     		ldr	r3, [r7, #4]
 2263 021c 7A68     		ldr	r2, [r7, #4]
 2264 021e C3F8CC22 		str	r2, [r3, #716]
 139:FT_Esd_Widgets/Ft_Esd_DemoPage__Generated.c **** 	context->ESD_SpinBox.X = Ft_Esd_DemoPage_ESD_SpinBox_X__Property;
 2265              		.loc 2 139 0
 2266 0222 7B68     		ldr	r3, [r7, #4]
 2267 0224 594A     		ldr	r2, .L93+144
 2268 0226 C3F8EC22 		str	r2, [r3, #748]
 140:FT_Esd_Widgets/Ft_Esd_DemoPage__Generated.c **** 	context->ESD_SpinBox.Y = Ft_Esd_DemoPage_ESD_SpinBox_Y__Property;
 2269              		.loc 2 140 0
 2270 022a 7B68     		ldr	r3, [r7, #4]
 2271 022c 584A     		ldr	r2, .L93+148
 2272 022e C3F8F022 		str	r2, [r3, #752]
 141:FT_Esd_Widgets/Ft_Esd_DemoPage__Generated.c **** 	context->ESD_SpinBox.Height = Ft_Esd_DemoPage_ESD_SpinBox_Height__Property;
 2273              		.loc 2 141 0
 2274 0232 7B68     		ldr	r3, [r7, #4]
 2275 0234 574A     		ldr	r2, .L93+152
 2276 0236 C3F8F822 		str	r2, [r3, #760]
 142:FT_Esd_Widgets/Ft_Esd_DemoPage__Generated.c **** 	context->ESD_SpinBox.SideButtons = 1;
 2277              		.loc 2 142 0
 2278 023a 7B68     		ldr	r3, [r7, #4]
 2279 023c 0122     		movs	r2, #1
 2280 023e 83F85823 		strb	r2, [r3, #856]
 143:FT_Esd_Widgets/Ft_Esd_DemoPage__Generated.c **** 	context->ESD_SpinBox.Changed = Ft_Esd_DemoPage_ESD_SpinBox_Changed__Writer;
 2281              		.loc 2 143 0
 2282 0242 7B68     		ldr	r3, [r7, #4]
 2283 0244 544A     		ldr	r2, .L93+156
 2284 0246 C3F80823 		str	r2, [r3, #776]
ARM GAS  /var/folders/n8/cvzdcwlj0vl4g_wtyz1ffy300000gn/T//ccLY5GZg.s 			page 44


 144:FT_Esd_Widgets/Ft_Esd_DemoPage__Generated.c **** 	Ft_Esd_NumericLabel__Initializer(&context->ESD_NumericLabel);
 2285              		.loc 2 144 0
 2286 024a 7B68     		ldr	r3, [r7, #4]
 2287 024c 03F57B73 		add	r3, r3, #1004
 2288 0250 1846     		mov	r0, r3
 2289 0252 FFF7FEFF 		bl	Ft_Esd_NumericLabel__Initializer
 145:FT_Esd_Widgets/Ft_Esd_DemoPage__Generated.c **** 	context->ESD_NumericLabel.Parent = context;
 2290              		.loc 2 145 0
 2291 0256 7B68     		ldr	r3, [r7, #4]
 2292 0258 7A68     		ldr	r2, [r7, #4]
 2293 025a C3F8EC23 		str	r2, [r3, #1004]
 146:FT_Esd_Widgets/Ft_Esd_DemoPage__Generated.c **** 	context->ESD_NumericLabel.X = Ft_Esd_DemoPage_ESD_NumericLabel_X__Property;
 2294              		.loc 2 146 0
 2295 025e 7B68     		ldr	r3, [r7, #4]
 2296 0260 4E4A     		ldr	r2, .L93+160
 2297 0262 C3F8F423 		str	r2, [r3, #1012]
 147:FT_Esd_Widgets/Ft_Esd_DemoPage__Generated.c **** 	context->ESD_NumericLabel.Y = Ft_Esd_DemoPage_ESD_NumericLabel_Y__Property;
 2298              		.loc 2 147 0
 2299 0266 7B68     		ldr	r3, [r7, #4]
 2300 0268 4D4A     		ldr	r2, .L93+164
 2301 026a C3F8F823 		str	r2, [r3, #1016]
 148:FT_Esd_Widgets/Ft_Esd_DemoPage__Generated.c **** 	context->ESD_NumericLabel.Value = Ft_Esd_DemoPage_ESD_NumericLabel_Value__Property;
 2302              		.loc 2 148 0
 2303 026e 7B68     		ldr	r3, [r7, #4]
 2304 0270 4C4A     		ldr	r2, .L93+168
 2305 0272 C3F80824 		str	r2, [r3, #1032]
 149:FT_Esd_Widgets/Ft_Esd_DemoPage__Generated.c **** 	Ft_Esd_LabelButton__Initializer(&context->ESD_Label_Button);
 2306              		.loc 2 149 0
 2307 0276 7B68     		ldr	r3, [r7, #4]
 2308 0278 03F20C43 		addw	r3, r3, #1036
 2309 027c 1846     		mov	r0, r3
 2310 027e FFF7FEFF 		bl	Ft_Esd_LabelButton__Initializer
 150:FT_Esd_Widgets/Ft_Esd_DemoPage__Generated.c **** 	context->ESD_Label_Button.Parent = context;
 2311              		.loc 2 150 0
 2312 0282 7B68     		ldr	r3, [r7, #4]
 2313 0284 7A68     		ldr	r2, [r7, #4]
 2314 0286 C3F80C24 		str	r2, [r3, #1036]
 151:FT_Esd_Widgets/Ft_Esd_DemoPage__Generated.c **** 	context->ESD_Label_Button.X = Ft_Esd_DemoPage_ESD_Label_Button_X__Property;
 2315              		.loc 2 151 0
 2316 028a 7B68     		ldr	r3, [r7, #4]
 2317 028c 464A     		ldr	r2, .L93+172
 2318 028e C3F83024 		str	r2, [r3, #1072]
 152:FT_Esd_Widgets/Ft_Esd_DemoPage__Generated.c **** 	context->ESD_Label_Button.Y = Ft_Esd_DemoPage_ESD_Label_Button_Y__Property;
 2319              		.loc 2 152 0
 2320 0292 7B68     		ldr	r3, [r7, #4]
 2321 0294 454A     		ldr	r2, .L93+176
 2322 0296 C3F83424 		str	r2, [r3, #1076]
 153:FT_Esd_Widgets/Ft_Esd_DemoPage__Generated.c **** 	context->ESD_Label_Button.Pushed = Ft_Esd_DemoPage_ESD_Label_Button_Pushed__Signal;
 2323              		.loc 2 153 0
 2324 029a 7B68     		ldr	r3, [r7, #4]
 2325 029c 444A     		ldr	r2, .L93+180
 2326 029e C3F82824 		str	r2, [r3, #1064]
 154:FT_Esd_Widgets/Ft_Esd_DemoPage__Generated.c **** 	Ft_Esd_NumericLabel__Initializer(&context->ESD_NumericLabel_1);
 2327              		.loc 2 154 0
 2328 02a2 7B68     		ldr	r3, [r7, #4]
 2329 02a4 03F24C43 		addw	r3, r3, #1100
 2330 02a8 1846     		mov	r0, r3
ARM GAS  /var/folders/n8/cvzdcwlj0vl4g_wtyz1ffy300000gn/T//ccLY5GZg.s 			page 45


 2331 02aa FFF7FEFF 		bl	Ft_Esd_NumericLabel__Initializer
 155:FT_Esd_Widgets/Ft_Esd_DemoPage__Generated.c **** 	context->ESD_NumericLabel_1.Parent = context;
 2332              		.loc 2 155 0
 2333 02ae 7B68     		ldr	r3, [r7, #4]
 2334 02b0 7A68     		ldr	r2, [r7, #4]
 2335 02b2 C3F84C24 		str	r2, [r3, #1100]
 156:FT_Esd_Widgets/Ft_Esd_DemoPage__Generated.c **** 	context->ESD_NumericLabel_1.X = Ft_Esd_DemoPage_ESD_NumericLabel_1_X__Property;
 2336              		.loc 2 156 0
 2337 02b6 7B68     		ldr	r3, [r7, #4]
 2338 02b8 3E4A     		ldr	r2, .L93+184
 2339 02ba C3F85424 		str	r2, [r3, #1108]
 157:FT_Esd_Widgets/Ft_Esd_DemoPage__Generated.c **** 	context->ESD_NumericLabel_1.Value = Ft_Esd_DemoPage_ESD_NumericLabel_1_Value__Property;
 2340              		.loc 2 157 0
 2341 02be 7B68     		ldr	r3, [r7, #4]
 2342 02c0 3D4A     		ldr	r2, .L93+188
 2343 02c2 C3F86824 		str	r2, [r3, #1128]
 158:FT_Esd_Widgets/Ft_Esd_DemoPage__Generated.c **** 	Ft_Esd_SpinBox__Initializer(&context->ESD_SpinBox_1);
 2344              		.loc 2 158 0
 2345 02c6 7B68     		ldr	r3, [r7, #4]
 2346 02c8 03F26C43 		addw	r3, r3, #1132
 2347 02cc 1846     		mov	r0, r3
 2348 02ce FFF7FEFF 		bl	Ft_Esd_SpinBox__Initializer
 159:FT_Esd_Widgets/Ft_Esd_DemoPage__Generated.c **** 	context->ESD_SpinBox_1.Parent = context;
 2349              		.loc 2 159 0
 2350 02d2 7B68     		ldr	r3, [r7, #4]
 2351 02d4 7A68     		ldr	r2, [r7, #4]
 2352 02d6 C3F86C24 		str	r2, [r3, #1132]
 160:FT_Esd_Widgets/Ft_Esd_DemoPage__Generated.c **** 	context->ESD_SpinBox_1.X = Ft_Esd_DemoPage_ESD_SpinBox_1_X__Property;
 2353              		.loc 2 160 0
 2354 02da 7B68     		ldr	r3, [r7, #4]
 2355 02dc 374A     		ldr	r2, .L93+192
 2356 02de C3F88C24 		str	r2, [r3, #1164]
 161:FT_Esd_Widgets/Ft_Esd_DemoPage__Generated.c **** 	context->ESD_SpinBox_1.Y = Ft_Esd_DemoPage_ESD_SpinBox_1_Y__Property;
 2357              		.loc 2 161 0
 2358 02e2 7B68     		ldr	r3, [r7, #4]
 2359 02e4 364A     		ldr	r2, .L93+196
 2360 02e6 C3F89024 		str	r2, [r3, #1168]
 162:FT_Esd_Widgets/Ft_Esd_DemoPage__Generated.c **** 	context->ESD_SpinBox_1.Step = Ft_Esd_DemoPage_ESD_SpinBox_1_Step__Property;
 2361              		.loc 2 162 0
 2362 02ea 7B68     		ldr	r3, [r7, #4]
 2363 02ec 354A     		ldr	r2, .L93+200
 2364 02ee C3F89C24 		str	r2, [r3, #1180]
 163:FT_Esd_Widgets/Ft_Esd_DemoPage__Generated.c **** 	context->ESD_SpinBox_1.Changed = Ft_Esd_DemoPage_ESD_SpinBox_1_Changed__Writer;
 2365              		.loc 2 163 0
 2366 02f2 7B68     		ldr	r3, [r7, #4]
 2367 02f4 344A     		ldr	r2, .L93+204
 2368 02f6 C3F8A824 		str	r2, [r3, #1192]
 2369 02fa 67E0     		b	.L94
 2370              	.L95:
 2371              		.align	2
 2372              	.L93:
 2373 02fc 00000000 		.word	Ft_Esd_DemoPage_ESD_ProgressBar_X__Property
 2374 0300 00000000 		.word	Ft_Esd_DemoPage_ESD_ProgressBar_Y__Property
 2375 0304 00000000 		.word	Ft_Esd_DemoPage_ESD_ProgressBar_Height__Property
 2376 0308 00000000 		.word	Ft_Esd_DemoPage_ESD_ProgressBar_Val__Property
 2377 030c 00000000 		.word	Ft_Esd_DemoPage_ESD_ProgressBar_Range__Property
 2378 0310 00000000 		.word	Ft_Esd_DemoPage_ESD_Gauge_X__Property
ARM GAS  /var/folders/n8/cvzdcwlj0vl4g_wtyz1ffy300000gn/T//ccLY5GZg.s 			page 46


 2379 0314 00000000 		.word	Ft_Esd_DemoPage_ESD_Gauge_Y__Property
 2380 0318 00000000 		.word	Ft_Esd_DemoPage_ESD_Gauge_Val__Property
 2381 031c 00000000 		.word	Ft_Esd_DemoPage_ESD_Clock_X__Property
 2382 0320 00000000 		.word	Ft_Esd_DemoPage_ESD_Clock_Y__Property
 2383 0324 00000000 		.word	Ft_Esd_DemoPage_ESD_Clock_Ms__Property
 2384 0328 00000000 		.word	Ft_Esd_DemoPage_ESD_Clock_Interactive__Property
 2385 032c 00000000 		.word	Ft_Esd_DemoPage_ESD_PushButton_X__Property
 2386 0330 00000000 		.word	Ft_Esd_DemoPage_ESD_PushButton_Y__Property
 2387 0334 00000000 		.word	Ft_Esd_DemoPage_ESD_PushButton_Pushed__Signal
 2388 0338 00000000 		.word	Ft_Esd_DemoPage_ESD_Rectangle_X__Property
 2389 033c 00000000 		.word	Ft_Esd_DemoPage_ESD_Rectangle_Y__Property
 2390 0340 00000000 		.word	Ft_Esd_DemoPage_ESD_PushButton_1_X__Property
 2391 0344 00000000 		.word	Ft_Esd_DemoPage_ESD_PushButton_1_Y__Property
 2392 0348 00000000 		.word	Ft_Esd_DemoPage_ESD_PushButton_1_Primary__Property
 2393 034c 00000000 		.word	Ft_Esd_DemoPage_ESD_Toggle_X__Property
 2394 0350 00000000 		.word	Ft_Esd_DemoPage_ESD_Toggle_Y__Property
 2395 0354 00000000 		.word	Ft_Esd_DemoPage_ESD_Toggle_Width__Property
 2396 0358 00000000 		.word	Ft_Esd_DemoPage_ESD_PushButton_2_X__Property
 2397 035c 00000000 		.word	Ft_Esd_DemoPage_ESD_PushButton_2_Y__Property
 2398 0360 00000000 		.word	Ft_Esd_DemoPage_ESD_PushButton_2_Primary__Property
 2399 0364 00000000 		.word	Ft_Esd_DemoPage_ESD_Label_X__Property
 2400 0368 00000000 		.word	Ft_Esd_DemoPage_ESD_Label_Y__Property
 2401 036c 00000000 		.word	Ft_Esd_DemoPage_ESD_PushButton_3_X__Property
 2402 0370 00000000 		.word	Ft_Esd_DemoPage_ESD_PushButton_3_Y__Property
 2403 0374 00000000 		.word	Ft_Esd_DemoPage_ESD_PushButton_3_Primary__Property
 2404 0378 00000000 		.word	Ft_Esd_DemoPage_ESD_Toggle_1_X__Property
 2405 037c 00000000 		.word	Ft_Esd_DemoPage_ESD_Toggle_1_Y__Property
 2406 0380 00000000 		.word	Ft_Esd_DemoPage_ESD_Toggle_1_Width__Property
 2407 0384 00000000 		.word	Ft_Esd_DemoPage_ESD_Toggle_1_Height__Property
 2408 0388 00000000 		.word	Ft_Esd_DemoPage_ESD_Toggle_1_Font__Property
 2409 038c 00000000 		.word	Ft_Esd_DemoPage_ESD_SpinBox_X__Property
 2410 0390 00000000 		.word	Ft_Esd_DemoPage_ESD_SpinBox_Y__Property
 2411 0394 00000000 		.word	Ft_Esd_DemoPage_ESD_SpinBox_Height__Property
 2412 0398 00000000 		.word	Ft_Esd_DemoPage_ESD_SpinBox_Changed__Writer
 2413 039c 00000000 		.word	Ft_Esd_DemoPage_ESD_NumericLabel_X__Property
 2414 03a0 00000000 		.word	Ft_Esd_DemoPage_ESD_NumericLabel_Y__Property
 2415 03a4 00000000 		.word	Ft_Esd_DemoPage_ESD_NumericLabel_Value__Property
 2416 03a8 00000000 		.word	Ft_Esd_DemoPage_ESD_Label_Button_X__Property
 2417 03ac 00000000 		.word	Ft_Esd_DemoPage_ESD_Label_Button_Y__Property
 2418 03b0 00000000 		.word	Ft_Esd_DemoPage_ESD_Label_Button_Pushed__Signal
 2419 03b4 00000000 		.word	Ft_Esd_DemoPage_ESD_NumericLabel_1_X__Property
 2420 03b8 00000000 		.word	Ft_Esd_DemoPage_ESD_NumericLabel_1_Value__Property
 2421 03bc 00000000 		.word	Ft_Esd_DemoPage_ESD_SpinBox_1_X__Property
 2422 03c0 00000000 		.word	Ft_Esd_DemoPage_ESD_SpinBox_1_Y__Property
 2423 03c4 00000000 		.word	Ft_Esd_DemoPage_ESD_SpinBox_1_Step__Property
 2424 03c8 00000000 		.word	Ft_Esd_DemoPage_ESD_SpinBox_1_Changed__Writer
 2425              	.L94:
 164:FT_Esd_Widgets/Ft_Esd_DemoPage__Generated.c **** 	Ft_Esd_NumericLabel__Initializer(&context->ESD_NumericLabel_2);
 2426              		.loc 2 164 0
 2427 03cc 7B68     		ldr	r3, [r7, #4]
 2428 03ce 03F28C53 		addw	r3, r3, #1420
 2429 03d2 1846     		mov	r0, r3
 2430 03d4 FFF7FEFF 		bl	Ft_Esd_NumericLabel__Initializer
 165:FT_Esd_Widgets/Ft_Esd_DemoPage__Generated.c **** 	context->ESD_NumericLabel_2.Parent = context;
 2431              		.loc 2 165 0
 2432 03d8 7B68     		ldr	r3, [r7, #4]
 2433 03da 7A68     		ldr	r2, [r7, #4]
ARM GAS  /var/folders/n8/cvzdcwlj0vl4g_wtyz1ffy300000gn/T//ccLY5GZg.s 			page 47


 2434 03dc C3F88C25 		str	r2, [r3, #1420]
 166:FT_Esd_Widgets/Ft_Esd_DemoPage__Generated.c **** 	context->ESD_NumericLabel_2.Y = Ft_Esd_DemoPage_ESD_NumericLabel_2_Y__Property;
 2435              		.loc 2 166 0
 2436 03e0 7B68     		ldr	r3, [r7, #4]
 2437 03e2 0E4A     		ldr	r2, .L96
 2438 03e4 C3F89825 		str	r2, [r3, #1432]
 167:FT_Esd_Widgets/Ft_Esd_DemoPage__Generated.c **** 	context->ESD_NumericLabel_2.Value = Ft_Esd_DemoPage_ESD_NumericLabel_2_Value__Property;
 2439              		.loc 2 167 0
 2440 03e8 7B68     		ldr	r3, [r7, #4]
 2441 03ea 0D4A     		ldr	r2, .L96+4
 2442 03ec C3F8A825 		str	r2, [r3, #1448]
 168:FT_Esd_Widgets/Ft_Esd_DemoPage__Generated.c **** 	Ft_Esd_SpinBox__Initializer(&context->ESD_SpinBox_2);
 2443              		.loc 2 168 0
 2444 03f0 7B68     		ldr	r3, [r7, #4]
 2445 03f2 03F2AC53 		addw	r3, r3, #1452
 2446 03f6 1846     		mov	r0, r3
 2447 03f8 FFF7FEFF 		bl	Ft_Esd_SpinBox__Initializer
 169:FT_Esd_Widgets/Ft_Esd_DemoPage__Generated.c **** 	context->ESD_SpinBox_2.Parent = context;
 2448              		.loc 2 169 0
 2449 03fc 7B68     		ldr	r3, [r7, #4]
 2450 03fe 7A68     		ldr	r2, [r7, #4]
 2451 0400 C3F8AC25 		str	r2, [r3, #1452]
 170:FT_Esd_Widgets/Ft_Esd_DemoPage__Generated.c **** 	context->ESD_SpinBox_2.X = Ft_Esd_DemoPage_ESD_SpinBox_2_X__Property;
 2452              		.loc 2 170 0
 2453 0404 7B68     		ldr	r3, [r7, #4]
 2454 0406 074A     		ldr	r2, .L96+8
 2455 0408 C3F8CC25 		str	r2, [r3, #1484]
 171:FT_Esd_Widgets/Ft_Esd_DemoPage__Generated.c **** 	context->ESD_SpinBox_2.Y = Ft_Esd_DemoPage_ESD_SpinBox_2_Y__Property;
 2456              		.loc 2 171 0
 2457 040c 7B68     		ldr	r3, [r7, #4]
 2458 040e 064A     		ldr	r2, .L96+12
 2459 0410 C3F8D025 		str	r2, [r3, #1488]
 172:FT_Esd_Widgets/Ft_Esd_DemoPage__Generated.c **** }
 2460              		.loc 2 172 0
 2461 0414 00BF     		nop
 2462 0416 0837     		adds	r7, r7, #8
 2463              	.LCFI273:
 2464              		.cfi_def_cfa_offset 8
 2465 0418 BD46     		mov	sp, r7
 2466              	.LCFI274:
 2467              		.cfi_def_cfa_register 13
 2468              		@ sp needed
 2469 041a 80BD     		pop	{r7, pc}
 2470              	.L97:
 2471              		.align	2
 2472              	.L96:
 2473 041c 00000000 		.word	Ft_Esd_DemoPage_ESD_NumericLabel_2_Y__Property
 2474 0420 00000000 		.word	Ft_Esd_DemoPage_ESD_NumericLabel_2_Value__Property
 2475 0424 00000000 		.word	Ft_Esd_DemoPage_ESD_SpinBox_2_X__Property
 2476 0428 00000000 		.word	Ft_Esd_DemoPage_ESD_SpinBox_2_Y__Property
 2477              		.cfi_endproc
 2478              	.LFE74:
 2480              		.section	.text.Ft_Esd_DemoPage_Start__Builtin,"ax",%progbits
 2481              		.align	1
 2482              		.global	Ft_Esd_DemoPage_Start__Builtin
 2483              		.syntax unified
 2484              		.thumb
ARM GAS  /var/folders/n8/cvzdcwlj0vl4g_wtyz1ffy300000gn/T//ccLY5GZg.s 			page 48


 2485              		.thumb_func
 2486              		.fpu fpv5-sp-d16
 2488              	Ft_Esd_DemoPage_Start__Builtin:
 2489              	.LFB75:
 173:FT_Esd_Widgets/Ft_Esd_DemoPage__Generated.c **** 
 174:FT_Esd_Widgets/Ft_Esd_DemoPage__Generated.c **** static ft_uint32_t Ft_Esd_DemoPage_Ft_Esd_GetMillis__return(Ft_Esd_DemoPage *context);
 175:FT_Esd_Widgets/Ft_Esd_DemoPage__Generated.c **** static int Ft_Esd_DemoPage_ESD_PushButton_1__active(Ft_Esd_DemoPage *context);
 176:FT_Esd_Widgets/Ft_Esd_DemoPage__Generated.c **** static int Ft_Esd_DemoPage_ESD_PushButton_3__active(Ft_Esd_DemoPage *context);
 177:FT_Esd_Widgets/Ft_Esd_DemoPage__Generated.c **** 
 178:FT_Esd_Widgets/Ft_Esd_DemoPage__Generated.c **** ft_uint32_t Ft_Esd_GetMillis();
 179:FT_Esd_Widgets/Ft_Esd_DemoPage__Generated.c **** void Ft_Esd_Elements_Panel(Ft_Esd_Theme *, ft_int16_t, ft_int16_t, ft_int16_t, ft_int16_t, ft_int16
 180:FT_Esd_Widgets/Ft_Esd_DemoPage__Generated.c **** 
 181:FT_Esd_Widgets/Ft_Esd_DemoPage__Generated.c **** void Ft_Esd_DemoPage_Start__Builtin(Ft_Esd_DemoPage *context)
 182:FT_Esd_Widgets/Ft_Esd_DemoPage__Generated.c **** {
 2490              		.loc 2 182 0
 2491              		.cfi_startproc
 2492              		@ args = 0, pretend = 0, frame = 16
 2493              		@ frame_needed = 1, uses_anonymous_args = 0
 2494 0000 80B5     		push	{r7, lr}
 2495              	.LCFI275:
 2496              		.cfi_def_cfa_offset 8
 2497              		.cfi_offset 7, -8
 2498              		.cfi_offset 14, -4
 2499 0002 84B0     		sub	sp, sp, #16
 2500              	.LCFI276:
 2501              		.cfi_def_cfa_offset 24
 2502 0004 00AF     		add	r7, sp, #0
 2503              	.LCFI277:
 2504              		.cfi_def_cfa_register 7
 2505 0006 7860     		str	r0, [r7, #4]
 183:FT_Esd_Widgets/Ft_Esd_DemoPage__Generated.c **** 	void *parent = context->Parent;
 2506              		.loc 2 183 0
 2507 0008 7B68     		ldr	r3, [r7, #4]
 2508 000a 1B68     		ldr	r3, [r3]
 2509 000c FB60     		str	r3, [r7, #12]
 184:FT_Esd_Widgets/Ft_Esd_DemoPage__Generated.c **** 	Ft_Esd_Clock_Start(&context->ESD_Clock);
 2510              		.loc 2 184 0
 2511 000e 7B68     		ldr	r3, [r7, #4]
 2512 0010 8433     		adds	r3, r3, #132
 2513 0012 1846     		mov	r0, r3
 2514 0014 FFF7FEFF 		bl	Ft_Esd_Clock_Start
 185:FT_Esd_Widgets/Ft_Esd_DemoPage__Generated.c **** 	Ft_Esd_PushButton_Start(&context->ESD_PushButton);
 2515              		.loc 2 185 0
 2516 0018 7B68     		ldr	r3, [r7, #4]
 2517 001a E033     		adds	r3, r3, #224
 2518 001c 1846     		mov	r0, r3
 2519 001e FFF7FEFF 		bl	Ft_Esd_PushButton_Start
 186:FT_Esd_Widgets/Ft_Esd_DemoPage__Generated.c **** 	Ft_Esd_PushButton_Start(&context->ESD_PushButton_1);
 2520              		.loc 2 186 0
 2521 0022 7B68     		ldr	r3, [r7, #4]
 2522 0024 03F5A273 		add	r3, r3, #324
 2523 0028 1846     		mov	r0, r3
 2524 002a FFF7FEFF 		bl	Ft_Esd_PushButton_Start
 187:FT_Esd_Widgets/Ft_Esd_DemoPage__Generated.c **** 	Ft_Esd_Toggle_Start(&context->ESD_Toggle);
 2525              		.loc 2 187 0
 2526 002e 7B68     		ldr	r3, [r7, #4]
 2527 0030 03F5C673 		add	r3, r3, #396
ARM GAS  /var/folders/n8/cvzdcwlj0vl4g_wtyz1ffy300000gn/T//ccLY5GZg.s 			page 49


 2528 0034 1846     		mov	r0, r3
 2529 0036 FFF7FEFF 		bl	Ft_Esd_Toggle_Start
 188:FT_Esd_Widgets/Ft_Esd_DemoPage__Generated.c **** 	Ft_Esd_PushButton_Start(&context->ESD_PushButton_2);
 2530              		.loc 2 188 0
 2531 003a 7B68     		ldr	r3, [r7, #4]
 2532 003c 03F5E873 		add	r3, r3, #464
 2533 0040 1846     		mov	r0, r3
 2534 0042 FFF7FEFF 		bl	Ft_Esd_PushButton_Start
 189:FT_Esd_Widgets/Ft_Esd_DemoPage__Generated.c **** 	Ft_Esd_PushButton_Start(&context->ESD_PushButton_3);
 2535              		.loc 2 189 0
 2536 0046 7B68     		ldr	r3, [r7, #4]
 2537 0048 03F51073 		add	r3, r3, #576
 2538 004c 1846     		mov	r0, r3
 2539 004e FFF7FEFF 		bl	Ft_Esd_PushButton_Start
 190:FT_Esd_Widgets/Ft_Esd_DemoPage__Generated.c **** 	Ft_Esd_Toggle_Start(&context->ESD_Toggle_1);
 2540              		.loc 2 190 0
 2541 0052 7B68     		ldr	r3, [r7, #4]
 2542 0054 03F52273 		add	r3, r3, #648
 2543 0058 1846     		mov	r0, r3
 2544 005a FFF7FEFF 		bl	Ft_Esd_Toggle_Start
 191:FT_Esd_Widgets/Ft_Esd_DemoPage__Generated.c **** 	Ft_Esd_SpinBox_Start(&context->ESD_SpinBox);
 2545              		.loc 2 191 0
 2546 005e 7B68     		ldr	r3, [r7, #4]
 2547 0060 03F53373 		add	r3, r3, #716
 2548 0064 1846     		mov	r0, r3
 2549 0066 FFF7FEFF 		bl	Ft_Esd_SpinBox_Start
 192:FT_Esd_Widgets/Ft_Esd_DemoPage__Generated.c **** 	Ft_Esd_LabelButton_Start(&context->ESD_Label_Button);
 2550              		.loc 2 192 0
 2551 006a 7B68     		ldr	r3, [r7, #4]
 2552 006c 03F20C43 		addw	r3, r3, #1036
 2553 0070 1846     		mov	r0, r3
 2554 0072 FFF7FEFF 		bl	Ft_Esd_LabelButton_Start
 193:FT_Esd_Widgets/Ft_Esd_DemoPage__Generated.c **** 	Ft_Esd_SpinBox_Start(&context->ESD_SpinBox_1);
 2555              		.loc 2 193 0
 2556 0076 7B68     		ldr	r3, [r7, #4]
 2557 0078 03F26C43 		addw	r3, r3, #1132
 2558 007c 1846     		mov	r0, r3
 2559 007e FFF7FEFF 		bl	Ft_Esd_SpinBox_Start
 194:FT_Esd_Widgets/Ft_Esd_DemoPage__Generated.c **** 	Ft_Esd_SpinBox_Start(&context->ESD_SpinBox_2);
 2560              		.loc 2 194 0
 2561 0082 7B68     		ldr	r3, [r7, #4]
 2562 0084 03F2AC53 		addw	r3, r3, #1452
 2563 0088 1846     		mov	r0, r3
 2564 008a FFF7FEFF 		bl	Ft_Esd_SpinBox_Start
 195:FT_Esd_Widgets/Ft_Esd_DemoPage__Generated.c **** }
 2565              		.loc 2 195 0
 2566 008e 00BF     		nop
 2567 0090 1037     		adds	r7, r7, #16
 2568              	.LCFI278:
 2569              		.cfi_def_cfa_offset 8
 2570 0092 BD46     		mov	sp, r7
 2571              	.LCFI279:
 2572              		.cfi_def_cfa_register 13
 2573              		@ sp needed
 2574 0094 80BD     		pop	{r7, pc}
 2575              		.cfi_endproc
 2576              	.LFE75:
ARM GAS  /var/folders/n8/cvzdcwlj0vl4g_wtyz1ffy300000gn/T//ccLY5GZg.s 			page 50


 2578              		.section	.text.Ft_Esd_DemoPage_Update,"ax",%progbits
 2579              		.align	1
 2580              		.global	Ft_Esd_DemoPage_Update
 2581              		.syntax unified
 2582              		.thumb
 2583              		.thumb_func
 2584              		.fpu fpv5-sp-d16
 2586              	Ft_Esd_DemoPage_Update:
 2587              	.LFB76:
 196:FT_Esd_Widgets/Ft_Esd_DemoPage__Generated.c **** 
 197:FT_Esd_Widgets/Ft_Esd_DemoPage__Generated.c **** void Ft_Esd_DemoPage_Update(Ft_Esd_DemoPage *context)
 198:FT_Esd_Widgets/Ft_Esd_DemoPage__Generated.c **** {
 2588              		.loc 2 198 0
 2589              		.cfi_startproc
 2590              		@ args = 0, pretend = 0, frame = 16
 2591              		@ frame_needed = 1, uses_anonymous_args = 0
 2592 0000 80B5     		push	{r7, lr}
 2593              	.LCFI280:
 2594              		.cfi_def_cfa_offset 8
 2595              		.cfi_offset 7, -8
 2596              		.cfi_offset 14, -4
 2597 0002 84B0     		sub	sp, sp, #16
 2598              	.LCFI281:
 2599              		.cfi_def_cfa_offset 24
 2600 0004 00AF     		add	r7, sp, #0
 2601              	.LCFI282:
 2602              		.cfi_def_cfa_register 7
 2603 0006 7860     		str	r0, [r7, #4]
 199:FT_Esd_Widgets/Ft_Esd_DemoPage__Generated.c **** 	void *parent = context->Parent;
 2604              		.loc 2 199 0
 2605 0008 7B68     		ldr	r3, [r7, #4]
 2606 000a 1B68     		ldr	r3, [r3]
 2607 000c FB60     		str	r3, [r7, #12]
 200:FT_Esd_Widgets/Ft_Esd_DemoPage__Generated.c **** 	Ft_Esd_Clock_Update(&context->ESD_Clock);
 2608              		.loc 2 200 0
 2609 000e 7B68     		ldr	r3, [r7, #4]
 2610 0010 8433     		adds	r3, r3, #132
 2611 0012 1846     		mov	r0, r3
 2612 0014 FFF7FEFF 		bl	Ft_Esd_Clock_Update
 201:FT_Esd_Widgets/Ft_Esd_DemoPage__Generated.c **** 	Ft_Esd_PushButton_Update(&context->ESD_PushButton);
 2613              		.loc 2 201 0
 2614 0018 7B68     		ldr	r3, [r7, #4]
 2615 001a E033     		adds	r3, r3, #224
 2616 001c 1846     		mov	r0, r3
 2617 001e FFF7FEFF 		bl	Ft_Esd_PushButton_Update
 202:FT_Esd_Widgets/Ft_Esd_DemoPage__Generated.c **** 	if (Ft_Esd_DemoPage_ESD_PushButton_1__active(context))
 2618              		.loc 2 202 0
 2619 0022 7868     		ldr	r0, [r7, #4]
 2620 0024 FFF7FEFF 		bl	Ft_Esd_DemoPage_ESD_PushButton_1__active
 2621 0028 0346     		mov	r3, r0
 2622 002a 002B     		cmp	r3, #0
 2623 002c 05D0     		beq	.L100
 203:FT_Esd_Widgets/Ft_Esd_DemoPage__Generated.c **** 		Ft_Esd_PushButton_Update(&context->ESD_PushButton_1);
 2624              		.loc 2 203 0
 2625 002e 7B68     		ldr	r3, [r7, #4]
 2626 0030 03F5A273 		add	r3, r3, #324
 2627 0034 1846     		mov	r0, r3
ARM GAS  /var/folders/n8/cvzdcwlj0vl4g_wtyz1ffy300000gn/T//ccLY5GZg.s 			page 51


 2628 0036 FFF7FEFF 		bl	Ft_Esd_PushButton_Update
 2629              	.L100:
 204:FT_Esd_Widgets/Ft_Esd_DemoPage__Generated.c **** 	Ft_Esd_Toggle_Update(&context->ESD_Toggle);
 2630              		.loc 2 204 0
 2631 003a 7B68     		ldr	r3, [r7, #4]
 2632 003c 03F5C673 		add	r3, r3, #396
 2633 0040 1846     		mov	r0, r3
 2634 0042 FFF7FEFF 		bl	Ft_Esd_Toggle_Update
 205:FT_Esd_Widgets/Ft_Esd_DemoPage__Generated.c **** 	Ft_Esd_PushButton_Update(&context->ESD_PushButton_2);
 2635              		.loc 2 205 0
 2636 0046 7B68     		ldr	r3, [r7, #4]
 2637 0048 03F5E873 		add	r3, r3, #464
 2638 004c 1846     		mov	r0, r3
 2639 004e FFF7FEFF 		bl	Ft_Esd_PushButton_Update
 206:FT_Esd_Widgets/Ft_Esd_DemoPage__Generated.c **** 	if (Ft_Esd_DemoPage_ESD_PushButton_3__active(context))
 2640              		.loc 2 206 0
 2641 0052 7868     		ldr	r0, [r7, #4]
 2642 0054 FFF7FEFF 		bl	Ft_Esd_DemoPage_ESD_PushButton_3__active
 2643 0058 0346     		mov	r3, r0
 2644 005a 002B     		cmp	r3, #0
 2645 005c 05D0     		beq	.L101
 207:FT_Esd_Widgets/Ft_Esd_DemoPage__Generated.c **** 		Ft_Esd_PushButton_Update(&context->ESD_PushButton_3);
 2646              		.loc 2 207 0
 2647 005e 7B68     		ldr	r3, [r7, #4]
 2648 0060 03F51073 		add	r3, r3, #576
 2649 0064 1846     		mov	r0, r3
 2650 0066 FFF7FEFF 		bl	Ft_Esd_PushButton_Update
 2651              	.L101:
 208:FT_Esd_Widgets/Ft_Esd_DemoPage__Generated.c **** 	Ft_Esd_Toggle_Update(&context->ESD_Toggle_1);
 2652              		.loc 2 208 0
 2653 006a 7B68     		ldr	r3, [r7, #4]
 2654 006c 03F52273 		add	r3, r3, #648
 2655 0070 1846     		mov	r0, r3
 2656 0072 FFF7FEFF 		bl	Ft_Esd_Toggle_Update
 209:FT_Esd_Widgets/Ft_Esd_DemoPage__Generated.c **** 	Ft_Esd_SpinBox_Update(&context->ESD_SpinBox);
 2657              		.loc 2 209 0
 2658 0076 7B68     		ldr	r3, [r7, #4]
 2659 0078 03F53373 		add	r3, r3, #716
 2660 007c 1846     		mov	r0, r3
 2661 007e FFF7FEFF 		bl	Ft_Esd_SpinBox_Update
 210:FT_Esd_Widgets/Ft_Esd_DemoPage__Generated.c **** 	Ft_Esd_LabelButton_Update(&context->ESD_Label_Button);
 2662              		.loc 2 210 0
 2663 0082 7B68     		ldr	r3, [r7, #4]
 2664 0084 03F20C43 		addw	r3, r3, #1036
 2665 0088 1846     		mov	r0, r3
 2666 008a FFF7FEFF 		bl	Ft_Esd_LabelButton_Update
 211:FT_Esd_Widgets/Ft_Esd_DemoPage__Generated.c **** 	Ft_Esd_SpinBox_Update(&context->ESD_SpinBox_1);
 2667              		.loc 2 211 0
 2668 008e 7B68     		ldr	r3, [r7, #4]
 2669 0090 03F26C43 		addw	r3, r3, #1132
 2670 0094 1846     		mov	r0, r3
 2671 0096 FFF7FEFF 		bl	Ft_Esd_SpinBox_Update
 212:FT_Esd_Widgets/Ft_Esd_DemoPage__Generated.c **** 	Ft_Esd_SpinBox_Update(&context->ESD_SpinBox_2);
 2672              		.loc 2 212 0
 2673 009a 7B68     		ldr	r3, [r7, #4]
 2674 009c 03F2AC53 		addw	r3, r3, #1452
 2675 00a0 1846     		mov	r0, r3
ARM GAS  /var/folders/n8/cvzdcwlj0vl4g_wtyz1ffy300000gn/T//ccLY5GZg.s 			page 52


 2676 00a2 FFF7FEFF 		bl	Ft_Esd_SpinBox_Update
 213:FT_Esd_Widgets/Ft_Esd_DemoPage__Generated.c **** }
 2677              		.loc 2 213 0
 2678 00a6 00BF     		nop
 2679 00a8 1037     		adds	r7, r7, #16
 2680              	.LCFI283:
 2681              		.cfi_def_cfa_offset 8
 2682 00aa BD46     		mov	sp, r7
 2683              	.LCFI284:
 2684              		.cfi_def_cfa_register 13
 2685              		@ sp needed
 2686 00ac 80BD     		pop	{r7, pc}
 2687              		.cfi_endproc
 2688              	.LFE76:
 2690              		.section	.text.Ft_Esd_DemoPage_Render,"ax",%progbits
 2691              		.align	1
 2692              		.global	Ft_Esd_DemoPage_Render
 2693              		.syntax unified
 2694              		.thumb
 2695              		.thumb_func
 2696              		.fpu fpv5-sp-d16
 2698              	Ft_Esd_DemoPage_Render:
 2699              	.LFB77:
 214:FT_Esd_Widgets/Ft_Esd_DemoPage__Generated.c **** 
 215:FT_Esd_Widgets/Ft_Esd_DemoPage__Generated.c **** void Ft_Esd_DemoPage_Render(Ft_Esd_DemoPage *context)
 216:FT_Esd_Widgets/Ft_Esd_DemoPage__Generated.c **** {
 2700              		.loc 2 216 0
 2701              		.cfi_startproc
 2702              		@ args = 0, pretend = 0, frame = 32
 2703              		@ frame_needed = 1, uses_anonymous_args = 0
 2704 0000 80B5     		push	{r7, lr}
 2705              	.LCFI285:
 2706              		.cfi_def_cfa_offset 8
 2707              		.cfi_offset 7, -8
 2708              		.cfi_offset 14, -4
 2709 0002 8CB0     		sub	sp, sp, #48
 2710              	.LCFI286:
 2711              		.cfi_def_cfa_offset 56
 2712 0004 04AF     		add	r7, sp, #16
 2713              	.LCFI287:
 2714              		.cfi_def_cfa 7, 40
 2715 0006 7860     		str	r0, [r7, #4]
 217:FT_Esd_Widgets/Ft_Esd_DemoPage__Generated.c **** 	void *parent = context->Parent;
 2716              		.loc 2 217 0
 2717 0008 7B68     		ldr	r3, [r7, #4]
 2718 000a 1B68     		ldr	r3, [r3]
 2719 000c FB61     		str	r3, [r7, #28]
 218:FT_Esd_Widgets/Ft_Esd_DemoPage__Generated.c **** 	Ft_Esd_ProgressBar_Render(&context->ESD_ProgressBar);
 2720              		.loc 2 218 0
 2721 000e 7B68     		ldr	r3, [r7, #4]
 2722 0010 2433     		adds	r3, r3, #36
 2723 0012 1846     		mov	r0, r3
 2724 0014 FFF7FEFF 		bl	Ft_Esd_ProgressBar_Render
 219:FT_Esd_Widgets/Ft_Esd_DemoPage__Generated.c **** 	Ft_Esd_Gauge_Render(&context->ESD_Gauge);
 2725              		.loc 2 219 0
 2726 0018 7B68     		ldr	r3, [r7, #4]
 2727 001a 4433     		adds	r3, r3, #68
ARM GAS  /var/folders/n8/cvzdcwlj0vl4g_wtyz1ffy300000gn/T//ccLY5GZg.s 			page 53


 2728 001c 1846     		mov	r0, r3
 2729 001e FFF7FEFF 		bl	Ft_Esd_Gauge_Render
 220:FT_Esd_Widgets/Ft_Esd_DemoPage__Generated.c **** 	Ft_Esd_Theme * theme = Ft_Esd_Theme_GetCurrent();
 2730              		.loc 2 220 0
 2731 0022 FFF7FEFF 		bl	Ft_Esd_Theme_GetCurrent
 2732 0026 B861     		str	r0, [r7, #24]
 221:FT_Esd_Widgets/Ft_Esd_DemoPage__Generated.c **** 	ft_int16_t x = 536;
 2733              		.loc 2 221 0
 2734 0028 4FF40673 		mov	r3, #536
 2735 002c FB82     		strh	r3, [r7, #22]	@ movhi
 222:FT_Esd_Widgets/Ft_Esd_DemoPage__Generated.c **** 	ft_int16_t y = 96;
 2736              		.loc 2 222 0
 2737 002e 6023     		movs	r3, #96
 2738 0030 BB82     		strh	r3, [r7, #20]	@ movhi
 223:FT_Esd_Widgets/Ft_Esd_DemoPage__Generated.c **** 	ft_int16_t width = 130;
 2739              		.loc 2 223 0
 2740 0032 8223     		movs	r3, #130
 2741 0034 7B82     		strh	r3, [r7, #18]	@ movhi
 224:FT_Esd_Widgets/Ft_Esd_DemoPage__Generated.c **** 	ft_int16_t height = 145;
 2742              		.loc 2 224 0
 2743 0036 9123     		movs	r3, #145
 2744 0038 3B82     		strh	r3, [r7, #16]	@ movhi
 225:FT_Esd_Widgets/Ft_Esd_DemoPage__Generated.c **** 	ft_int16_t radius = 4;
 2745              		.loc 2 225 0
 2746 003a 0423     		movs	r3, #4
 2747 003c FB81     		strh	r3, [r7, #14]	@ movhi
 226:FT_Esd_Widgets/Ft_Esd_DemoPage__Generated.c **** 	ft_bool_t raised = 0;
 2748              		.loc 2 226 0
 2749 003e 0023     		movs	r3, #0
 2750 0040 7B73     		strb	r3, [r7, #13]
 227:FT_Esd_Widgets/Ft_Esd_DemoPage__Generated.c **** 	Ft_Esd_Elements_Panel(theme, x, y, width, height, radius, raised);
 2751              		.loc 2 227 0
 2752 0042 B7F91200 		ldrsh	r0, [r7, #18]
 2753 0046 B7F91420 		ldrsh	r2, [r7, #20]
 2754 004a B7F91610 		ldrsh	r1, [r7, #22]
 2755 004e 7B7B     		ldrb	r3, [r7, #13]	@ zero_extendqisi2
 2756 0050 0293     		str	r3, [sp, #8]
 2757 0052 B7F90E30 		ldrsh	r3, [r7, #14]
 2758 0056 0193     		str	r3, [sp, #4]
 2759 0058 B7F91030 		ldrsh	r3, [r7, #16]
 2760 005c 0093     		str	r3, [sp]
 2761 005e 0346     		mov	r3, r0
 2762 0060 B869     		ldr	r0, [r7, #24]
 2763 0062 FFF7FEFF 		bl	Ft_Esd_Elements_Panel
 228:FT_Esd_Widgets/Ft_Esd_DemoPage__Generated.c **** 	Ft_Esd_Clock_Render(&context->ESD_Clock);
 2764              		.loc 2 228 0
 2765 0066 7B68     		ldr	r3, [r7, #4]
 2766 0068 8433     		adds	r3, r3, #132
 2767 006a 1846     		mov	r0, r3
 2768 006c FFF7FEFF 		bl	Ft_Esd_Clock_Render
 229:FT_Esd_Widgets/Ft_Esd_DemoPage__Generated.c **** 	Ft_Esd_PushButton_Render(&context->ESD_PushButton);
 2769              		.loc 2 229 0
 2770 0070 7B68     		ldr	r3, [r7, #4]
 2771 0072 E033     		adds	r3, r3, #224
 2772 0074 1846     		mov	r0, r3
 2773 0076 FFF7FEFF 		bl	Ft_Esd_PushButton_Render
 230:FT_Esd_Widgets/Ft_Esd_DemoPage__Generated.c **** 	Ft_Esd_Rectangle_Render(&context->ESD_Rectangle);
ARM GAS  /var/folders/n8/cvzdcwlj0vl4g_wtyz1ffy300000gn/T//ccLY5GZg.s 			page 54


 2774              		.loc 2 230 0
 2775 007a 7B68     		ldr	r3, [r7, #4]
 2776 007c 03F59473 		add	r3, r3, #296
 2777 0080 1846     		mov	r0, r3
 2778 0082 FFF7FEFF 		bl	Ft_Esd_Rectangle_Render
 231:FT_Esd_Widgets/Ft_Esd_DemoPage__Generated.c **** 	if (Ft_Esd_DemoPage_ESD_PushButton_1__active(context))
 2779              		.loc 2 231 0
 2780 0086 7868     		ldr	r0, [r7, #4]
 2781 0088 FFF7FEFF 		bl	Ft_Esd_DemoPage_ESD_PushButton_1__active
 2782 008c 0346     		mov	r3, r0
 2783 008e 002B     		cmp	r3, #0
 2784 0090 05D0     		beq	.L103
 232:FT_Esd_Widgets/Ft_Esd_DemoPage__Generated.c **** 		Ft_Esd_PushButton_Render(&context->ESD_PushButton_1);
 2785              		.loc 2 232 0
 2786 0092 7B68     		ldr	r3, [r7, #4]
 2787 0094 03F5A273 		add	r3, r3, #324
 2788 0098 1846     		mov	r0, r3
 2789 009a FFF7FEFF 		bl	Ft_Esd_PushButton_Render
 2790              	.L103:
 233:FT_Esd_Widgets/Ft_Esd_DemoPage__Generated.c **** 	Ft_Esd_Toggle_Render(&context->ESD_Toggle);
 2791              		.loc 2 233 0
 2792 009e 7B68     		ldr	r3, [r7, #4]
 2793 00a0 03F5C673 		add	r3, r3, #396
 2794 00a4 1846     		mov	r0, r3
 2795 00a6 FFF7FEFF 		bl	Ft_Esd_Toggle_Render
 234:FT_Esd_Widgets/Ft_Esd_DemoPage__Generated.c **** 	Ft_Esd_PushButton_Render(&context->ESD_PushButton_2);
 2796              		.loc 2 234 0
 2797 00aa 7B68     		ldr	r3, [r7, #4]
 2798 00ac 03F5E873 		add	r3, r3, #464
 2799 00b0 1846     		mov	r0, r3
 2800 00b2 FFF7FEFF 		bl	Ft_Esd_PushButton_Render
 235:FT_Esd_Widgets/Ft_Esd_DemoPage__Generated.c **** 	Ft_Esd_Label_Render(&context->ESD_Label);
 2801              		.loc 2 235 0
 2802 00b6 7B68     		ldr	r3, [r7, #4]
 2803 00b8 03F50673 		add	r3, r3, #536
 2804 00bc 1846     		mov	r0, r3
 2805 00be FFF7FEFF 		bl	Ft_Esd_Label_Render
 236:FT_Esd_Widgets/Ft_Esd_DemoPage__Generated.c **** 	if (Ft_Esd_DemoPage_ESD_PushButton_3__active(context))
 2806              		.loc 2 236 0
 2807 00c2 7868     		ldr	r0, [r7, #4]
 2808 00c4 FFF7FEFF 		bl	Ft_Esd_DemoPage_ESD_PushButton_3__active
 2809 00c8 0346     		mov	r3, r0
 2810 00ca 002B     		cmp	r3, #0
 2811 00cc 05D0     		beq	.L104
 237:FT_Esd_Widgets/Ft_Esd_DemoPage__Generated.c **** 		Ft_Esd_PushButton_Render(&context->ESD_PushButton_3);
 2812              		.loc 2 237 0
 2813 00ce 7B68     		ldr	r3, [r7, #4]
 2814 00d0 03F51073 		add	r3, r3, #576
 2815 00d4 1846     		mov	r0, r3
 2816 00d6 FFF7FEFF 		bl	Ft_Esd_PushButton_Render
 2817              	.L104:
 238:FT_Esd_Widgets/Ft_Esd_DemoPage__Generated.c **** 	Ft_Esd_Toggle_Render(&context->ESD_Toggle_1);
 2818              		.loc 2 238 0
 2819 00da 7B68     		ldr	r3, [r7, #4]
 2820 00dc 03F52273 		add	r3, r3, #648
 2821 00e0 1846     		mov	r0, r3
 2822 00e2 FFF7FEFF 		bl	Ft_Esd_Toggle_Render
ARM GAS  /var/folders/n8/cvzdcwlj0vl4g_wtyz1ffy300000gn/T//ccLY5GZg.s 			page 55


 239:FT_Esd_Widgets/Ft_Esd_DemoPage__Generated.c **** 	Ft_Esd_SpinBox_Render(&context->ESD_SpinBox);
 2823              		.loc 2 239 0
 2824 00e6 7B68     		ldr	r3, [r7, #4]
 2825 00e8 03F53373 		add	r3, r3, #716
 2826 00ec 1846     		mov	r0, r3
 2827 00ee FFF7FEFF 		bl	Ft_Esd_SpinBox_Render
 240:FT_Esd_Widgets/Ft_Esd_DemoPage__Generated.c **** 	Ft_Esd_NumericLabel_Render(&context->ESD_NumericLabel);
 2828              		.loc 2 240 0
 2829 00f2 7B68     		ldr	r3, [r7, #4]
 2830 00f4 03F57B73 		add	r3, r3, #1004
 2831 00f8 1846     		mov	r0, r3
 2832 00fa FFF7FEFF 		bl	Ft_Esd_NumericLabel_Render
 241:FT_Esd_Widgets/Ft_Esd_DemoPage__Generated.c **** 	Ft_Esd_LabelButton_Render(&context->ESD_Label_Button);
 2833              		.loc 2 241 0
 2834 00fe 7B68     		ldr	r3, [r7, #4]
 2835 0100 03F20C43 		addw	r3, r3, #1036
 2836 0104 1846     		mov	r0, r3
 2837 0106 FFF7FEFF 		bl	Ft_Esd_LabelButton_Render
 242:FT_Esd_Widgets/Ft_Esd_DemoPage__Generated.c **** 	Ft_Esd_NumericLabel_Render(&context->ESD_NumericLabel_1);
 2838              		.loc 2 242 0
 2839 010a 7B68     		ldr	r3, [r7, #4]
 2840 010c 03F24C43 		addw	r3, r3, #1100
 2841 0110 1846     		mov	r0, r3
 2842 0112 FFF7FEFF 		bl	Ft_Esd_NumericLabel_Render
 243:FT_Esd_Widgets/Ft_Esd_DemoPage__Generated.c **** 	Ft_Esd_SpinBox_Render(&context->ESD_SpinBox_1);
 2843              		.loc 2 243 0
 2844 0116 7B68     		ldr	r3, [r7, #4]
 2845 0118 03F26C43 		addw	r3, r3, #1132
 2846 011c 1846     		mov	r0, r3
 2847 011e FFF7FEFF 		bl	Ft_Esd_SpinBox_Render
 244:FT_Esd_Widgets/Ft_Esd_DemoPage__Generated.c **** 	Ft_Esd_NumericLabel_Render(&context->ESD_NumericLabel_2);
 2848              		.loc 2 244 0
 2849 0122 7B68     		ldr	r3, [r7, #4]
 2850 0124 03F28C53 		addw	r3, r3, #1420
 2851 0128 1846     		mov	r0, r3
 2852 012a FFF7FEFF 		bl	Ft_Esd_NumericLabel_Render
 245:FT_Esd_Widgets/Ft_Esd_DemoPage__Generated.c **** 	Ft_Esd_SpinBox_Render(&context->ESD_SpinBox_2);
 2853              		.loc 2 245 0
 2854 012e 7B68     		ldr	r3, [r7, #4]
 2855 0130 03F2AC53 		addw	r3, r3, #1452
 2856 0134 1846     		mov	r0, r3
 2857 0136 FFF7FEFF 		bl	Ft_Esd_SpinBox_Render
 246:FT_Esd_Widgets/Ft_Esd_DemoPage__Generated.c **** }
 2858              		.loc 2 246 0
 2859 013a 00BF     		nop
 2860 013c 2037     		adds	r7, r7, #32
 2861              	.LCFI288:
 2862              		.cfi_def_cfa_offset 8
 2863 013e BD46     		mov	sp, r7
 2864              	.LCFI289:
 2865              		.cfi_def_cfa_register 13
 2866              		@ sp needed
 2867 0140 80BD     		pop	{r7, pc}
 2868              		.cfi_endproc
 2869              	.LFE77:
 2871              		.section	.text.Ft_Esd_DemoPage_Idle,"ax",%progbits
 2872              		.align	1
ARM GAS  /var/folders/n8/cvzdcwlj0vl4g_wtyz1ffy300000gn/T//ccLY5GZg.s 			page 56


 2873              		.global	Ft_Esd_DemoPage_Idle
 2874              		.syntax unified
 2875              		.thumb
 2876              		.thumb_func
 2877              		.fpu fpv5-sp-d16
 2879              	Ft_Esd_DemoPage_Idle:
 2880              	.LFB78:
 247:FT_Esd_Widgets/Ft_Esd_DemoPage__Generated.c **** 
 248:FT_Esd_Widgets/Ft_Esd_DemoPage__Generated.c **** void Ft_Esd_DemoPage_Idle(Ft_Esd_DemoPage *context)
 249:FT_Esd_Widgets/Ft_Esd_DemoPage__Generated.c **** {
 2881              		.loc 2 249 0
 2882              		.cfi_startproc
 2883              		@ args = 0, pretend = 0, frame = 16
 2884              		@ frame_needed = 1, uses_anonymous_args = 0
 2885              		@ link register save eliminated.
 2886 0000 80B4     		push	{r7}
 2887              	.LCFI290:
 2888              		.cfi_def_cfa_offset 4
 2889              		.cfi_offset 7, -4
 2890 0002 85B0     		sub	sp, sp, #20
 2891              	.LCFI291:
 2892              		.cfi_def_cfa_offset 24
 2893 0004 00AF     		add	r7, sp, #0
 2894              	.LCFI292:
 2895              		.cfi_def_cfa_register 7
 2896 0006 7860     		str	r0, [r7, #4]
 250:FT_Esd_Widgets/Ft_Esd_DemoPage__Generated.c **** 	void *parent = context->Parent;
 2897              		.loc 2 250 0
 2898 0008 7B68     		ldr	r3, [r7, #4]
 2899 000a 1B68     		ldr	r3, [r3]
 2900 000c FB60     		str	r3, [r7, #12]
 251:FT_Esd_Widgets/Ft_Esd_DemoPage__Generated.c **** }
 2901              		.loc 2 251 0
 2902 000e 00BF     		nop
 2903 0010 1437     		adds	r7, r7, #20
 2904              	.LCFI293:
 2905              		.cfi_def_cfa_offset 4
 2906 0012 BD46     		mov	sp, r7
 2907              	.LCFI294:
 2908              		.cfi_def_cfa_register 13
 2909              		@ sp needed
 2910 0014 5DF8047B 		ldr	r7, [sp], #4
 2911              	.LCFI295:
 2912              		.cfi_restore 7
 2913              		.cfi_def_cfa_offset 0
 2914 0018 7047     		bx	lr
 2915              		.cfi_endproc
 2916              	.LFE78:
 2918              		.section	.text.Ft_Esd_DemoPage_End,"ax",%progbits
 2919              		.align	1
 2920              		.global	Ft_Esd_DemoPage_End
 2921              		.syntax unified
 2922              		.thumb
 2923              		.thumb_func
 2924              		.fpu fpv5-sp-d16
 2926              	Ft_Esd_DemoPage_End:
 2927              	.LFB79:
ARM GAS  /var/folders/n8/cvzdcwlj0vl4g_wtyz1ffy300000gn/T//ccLY5GZg.s 			page 57


 252:FT_Esd_Widgets/Ft_Esd_DemoPage__Generated.c **** 
 253:FT_Esd_Widgets/Ft_Esd_DemoPage__Generated.c **** void Ft_Esd_DemoPage_End(Ft_Esd_DemoPage *context)
 254:FT_Esd_Widgets/Ft_Esd_DemoPage__Generated.c **** {
 2928              		.loc 2 254 0
 2929              		.cfi_startproc
 2930              		@ args = 0, pretend = 0, frame = 16
 2931              		@ frame_needed = 1, uses_anonymous_args = 0
 2932 0000 80B5     		push	{r7, lr}
 2933              	.LCFI296:
 2934              		.cfi_def_cfa_offset 8
 2935              		.cfi_offset 7, -8
 2936              		.cfi_offset 14, -4
 2937 0002 84B0     		sub	sp, sp, #16
 2938              	.LCFI297:
 2939              		.cfi_def_cfa_offset 24
 2940 0004 00AF     		add	r7, sp, #0
 2941              	.LCFI298:
 2942              		.cfi_def_cfa_register 7
 2943 0006 7860     		str	r0, [r7, #4]
 255:FT_Esd_Widgets/Ft_Esd_DemoPage__Generated.c **** 	void *parent = context->Parent;
 2944              		.loc 2 255 0
 2945 0008 7B68     		ldr	r3, [r7, #4]
 2946 000a 1B68     		ldr	r3, [r3]
 2947 000c FB60     		str	r3, [r7, #12]
 256:FT_Esd_Widgets/Ft_Esd_DemoPage__Generated.c **** 	Ft_Esd_Clock_End(&context->ESD_Clock);
 2948              		.loc 2 256 0
 2949 000e 7B68     		ldr	r3, [r7, #4]
 2950 0010 8433     		adds	r3, r3, #132
 2951 0012 1846     		mov	r0, r3
 2952 0014 FFF7FEFF 		bl	Ft_Esd_Clock_End
 257:FT_Esd_Widgets/Ft_Esd_DemoPage__Generated.c **** 	Ft_Esd_PushButton_End(&context->ESD_PushButton);
 2953              		.loc 2 257 0
 2954 0018 7B68     		ldr	r3, [r7, #4]
 2955 001a E033     		adds	r3, r3, #224
 2956 001c 1846     		mov	r0, r3
 2957 001e FFF7FEFF 		bl	Ft_Esd_PushButton_End
 258:FT_Esd_Widgets/Ft_Esd_DemoPage__Generated.c **** 	Ft_Esd_PushButton_End(&context->ESD_PushButton_1);
 2958              		.loc 2 258 0
 2959 0022 7B68     		ldr	r3, [r7, #4]
 2960 0024 03F5A273 		add	r3, r3, #324
 2961 0028 1846     		mov	r0, r3
 2962 002a FFF7FEFF 		bl	Ft_Esd_PushButton_End
 259:FT_Esd_Widgets/Ft_Esd_DemoPage__Generated.c **** 	Ft_Esd_Toggle_End(&context->ESD_Toggle);
 2963              		.loc 2 259 0
 2964 002e 7B68     		ldr	r3, [r7, #4]
 2965 0030 03F5C673 		add	r3, r3, #396
 2966 0034 1846     		mov	r0, r3
 2967 0036 FFF7FEFF 		bl	Ft_Esd_Toggle_End
 260:FT_Esd_Widgets/Ft_Esd_DemoPage__Generated.c **** 	Ft_Esd_PushButton_End(&context->ESD_PushButton_2);
 2968              		.loc 2 260 0
 2969 003a 7B68     		ldr	r3, [r7, #4]
 2970 003c 03F5E873 		add	r3, r3, #464
 2971 0040 1846     		mov	r0, r3
 2972 0042 FFF7FEFF 		bl	Ft_Esd_PushButton_End
 261:FT_Esd_Widgets/Ft_Esd_DemoPage__Generated.c **** 	Ft_Esd_PushButton_End(&context->ESD_PushButton_3);
 2973              		.loc 2 261 0
 2974 0046 7B68     		ldr	r3, [r7, #4]
ARM GAS  /var/folders/n8/cvzdcwlj0vl4g_wtyz1ffy300000gn/T//ccLY5GZg.s 			page 58


 2975 0048 03F51073 		add	r3, r3, #576
 2976 004c 1846     		mov	r0, r3
 2977 004e FFF7FEFF 		bl	Ft_Esd_PushButton_End
 262:FT_Esd_Widgets/Ft_Esd_DemoPage__Generated.c **** 	Ft_Esd_Toggle_End(&context->ESD_Toggle_1);
 2978              		.loc 2 262 0
 2979 0052 7B68     		ldr	r3, [r7, #4]
 2980 0054 03F52273 		add	r3, r3, #648
 2981 0058 1846     		mov	r0, r3
 2982 005a FFF7FEFF 		bl	Ft_Esd_Toggle_End
 263:FT_Esd_Widgets/Ft_Esd_DemoPage__Generated.c **** 	Ft_Esd_SpinBox_End(&context->ESD_SpinBox);
 2983              		.loc 2 263 0
 2984 005e 7B68     		ldr	r3, [r7, #4]
 2985 0060 03F53373 		add	r3, r3, #716
 2986 0064 1846     		mov	r0, r3
 2987 0066 FFF7FEFF 		bl	Ft_Esd_SpinBox_End
 264:FT_Esd_Widgets/Ft_Esd_DemoPage__Generated.c **** 	Ft_Esd_LabelButton_End(&context->ESD_Label_Button);
 2988              		.loc 2 264 0
 2989 006a 7B68     		ldr	r3, [r7, #4]
 2990 006c 03F20C43 		addw	r3, r3, #1036
 2991 0070 1846     		mov	r0, r3
 2992 0072 FFF7FEFF 		bl	Ft_Esd_LabelButton_End
 265:FT_Esd_Widgets/Ft_Esd_DemoPage__Generated.c **** 	Ft_Esd_SpinBox_End(&context->ESD_SpinBox_1);
 2993              		.loc 2 265 0
 2994 0076 7B68     		ldr	r3, [r7, #4]
 2995 0078 03F26C43 		addw	r3, r3, #1132
 2996 007c 1846     		mov	r0, r3
 2997 007e FFF7FEFF 		bl	Ft_Esd_SpinBox_End
 266:FT_Esd_Widgets/Ft_Esd_DemoPage__Generated.c **** 	Ft_Esd_SpinBox_End(&context->ESD_SpinBox_2);
 2998              		.loc 2 266 0
 2999 0082 7B68     		ldr	r3, [r7, #4]
 3000 0084 03F2AC53 		addw	r3, r3, #1452
 3001 0088 1846     		mov	r0, r3
 3002 008a FFF7FEFF 		bl	Ft_Esd_SpinBox_End
 267:FT_Esd_Widgets/Ft_Esd_DemoPage__Generated.c **** }
 3003              		.loc 2 267 0
 3004 008e 00BF     		nop
 3005 0090 1037     		adds	r7, r7, #16
 3006              	.LCFI299:
 3007              		.cfi_def_cfa_offset 8
 3008 0092 BD46     		mov	sp, r7
 3009              	.LCFI300:
 3010              		.cfi_def_cfa_register 13
 3011              		@ sp needed
 3012 0094 80BD     		pop	{r7, pc}
 3013              		.cfi_endproc
 3014              	.LFE79:
 3016              		.section	.text.Ft_Esd_DemoPage_Ft_Esd_GetMillis__return,"ax",%progbits
 3017              		.align	1
 3018              		.syntax unified
 3019              		.thumb
 3020              		.thumb_func
 3021              		.fpu fpv5-sp-d16
 3023              	Ft_Esd_DemoPage_Ft_Esd_GetMillis__return:
 3024              	.LFB80:
 268:FT_Esd_Widgets/Ft_Esd_DemoPage__Generated.c **** 
 269:FT_Esd_Widgets/Ft_Esd_DemoPage__Generated.c **** ft_uint32_t Ft_Esd_DemoPage_Ft_Esd_GetMillis__return(Ft_Esd_DemoPage *context)
 270:FT_Esd_Widgets/Ft_Esd_DemoPage__Generated.c **** {
ARM GAS  /var/folders/n8/cvzdcwlj0vl4g_wtyz1ffy300000gn/T//ccLY5GZg.s 			page 59


 3025              		.loc 2 270 0
 3026              		.cfi_startproc
 3027              		@ args = 0, pretend = 0, frame = 16
 3028              		@ frame_needed = 1, uses_anonymous_args = 0
 3029 0000 80B5     		push	{r7, lr}
 3030              	.LCFI301:
 3031              		.cfi_def_cfa_offset 8
 3032              		.cfi_offset 7, -8
 3033              		.cfi_offset 14, -4
 3034 0002 84B0     		sub	sp, sp, #16
 3035              	.LCFI302:
 3036              		.cfi_def_cfa_offset 24
 3037 0004 00AF     		add	r7, sp, #0
 3038              	.LCFI303:
 3039              		.cfi_def_cfa_register 7
 3040 0006 7860     		str	r0, [r7, #4]
 271:FT_Esd_Widgets/Ft_Esd_DemoPage__Generated.c **** 	void *parent = context->Parent;
 3041              		.loc 2 271 0
 3042 0008 7B68     		ldr	r3, [r7, #4]
 3043 000a 1B68     		ldr	r3, [r3]
 3044 000c FB60     		str	r3, [r7, #12]
 272:FT_Esd_Widgets/Ft_Esd_DemoPage__Generated.c **** 	return Ft_Esd_GetMillis();
 3045              		.loc 2 272 0
 3046 000e FFF7FEFF 		bl	Ft_Esd_GetMillis
 3047 0012 0346     		mov	r3, r0
 273:FT_Esd_Widgets/Ft_Esd_DemoPage__Generated.c **** }
 3048              		.loc 2 273 0
 3049 0014 1846     		mov	r0, r3
 3050 0016 1037     		adds	r7, r7, #16
 3051              	.LCFI304:
 3052              		.cfi_def_cfa_offset 8
 3053 0018 BD46     		mov	sp, r7
 3054              	.LCFI305:
 3055              		.cfi_def_cfa_register 13
 3056              		@ sp needed
 3057 001a 80BD     		pop	{r7, pc}
 3058              		.cfi_endproc
 3059              	.LFE80:
 3061              		.section	.text.Ft_Esd_DemoPage_Start,"ax",%progbits
 3062              		.align	1
 3063              		.global	Ft_Esd_DemoPage_Start
 3064              		.syntax unified
 3065              		.thumb
 3066              		.thumb_func
 3067              		.fpu fpv5-sp-d16
 3069              	Ft_Esd_DemoPage_Start:
 3070              	.LFB81:
 274:FT_Esd_Widgets/Ft_Esd_DemoPage__Generated.c **** 
 275:FT_Esd_Widgets/Ft_Esd_DemoPage__Generated.c **** void Ft_Esd_DemoPage_Start(Ft_Esd_DemoPage *context)
 276:FT_Esd_Widgets/Ft_Esd_DemoPage__Generated.c **** {
 3071              		.loc 2 276 0
 3072              		.cfi_startproc
 3073              		@ args = 0, pretend = 0, frame = 16
 3074              		@ frame_needed = 1, uses_anonymous_args = 0
 3075 0000 80B5     		push	{r7, lr}
 3076              	.LCFI306:
 3077              		.cfi_def_cfa_offset 8
ARM GAS  /var/folders/n8/cvzdcwlj0vl4g_wtyz1ffy300000gn/T//ccLY5GZg.s 			page 60


 3078              		.cfi_offset 7, -8
 3079              		.cfi_offset 14, -4
 3080 0002 84B0     		sub	sp, sp, #16
 3081              	.LCFI307:
 3082              		.cfi_def_cfa_offset 24
 3083 0004 00AF     		add	r7, sp, #0
 3084              	.LCFI308:
 3085              		.cfi_def_cfa_register 7
 3086 0006 7860     		str	r0, [r7, #4]
 277:FT_Esd_Widgets/Ft_Esd_DemoPage__Generated.c **** 	void *parent = context->Parent;
 3087              		.loc 2 277 0
 3088 0008 7B68     		ldr	r3, [r7, #4]
 3089 000a 1B68     		ldr	r3, [r3]
 3090 000c FB60     		str	r3, [r7, #12]
 278:FT_Esd_Widgets/Ft_Esd_DemoPage__Generated.c **** 	Ft_Esd_DemoPage_Start__Builtin(context);
 3091              		.loc 2 278 0
 3092 000e 7868     		ldr	r0, [r7, #4]
 3093 0010 FFF7FEFF 		bl	Ft_Esd_DemoPage_Start__Builtin
 279:FT_Esd_Widgets/Ft_Esd_DemoPage__Generated.c **** 	Ft_Esd_Toggle_Toggle(&context->ESD_Toggle_1);
 3094              		.loc 2 279 0
 3095 0014 7B68     		ldr	r3, [r7, #4]
 3096 0016 03F52273 		add	r3, r3, #648
 3097 001a 1846     		mov	r0, r3
 3098 001c FFF7FEFF 		bl	Ft_Esd_Toggle_Toggle
 280:FT_Esd_Widgets/Ft_Esd_DemoPage__Generated.c **** }
 3099              		.loc 2 280 0
 3100 0020 00BF     		nop
 3101 0022 1037     		adds	r7, r7, #16
 3102              	.LCFI309:
 3103              		.cfi_def_cfa_offset 8
 3104 0024 BD46     		mov	sp, r7
 3105              	.LCFI310:
 3106              		.cfi_def_cfa_register 13
 3107              		@ sp needed
 3108 0026 80BD     		pop	{r7, pc}
 3109              		.cfi_endproc
 3110              	.LFE81:
 3112              		.section	.text.Ft_Esd_DemoPage_ESD_ProgressBar_Val__Property,"ax",%progbits
 3113              		.align	1
 3114              		.syntax unified
 3115              		.thumb
 3116              		.thumb_func
 3117              		.fpu fpv5-sp-d16
 3119              	Ft_Esd_DemoPage_ESD_ProgressBar_Val__Property:
 3120              	.LFB82:
 281:FT_Esd_Widgets/Ft_Esd_DemoPage__Generated.c **** 
 282:FT_Esd_Widgets/Ft_Esd_DemoPage__Generated.c **** ft_uint16_t Ft_Esd_DemoPage_ESD_ProgressBar_Val__Property(void *c)
 283:FT_Esd_Widgets/Ft_Esd_DemoPage__Generated.c **** {
 3121              		.loc 2 283 0
 3122              		.cfi_startproc
 3123              		@ args = 0, pretend = 0, frame = 24
 3124              		@ frame_needed = 1, uses_anonymous_args = 0
 3125 0000 80B5     		push	{r7, lr}
 3126              	.LCFI311:
 3127              		.cfi_def_cfa_offset 8
 3128              		.cfi_offset 7, -8
 3129              		.cfi_offset 14, -4
ARM GAS  /var/folders/n8/cvzdcwlj0vl4g_wtyz1ffy300000gn/T//ccLY5GZg.s 			page 61


 3130 0002 86B0     		sub	sp, sp, #24
 3131              	.LCFI312:
 3132              		.cfi_def_cfa_offset 32
 3133 0004 00AF     		add	r7, sp, #0
 3134              	.LCFI313:
 3135              		.cfi_def_cfa_register 7
 3136 0006 7860     		str	r0, [r7, #4]
 284:FT_Esd_Widgets/Ft_Esd_DemoPage__Generated.c **** 	Ft_Esd_DemoPage *context = (Ft_Esd_DemoPage *)c;
 3137              		.loc 2 284 0
 3138 0008 7B68     		ldr	r3, [r7, #4]
 3139 000a 7B61     		str	r3, [r7, #20]
 285:FT_Esd_Widgets/Ft_Esd_DemoPage__Generated.c **** 	void *parent = context->Parent;
 3140              		.loc 2 285 0
 3141 000c 7B69     		ldr	r3, [r7, #20]
 3142 000e 1B68     		ldr	r3, [r3]
 3143 0010 3B61     		str	r3, [r7, #16]
 286:FT_Esd_Widgets/Ft_Esd_DemoPage__Generated.c **** 	ft_uint32_t left = Ft_Esd_DemoPage_Ft_Esd_GetMillis__return(context);
 3144              		.loc 2 286 0
 3145 0012 7869     		ldr	r0, [r7, #20]
 3146 0014 FFF7FEFF 		bl	Ft_Esd_DemoPage_Ft_Esd_GetMillis__return
 3147 0018 F860     		str	r0, [r7, #12]
 287:FT_Esd_Widgets/Ft_Esd_DemoPage__Generated.c **** 	ft_uint16_t right = 1000U;
 3148              		.loc 2 287 0
 3149 001a 4FF47A73 		mov	r3, #1000
 3150 001e 7B81     		strh	r3, [r7, #10]	@ movhi
 288:FT_Esd_Widgets/Ft_Esd_DemoPage__Generated.c **** 	return left % right;
 3151              		.loc 2 288 0
 3152 0020 7A89     		ldrh	r2, [r7, #10]
 3153 0022 FB68     		ldr	r3, [r7, #12]
 3154 0024 B3FBF2F1 		udiv	r1, r3, r2
 3155 0028 02FB01F2 		mul	r2, r2, r1
 3156 002c 9B1A     		subs	r3, r3, r2
 3157 002e 9BB2     		uxth	r3, r3
 289:FT_Esd_Widgets/Ft_Esd_DemoPage__Generated.c **** }
 3158              		.loc 2 289 0
 3159 0030 1846     		mov	r0, r3
 3160 0032 1837     		adds	r7, r7, #24
 3161              	.LCFI314:
 3162              		.cfi_def_cfa_offset 8
 3163 0034 BD46     		mov	sp, r7
 3164              	.LCFI315:
 3165              		.cfi_def_cfa_register 13
 3166              		@ sp needed
 3167 0036 80BD     		pop	{r7, pc}
 3168              		.cfi_endproc
 3169              	.LFE82:
 3171              		.section	.text.Ft_Esd_DemoPage_ESD_Gauge_Val__Property,"ax",%progbits
 3172              		.align	1
 3173              		.syntax unified
 3174              		.thumb
 3175              		.thumb_func
 3176              		.fpu fpv5-sp-d16
 3178              	Ft_Esd_DemoPage_ESD_Gauge_Val__Property:
 3179              	.LFB83:
 290:FT_Esd_Widgets/Ft_Esd_DemoPage__Generated.c **** 
 291:FT_Esd_Widgets/Ft_Esd_DemoPage__Generated.c **** ft_uint16_t Ft_Esd_DemoPage_ESD_Gauge_Val__Property(void *c)
 292:FT_Esd_Widgets/Ft_Esd_DemoPage__Generated.c **** {
ARM GAS  /var/folders/n8/cvzdcwlj0vl4g_wtyz1ffy300000gn/T//ccLY5GZg.s 			page 62


 3180              		.loc 2 292 0
 3181              		.cfi_startproc
 3182              		@ args = 0, pretend = 0, frame = 16
 3183              		@ frame_needed = 1, uses_anonymous_args = 0
 3184 0000 80B5     		push	{r7, lr}
 3185              	.LCFI316:
 3186              		.cfi_def_cfa_offset 8
 3187              		.cfi_offset 7, -8
 3188              		.cfi_offset 14, -4
 3189 0002 84B0     		sub	sp, sp, #16
 3190              	.LCFI317:
 3191              		.cfi_def_cfa_offset 24
 3192 0004 00AF     		add	r7, sp, #0
 3193              	.LCFI318:
 3194              		.cfi_def_cfa_register 7
 3195 0006 7860     		str	r0, [r7, #4]
 293:FT_Esd_Widgets/Ft_Esd_DemoPage__Generated.c **** 	Ft_Esd_DemoPage *context = (Ft_Esd_DemoPage *)c;
 3196              		.loc 2 293 0
 3197 0008 7B68     		ldr	r3, [r7, #4]
 3198 000a FB60     		str	r3, [r7, #12]
 294:FT_Esd_Widgets/Ft_Esd_DemoPage__Generated.c **** 	void *parent = context->Parent;
 3199              		.loc 2 294 0
 3200 000c FB68     		ldr	r3, [r7, #12]
 3201 000e 1B68     		ldr	r3, [r3]
 3202 0010 BB60     		str	r3, [r7, #8]
 295:FT_Esd_Widgets/Ft_Esd_DemoPage__Generated.c **** 	return Ft_Esd_DemoPage_Ft_Esd_GetMillis__return(context);
 3203              		.loc 2 295 0
 3204 0012 F868     		ldr	r0, [r7, #12]
 3205 0014 FFF7FEFF 		bl	Ft_Esd_DemoPage_Ft_Esd_GetMillis__return
 3206 0018 0346     		mov	r3, r0
 3207 001a 9BB2     		uxth	r3, r3
 296:FT_Esd_Widgets/Ft_Esd_DemoPage__Generated.c **** }
 3208              		.loc 2 296 0
 3209 001c 1846     		mov	r0, r3
 3210 001e 1037     		adds	r7, r7, #16
 3211              	.LCFI319:
 3212              		.cfi_def_cfa_offset 8
 3213 0020 BD46     		mov	sp, r7
 3214              	.LCFI320:
 3215              		.cfi_def_cfa_register 13
 3216              		@ sp needed
 3217 0022 80BD     		pop	{r7, pc}
 3218              		.cfi_endproc
 3219              	.LFE83:
 3221              		.section	.text.Ft_Esd_DemoPage_ESD_Clock_Ms__Property,"ax",%progbits
 3222              		.align	1
 3223              		.syntax unified
 3224              		.thumb
 3225              		.thumb_func
 3226              		.fpu fpv5-sp-d16
 3228              	Ft_Esd_DemoPage_ESD_Clock_Ms__Property:
 3229              	.LFB84:
 297:FT_Esd_Widgets/Ft_Esd_DemoPage__Generated.c **** 
 298:FT_Esd_Widgets/Ft_Esd_DemoPage__Generated.c **** ft_uint32_t Ft_Esd_DemoPage_ESD_Clock_Ms__Property(void *c)
 299:FT_Esd_Widgets/Ft_Esd_DemoPage__Generated.c **** {
 3230              		.loc 2 299 0
 3231              		.cfi_startproc
ARM GAS  /var/folders/n8/cvzdcwlj0vl4g_wtyz1ffy300000gn/T//ccLY5GZg.s 			page 63


 3232              		@ args = 0, pretend = 0, frame = 16
 3233              		@ frame_needed = 1, uses_anonymous_args = 0
 3234 0000 80B5     		push	{r7, lr}
 3235              	.LCFI321:
 3236              		.cfi_def_cfa_offset 8
 3237              		.cfi_offset 7, -8
 3238              		.cfi_offset 14, -4
 3239 0002 84B0     		sub	sp, sp, #16
 3240              	.LCFI322:
 3241              		.cfi_def_cfa_offset 24
 3242 0004 00AF     		add	r7, sp, #0
 3243              	.LCFI323:
 3244              		.cfi_def_cfa_register 7
 3245 0006 7860     		str	r0, [r7, #4]
 300:FT_Esd_Widgets/Ft_Esd_DemoPage__Generated.c **** 	Ft_Esd_DemoPage *context = (Ft_Esd_DemoPage *)c;
 3246              		.loc 2 300 0
 3247 0008 7B68     		ldr	r3, [r7, #4]
 3248 000a FB60     		str	r3, [r7, #12]
 301:FT_Esd_Widgets/Ft_Esd_DemoPage__Generated.c **** 	void *parent = context->Parent;
 3249              		.loc 2 301 0
 3250 000c FB68     		ldr	r3, [r7, #12]
 3251 000e 1B68     		ldr	r3, [r3]
 3252 0010 BB60     		str	r3, [r7, #8]
 302:FT_Esd_Widgets/Ft_Esd_DemoPage__Generated.c **** 	return Ft_Esd_DemoPage_Ft_Esd_GetMillis__return(context);
 3253              		.loc 2 302 0
 3254 0012 F868     		ldr	r0, [r7, #12]
 3255 0014 FFF7FEFF 		bl	Ft_Esd_DemoPage_Ft_Esd_GetMillis__return
 3256 0018 0346     		mov	r3, r0
 303:FT_Esd_Widgets/Ft_Esd_DemoPage__Generated.c **** }
 3257              		.loc 2 303 0
 3258 001a 1846     		mov	r0, r3
 3259 001c 1037     		adds	r7, r7, #16
 3260              	.LCFI324:
 3261              		.cfi_def_cfa_offset 8
 3262 001e BD46     		mov	sp, r7
 3263              	.LCFI325:
 3264              		.cfi_def_cfa_register 13
 3265              		@ sp needed
 3266 0020 80BD     		pop	{r7, pc}
 3267              		.cfi_endproc
 3268              	.LFE84:
 3270              		.section	.text.Ft_Esd_DemoPage_ESD_PushButton_Pushed__Signal,"ax",%progbits
 3271              		.align	1
 3272              		.syntax unified
 3273              		.thumb
 3274              		.thumb_func
 3275              		.fpu fpv5-sp-d16
 3277              	Ft_Esd_DemoPage_ESD_PushButton_Pushed__Signal:
 3278              	.LFB85:
 304:FT_Esd_Widgets/Ft_Esd_DemoPage__Generated.c **** 
 305:FT_Esd_Widgets/Ft_Esd_DemoPage__Generated.c **** void Ft_Esd_DemoPage_ESD_PushButton_Pushed__Signal(void *c)
 306:FT_Esd_Widgets/Ft_Esd_DemoPage__Generated.c **** {
 3279              		.loc 2 306 0
 3280              		.cfi_startproc
 3281              		@ args = 0, pretend = 0, frame = 16
 3282              		@ frame_needed = 1, uses_anonymous_args = 0
 3283 0000 80B5     		push	{r7, lr}
ARM GAS  /var/folders/n8/cvzdcwlj0vl4g_wtyz1ffy300000gn/T//ccLY5GZg.s 			page 64


 3284              	.LCFI326:
 3285              		.cfi_def_cfa_offset 8
 3286              		.cfi_offset 7, -8
 3287              		.cfi_offset 14, -4
 3288 0002 84B0     		sub	sp, sp, #16
 3289              	.LCFI327:
 3290              		.cfi_def_cfa_offset 24
 3291 0004 00AF     		add	r7, sp, #0
 3292              	.LCFI328:
 3293              		.cfi_def_cfa_register 7
 3294 0006 7860     		str	r0, [r7, #4]
 307:FT_Esd_Widgets/Ft_Esd_DemoPage__Generated.c **** 	Ft_Esd_DemoPage *context = (Ft_Esd_DemoPage *)c;
 3295              		.loc 2 307 0
 3296 0008 7B68     		ldr	r3, [r7, #4]
 3297 000a FB60     		str	r3, [r7, #12]
 308:FT_Esd_Widgets/Ft_Esd_DemoPage__Generated.c **** 	void *parent = context->Parent;
 3298              		.loc 2 308 0
 3299 000c FB68     		ldr	r3, [r7, #12]
 3300 000e 1B68     		ldr	r3, [r3]
 3301 0010 BB60     		str	r3, [r7, #8]
 309:FT_Esd_Widgets/Ft_Esd_DemoPage__Generated.c **** 	SwitchBool_Switch(&context->SwitchBool);
 3302              		.loc 2 309 0
 3303 0012 FB68     		ldr	r3, [r7, #12]
 3304 0014 0433     		adds	r3, r3, #4
 3305 0016 1846     		mov	r0, r3
 3306 0018 FFF7FEFF 		bl	SwitchBool_Switch
 310:FT_Esd_Widgets/Ft_Esd_DemoPage__Generated.c **** }
 3307              		.loc 2 310 0
 3308 001c 00BF     		nop
 3309 001e 1037     		adds	r7, r7, #16
 3310              	.LCFI329:
 3311              		.cfi_def_cfa_offset 8
 3312 0020 BD46     		mov	sp, r7
 3313              	.LCFI330:
 3314              		.cfi_def_cfa_register 13
 3315              		@ sp needed
 3316 0022 80BD     		pop	{r7, pc}
 3317              		.cfi_endproc
 3318              	.LFE85:
 3320              		.section	.text.Ft_Esd_DemoPage_ESD_PushButton_1__active,"ax",%progbits
 3321              		.align	1
 3322              		.syntax unified
 3323              		.thumb
 3324              		.thumb_func
 3325              		.fpu fpv5-sp-d16
 3327              	Ft_Esd_DemoPage_ESD_PushButton_1__active:
 3328              	.LFB86:
 311:FT_Esd_Widgets/Ft_Esd_DemoPage__Generated.c **** 
 312:FT_Esd_Widgets/Ft_Esd_DemoPage__Generated.c **** int Ft_Esd_DemoPage_ESD_PushButton_1__active(Ft_Esd_DemoPage *context)
 313:FT_Esd_Widgets/Ft_Esd_DemoPage__Generated.c **** {
 3329              		.loc 2 313 0
 3330              		.cfi_startproc
 3331              		@ args = 0, pretend = 0, frame = 16
 3332              		@ frame_needed = 1, uses_anonymous_args = 0
 3333 0000 80B5     		push	{r7, lr}
 3334              	.LCFI331:
 3335              		.cfi_def_cfa_offset 8
ARM GAS  /var/folders/n8/cvzdcwlj0vl4g_wtyz1ffy300000gn/T//ccLY5GZg.s 			page 65


 3336              		.cfi_offset 7, -8
 3337              		.cfi_offset 14, -4
 3338 0002 84B0     		sub	sp, sp, #16
 3339              	.LCFI332:
 3340              		.cfi_def_cfa_offset 24
 3341 0004 00AF     		add	r7, sp, #0
 3342              	.LCFI333:
 3343              		.cfi_def_cfa_register 7
 3344 0006 7860     		str	r0, [r7, #4]
 314:FT_Esd_Widgets/Ft_Esd_DemoPage__Generated.c **** 	void *parent = context->Parent;
 3345              		.loc 2 314 0
 3346 0008 7B68     		ldr	r3, [r7, #4]
 3347 000a 1B68     		ldr	r3, [r3]
 3348 000c FB60     		str	r3, [r7, #12]
 315:FT_Esd_Widgets/Ft_Esd_DemoPage__Generated.c **** 	return SwitchBool_Value(&context->SwitchBool);
 3349              		.loc 2 315 0
 3350 000e 7B68     		ldr	r3, [r7, #4]
 3351 0010 0433     		adds	r3, r3, #4
 3352 0012 1846     		mov	r0, r3
 3353 0014 FFF7FEFF 		bl	SwitchBool_Value
 3354 0018 0346     		mov	r3, r0
 316:FT_Esd_Widgets/Ft_Esd_DemoPage__Generated.c **** }
 3355              		.loc 2 316 0
 3356 001a 1846     		mov	r0, r3
 3357 001c 1037     		adds	r7, r7, #16
 3358              	.LCFI334:
 3359              		.cfi_def_cfa_offset 8
 3360 001e BD46     		mov	sp, r7
 3361              	.LCFI335:
 3362              		.cfi_def_cfa_register 13
 3363              		@ sp needed
 3364 0020 80BD     		pop	{r7, pc}
 3365              		.cfi_endproc
 3366              	.LFE86:
 3368              		.section	.text.Ft_Esd_DemoPage_ESD_PushButton_3__active,"ax",%progbits
 3369              		.align	1
 3370              		.syntax unified
 3371              		.thumb
 3372              		.thumb_func
 3373              		.fpu fpv5-sp-d16
 3375              	Ft_Esd_DemoPage_ESD_PushButton_3__active:
 3376              	.LFB87:
 317:FT_Esd_Widgets/Ft_Esd_DemoPage__Generated.c **** 
 318:FT_Esd_Widgets/Ft_Esd_DemoPage__Generated.c **** int Ft_Esd_DemoPage_ESD_PushButton_3__active(Ft_Esd_DemoPage *context)
 319:FT_Esd_Widgets/Ft_Esd_DemoPage__Generated.c **** {
 3377              		.loc 2 319 0
 3378              		.cfi_startproc
 3379              		@ args = 0, pretend = 0, frame = 16
 3380              		@ frame_needed = 1, uses_anonymous_args = 0
 3381              		@ link register save eliminated.
 3382 0000 80B4     		push	{r7}
 3383              	.LCFI336:
 3384              		.cfi_def_cfa_offset 4
 3385              		.cfi_offset 7, -4
 3386 0002 85B0     		sub	sp, sp, #20
 3387              	.LCFI337:
 3388              		.cfi_def_cfa_offset 24
ARM GAS  /var/folders/n8/cvzdcwlj0vl4g_wtyz1ffy300000gn/T//ccLY5GZg.s 			page 66


 3389 0004 00AF     		add	r7, sp, #0
 3390              	.LCFI338:
 3391              		.cfi_def_cfa_register 7
 3392 0006 7860     		str	r0, [r7, #4]
 320:FT_Esd_Widgets/Ft_Esd_DemoPage__Generated.c **** 	void *parent = context->Parent;
 3393              		.loc 2 320 0
 3394 0008 7B68     		ldr	r3, [r7, #4]
 3395 000a 1B68     		ldr	r3, [r3]
 3396 000c FB60     		str	r3, [r7, #12]
 321:FT_Esd_Widgets/Ft_Esd_DemoPage__Generated.c **** 	return context->ESD_Toggle.State;
 3397              		.loc 2 321 0
 3398 000e 7B68     		ldr	r3, [r7, #4]
 3399 0010 93F8C831 		ldrb	r3, [r3, #456]	@ zero_extendqisi2
 322:FT_Esd_Widgets/Ft_Esd_DemoPage__Generated.c **** }
 3400              		.loc 2 322 0
 3401 0014 1846     		mov	r0, r3
 3402 0016 1437     		adds	r7, r7, #20
 3403              	.LCFI339:
 3404              		.cfi_def_cfa_offset 4
 3405 0018 BD46     		mov	sp, r7
 3406              	.LCFI340:
 3407              		.cfi_def_cfa_register 13
 3408              		@ sp needed
 3409 001a 5DF8047B 		ldr	r7, [sp], #4
 3410              	.LCFI341:
 3411              		.cfi_restore 7
 3412              		.cfi_def_cfa_offset 0
 3413 001e 7047     		bx	lr
 3414              		.cfi_endproc
 3415              	.LFE87:
 3417              		.section	.text.Ft_Esd_DemoPage_ESD_SpinBox_Changed__Writer,"ax",%progbits
 3418              		.align	1
 3419              		.syntax unified
 3420              		.thumb
 3421              		.thumb_func
 3422              		.fpu fpv5-sp-d16
 3424              	Ft_Esd_DemoPage_ESD_SpinBox_Changed__Writer:
 3425              	.LFB88:
 323:FT_Esd_Widgets/Ft_Esd_DemoPage__Generated.c **** 
 324:FT_Esd_Widgets/Ft_Esd_DemoPage__Generated.c **** void Ft_Esd_DemoPage_ESD_SpinBox_Changed__Writer(void *c, int value)
 325:FT_Esd_Widgets/Ft_Esd_DemoPage__Generated.c **** {
 3426              		.loc 2 325 0
 3427              		.cfi_startproc
 3428              		@ args = 0, pretend = 0, frame = 16
 3429              		@ frame_needed = 1, uses_anonymous_args = 0
 3430              		@ link register save eliminated.
 3431 0000 80B4     		push	{r7}
 3432              	.LCFI342:
 3433              		.cfi_def_cfa_offset 4
 3434              		.cfi_offset 7, -4
 3435 0002 85B0     		sub	sp, sp, #20
 3436              	.LCFI343:
 3437              		.cfi_def_cfa_offset 24
 3438 0004 00AF     		add	r7, sp, #0
 3439              	.LCFI344:
 3440              		.cfi_def_cfa_register 7
 3441 0006 7860     		str	r0, [r7, #4]
ARM GAS  /var/folders/n8/cvzdcwlj0vl4g_wtyz1ffy300000gn/T//ccLY5GZg.s 			page 67


 3442 0008 3960     		str	r1, [r7]
 326:FT_Esd_Widgets/Ft_Esd_DemoPage__Generated.c **** 	Ft_Esd_DemoPage *context = (Ft_Esd_DemoPage *)c;
 3443              		.loc 2 326 0
 3444 000a 7B68     		ldr	r3, [r7, #4]
 3445 000c FB60     		str	r3, [r7, #12]
 327:FT_Esd_Widgets/Ft_Esd_DemoPage__Generated.c **** 	void *parent = context->Parent;
 3446              		.loc 2 327 0
 3447 000e FB68     		ldr	r3, [r7, #12]
 3448 0010 1B68     		ldr	r3, [r3]
 3449 0012 BB60     		str	r3, [r7, #8]
 328:FT_Esd_Widgets/Ft_Esd_DemoPage__Generated.c **** 	context->ESD_SpinBox_1.Value = value;
 3450              		.loc 2 328 0
 3451 0014 FB68     		ldr	r3, [r7, #12]
 3452 0016 3A68     		ldr	r2, [r7]
 3453 0018 C3F8A424 		str	r2, [r3, #1188]
 329:FT_Esd_Widgets/Ft_Esd_DemoPage__Generated.c **** }
 3454              		.loc 2 329 0
 3455 001c 00BF     		nop
 3456 001e 1437     		adds	r7, r7, #20
 3457              	.LCFI345:
 3458              		.cfi_def_cfa_offset 4
 3459 0020 BD46     		mov	sp, r7
 3460              	.LCFI346:
 3461              		.cfi_def_cfa_register 13
 3462              		@ sp needed
 3463 0022 5DF8047B 		ldr	r7, [sp], #4
 3464              	.LCFI347:
 3465              		.cfi_restore 7
 3466              		.cfi_def_cfa_offset 0
 3467 0026 7047     		bx	lr
 3468              		.cfi_endproc
 3469              	.LFE88:
 3471              		.section	.text.Ft_Esd_DemoPage_ESD_NumericLabel_Value__Property,"ax",%progbits
 3472              		.align	1
 3473              		.syntax unified
 3474              		.thumb
 3475              		.thumb_func
 3476              		.fpu fpv5-sp-d16
 3478              	Ft_Esd_DemoPage_ESD_NumericLabel_Value__Property:
 3479              	.LFB89:
 330:FT_Esd_Widgets/Ft_Esd_DemoPage__Generated.c **** 
 331:FT_Esd_Widgets/Ft_Esd_DemoPage__Generated.c **** ft_int32_t Ft_Esd_DemoPage_ESD_NumericLabel_Value__Property(void *c)
 332:FT_Esd_Widgets/Ft_Esd_DemoPage__Generated.c **** {
 3480              		.loc 2 332 0
 3481              		.cfi_startproc
 3482              		@ args = 0, pretend = 0, frame = 16
 3483              		@ frame_needed = 1, uses_anonymous_args = 0
 3484              		@ link register save eliminated.
 3485 0000 80B4     		push	{r7}
 3486              	.LCFI348:
 3487              		.cfi_def_cfa_offset 4
 3488              		.cfi_offset 7, -4
 3489 0002 85B0     		sub	sp, sp, #20
 3490              	.LCFI349:
 3491              		.cfi_def_cfa_offset 24
 3492 0004 00AF     		add	r7, sp, #0
 3493              	.LCFI350:
ARM GAS  /var/folders/n8/cvzdcwlj0vl4g_wtyz1ffy300000gn/T//ccLY5GZg.s 			page 68


 3494              		.cfi_def_cfa_register 7
 3495 0006 7860     		str	r0, [r7, #4]
 333:FT_Esd_Widgets/Ft_Esd_DemoPage__Generated.c **** 	Ft_Esd_DemoPage *context = (Ft_Esd_DemoPage *)c;
 3496              		.loc 2 333 0
 3497 0008 7B68     		ldr	r3, [r7, #4]
 3498 000a FB60     		str	r3, [r7, #12]
 334:FT_Esd_Widgets/Ft_Esd_DemoPage__Generated.c **** 	void *parent = context->Parent;
 3499              		.loc 2 334 0
 3500 000c FB68     		ldr	r3, [r7, #12]
 3501 000e 1B68     		ldr	r3, [r3]
 3502 0010 BB60     		str	r3, [r7, #8]
 335:FT_Esd_Widgets/Ft_Esd_DemoPage__Generated.c **** 	return context->ESD_SpinBox.Value;
 3503              		.loc 2 335 0
 3504 0012 FB68     		ldr	r3, [r7, #12]
 3505 0014 D3F80433 		ldr	r3, [r3, #772]
 336:FT_Esd_Widgets/Ft_Esd_DemoPage__Generated.c **** }
 3506              		.loc 2 336 0
 3507 0018 1846     		mov	r0, r3
 3508 001a 1437     		adds	r7, r7, #20
 3509              	.LCFI351:
 3510              		.cfi_def_cfa_offset 4
 3511 001c BD46     		mov	sp, r7
 3512              	.LCFI352:
 3513              		.cfi_def_cfa_register 13
 3514              		@ sp needed
 3515 001e 5DF8047B 		ldr	r7, [sp], #4
 3516              	.LCFI353:
 3517              		.cfi_restore 7
 3518              		.cfi_def_cfa_offset 0
 3519 0022 7047     		bx	lr
 3520              		.cfi_endproc
 3521              	.LFE89:
 3523              		.section	.text.Ft_Esd_DemoPage_ESD_Label_Button_Pushed__Signal,"ax",%progbits
 3524              		.align	1
 3525              		.syntax unified
 3526              		.thumb
 3527              		.thumb_func
 3528              		.fpu fpv5-sp-d16
 3530              	Ft_Esd_DemoPage_ESD_Label_Button_Pushed__Signal:
 3531              	.LFB90:
 337:FT_Esd_Widgets/Ft_Esd_DemoPage__Generated.c **** 
 338:FT_Esd_Widgets/Ft_Esd_DemoPage__Generated.c **** void Ft_Esd_DemoPage_ESD_Label_Button_Pushed__Signal(void *c)
 339:FT_Esd_Widgets/Ft_Esd_DemoPage__Generated.c **** {
 3532              		.loc 2 339 0
 3533              		.cfi_startproc
 3534              		@ args = 0, pretend = 0, frame = 16
 3535              		@ frame_needed = 1, uses_anonymous_args = 0
 3536 0000 80B5     		push	{r7, lr}
 3537              	.LCFI354:
 3538              		.cfi_def_cfa_offset 8
 3539              		.cfi_offset 7, -8
 3540              		.cfi_offset 14, -4
 3541 0002 84B0     		sub	sp, sp, #16
 3542              	.LCFI355:
 3543              		.cfi_def_cfa_offset 24
 3544 0004 00AF     		add	r7, sp, #0
 3545              	.LCFI356:
ARM GAS  /var/folders/n8/cvzdcwlj0vl4g_wtyz1ffy300000gn/T//ccLY5GZg.s 			page 69


 3546              		.cfi_def_cfa_register 7
 3547 0006 7860     		str	r0, [r7, #4]
 340:FT_Esd_Widgets/Ft_Esd_DemoPage__Generated.c **** 	Ft_Esd_DemoPage *context = (Ft_Esd_DemoPage *)c;
 3548              		.loc 2 340 0
 3549 0008 7B68     		ldr	r3, [r7, #4]
 3550 000a FB60     		str	r3, [r7, #12]
 341:FT_Esd_Widgets/Ft_Esd_DemoPage__Generated.c **** 	void *parent = context->Parent;
 3551              		.loc 2 341 0
 3552 000c FB68     		ldr	r3, [r7, #12]
 3553 000e 1B68     		ldr	r3, [r3]
 3554 0010 BB60     		str	r3, [r7, #8]
 342:FT_Esd_Widgets/Ft_Esd_DemoPage__Generated.c **** 	Ft_Esd_Toggle_Toggle(&context->ESD_Toggle_1);
 3555              		.loc 2 342 0
 3556 0012 FB68     		ldr	r3, [r7, #12]
 3557 0014 03F52273 		add	r3, r3, #648
 3558 0018 1846     		mov	r0, r3
 3559 001a FFF7FEFF 		bl	Ft_Esd_Toggle_Toggle
 343:FT_Esd_Widgets/Ft_Esd_DemoPage__Generated.c **** }
 3560              		.loc 2 343 0
 3561 001e 00BF     		nop
 3562 0020 1037     		adds	r7, r7, #16
 3563              	.LCFI357:
 3564              		.cfi_def_cfa_offset 8
 3565 0022 BD46     		mov	sp, r7
 3566              	.LCFI358:
 3567              		.cfi_def_cfa_register 13
 3568              		@ sp needed
 3569 0024 80BD     		pop	{r7, pc}
 3570              		.cfi_endproc
 3571              	.LFE90:
 3573              		.section	.text.Ft_Esd_DemoPage_ESD_NumericLabel_1_X__Property,"ax",%progbits
 3574              		.align	1
 3575              		.syntax unified
 3576              		.thumb
 3577              		.thumb_func
 3578              		.fpu fpv5-sp-d16
 3580              	Ft_Esd_DemoPage_ESD_NumericLabel_1_X__Property:
 3581              	.LFB91:
 344:FT_Esd_Widgets/Ft_Esd_DemoPage__Generated.c **** 
 345:FT_Esd_Widgets/Ft_Esd_DemoPage__Generated.c **** ft_int16_t Ft_Esd_DemoPage_ESD_NumericLabel_1_X__Property(void *c)
 346:FT_Esd_Widgets/Ft_Esd_DemoPage__Generated.c **** {
 3582              		.loc 2 346 0
 3583              		.cfi_startproc
 3584              		@ args = 0, pretend = 0, frame = 16
 3585              		@ frame_needed = 1, uses_anonymous_args = 0
 3586 0000 80B5     		push	{r7, lr}
 3587              	.LCFI359:
 3588              		.cfi_def_cfa_offset 8
 3589              		.cfi_offset 7, -8
 3590              		.cfi_offset 14, -4
 3591 0002 84B0     		sub	sp, sp, #16
 3592              	.LCFI360:
 3593              		.cfi_def_cfa_offset 24
 3594 0004 00AF     		add	r7, sp, #0
 3595              	.LCFI361:
 3596              		.cfi_def_cfa_register 7
 3597 0006 7860     		str	r0, [r7, #4]
ARM GAS  /var/folders/n8/cvzdcwlj0vl4g_wtyz1ffy300000gn/T//ccLY5GZg.s 			page 70


 347:FT_Esd_Widgets/Ft_Esd_DemoPage__Generated.c **** 	Ft_Esd_DemoPage *context = (Ft_Esd_DemoPage *)c;
 3598              		.loc 2 347 0
 3599 0008 7B68     		ldr	r3, [r7, #4]
 3600 000a FB60     		str	r3, [r7, #12]
 348:FT_Esd_Widgets/Ft_Esd_DemoPage__Generated.c **** 	void *parent = context->Parent;
 3601              		.loc 2 348 0
 3602 000c FB68     		ldr	r3, [r7, #12]
 3603 000e 1B68     		ldr	r3, [r3]
 3604 0010 BB60     		str	r3, [r7, #8]
 349:FT_Esd_Widgets/Ft_Esd_DemoPage__Generated.c **** 	return Ft_Esd_TouchTag_TouchX(&context->Touch_Tag);
 3605              		.loc 2 349 0
 3606 0012 FB68     		ldr	r3, [r7, #12]
 3607 0014 0C33     		adds	r3, r3, #12
 3608 0016 1846     		mov	r0, r3
 3609 0018 FFF7FEFF 		bl	Ft_Esd_TouchTag_TouchX
 3610 001c 0346     		mov	r3, r0
 350:FT_Esd_Widgets/Ft_Esd_DemoPage__Generated.c **** }
 3611              		.loc 2 350 0
 3612 001e 1846     		mov	r0, r3
 3613 0020 1037     		adds	r7, r7, #16
 3614              	.LCFI362:
 3615              		.cfi_def_cfa_offset 8
 3616 0022 BD46     		mov	sp, r7
 3617              	.LCFI363:
 3618              		.cfi_def_cfa_register 13
 3619              		@ sp needed
 3620 0024 80BD     		pop	{r7, pc}
 3621              		.cfi_endproc
 3622              	.LFE91:
 3624              		.section	.text.Ft_Esd_DemoPage_ESD_NumericLabel_1_Value__Property,"ax",%progbits
 3625              		.align	1
 3626              		.syntax unified
 3627              		.thumb
 3628              		.thumb_func
 3629              		.fpu fpv5-sp-d16
 3631              	Ft_Esd_DemoPage_ESD_NumericLabel_1_Value__Property:
 3632              	.LFB92:
 351:FT_Esd_Widgets/Ft_Esd_DemoPage__Generated.c **** 
 352:FT_Esd_Widgets/Ft_Esd_DemoPage__Generated.c **** ft_int32_t Ft_Esd_DemoPage_ESD_NumericLabel_1_Value__Property(void *c)
 353:FT_Esd_Widgets/Ft_Esd_DemoPage__Generated.c **** {
 3633              		.loc 2 353 0
 3634              		.cfi_startproc
 3635              		@ args = 0, pretend = 0, frame = 16
 3636              		@ frame_needed = 1, uses_anonymous_args = 0
 3637 0000 80B5     		push	{r7, lr}
 3638              	.LCFI364:
 3639              		.cfi_def_cfa_offset 8
 3640              		.cfi_offset 7, -8
 3641              		.cfi_offset 14, -4
 3642 0002 84B0     		sub	sp, sp, #16
 3643              	.LCFI365:
 3644              		.cfi_def_cfa_offset 24
 3645 0004 00AF     		add	r7, sp, #0
 3646              	.LCFI366:
 3647              		.cfi_def_cfa_register 7
 3648 0006 7860     		str	r0, [r7, #4]
 354:FT_Esd_Widgets/Ft_Esd_DemoPage__Generated.c **** 	Ft_Esd_DemoPage *context = (Ft_Esd_DemoPage *)c;
ARM GAS  /var/folders/n8/cvzdcwlj0vl4g_wtyz1ffy300000gn/T//ccLY5GZg.s 			page 71


 3649              		.loc 2 354 0
 3650 0008 7B68     		ldr	r3, [r7, #4]
 3651 000a FB60     		str	r3, [r7, #12]
 355:FT_Esd_Widgets/Ft_Esd_DemoPage__Generated.c **** 	void *parent = context->Parent;
 3652              		.loc 2 355 0
 3653 000c FB68     		ldr	r3, [r7, #12]
 3654 000e 1B68     		ldr	r3, [r3]
 3655 0010 BB60     		str	r3, [r7, #8]
 356:FT_Esd_Widgets/Ft_Esd_DemoPage__Generated.c **** 	return Ft_Esd_TouchTag_TouchX(&context->Touch_Tag);
 3656              		.loc 2 356 0
 3657 0012 FB68     		ldr	r3, [r7, #12]
 3658 0014 0C33     		adds	r3, r3, #12
 3659 0016 1846     		mov	r0, r3
 3660 0018 FFF7FEFF 		bl	Ft_Esd_TouchTag_TouchX
 3661 001c 0346     		mov	r3, r0
 357:FT_Esd_Widgets/Ft_Esd_DemoPage__Generated.c **** }
 3662              		.loc 2 357 0
 3663 001e 1846     		mov	r0, r3
 3664 0020 1037     		adds	r7, r7, #16
 3665              	.LCFI367:
 3666              		.cfi_def_cfa_offset 8
 3667 0022 BD46     		mov	sp, r7
 3668              	.LCFI368:
 3669              		.cfi_def_cfa_register 13
 3670              		@ sp needed
 3671 0024 80BD     		pop	{r7, pc}
 3672              		.cfi_endproc
 3673              	.LFE92:
 3675              		.section	.text.Ft_Esd_DemoPage_ESD_SpinBox_1_Changed__Writer,"ax",%progbits
 3676              		.align	1
 3677              		.syntax unified
 3678              		.thumb
 3679              		.thumb_func
 3680              		.fpu fpv5-sp-d16
 3682              	Ft_Esd_DemoPage_ESD_SpinBox_1_Changed__Writer:
 3683              	.LFB93:
 358:FT_Esd_Widgets/Ft_Esd_DemoPage__Generated.c **** 
 359:FT_Esd_Widgets/Ft_Esd_DemoPage__Generated.c **** void Ft_Esd_DemoPage_ESD_SpinBox_1_Changed__Writer(void *c, int value)
 360:FT_Esd_Widgets/Ft_Esd_DemoPage__Generated.c **** {
 3684              		.loc 2 360 0
 3685              		.cfi_startproc
 3686              		@ args = 0, pretend = 0, frame = 16
 3687              		@ frame_needed = 1, uses_anonymous_args = 0
 3688              		@ link register save eliminated.
 3689 0000 80B4     		push	{r7}
 3690              	.LCFI369:
 3691              		.cfi_def_cfa_offset 4
 3692              		.cfi_offset 7, -4
 3693 0002 85B0     		sub	sp, sp, #20
 3694              	.LCFI370:
 3695              		.cfi_def_cfa_offset 24
 3696 0004 00AF     		add	r7, sp, #0
 3697              	.LCFI371:
 3698              		.cfi_def_cfa_register 7
 3699 0006 7860     		str	r0, [r7, #4]
 3700 0008 3960     		str	r1, [r7]
 361:FT_Esd_Widgets/Ft_Esd_DemoPage__Generated.c **** 	Ft_Esd_DemoPage *context = (Ft_Esd_DemoPage *)c;
ARM GAS  /var/folders/n8/cvzdcwlj0vl4g_wtyz1ffy300000gn/T//ccLY5GZg.s 			page 72


 3701              		.loc 2 361 0
 3702 000a 7B68     		ldr	r3, [r7, #4]
 3703 000c FB60     		str	r3, [r7, #12]
 362:FT_Esd_Widgets/Ft_Esd_DemoPage__Generated.c **** 	void *parent = context->Parent;
 3704              		.loc 2 362 0
 3705 000e FB68     		ldr	r3, [r7, #12]
 3706 0010 1B68     		ldr	r3, [r3]
 3707 0012 BB60     		str	r3, [r7, #8]
 363:FT_Esd_Widgets/Ft_Esd_DemoPage__Generated.c **** 	context->ESD_SpinBox.Value = value;
 3708              		.loc 2 363 0
 3709 0014 FB68     		ldr	r3, [r7, #12]
 3710 0016 3A68     		ldr	r2, [r7]
 3711 0018 C3F80423 		str	r2, [r3, #772]
 364:FT_Esd_Widgets/Ft_Esd_DemoPage__Generated.c **** }
 3712              		.loc 2 364 0
 3713 001c 00BF     		nop
 3714 001e 1437     		adds	r7, r7, #20
 3715              	.LCFI372:
 3716              		.cfi_def_cfa_offset 4
 3717 0020 BD46     		mov	sp, r7
 3718              	.LCFI373:
 3719              		.cfi_def_cfa_register 13
 3720              		@ sp needed
 3721 0022 5DF8047B 		ldr	r7, [sp], #4
 3722              	.LCFI374:
 3723              		.cfi_restore 7
 3724              		.cfi_def_cfa_offset 0
 3725 0026 7047     		bx	lr
 3726              		.cfi_endproc
 3727              	.LFE93:
 3729              		.section	.text.Ft_Esd_DemoPage_ESD_NumericLabel_2_Y__Property,"ax",%progbits
 3730              		.align	1
 3731              		.syntax unified
 3732              		.thumb
 3733              		.thumb_func
 3734              		.fpu fpv5-sp-d16
 3736              	Ft_Esd_DemoPage_ESD_NumericLabel_2_Y__Property:
 3737              	.LFB94:
 365:FT_Esd_Widgets/Ft_Esd_DemoPage__Generated.c **** 
 366:FT_Esd_Widgets/Ft_Esd_DemoPage__Generated.c **** ft_int16_t Ft_Esd_DemoPage_ESD_NumericLabel_2_Y__Property(void *c)
 367:FT_Esd_Widgets/Ft_Esd_DemoPage__Generated.c **** {
 3738              		.loc 2 367 0
 3739              		.cfi_startproc
 3740              		@ args = 0, pretend = 0, frame = 16
 3741              		@ frame_needed = 1, uses_anonymous_args = 0
 3742 0000 80B5     		push	{r7, lr}
 3743              	.LCFI375:
 3744              		.cfi_def_cfa_offset 8
 3745              		.cfi_offset 7, -8
 3746              		.cfi_offset 14, -4
 3747 0002 84B0     		sub	sp, sp, #16
 3748              	.LCFI376:
 3749              		.cfi_def_cfa_offset 24
 3750 0004 00AF     		add	r7, sp, #0
 3751              	.LCFI377:
 3752              		.cfi_def_cfa_register 7
 3753 0006 7860     		str	r0, [r7, #4]
ARM GAS  /var/folders/n8/cvzdcwlj0vl4g_wtyz1ffy300000gn/T//ccLY5GZg.s 			page 73


 368:FT_Esd_Widgets/Ft_Esd_DemoPage__Generated.c **** 	Ft_Esd_DemoPage *context = (Ft_Esd_DemoPage *)c;
 3754              		.loc 2 368 0
 3755 0008 7B68     		ldr	r3, [r7, #4]
 3756 000a FB60     		str	r3, [r7, #12]
 369:FT_Esd_Widgets/Ft_Esd_DemoPage__Generated.c **** 	void *parent = context->Parent;
 3757              		.loc 2 369 0
 3758 000c FB68     		ldr	r3, [r7, #12]
 3759 000e 1B68     		ldr	r3, [r3]
 3760 0010 BB60     		str	r3, [r7, #8]
 370:FT_Esd_Widgets/Ft_Esd_DemoPage__Generated.c **** 	return Ft_Esd_TouchTag_TouchY(&context->Touch_Tag);
 3761              		.loc 2 370 0
 3762 0012 FB68     		ldr	r3, [r7, #12]
 3763 0014 0C33     		adds	r3, r3, #12
 3764 0016 1846     		mov	r0, r3
 3765 0018 FFF7FEFF 		bl	Ft_Esd_TouchTag_TouchY
 3766 001c 0346     		mov	r3, r0
 371:FT_Esd_Widgets/Ft_Esd_DemoPage__Generated.c **** }
 3767              		.loc 2 371 0
 3768 001e 1846     		mov	r0, r3
 3769 0020 1037     		adds	r7, r7, #16
 3770              	.LCFI378:
 3771              		.cfi_def_cfa_offset 8
 3772 0022 BD46     		mov	sp, r7
 3773              	.LCFI379:
 3774              		.cfi_def_cfa_register 13
 3775              		@ sp needed
 3776 0024 80BD     		pop	{r7, pc}
 3777              		.cfi_endproc
 3778              	.LFE94:
 3780              		.section	.text.Ft_Esd_DemoPage_ESD_NumericLabel_2_Value__Property,"ax",%progbits
 3781              		.align	1
 3782              		.syntax unified
 3783              		.thumb
 3784              		.thumb_func
 3785              		.fpu fpv5-sp-d16
 3787              	Ft_Esd_DemoPage_ESD_NumericLabel_2_Value__Property:
 3788              	.LFB95:
 372:FT_Esd_Widgets/Ft_Esd_DemoPage__Generated.c **** 
 373:FT_Esd_Widgets/Ft_Esd_DemoPage__Generated.c **** ft_int32_t Ft_Esd_DemoPage_ESD_NumericLabel_2_Value__Property(void *c)
 374:FT_Esd_Widgets/Ft_Esd_DemoPage__Generated.c **** {
 3789              		.loc 2 374 0
 3790              		.cfi_startproc
 3791              		@ args = 0, pretend = 0, frame = 16
 3792              		@ frame_needed = 1, uses_anonymous_args = 0
 3793 0000 80B5     		push	{r7, lr}
 3794              	.LCFI380:
 3795              		.cfi_def_cfa_offset 8
 3796              		.cfi_offset 7, -8
 3797              		.cfi_offset 14, -4
 3798 0002 84B0     		sub	sp, sp, #16
 3799              	.LCFI381:
 3800              		.cfi_def_cfa_offset 24
 3801 0004 00AF     		add	r7, sp, #0
 3802              	.LCFI382:
 3803              		.cfi_def_cfa_register 7
 3804 0006 7860     		str	r0, [r7, #4]
 375:FT_Esd_Widgets/Ft_Esd_DemoPage__Generated.c **** 	Ft_Esd_DemoPage *context = (Ft_Esd_DemoPage *)c;
ARM GAS  /var/folders/n8/cvzdcwlj0vl4g_wtyz1ffy300000gn/T//ccLY5GZg.s 			page 74


 3805              		.loc 2 375 0
 3806 0008 7B68     		ldr	r3, [r7, #4]
 3807 000a FB60     		str	r3, [r7, #12]
 376:FT_Esd_Widgets/Ft_Esd_DemoPage__Generated.c **** 	void *parent = context->Parent;
 3808              		.loc 2 376 0
 3809 000c FB68     		ldr	r3, [r7, #12]
 3810 000e 1B68     		ldr	r3, [r3]
 3811 0010 BB60     		str	r3, [r7, #8]
 377:FT_Esd_Widgets/Ft_Esd_DemoPage__Generated.c **** 	return Ft_Esd_TouchTag_TouchY(&context->Touch_Tag);
 3812              		.loc 2 377 0
 3813 0012 FB68     		ldr	r3, [r7, #12]
 3814 0014 0C33     		adds	r3, r3, #12
 3815 0016 1846     		mov	r0, r3
 3816 0018 FFF7FEFF 		bl	Ft_Esd_TouchTag_TouchY
 3817 001c 0346     		mov	r3, r0
 378:FT_Esd_Widgets/Ft_Esd_DemoPage__Generated.c **** }
 3818              		.loc 2 378 0
 3819 001e 1846     		mov	r0, r3
 3820 0020 1037     		adds	r7, r7, #16
 3821              	.LCFI383:
 3822              		.cfi_def_cfa_offset 8
 3823 0022 BD46     		mov	sp, r7
 3824              	.LCFI384:
 3825              		.cfi_def_cfa_register 13
 3826              		@ sp needed
 3827 0024 80BD     		pop	{r7, pc}
 3828              		.cfi_endproc
 3829              	.LFE95:
 3831              		.text
 3832              	.Letext0:
 3833              		.file 3 "FT_Eve_Hal/FT_DataTypes.h"
 3834              		.file 4 "/usr/local/Cellar/arm-none-eabi-gcc/20180627/arm-none-eabi/include/machine/_default_types
 3835              		.file 5 "/usr/local/Cellar/arm-none-eabi-gcc/20180627/arm-none-eabi/include/sys/lock.h"
 3836              		.file 6 "/usr/local/Cellar/arm-none-eabi-gcc/20180627/arm-none-eabi/include/sys/_types.h"
 3837              		.file 7 "/usr/local/Cellar/arm-none-eabi-gcc/20180627/lib/gcc/arm-none-eabi/7.3.1/include/stddef.h
 3838              		.file 8 "/usr/local/Cellar/arm-none-eabi-gcc/20180627/arm-none-eabi/include/sys/_stdint.h"
 3839              		.file 9 "/usr/local/Cellar/arm-none-eabi-gcc/20180627/arm-none-eabi/include/sys/unistd.h"
 3840              		.file 10 "/usr/local/Cellar/arm-none-eabi-gcc/20180627/arm-none-eabi/include/sys/reent.h"
 3841              		.file 11 "/usr/local/Cellar/arm-none-eabi-gcc/20180627/arm-none-eabi/include/stdlib.h"
 3842              		.file 12 "FT_Eve_Hal/FT_Gpu_Hal.h"
 3843              		.file 13 "FT_Esd_Framework/Ft_Esd.h"
 3844              		.file 14 "FT_Esd_Widgets/FT_Esd_Theme.h"
 3845              		.file 15 "FT_Esd_Widgets/Ft_Esd_DefaultTheme.h"
 3846              		.file 16 "FT_Esd_Widgets/Ft_Esd_PosSizeToRadius.h"
 3847              		.file 17 "FT_Esd_Framework/Ft_Esd_TouchTag.h"
 3848              		.file 18 "FT_Esd_Widgets/Ft_Esd_Clock.h"
 3849              		.file 19 "FT_Esd_Widgets/Ft_Esd_Gauge.h"
 3850              		.file 20 "FT_Esd_Widgets/Ft_Esd_Label.h"
 3851              		.file 21 "FT_Esd_Widgets/Ft_Esd_LabelButton.h"
 3852              		.file 22 "FT_Esd_Widgets/Ft_Esd_NumericLabel.h"
 3853              		.file 23 "FT_Esd_Widgets/Ft_Esd_ProgressBar.h"
 3854              		.file 24 "FT_Esd_Widgets/Ft_Esd_PushButton.h"
 3855              		.file 25 "FT_Esd_Framework/Ft_Esd_GpuAlloc.h"
 3856              		.file 26 "FT_Esd_Framework/FT_Esd_Dl.h"
 3857              		.file 27 "FT_Esd_Widgets/Ft_Esd_Rectangle.h"
 3858              		.file 28 "FT_Esd_Widgets/LayoutMargin.h"
 3859              		.file 29 "FT_Esd_Widgets/LayoutSplit.h"
ARM GAS  /var/folders/n8/cvzdcwlj0vl4g_wtyz1ffy300000gn/T//ccLY5GZg.s 			page 75


 3860              		.file 30 "FT_Esd_Widgets/Ft_Esd_SpinBox.h"
 3861              		.file 31 "FT_Esd_Widgets/Ft_Esd_Toggle.h"
 3862              		.file 32 "FT_Esd_Widgets/SwitchBool.h"
 3863              		.file 33 "FT_Esd_Widgets/Ft_Esd_DemoPage.h"
ARM GAS  /var/folders/n8/cvzdcwlj0vl4g_wtyz1ffy300000gn/T//ccLY5GZg.s 			page 76

