ARM GAS  /var/folders/n8/cvzdcwlj0vl4g_wtyz1ffy300000gn/T//ccRqvyfB.s 			page 1


   1              		.cpu cortex-m7
   2              		.eabi_attribute 27, 1
   3              		.eabi_attribute 28, 1
   4              		.eabi_attribute 20, 1
   5              		.eabi_attribute 21, 1
   6              		.eabi_attribute 23, 3
   7              		.eabi_attribute 24, 1
   8              		.eabi_attribute 25, 1
   9              		.eabi_attribute 26, 1
  10              		.eabi_attribute 30, 6
  11              		.eabi_attribute 34, 1
  12              		.eabi_attribute 18, 4
  13              		.file	"LayoutSplit__Generated.c"
  14              		.text
  15              	.Ltext0:
  16              		.cfi_sections	.debug_frame
  17              		.section	.text.LayoutSplit_Pos__Default,"ax",%progbits
  18              		.align	1
  19              		.global	LayoutSplit_Pos__Default
  20              		.syntax unified
  21              		.thumb
  22              		.thumb_func
  23              		.fpu fpv5-sp-d16
  25              	LayoutSplit_Pos__Default:
  26              	.LFB3:
  27              		.file 1 "FT_Esd_Widgets/LayoutSplit__Generated.c"
   1:FT_Esd_Widgets/LayoutSplit__Generated.c **** /*
   2:FT_Esd_Widgets/LayoutSplit__Generated.c **** This file is automatically generated
   3:FT_Esd_Widgets/LayoutSplit__Generated.c **** LayoutSplit
   4:FT_Esd_Widgets/LayoutSplit__Generated.c **** C Source
   5:FT_Esd_Widgets/LayoutSplit__Generated.c **** */
   6:FT_Esd_Widgets/LayoutSplit__Generated.c **** 
   7:FT_Esd_Widgets/LayoutSplit__Generated.c **** #include "LayoutSplit.h"
   8:FT_Esd_Widgets/LayoutSplit__Generated.c **** 
   9:FT_Esd_Widgets/LayoutSplit__Generated.c **** extern void Ft_Esd_Noop(void *context);
  10:FT_Esd_Widgets/LayoutSplit__Generated.c **** int LayoutSplit_Pos__Default(void *context) { return 0L; }
  28              		.loc 1 10 0
  29              		.cfi_startproc
  30              		@ args = 0, pretend = 0, frame = 8
  31              		@ frame_needed = 1, uses_anonymous_args = 0
  32              		@ link register save eliminated.
  33 0000 80B4     		push	{r7}
  34              	.LCFI0:
  35              		.cfi_def_cfa_offset 4
  36              		.cfi_offset 7, -4
  37 0002 83B0     		sub	sp, sp, #12
  38              	.LCFI1:
  39              		.cfi_def_cfa_offset 16
  40 0004 00AF     		add	r7, sp, #0
  41              	.LCFI2:
  42              		.cfi_def_cfa_register 7
  43 0006 7860     		str	r0, [r7, #4]
  44              		.loc 1 10 0
  45 0008 0023     		movs	r3, #0
  46 000a 1846     		mov	r0, r3
  47 000c 0C37     		adds	r7, r7, #12
  48              	.LCFI3:
ARM GAS  /var/folders/n8/cvzdcwlj0vl4g_wtyz1ffy300000gn/T//ccRqvyfB.s 			page 2


  49              		.cfi_def_cfa_offset 4
  50 000e BD46     		mov	sp, r7
  51              	.LCFI4:
  52              		.cfi_def_cfa_register 13
  53              		@ sp needed
  54 0010 5DF8047B 		ldr	r7, [sp], #4
  55              	.LCFI5:
  56              		.cfi_restore 7
  57              		.cfi_def_cfa_offset 0
  58 0014 7047     		bx	lr
  59              		.cfi_endproc
  60              	.LFE3:
  62              		.section	.text.LayoutSplit_Length__Default,"ax",%progbits
  63              		.align	1
  64              		.global	LayoutSplit_Length__Default
  65              		.syntax unified
  66              		.thumb
  67              		.thumb_func
  68              		.fpu fpv5-sp-d16
  70              	LayoutSplit_Length__Default:
  71              	.LFB4:
  11:FT_Esd_Widgets/LayoutSplit__Generated.c **** int LayoutSplit_Length__Default(void *context) { return 0L; }
  72              		.loc 1 11 0
  73              		.cfi_startproc
  74              		@ args = 0, pretend = 0, frame = 8
  75              		@ frame_needed = 1, uses_anonymous_args = 0
  76              		@ link register save eliminated.
  77 0000 80B4     		push	{r7}
  78              	.LCFI6:
  79              		.cfi_def_cfa_offset 4
  80              		.cfi_offset 7, -4
  81 0002 83B0     		sub	sp, sp, #12
  82              	.LCFI7:
  83              		.cfi_def_cfa_offset 16
  84 0004 00AF     		add	r7, sp, #0
  85              	.LCFI8:
  86              		.cfi_def_cfa_register 7
  87 0006 7860     		str	r0, [r7, #4]
  88              		.loc 1 11 0
  89 0008 0023     		movs	r3, #0
  90 000a 1846     		mov	r0, r3
  91 000c 0C37     		adds	r7, r7, #12
  92              	.LCFI9:
  93              		.cfi_def_cfa_offset 4
  94 000e BD46     		mov	sp, r7
  95              	.LCFI10:
  96              		.cfi_def_cfa_register 13
  97              		@ sp needed
  98 0010 5DF8047B 		ldr	r7, [sp], #4
  99              	.LCFI11:
 100              		.cfi_restore 7
 101              		.cfi_def_cfa_offset 0
 102 0014 7047     		bx	lr
 103              		.cfi_endproc
 104              	.LFE4:
 106              		.section	.text.LayoutSplit_Numerator__Default,"ax",%progbits
 107              		.align	1
ARM GAS  /var/folders/n8/cvzdcwlj0vl4g_wtyz1ffy300000gn/T//ccRqvyfB.s 			page 3


 108              		.global	LayoutSplit_Numerator__Default
 109              		.syntax unified
 110              		.thumb
 111              		.thumb_func
 112              		.fpu fpv5-sp-d16
 114              	LayoutSplit_Numerator__Default:
 115              	.LFB5:
  12:FT_Esd_Widgets/LayoutSplit__Generated.c **** int LayoutSplit_Numerator__Default(void *context) { return 50L; }
 116              		.loc 1 12 0
 117              		.cfi_startproc
 118              		@ args = 0, pretend = 0, frame = 8
 119              		@ frame_needed = 1, uses_anonymous_args = 0
 120              		@ link register save eliminated.
 121 0000 80B4     		push	{r7}
 122              	.LCFI12:
 123              		.cfi_def_cfa_offset 4
 124              		.cfi_offset 7, -4
 125 0002 83B0     		sub	sp, sp, #12
 126              	.LCFI13:
 127              		.cfi_def_cfa_offset 16
 128 0004 00AF     		add	r7, sp, #0
 129              	.LCFI14:
 130              		.cfi_def_cfa_register 7
 131 0006 7860     		str	r0, [r7, #4]
 132              		.loc 1 12 0
 133 0008 3223     		movs	r3, #50
 134 000a 1846     		mov	r0, r3
 135 000c 0C37     		adds	r7, r7, #12
 136              	.LCFI15:
 137              		.cfi_def_cfa_offset 4
 138 000e BD46     		mov	sp, r7
 139              	.LCFI16:
 140              		.cfi_def_cfa_register 13
 141              		@ sp needed
 142 0010 5DF8047B 		ldr	r7, [sp], #4
 143              	.LCFI17:
 144              		.cfi_restore 7
 145              		.cfi_def_cfa_offset 0
 146 0014 7047     		bx	lr
 147              		.cfi_endproc
 148              	.LFE5:
 150              		.section	.text.LayoutSplit_Denominator__Default,"ax",%progbits
 151              		.align	1
 152              		.global	LayoutSplit_Denominator__Default
 153              		.syntax unified
 154              		.thumb
 155              		.thumb_func
 156              		.fpu fpv5-sp-d16
 158              	LayoutSplit_Denominator__Default:
 159              	.LFB6:
  13:FT_Esd_Widgets/LayoutSplit__Generated.c **** int LayoutSplit_Denominator__Default(void *context) { return 0L; }
 160              		.loc 1 13 0
 161              		.cfi_startproc
 162              		@ args = 0, pretend = 0, frame = 8
 163              		@ frame_needed = 1, uses_anonymous_args = 0
 164              		@ link register save eliminated.
 165 0000 80B4     		push	{r7}
ARM GAS  /var/folders/n8/cvzdcwlj0vl4g_wtyz1ffy300000gn/T//ccRqvyfB.s 			page 4


 166              	.LCFI18:
 167              		.cfi_def_cfa_offset 4
 168              		.cfi_offset 7, -4
 169 0002 83B0     		sub	sp, sp, #12
 170              	.LCFI19:
 171              		.cfi_def_cfa_offset 16
 172 0004 00AF     		add	r7, sp, #0
 173              	.LCFI20:
 174              		.cfi_def_cfa_register 7
 175 0006 7860     		str	r0, [r7, #4]
 176              		.loc 1 13 0
 177 0008 0023     		movs	r3, #0
 178 000a 1846     		mov	r0, r3
 179 000c 0C37     		adds	r7, r7, #12
 180              	.LCFI21:
 181              		.cfi_def_cfa_offset 4
 182 000e BD46     		mov	sp, r7
 183              	.LCFI22:
 184              		.cfi_def_cfa_register 13
 185              		@ sp needed
 186 0010 5DF8047B 		ldr	r7, [sp], #4
 187              	.LCFI23:
 188              		.cfi_restore 7
 189              		.cfi_def_cfa_offset 0
 190 0014 7047     		bx	lr
 191              		.cfi_endproc
 192              	.LFE6:
 194              		.section	.text.LayoutSplit_Margin__Default,"ax",%progbits
 195              		.align	1
 196              		.global	LayoutSplit_Margin__Default
 197              		.syntax unified
 198              		.thumb
 199              		.thumb_func
 200              		.fpu fpv5-sp-d16
 202              	LayoutSplit_Margin__Default:
 203              	.LFB7:
  14:FT_Esd_Widgets/LayoutSplit__Generated.c **** int LayoutSplit_Margin__Default(void *context) { return 4L; }
 204              		.loc 1 14 0
 205              		.cfi_startproc
 206              		@ args = 0, pretend = 0, frame = 8
 207              		@ frame_needed = 1, uses_anonymous_args = 0
 208              		@ link register save eliminated.
 209 0000 80B4     		push	{r7}
 210              	.LCFI24:
 211              		.cfi_def_cfa_offset 4
 212              		.cfi_offset 7, -4
 213 0002 83B0     		sub	sp, sp, #12
 214              	.LCFI25:
 215              		.cfi_def_cfa_offset 16
 216 0004 00AF     		add	r7, sp, #0
 217              	.LCFI26:
 218              		.cfi_def_cfa_register 7
 219 0006 7860     		str	r0, [r7, #4]
 220              		.loc 1 14 0
 221 0008 0423     		movs	r3, #4
 222 000a 1846     		mov	r0, r3
 223 000c 0C37     		adds	r7, r7, #12
ARM GAS  /var/folders/n8/cvzdcwlj0vl4g_wtyz1ffy300000gn/T//ccRqvyfB.s 			page 5


 224              	.LCFI27:
 225              		.cfi_def_cfa_offset 4
 226 000e BD46     		mov	sp, r7
 227              	.LCFI28:
 228              		.cfi_def_cfa_register 13
 229              		@ sp needed
 230 0010 5DF8047B 		ldr	r7, [sp], #4
 231              	.LCFI29:
 232              		.cfi_restore 7
 233              		.cfi_def_cfa_offset 0
 234 0014 7047     		bx	lr
 235              		.cfi_endproc
 236              	.LFE7:
 238              		.section	.text.LayoutSplit__Initializer,"ax",%progbits
 239              		.align	1
 240              		.global	LayoutSplit__Initializer
 241              		.syntax unified
 242              		.thumb
 243              		.thumb_func
 244              		.fpu fpv5-sp-d16
 246              	LayoutSplit__Initializer:
 247              	.LFB8:
  15:FT_Esd_Widgets/LayoutSplit__Generated.c **** 
  16:FT_Esd_Widgets/LayoutSplit__Generated.c **** 
  17:FT_Esd_Widgets/LayoutSplit__Generated.c **** 
  18:FT_Esd_Widgets/LayoutSplit__Generated.c **** void LayoutSplit__Initializer(LayoutSplit *context)
  19:FT_Esd_Widgets/LayoutSplit__Generated.c **** {
 248              		.loc 1 19 0
 249              		.cfi_startproc
 250              		@ args = 0, pretend = 0, frame = 8
 251              		@ frame_needed = 1, uses_anonymous_args = 0
 252              		@ link register save eliminated.
 253 0000 80B4     		push	{r7}
 254              	.LCFI30:
 255              		.cfi_def_cfa_offset 4
 256              		.cfi_offset 7, -4
 257 0002 83B0     		sub	sp, sp, #12
 258              	.LCFI31:
 259              		.cfi_def_cfa_offset 16
 260 0004 00AF     		add	r7, sp, #0
 261              	.LCFI32:
 262              		.cfi_def_cfa_register 7
 263 0006 7860     		str	r0, [r7, #4]
  20:FT_Esd_Widgets/LayoutSplit__Generated.c **** 	context->Parent = 0;
 264              		.loc 1 20 0
 265 0008 7B68     		ldr	r3, [r7, #4]
 266 000a 0022     		movs	r2, #0
 267 000c 1A60     		str	r2, [r3]
  21:FT_Esd_Widgets/LayoutSplit__Generated.c **** 	context->Pos = LayoutSplit_Pos__Default;
 268              		.loc 1 21 0
 269 000e 7B68     		ldr	r3, [r7, #4]
 270 0010 094A     		ldr	r2, .L12
 271 0012 5A60     		str	r2, [r3, #4]
  22:FT_Esd_Widgets/LayoutSplit__Generated.c **** 	context->Length = LayoutSplit_Length__Default;
 272              		.loc 1 22 0
 273 0014 7B68     		ldr	r3, [r7, #4]
 274 0016 094A     		ldr	r2, .L12+4
ARM GAS  /var/folders/n8/cvzdcwlj0vl4g_wtyz1ffy300000gn/T//ccRqvyfB.s 			page 6


 275 0018 9A60     		str	r2, [r3, #8]
  23:FT_Esd_Widgets/LayoutSplit__Generated.c **** 	context->Numerator = LayoutSplit_Numerator__Default;
 276              		.loc 1 23 0
 277 001a 7B68     		ldr	r3, [r7, #4]
 278 001c 084A     		ldr	r2, .L12+8
 279 001e DA60     		str	r2, [r3, #12]
  24:FT_Esd_Widgets/LayoutSplit__Generated.c **** 	context->Denominator = LayoutSplit_Denominator__Default;
 280              		.loc 1 24 0
 281 0020 7B68     		ldr	r3, [r7, #4]
 282 0022 084A     		ldr	r2, .L12+12
 283 0024 1A61     		str	r2, [r3, #16]
  25:FT_Esd_Widgets/LayoutSplit__Generated.c **** 	context->Margin = LayoutSplit_Margin__Default;
 284              		.loc 1 25 0
 285 0026 7B68     		ldr	r3, [r7, #4]
 286 0028 074A     		ldr	r2, .L12+16
 287 002a 5A61     		str	r2, [r3, #20]
  26:FT_Esd_Widgets/LayoutSplit__Generated.c **** }
 288              		.loc 1 26 0
 289 002c 00BF     		nop
 290 002e 0C37     		adds	r7, r7, #12
 291              	.LCFI33:
 292              		.cfi_def_cfa_offset 4
 293 0030 BD46     		mov	sp, r7
 294              	.LCFI34:
 295              		.cfi_def_cfa_register 13
 296              		@ sp needed
 297 0032 5DF8047B 		ldr	r7, [sp], #4
 298              	.LCFI35:
 299              		.cfi_restore 7
 300              		.cfi_def_cfa_offset 0
 301 0036 7047     		bx	lr
 302              	.L13:
 303              		.align	2
 304              	.L12:
 305 0038 00000000 		.word	LayoutSplit_Pos__Default
 306 003c 00000000 		.word	LayoutSplit_Length__Default
 307 0040 00000000 		.word	LayoutSplit_Numerator__Default
 308 0044 00000000 		.word	LayoutSplit_Denominator__Default
 309 0048 00000000 		.word	LayoutSplit_Margin__Default
 310              		.cfi_endproc
 311              	.LFE8:
 313              		.section	.text.LayoutSplit_FirstPos,"ax",%progbits
 314              		.align	1
 315              		.global	LayoutSplit_FirstPos
 316              		.syntax unified
 317              		.thumb
 318              		.thumb_func
 319              		.fpu fpv5-sp-d16
 321              	LayoutSplit_FirstPos:
 322              	.LFB9:
  27:FT_Esd_Widgets/LayoutSplit__Generated.c **** 
  28:FT_Esd_Widgets/LayoutSplit__Generated.c **** int LayoutSplit_FirstPos(LayoutSplit *context)
  29:FT_Esd_Widgets/LayoutSplit__Generated.c **** {
 323              		.loc 1 29 0
 324              		.cfi_startproc
 325              		@ args = 0, pretend = 0, frame = 16
 326              		@ frame_needed = 1, uses_anonymous_args = 0
ARM GAS  /var/folders/n8/cvzdcwlj0vl4g_wtyz1ffy300000gn/T//ccRqvyfB.s 			page 7


 327 0000 80B5     		push	{r7, lr}
 328              	.LCFI36:
 329              		.cfi_def_cfa_offset 8
 330              		.cfi_offset 7, -8
 331              		.cfi_offset 14, -4
 332 0002 84B0     		sub	sp, sp, #16
 333              	.LCFI37:
 334              		.cfi_def_cfa_offset 24
 335 0004 00AF     		add	r7, sp, #0
 336              	.LCFI38:
 337              		.cfi_def_cfa_register 7
 338 0006 7860     		str	r0, [r7, #4]
  30:FT_Esd_Widgets/LayoutSplit__Generated.c **** 	void *parent = context->Parent;
 339              		.loc 1 30 0
 340 0008 7B68     		ldr	r3, [r7, #4]
 341 000a 1B68     		ldr	r3, [r3]
 342 000c FB60     		str	r3, [r7, #12]
  31:FT_Esd_Widgets/LayoutSplit__Generated.c **** 	return context->Pos(parent);
 343              		.loc 1 31 0
 344 000e 7B68     		ldr	r3, [r7, #4]
 345 0010 5B68     		ldr	r3, [r3, #4]
 346 0012 F868     		ldr	r0, [r7, #12]
 347 0014 9847     		blx	r3
 348              	.LVL0:
 349 0016 0346     		mov	r3, r0
  32:FT_Esd_Widgets/LayoutSplit__Generated.c **** }
 350              		.loc 1 32 0
 351 0018 1846     		mov	r0, r3
 352 001a 1037     		adds	r7, r7, #16
 353              	.LCFI39:
 354              		.cfi_def_cfa_offset 8
 355 001c BD46     		mov	sp, r7
 356              	.LCFI40:
 357              		.cfi_def_cfa_register 13
 358              		@ sp needed
 359 001e 80BD     		pop	{r7, pc}
 360              		.cfi_endproc
 361              	.LFE9:
 363              		.section	.text.LayoutSplit_SecondPos,"ax",%progbits
 364              		.align	1
 365              		.global	LayoutSplit_SecondPos
 366              		.syntax unified
 367              		.thumb
 368              		.thumb_func
 369              		.fpu fpv5-sp-d16
 371              	LayoutSplit_SecondPos:
 372              	.LFB10:
  33:FT_Esd_Widgets/LayoutSplit__Generated.c **** 
  34:FT_Esd_Widgets/LayoutSplit__Generated.c **** int LayoutSplit_SecondPos(LayoutSplit *context)
  35:FT_Esd_Widgets/LayoutSplit__Generated.c **** {
 373              		.loc 1 35 0
 374              		.cfi_startproc
 375              		@ args = 0, pretend = 0, frame = 48
 376              		@ frame_needed = 1, uses_anonymous_args = 0
 377 0000 80B5     		push	{r7, lr}
 378              	.LCFI41:
 379              		.cfi_def_cfa_offset 8
ARM GAS  /var/folders/n8/cvzdcwlj0vl4g_wtyz1ffy300000gn/T//ccRqvyfB.s 			page 8


 380              		.cfi_offset 7, -8
 381              		.cfi_offset 14, -4
 382 0002 8CB0     		sub	sp, sp, #48
 383              	.LCFI42:
 384              		.cfi_def_cfa_offset 56
 385 0004 00AF     		add	r7, sp, #0
 386              	.LCFI43:
 387              		.cfi_def_cfa_register 7
 388 0006 7860     		str	r0, [r7, #4]
  36:FT_Esd_Widgets/LayoutSplit__Generated.c **** 	void *parent = context->Parent;
 389              		.loc 1 36 0
 390 0008 7B68     		ldr	r3, [r7, #4]
 391 000a 1B68     		ldr	r3, [r3]
 392 000c FB62     		str	r3, [r7, #44]
  37:FT_Esd_Widgets/LayoutSplit__Generated.c **** 	int left_1 = context->Pos(parent);
 393              		.loc 1 37 0
 394 000e 7B68     		ldr	r3, [r7, #4]
 395 0010 5B68     		ldr	r3, [r3, #4]
 396 0012 F86A     		ldr	r0, [r7, #44]
 397 0014 9847     		blx	r3
 398              	.LVL1:
 399 0016 B862     		str	r0, [r7, #40]
  38:FT_Esd_Widgets/LayoutSplit__Generated.c **** 	int left_3 = context->Length(parent);
 400              		.loc 1 38 0
 401 0018 7B68     		ldr	r3, [r7, #4]
 402 001a 9B68     		ldr	r3, [r3, #8]
 403 001c F86A     		ldr	r0, [r7, #44]
 404 001e 9847     		blx	r3
 405              	.LVL2:
 406 0020 7862     		str	r0, [r7, #36]
  39:FT_Esd_Widgets/LayoutSplit__Generated.c **** 	int right_1 = context->Numerator(parent);
 407              		.loc 1 39 0
 408 0022 7B68     		ldr	r3, [r7, #4]
 409 0024 DB68     		ldr	r3, [r3, #12]
 410 0026 F86A     		ldr	r0, [r7, #44]
 411 0028 9847     		blx	r3
 412              	.LVL3:
 413 002a 3862     		str	r0, [r7, #32]
  40:FT_Esd_Widgets/LayoutSplit__Generated.c **** 	int left_2 = left_3 * right_1;
 414              		.loc 1 40 0
 415 002c 7B6A     		ldr	r3, [r7, #36]
 416 002e 3A6A     		ldr	r2, [r7, #32]
 417 0030 02FB03F3 		mul	r3, r2, r3
 418 0034 FB61     		str	r3, [r7, #28]
  41:FT_Esd_Widgets/LayoutSplit__Generated.c **** 	int right_2 = context->Denominator(parent);
 419              		.loc 1 41 0
 420 0036 7B68     		ldr	r3, [r7, #4]
 421 0038 1B69     		ldr	r3, [r3, #16]
 422 003a F86A     		ldr	r0, [r7, #44]
 423 003c 9847     		blx	r3
 424              	.LVL4:
 425 003e B861     		str	r0, [r7, #24]
  42:FT_Esd_Widgets/LayoutSplit__Generated.c **** 	int right = left_2 / right_2;
 426              		.loc 1 42 0
 427 0040 FA69     		ldr	r2, [r7, #28]
 428 0042 BB69     		ldr	r3, [r7, #24]
 429 0044 92FBF3F3 		sdiv	r3, r2, r3
ARM GAS  /var/folders/n8/cvzdcwlj0vl4g_wtyz1ffy300000gn/T//ccRqvyfB.s 			page 9


 430 0048 7B61     		str	r3, [r7, #20]
  43:FT_Esd_Widgets/LayoutSplit__Generated.c **** 	int left = left_1 + right;
 431              		.loc 1 43 0
 432 004a BA6A     		ldr	r2, [r7, #40]
 433 004c 7B69     		ldr	r3, [r7, #20]
 434 004e 1344     		add	r3, r3, r2
 435 0050 3B61     		str	r3, [r7, #16]
  44:FT_Esd_Widgets/LayoutSplit__Generated.c **** 	int right_3 = context->Margin(parent);
 436              		.loc 1 44 0
 437 0052 7B68     		ldr	r3, [r7, #4]
 438 0054 5B69     		ldr	r3, [r3, #20]
 439 0056 F86A     		ldr	r0, [r7, #44]
 440 0058 9847     		blx	r3
 441              	.LVL5:
 442 005a F860     		str	r0, [r7, #12]
  45:FT_Esd_Widgets/LayoutSplit__Generated.c **** 	return left + right_3;
 443              		.loc 1 45 0
 444 005c 3A69     		ldr	r2, [r7, #16]
 445 005e FB68     		ldr	r3, [r7, #12]
 446 0060 1344     		add	r3, r3, r2
  46:FT_Esd_Widgets/LayoutSplit__Generated.c **** }
 447              		.loc 1 46 0
 448 0062 1846     		mov	r0, r3
 449 0064 3037     		adds	r7, r7, #48
 450              	.LCFI44:
 451              		.cfi_def_cfa_offset 8
 452 0066 BD46     		mov	sp, r7
 453              	.LCFI45:
 454              		.cfi_def_cfa_register 13
 455              		@ sp needed
 456 0068 80BD     		pop	{r7, pc}
 457              		.cfi_endproc
 458              	.LFE10:
 460              		.section	.text.LayoutSplit_FirstLength,"ax",%progbits
 461              		.align	1
 462              		.global	LayoutSplit_FirstLength
 463              		.syntax unified
 464              		.thumb
 465              		.thumb_func
 466              		.fpu fpv5-sp-d16
 468              	LayoutSplit_FirstLength:
 469              	.LFB11:
  47:FT_Esd_Widgets/LayoutSplit__Generated.c **** 
  48:FT_Esd_Widgets/LayoutSplit__Generated.c **** int LayoutSplit_FirstLength(LayoutSplit *context)
  49:FT_Esd_Widgets/LayoutSplit__Generated.c **** {
 470              		.loc 1 49 0
 471              		.cfi_startproc
 472              		@ args = 0, pretend = 0, frame = 48
 473              		@ frame_needed = 1, uses_anonymous_args = 0
 474 0000 80B5     		push	{r7, lr}
 475              	.LCFI46:
 476              		.cfi_def_cfa_offset 8
 477              		.cfi_offset 7, -8
 478              		.cfi_offset 14, -4
 479 0002 8CB0     		sub	sp, sp, #48
 480              	.LCFI47:
 481              		.cfi_def_cfa_offset 56
ARM GAS  /var/folders/n8/cvzdcwlj0vl4g_wtyz1ffy300000gn/T//ccRqvyfB.s 			page 10


 482 0004 00AF     		add	r7, sp, #0
 483              	.LCFI48:
 484              		.cfi_def_cfa_register 7
 485 0006 7860     		str	r0, [r7, #4]
  50:FT_Esd_Widgets/LayoutSplit__Generated.c **** 	void *parent = context->Parent;
 486              		.loc 1 50 0
 487 0008 7B68     		ldr	r3, [r7, #4]
 488 000a 1B68     		ldr	r3, [r3]
 489 000c FB62     		str	r3, [r7, #44]
  51:FT_Esd_Widgets/LayoutSplit__Generated.c **** 	int left_6 = context->Length(parent);
 490              		.loc 1 51 0
 491 000e 7B68     		ldr	r3, [r7, #4]
 492 0010 9B68     		ldr	r3, [r3, #8]
 493 0012 F86A     		ldr	r0, [r7, #44]
 494 0014 9847     		blx	r3
 495              	.LVL6:
 496 0016 B862     		str	r0, [r7, #40]
  52:FT_Esd_Widgets/LayoutSplit__Generated.c **** 	int right_4 = context->Numerator(parent);
 497              		.loc 1 52 0
 498 0018 7B68     		ldr	r3, [r7, #4]
 499 001a DB68     		ldr	r3, [r3, #12]
 500 001c F86A     		ldr	r0, [r7, #44]
 501 001e 9847     		blx	r3
 502              	.LVL7:
 503 0020 7862     		str	r0, [r7, #36]
  53:FT_Esd_Widgets/LayoutSplit__Generated.c **** 	int left_5 = left_6 * right_4;
 504              		.loc 1 53 0
 505 0022 BB6A     		ldr	r3, [r7, #40]
 506 0024 7A6A     		ldr	r2, [r7, #36]
 507 0026 02FB03F3 		mul	r3, r2, r3
 508 002a 3B62     		str	r3, [r7, #32]
  54:FT_Esd_Widgets/LayoutSplit__Generated.c **** 	int right_5 = context->Denominator(parent);
 509              		.loc 1 54 0
 510 002c 7B68     		ldr	r3, [r7, #4]
 511 002e 1B69     		ldr	r3, [r3, #16]
 512 0030 F86A     		ldr	r0, [r7, #44]
 513 0032 9847     		blx	r3
 514              	.LVL8:
 515 0034 F861     		str	r0, [r7, #28]
  55:FT_Esd_Widgets/LayoutSplit__Generated.c **** 	int left_4 = left_5 / right_5;
 516              		.loc 1 55 0
 517 0036 3A6A     		ldr	r2, [r7, #32]
 518 0038 FB69     		ldr	r3, [r7, #28]
 519 003a 92FBF3F3 		sdiv	r3, r2, r3
 520 003e BB61     		str	r3, [r7, #24]
  56:FT_Esd_Widgets/LayoutSplit__Generated.c **** 	int left_7 = context->Margin(parent);
 521              		.loc 1 56 0
 522 0040 7B68     		ldr	r3, [r7, #4]
 523 0042 5B69     		ldr	r3, [r3, #20]
 524 0044 F86A     		ldr	r0, [r7, #44]
 525 0046 9847     		blx	r3
 526              	.LVL9:
 527 0048 7861     		str	r0, [r7, #20]
  57:FT_Esd_Widgets/LayoutSplit__Generated.c **** 	int right_7 = 2L;
 528              		.loc 1 57 0
 529 004a 0223     		movs	r3, #2
 530 004c 3B61     		str	r3, [r7, #16]
ARM GAS  /var/folders/n8/cvzdcwlj0vl4g_wtyz1ffy300000gn/T//ccRqvyfB.s 			page 11


  58:FT_Esd_Widgets/LayoutSplit__Generated.c **** 	int right_6 = left_7 / right_7;
 531              		.loc 1 58 0
 532 004e 7A69     		ldr	r2, [r7, #20]
 533 0050 3B69     		ldr	r3, [r7, #16]
 534 0052 92FBF3F3 		sdiv	r3, r2, r3
 535 0056 FB60     		str	r3, [r7, #12]
  59:FT_Esd_Widgets/LayoutSplit__Generated.c **** 	return left_4 - right_6;
 536              		.loc 1 59 0
 537 0058 BA69     		ldr	r2, [r7, #24]
 538 005a FB68     		ldr	r3, [r7, #12]
 539 005c D31A     		subs	r3, r2, r3
  60:FT_Esd_Widgets/LayoutSplit__Generated.c **** }
 540              		.loc 1 60 0
 541 005e 1846     		mov	r0, r3
 542 0060 3037     		adds	r7, r7, #48
 543              	.LCFI49:
 544              		.cfi_def_cfa_offset 8
 545 0062 BD46     		mov	sp, r7
 546              	.LCFI50:
 547              		.cfi_def_cfa_register 13
 548              		@ sp needed
 549 0064 80BD     		pop	{r7, pc}
 550              		.cfi_endproc
 551              	.LFE11:
 553              		.section	.text.LayoutSplit_SecondLength,"ax",%progbits
 554              		.align	1
 555              		.global	LayoutSplit_SecondLength
 556              		.syntax unified
 557              		.thumb
 558              		.thumb_func
 559              		.fpu fpv5-sp-d16
 561              	LayoutSplit_SecondLength:
 562              	.LFB12:
  61:FT_Esd_Widgets/LayoutSplit__Generated.c **** 
  62:FT_Esd_Widgets/LayoutSplit__Generated.c **** int LayoutSplit_SecondLength(LayoutSplit *context)
  63:FT_Esd_Widgets/LayoutSplit__Generated.c **** {
 563              		.loc 1 63 0
 564              		.cfi_startproc
 565              		@ args = 0, pretend = 0, frame = 56
 566              		@ frame_needed = 1, uses_anonymous_args = 0
 567 0000 80B5     		push	{r7, lr}
 568              	.LCFI51:
 569              		.cfi_def_cfa_offset 8
 570              		.cfi_offset 7, -8
 571              		.cfi_offset 14, -4
 572 0002 8EB0     		sub	sp, sp, #56
 573              	.LCFI52:
 574              		.cfi_def_cfa_offset 64
 575 0004 00AF     		add	r7, sp, #0
 576              	.LCFI53:
 577              		.cfi_def_cfa_register 7
 578 0006 7860     		str	r0, [r7, #4]
  64:FT_Esd_Widgets/LayoutSplit__Generated.c **** 	void *parent = context->Parent;
 579              		.loc 1 64 0
 580 0008 7B68     		ldr	r3, [r7, #4]
 581 000a 1B68     		ldr	r3, [r3]
 582 000c 7B63     		str	r3, [r7, #52]
ARM GAS  /var/folders/n8/cvzdcwlj0vl4g_wtyz1ffy300000gn/T//ccRqvyfB.s 			page 12


  65:FT_Esd_Widgets/LayoutSplit__Generated.c **** 	int left_9 = context->Length(parent);
 583              		.loc 1 65 0
 584 000e 7B68     		ldr	r3, [r7, #4]
 585 0010 9B68     		ldr	r3, [r3, #8]
 586 0012 786B     		ldr	r0, [r7, #52]
 587 0014 9847     		blx	r3
 588              	.LVL10:
 589 0016 3863     		str	r0, [r7, #48]
  66:FT_Esd_Widgets/LayoutSplit__Generated.c **** 	int left_11 = context->Length(parent);
 590              		.loc 1 66 0
 591 0018 7B68     		ldr	r3, [r7, #4]
 592 001a 9B68     		ldr	r3, [r3, #8]
 593 001c 786B     		ldr	r0, [r7, #52]
 594 001e 9847     		blx	r3
 595              	.LVL11:
 596 0020 F862     		str	r0, [r7, #44]
  67:FT_Esd_Widgets/LayoutSplit__Generated.c **** 	int right_9 = context->Numerator(parent);
 597              		.loc 1 67 0
 598 0022 7B68     		ldr	r3, [r7, #4]
 599 0024 DB68     		ldr	r3, [r3, #12]
 600 0026 786B     		ldr	r0, [r7, #52]
 601 0028 9847     		blx	r3
 602              	.LVL12:
 603 002a B862     		str	r0, [r7, #40]
  68:FT_Esd_Widgets/LayoutSplit__Generated.c **** 	int left_10 = left_11 * right_9;
 604              		.loc 1 68 0
 605 002c FB6A     		ldr	r3, [r7, #44]
 606 002e BA6A     		ldr	r2, [r7, #40]
 607 0030 02FB03F3 		mul	r3, r2, r3
 608 0034 7B62     		str	r3, [r7, #36]
  69:FT_Esd_Widgets/LayoutSplit__Generated.c **** 	int right_10 = context->Denominator(parent);
 609              		.loc 1 69 0
 610 0036 7B68     		ldr	r3, [r7, #4]
 611 0038 1B69     		ldr	r3, [r3, #16]
 612 003a 786B     		ldr	r0, [r7, #52]
 613 003c 9847     		blx	r3
 614              	.LVL13:
 615 003e 3862     		str	r0, [r7, #32]
  70:FT_Esd_Widgets/LayoutSplit__Generated.c **** 	int right_8 = left_10 / right_10;
 616              		.loc 1 70 0
 617 0040 7A6A     		ldr	r2, [r7, #36]
 618 0042 3B6A     		ldr	r3, [r7, #32]
 619 0044 92FBF3F3 		sdiv	r3, r2, r3
 620 0048 FB61     		str	r3, [r7, #28]
  71:FT_Esd_Widgets/LayoutSplit__Generated.c **** 	int left_8 = left_9 - right_8;
 621              		.loc 1 71 0
 622 004a 3A6B     		ldr	r2, [r7, #48]
 623 004c FB69     		ldr	r3, [r7, #28]
 624 004e D31A     		subs	r3, r2, r3
 625 0050 BB61     		str	r3, [r7, #24]
  72:FT_Esd_Widgets/LayoutSplit__Generated.c **** 	int left_12 = context->Margin(parent);
 626              		.loc 1 72 0
 627 0052 7B68     		ldr	r3, [r7, #4]
 628 0054 5B69     		ldr	r3, [r3, #20]
 629 0056 786B     		ldr	r0, [r7, #52]
 630 0058 9847     		blx	r3
 631              	.LVL14:
ARM GAS  /var/folders/n8/cvzdcwlj0vl4g_wtyz1ffy300000gn/T//ccRqvyfB.s 			page 13


 632 005a 7861     		str	r0, [r7, #20]
  73:FT_Esd_Widgets/LayoutSplit__Generated.c **** 	int right_12 = 2L;
 633              		.loc 1 73 0
 634 005c 0223     		movs	r3, #2
 635 005e 3B61     		str	r3, [r7, #16]
  74:FT_Esd_Widgets/LayoutSplit__Generated.c **** 	int right_11 = left_12 / right_12;
 636              		.loc 1 74 0
 637 0060 7A69     		ldr	r2, [r7, #20]
 638 0062 3B69     		ldr	r3, [r7, #16]
 639 0064 92FBF3F3 		sdiv	r3, r2, r3
 640 0068 FB60     		str	r3, [r7, #12]
  75:FT_Esd_Widgets/LayoutSplit__Generated.c **** 	return left_8 - right_11;
 641              		.loc 1 75 0
 642 006a BA69     		ldr	r2, [r7, #24]
 643 006c FB68     		ldr	r3, [r7, #12]
 644 006e D31A     		subs	r3, r2, r3
  76:FT_Esd_Widgets/LayoutSplit__Generated.c **** }
 645              		.loc 1 76 0
 646 0070 1846     		mov	r0, r3
 647 0072 3837     		adds	r7, r7, #56
 648              	.LCFI54:
 649              		.cfi_def_cfa_offset 8
 650 0074 BD46     		mov	sp, r7
 651              	.LCFI55:
 652              		.cfi_def_cfa_register 13
 653              		@ sp needed
 654 0076 80BD     		pop	{r7, pc}
 655              		.cfi_endproc
 656              	.LFE12:
 658              		.text
 659              	.Letext0:
 660              		.file 2 "/usr/local/Cellar/arm-none-eabi-gcc/20180627/arm-none-eabi/include/sys/lock.h"
 661              		.file 3 "/usr/local/Cellar/arm-none-eabi-gcc/20180627/arm-none-eabi/include/sys/_types.h"
 662              		.file 4 "/usr/local/Cellar/arm-none-eabi-gcc/20180627/lib/gcc/arm-none-eabi/7.3.1/include/stddef.h
 663              		.file 5 "/usr/local/Cellar/arm-none-eabi-gcc/20180627/arm-none-eabi/include/sys/unistd.h"
 664              		.file 6 "/usr/local/Cellar/arm-none-eabi-gcc/20180627/arm-none-eabi/include/sys/reent.h"
 665              		.file 7 "/usr/local/Cellar/arm-none-eabi-gcc/20180627/arm-none-eabi/include/stdlib.h"
 666              		.file 8 "FT_Esd_Widgets/LayoutSplit.h"
ARM GAS  /var/folders/n8/cvzdcwlj0vl4g_wtyz1ffy300000gn/T//ccRqvyfB.s 			page 14

