ARM GAS  /var/folders/n8/cvzdcwlj0vl4g_wtyz1ffy300000gn/T//ccpXrSkm.s 			page 1


   1              		.cpu cortex-m7
   2              		.eabi_attribute 27, 1
   3              		.eabi_attribute 28, 1
   4              		.eabi_attribute 20, 1
   5              		.eabi_attribute 21, 1
   6              		.eabi_attribute 23, 3
   7              		.eabi_attribute 24, 1
   8              		.eabi_attribute 25, 1
   9              		.eabi_attribute 26, 1
  10              		.eabi_attribute 30, 6
  11              		.eabi_attribute 34, 1
  12              		.eabi_attribute 18, 4
  13              		.file	"LayoutMargin__Generated.c"
  14              		.text
  15              	.Ltext0:
  16              		.cfi_sections	.debug_frame
  17              		.section	.text.LayoutMargin_X__Default,"ax",%progbits
  18              		.align	1
  19              		.global	LayoutMargin_X__Default
  20              		.syntax unified
  21              		.thumb
  22              		.thumb_func
  23              		.fpu fpv5-sp-d16
  25              	LayoutMargin_X__Default:
  26              	.LFB3:
  27              		.file 1 "FT_Esd_Widgets/LayoutMargin__Generated.c"
   1:FT_Esd_Widgets/LayoutMargin__Generated.c **** /*
   2:FT_Esd_Widgets/LayoutMargin__Generated.c **** This file is automatically generated
   3:FT_Esd_Widgets/LayoutMargin__Generated.c **** LayoutMargin
   4:FT_Esd_Widgets/LayoutMargin__Generated.c **** C Source
   5:FT_Esd_Widgets/LayoutMargin__Generated.c **** */
   6:FT_Esd_Widgets/LayoutMargin__Generated.c **** 
   7:FT_Esd_Widgets/LayoutMargin__Generated.c **** #include "LayoutMargin.h"
   8:FT_Esd_Widgets/LayoutMargin__Generated.c **** 
   9:FT_Esd_Widgets/LayoutMargin__Generated.c **** extern void Ft_Esd_Noop(void *context);
  10:FT_Esd_Widgets/LayoutMargin__Generated.c **** int LayoutMargin_X__Default(void *context) { return 0L; }
  28              		.loc 1 10 0
  29              		.cfi_startproc
  30              		@ args = 0, pretend = 0, frame = 8
  31              		@ frame_needed = 1, uses_anonymous_args = 0
  32              		@ link register save eliminated.
  33 0000 80B4     		push	{r7}
  34              	.LCFI0:
  35              		.cfi_def_cfa_offset 4
  36              		.cfi_offset 7, -4
  37 0002 83B0     		sub	sp, sp, #12
  38              	.LCFI1:
  39              		.cfi_def_cfa_offset 16
  40 0004 00AF     		add	r7, sp, #0
  41              	.LCFI2:
  42              		.cfi_def_cfa_register 7
  43 0006 7860     		str	r0, [r7, #4]
  44              		.loc 1 10 0
  45 0008 0023     		movs	r3, #0
  46 000a 1846     		mov	r0, r3
  47 000c 0C37     		adds	r7, r7, #12
  48              	.LCFI3:
ARM GAS  /var/folders/n8/cvzdcwlj0vl4g_wtyz1ffy300000gn/T//ccpXrSkm.s 			page 2


  49              		.cfi_def_cfa_offset 4
  50 000e BD46     		mov	sp, r7
  51              	.LCFI4:
  52              		.cfi_def_cfa_register 13
  53              		@ sp needed
  54 0010 5DF8047B 		ldr	r7, [sp], #4
  55              	.LCFI5:
  56              		.cfi_restore 7
  57              		.cfi_def_cfa_offset 0
  58 0014 7047     		bx	lr
  59              		.cfi_endproc
  60              	.LFE3:
  62              		.section	.text.LayoutMargin_Y__Default,"ax",%progbits
  63              		.align	1
  64              		.global	LayoutMargin_Y__Default
  65              		.syntax unified
  66              		.thumb
  67              		.thumb_func
  68              		.fpu fpv5-sp-d16
  70              	LayoutMargin_Y__Default:
  71              	.LFB4:
  11:FT_Esd_Widgets/LayoutMargin__Generated.c **** int LayoutMargin_Y__Default(void *context) { return 0L; }
  72              		.loc 1 11 0
  73              		.cfi_startproc
  74              		@ args = 0, pretend = 0, frame = 8
  75              		@ frame_needed = 1, uses_anonymous_args = 0
  76              		@ link register save eliminated.
  77 0000 80B4     		push	{r7}
  78              	.LCFI6:
  79              		.cfi_def_cfa_offset 4
  80              		.cfi_offset 7, -4
  81 0002 83B0     		sub	sp, sp, #12
  82              	.LCFI7:
  83              		.cfi_def_cfa_offset 16
  84 0004 00AF     		add	r7, sp, #0
  85              	.LCFI8:
  86              		.cfi_def_cfa_register 7
  87 0006 7860     		str	r0, [r7, #4]
  88              		.loc 1 11 0
  89 0008 0023     		movs	r3, #0
  90 000a 1846     		mov	r0, r3
  91 000c 0C37     		adds	r7, r7, #12
  92              	.LCFI9:
  93              		.cfi_def_cfa_offset 4
  94 000e BD46     		mov	sp, r7
  95              	.LCFI10:
  96              		.cfi_def_cfa_register 13
  97              		@ sp needed
  98 0010 5DF8047B 		ldr	r7, [sp], #4
  99              	.LCFI11:
 100              		.cfi_restore 7
 101              		.cfi_def_cfa_offset 0
 102 0014 7047     		bx	lr
 103              		.cfi_endproc
 104              	.LFE4:
 106              		.section	.text.LayoutMargin_Width__Default,"ax",%progbits
 107              		.align	1
ARM GAS  /var/folders/n8/cvzdcwlj0vl4g_wtyz1ffy300000gn/T//ccpXrSkm.s 			page 3


 108              		.global	LayoutMargin_Width__Default
 109              		.syntax unified
 110              		.thumb
 111              		.thumb_func
 112              		.fpu fpv5-sp-d16
 114              	LayoutMargin_Width__Default:
 115              	.LFB5:
  12:FT_Esd_Widgets/LayoutMargin__Generated.c **** int LayoutMargin_Width__Default(void *context) { return 0L; }
 116              		.loc 1 12 0
 117              		.cfi_startproc
 118              		@ args = 0, pretend = 0, frame = 8
 119              		@ frame_needed = 1, uses_anonymous_args = 0
 120              		@ link register save eliminated.
 121 0000 80B4     		push	{r7}
 122              	.LCFI12:
 123              		.cfi_def_cfa_offset 4
 124              		.cfi_offset 7, -4
 125 0002 83B0     		sub	sp, sp, #12
 126              	.LCFI13:
 127              		.cfi_def_cfa_offset 16
 128 0004 00AF     		add	r7, sp, #0
 129              	.LCFI14:
 130              		.cfi_def_cfa_register 7
 131 0006 7860     		str	r0, [r7, #4]
 132              		.loc 1 12 0
 133 0008 0023     		movs	r3, #0
 134 000a 1846     		mov	r0, r3
 135 000c 0C37     		adds	r7, r7, #12
 136              	.LCFI15:
 137              		.cfi_def_cfa_offset 4
 138 000e BD46     		mov	sp, r7
 139              	.LCFI16:
 140              		.cfi_def_cfa_register 13
 141              		@ sp needed
 142 0010 5DF8047B 		ldr	r7, [sp], #4
 143              	.LCFI17:
 144              		.cfi_restore 7
 145              		.cfi_def_cfa_offset 0
 146 0014 7047     		bx	lr
 147              		.cfi_endproc
 148              	.LFE5:
 150              		.section	.text.LayoutMargin_Height__Default,"ax",%progbits
 151              		.align	1
 152              		.global	LayoutMargin_Height__Default
 153              		.syntax unified
 154              		.thumb
 155              		.thumb_func
 156              		.fpu fpv5-sp-d16
 158              	LayoutMargin_Height__Default:
 159              	.LFB6:
  13:FT_Esd_Widgets/LayoutMargin__Generated.c **** int LayoutMargin_Height__Default(void *context) { return 0L; }
 160              		.loc 1 13 0
 161              		.cfi_startproc
 162              		@ args = 0, pretend = 0, frame = 8
 163              		@ frame_needed = 1, uses_anonymous_args = 0
 164              		@ link register save eliminated.
 165 0000 80B4     		push	{r7}
ARM GAS  /var/folders/n8/cvzdcwlj0vl4g_wtyz1ffy300000gn/T//ccpXrSkm.s 			page 4


 166              	.LCFI18:
 167              		.cfi_def_cfa_offset 4
 168              		.cfi_offset 7, -4
 169 0002 83B0     		sub	sp, sp, #12
 170              	.LCFI19:
 171              		.cfi_def_cfa_offset 16
 172 0004 00AF     		add	r7, sp, #0
 173              	.LCFI20:
 174              		.cfi_def_cfa_register 7
 175 0006 7860     		str	r0, [r7, #4]
 176              		.loc 1 13 0
 177 0008 0023     		movs	r3, #0
 178 000a 1846     		mov	r0, r3
 179 000c 0C37     		adds	r7, r7, #12
 180              	.LCFI21:
 181              		.cfi_def_cfa_offset 4
 182 000e BD46     		mov	sp, r7
 183              	.LCFI22:
 184              		.cfi_def_cfa_register 13
 185              		@ sp needed
 186 0010 5DF8047B 		ldr	r7, [sp], #4
 187              	.LCFI23:
 188              		.cfi_restore 7
 189              		.cfi_def_cfa_offset 0
 190 0014 7047     		bx	lr
 191              		.cfi_endproc
 192              	.LFE6:
 194              		.section	.text.LayoutMargin_Margin__Default,"ax",%progbits
 195              		.align	1
 196              		.global	LayoutMargin_Margin__Default
 197              		.syntax unified
 198              		.thumb
 199              		.thumb_func
 200              		.fpu fpv5-sp-d16
 202              	LayoutMargin_Margin__Default:
 203              	.LFB7:
  14:FT_Esd_Widgets/LayoutMargin__Generated.c **** int LayoutMargin_Margin__Default(void *context) { return 0L; }
 204              		.loc 1 14 0
 205              		.cfi_startproc
 206              		@ args = 0, pretend = 0, frame = 8
 207              		@ frame_needed = 1, uses_anonymous_args = 0
 208              		@ link register save eliminated.
 209 0000 80B4     		push	{r7}
 210              	.LCFI24:
 211              		.cfi_def_cfa_offset 4
 212              		.cfi_offset 7, -4
 213 0002 83B0     		sub	sp, sp, #12
 214              	.LCFI25:
 215              		.cfi_def_cfa_offset 16
 216 0004 00AF     		add	r7, sp, #0
 217              	.LCFI26:
 218              		.cfi_def_cfa_register 7
 219 0006 7860     		str	r0, [r7, #4]
 220              		.loc 1 14 0
 221 0008 0023     		movs	r3, #0
 222 000a 1846     		mov	r0, r3
 223 000c 0C37     		adds	r7, r7, #12
ARM GAS  /var/folders/n8/cvzdcwlj0vl4g_wtyz1ffy300000gn/T//ccpXrSkm.s 			page 5


 224              	.LCFI27:
 225              		.cfi_def_cfa_offset 4
 226 000e BD46     		mov	sp, r7
 227              	.LCFI28:
 228              		.cfi_def_cfa_register 13
 229              		@ sp needed
 230 0010 5DF8047B 		ldr	r7, [sp], #4
 231              	.LCFI29:
 232              		.cfi_restore 7
 233              		.cfi_def_cfa_offset 0
 234 0014 7047     		bx	lr
 235              		.cfi_endproc
 236              	.LFE7:
 238              		.section	.text.LayoutMargin__Initializer,"ax",%progbits
 239              		.align	1
 240              		.global	LayoutMargin__Initializer
 241              		.syntax unified
 242              		.thumb
 243              		.thumb_func
 244              		.fpu fpv5-sp-d16
 246              	LayoutMargin__Initializer:
 247              	.LFB8:
  15:FT_Esd_Widgets/LayoutMargin__Generated.c **** 
  16:FT_Esd_Widgets/LayoutMargin__Generated.c **** 
  17:FT_Esd_Widgets/LayoutMargin__Generated.c **** 
  18:FT_Esd_Widgets/LayoutMargin__Generated.c **** void LayoutMargin__Initializer(LayoutMargin *context)
  19:FT_Esd_Widgets/LayoutMargin__Generated.c **** {
 248              		.loc 1 19 0
 249              		.cfi_startproc
 250              		@ args = 0, pretend = 0, frame = 8
 251              		@ frame_needed = 1, uses_anonymous_args = 0
 252              		@ link register save eliminated.
 253 0000 80B4     		push	{r7}
 254              	.LCFI30:
 255              		.cfi_def_cfa_offset 4
 256              		.cfi_offset 7, -4
 257 0002 83B0     		sub	sp, sp, #12
 258              	.LCFI31:
 259              		.cfi_def_cfa_offset 16
 260 0004 00AF     		add	r7, sp, #0
 261              	.LCFI32:
 262              		.cfi_def_cfa_register 7
 263 0006 7860     		str	r0, [r7, #4]
  20:FT_Esd_Widgets/LayoutMargin__Generated.c **** 	context->Parent = 0;
 264              		.loc 1 20 0
 265 0008 7B68     		ldr	r3, [r7, #4]
 266 000a 0022     		movs	r2, #0
 267 000c 1A60     		str	r2, [r3]
  21:FT_Esd_Widgets/LayoutMargin__Generated.c **** 	context->X = LayoutMargin_X__Default;
 268              		.loc 1 21 0
 269 000e 7B68     		ldr	r3, [r7, #4]
 270 0010 094A     		ldr	r2, .L12
 271 0012 5A60     		str	r2, [r3, #4]
  22:FT_Esd_Widgets/LayoutMargin__Generated.c **** 	context->Y = LayoutMargin_Y__Default;
 272              		.loc 1 22 0
 273 0014 7B68     		ldr	r3, [r7, #4]
 274 0016 094A     		ldr	r2, .L12+4
ARM GAS  /var/folders/n8/cvzdcwlj0vl4g_wtyz1ffy300000gn/T//ccpXrSkm.s 			page 6


 275 0018 9A60     		str	r2, [r3, #8]
  23:FT_Esd_Widgets/LayoutMargin__Generated.c **** 	context->Width = LayoutMargin_Width__Default;
 276              		.loc 1 23 0
 277 001a 7B68     		ldr	r3, [r7, #4]
 278 001c 084A     		ldr	r2, .L12+8
 279 001e DA60     		str	r2, [r3, #12]
  24:FT_Esd_Widgets/LayoutMargin__Generated.c **** 	context->Height = LayoutMargin_Height__Default;
 280              		.loc 1 24 0
 281 0020 7B68     		ldr	r3, [r7, #4]
 282 0022 084A     		ldr	r2, .L12+12
 283 0024 1A61     		str	r2, [r3, #16]
  25:FT_Esd_Widgets/LayoutMargin__Generated.c **** 	context->Margin = LayoutMargin_Margin__Default;
 284              		.loc 1 25 0
 285 0026 7B68     		ldr	r3, [r7, #4]
 286 0028 074A     		ldr	r2, .L12+16
 287 002a 5A61     		str	r2, [r3, #20]
  26:FT_Esd_Widgets/LayoutMargin__Generated.c **** }
 288              		.loc 1 26 0
 289 002c 00BF     		nop
 290 002e 0C37     		adds	r7, r7, #12
 291              	.LCFI33:
 292              		.cfi_def_cfa_offset 4
 293 0030 BD46     		mov	sp, r7
 294              	.LCFI34:
 295              		.cfi_def_cfa_register 13
 296              		@ sp needed
 297 0032 5DF8047B 		ldr	r7, [sp], #4
 298              	.LCFI35:
 299              		.cfi_restore 7
 300              		.cfi_def_cfa_offset 0
 301 0036 7047     		bx	lr
 302              	.L13:
 303              		.align	2
 304              	.L12:
 305 0038 00000000 		.word	LayoutMargin_X__Default
 306 003c 00000000 		.word	LayoutMargin_Y__Default
 307 0040 00000000 		.word	LayoutMargin_Width__Default
 308 0044 00000000 		.word	LayoutMargin_Height__Default
 309 0048 00000000 		.word	LayoutMargin_Margin__Default
 310              		.cfi_endproc
 311              	.LFE8:
 313              		.section	.text.LayoutMargin_OutX,"ax",%progbits
 314              		.align	1
 315              		.global	LayoutMargin_OutX
 316              		.syntax unified
 317              		.thumb
 318              		.thumb_func
 319              		.fpu fpv5-sp-d16
 321              	LayoutMargin_OutX:
 322              	.LFB9:
  27:FT_Esd_Widgets/LayoutMargin__Generated.c **** 
  28:FT_Esd_Widgets/LayoutMargin__Generated.c **** int LayoutMargin_OutX(LayoutMargin *context)
  29:FT_Esd_Widgets/LayoutMargin__Generated.c **** {
 323              		.loc 1 29 0
 324              		.cfi_startproc
 325              		@ args = 0, pretend = 0, frame = 24
 326              		@ frame_needed = 1, uses_anonymous_args = 0
ARM GAS  /var/folders/n8/cvzdcwlj0vl4g_wtyz1ffy300000gn/T//ccpXrSkm.s 			page 7


 327 0000 80B5     		push	{r7, lr}
 328              	.LCFI36:
 329              		.cfi_def_cfa_offset 8
 330              		.cfi_offset 7, -8
 331              		.cfi_offset 14, -4
 332 0002 86B0     		sub	sp, sp, #24
 333              	.LCFI37:
 334              		.cfi_def_cfa_offset 32
 335 0004 00AF     		add	r7, sp, #0
 336              	.LCFI38:
 337              		.cfi_def_cfa_register 7
 338 0006 7860     		str	r0, [r7, #4]
  30:FT_Esd_Widgets/LayoutMargin__Generated.c **** 	void *parent = context->Parent;
 339              		.loc 1 30 0
 340 0008 7B68     		ldr	r3, [r7, #4]
 341 000a 1B68     		ldr	r3, [r3]
 342 000c 7B61     		str	r3, [r7, #20]
  31:FT_Esd_Widgets/LayoutMargin__Generated.c **** 	int left = context->X(parent);
 343              		.loc 1 31 0
 344 000e 7B68     		ldr	r3, [r7, #4]
 345 0010 5B68     		ldr	r3, [r3, #4]
 346 0012 7869     		ldr	r0, [r7, #20]
 347 0014 9847     		blx	r3
 348              	.LVL0:
 349 0016 3861     		str	r0, [r7, #16]
  32:FT_Esd_Widgets/LayoutMargin__Generated.c **** 	int right = context->Margin(parent);
 350              		.loc 1 32 0
 351 0018 7B68     		ldr	r3, [r7, #4]
 352 001a 5B69     		ldr	r3, [r3, #20]
 353 001c 7869     		ldr	r0, [r7, #20]
 354 001e 9847     		blx	r3
 355              	.LVL1:
 356 0020 F860     		str	r0, [r7, #12]
  33:FT_Esd_Widgets/LayoutMargin__Generated.c **** 	return left + right;
 357              		.loc 1 33 0
 358 0022 3A69     		ldr	r2, [r7, #16]
 359 0024 FB68     		ldr	r3, [r7, #12]
 360 0026 1344     		add	r3, r3, r2
  34:FT_Esd_Widgets/LayoutMargin__Generated.c **** }
 361              		.loc 1 34 0
 362 0028 1846     		mov	r0, r3
 363 002a 1837     		adds	r7, r7, #24
 364              	.LCFI39:
 365              		.cfi_def_cfa_offset 8
 366 002c BD46     		mov	sp, r7
 367              	.LCFI40:
 368              		.cfi_def_cfa_register 13
 369              		@ sp needed
 370 002e 80BD     		pop	{r7, pc}
 371              		.cfi_endproc
 372              	.LFE9:
 374              		.section	.text.LayoutMargin_OutY,"ax",%progbits
 375              		.align	1
 376              		.global	LayoutMargin_OutY
 377              		.syntax unified
 378              		.thumb
 379              		.thumb_func
ARM GAS  /var/folders/n8/cvzdcwlj0vl4g_wtyz1ffy300000gn/T//ccpXrSkm.s 			page 8


 380              		.fpu fpv5-sp-d16
 382              	LayoutMargin_OutY:
 383              	.LFB10:
  35:FT_Esd_Widgets/LayoutMargin__Generated.c **** 
  36:FT_Esd_Widgets/LayoutMargin__Generated.c **** int LayoutMargin_OutY(LayoutMargin *context)
  37:FT_Esd_Widgets/LayoutMargin__Generated.c **** {
 384              		.loc 1 37 0
 385              		.cfi_startproc
 386              		@ args = 0, pretend = 0, frame = 24
 387              		@ frame_needed = 1, uses_anonymous_args = 0
 388 0000 80B5     		push	{r7, lr}
 389              	.LCFI41:
 390              		.cfi_def_cfa_offset 8
 391              		.cfi_offset 7, -8
 392              		.cfi_offset 14, -4
 393 0002 86B0     		sub	sp, sp, #24
 394              	.LCFI42:
 395              		.cfi_def_cfa_offset 32
 396 0004 00AF     		add	r7, sp, #0
 397              	.LCFI43:
 398              		.cfi_def_cfa_register 7
 399 0006 7860     		str	r0, [r7, #4]
  38:FT_Esd_Widgets/LayoutMargin__Generated.c **** 	void *parent = context->Parent;
 400              		.loc 1 38 0
 401 0008 7B68     		ldr	r3, [r7, #4]
 402 000a 1B68     		ldr	r3, [r3]
 403 000c 7B61     		str	r3, [r7, #20]
  39:FT_Esd_Widgets/LayoutMargin__Generated.c **** 	int left_1 = context->Y(parent);
 404              		.loc 1 39 0
 405 000e 7B68     		ldr	r3, [r7, #4]
 406 0010 9B68     		ldr	r3, [r3, #8]
 407 0012 7869     		ldr	r0, [r7, #20]
 408 0014 9847     		blx	r3
 409              	.LVL2:
 410 0016 3861     		str	r0, [r7, #16]
  40:FT_Esd_Widgets/LayoutMargin__Generated.c **** 	int right_1 = context->Margin(parent);
 411              		.loc 1 40 0
 412 0018 7B68     		ldr	r3, [r7, #4]
 413 001a 5B69     		ldr	r3, [r3, #20]
 414 001c 7869     		ldr	r0, [r7, #20]
 415 001e 9847     		blx	r3
 416              	.LVL3:
 417 0020 F860     		str	r0, [r7, #12]
  41:FT_Esd_Widgets/LayoutMargin__Generated.c **** 	return left_1 + right_1;
 418              		.loc 1 41 0
 419 0022 3A69     		ldr	r2, [r7, #16]
 420 0024 FB68     		ldr	r3, [r7, #12]
 421 0026 1344     		add	r3, r3, r2
  42:FT_Esd_Widgets/LayoutMargin__Generated.c **** }
 422              		.loc 1 42 0
 423 0028 1846     		mov	r0, r3
 424 002a 1837     		adds	r7, r7, #24
 425              	.LCFI44:
 426              		.cfi_def_cfa_offset 8
 427 002c BD46     		mov	sp, r7
 428              	.LCFI45:
 429              		.cfi_def_cfa_register 13
ARM GAS  /var/folders/n8/cvzdcwlj0vl4g_wtyz1ffy300000gn/T//ccpXrSkm.s 			page 9


 430              		@ sp needed
 431 002e 80BD     		pop	{r7, pc}
 432              		.cfi_endproc
 433              	.LFE10:
 435              		.section	.text.LayoutMargin_OutWidth,"ax",%progbits
 436              		.align	1
 437              		.global	LayoutMargin_OutWidth
 438              		.syntax unified
 439              		.thumb
 440              		.thumb_func
 441              		.fpu fpv5-sp-d16
 443              	LayoutMargin_OutWidth:
 444              	.LFB11:
  43:FT_Esd_Widgets/LayoutMargin__Generated.c **** 
  44:FT_Esd_Widgets/LayoutMargin__Generated.c **** int LayoutMargin_OutWidth(LayoutMargin *context)
  45:FT_Esd_Widgets/LayoutMargin__Generated.c **** {
 445              		.loc 1 45 0
 446              		.cfi_startproc
 447              		@ args = 0, pretend = 0, frame = 32
 448              		@ frame_needed = 1, uses_anonymous_args = 0
 449 0000 80B5     		push	{r7, lr}
 450              	.LCFI46:
 451              		.cfi_def_cfa_offset 8
 452              		.cfi_offset 7, -8
 453              		.cfi_offset 14, -4
 454 0002 88B0     		sub	sp, sp, #32
 455              	.LCFI47:
 456              		.cfi_def_cfa_offset 40
 457 0004 00AF     		add	r7, sp, #0
 458              	.LCFI48:
 459              		.cfi_def_cfa_register 7
 460 0006 7860     		str	r0, [r7, #4]
  46:FT_Esd_Widgets/LayoutMargin__Generated.c **** 	void *parent = context->Parent;
 461              		.loc 1 46 0
 462 0008 7B68     		ldr	r3, [r7, #4]
 463 000a 1B68     		ldr	r3, [r3]
 464 000c FB61     		str	r3, [r7, #28]
  47:FT_Esd_Widgets/LayoutMargin__Generated.c **** 	int left_2 = context->Width(parent);
 465              		.loc 1 47 0
 466 000e 7B68     		ldr	r3, [r7, #4]
 467 0010 DB68     		ldr	r3, [r3, #12]
 468 0012 F869     		ldr	r0, [r7, #28]
 469 0014 9847     		blx	r3
 470              	.LVL4:
 471 0016 B861     		str	r0, [r7, #24]
  48:FT_Esd_Widgets/LayoutMargin__Generated.c **** 	int left_3 = context->Margin(parent);
 472              		.loc 1 48 0
 473 0018 7B68     		ldr	r3, [r7, #4]
 474 001a 5B69     		ldr	r3, [r3, #20]
 475 001c F869     		ldr	r0, [r7, #28]
 476 001e 9847     		blx	r3
 477              	.LVL5:
 478 0020 7861     		str	r0, [r7, #20]
  49:FT_Esd_Widgets/LayoutMargin__Generated.c **** 	int right_3 = 2L;
 479              		.loc 1 49 0
 480 0022 0223     		movs	r3, #2
 481 0024 3B61     		str	r3, [r7, #16]
ARM GAS  /var/folders/n8/cvzdcwlj0vl4g_wtyz1ffy300000gn/T//ccpXrSkm.s 			page 10


  50:FT_Esd_Widgets/LayoutMargin__Generated.c **** 	int right_2 = left_3 * right_3;
 482              		.loc 1 50 0
 483 0026 7B69     		ldr	r3, [r7, #20]
 484 0028 3A69     		ldr	r2, [r7, #16]
 485 002a 02FB03F3 		mul	r3, r2, r3
 486 002e FB60     		str	r3, [r7, #12]
  51:FT_Esd_Widgets/LayoutMargin__Generated.c **** 	return left_2 - right_2;
 487              		.loc 1 51 0
 488 0030 BA69     		ldr	r2, [r7, #24]
 489 0032 FB68     		ldr	r3, [r7, #12]
 490 0034 D31A     		subs	r3, r2, r3
  52:FT_Esd_Widgets/LayoutMargin__Generated.c **** }
 491              		.loc 1 52 0
 492 0036 1846     		mov	r0, r3
 493 0038 2037     		adds	r7, r7, #32
 494              	.LCFI49:
 495              		.cfi_def_cfa_offset 8
 496 003a BD46     		mov	sp, r7
 497              	.LCFI50:
 498              		.cfi_def_cfa_register 13
 499              		@ sp needed
 500 003c 80BD     		pop	{r7, pc}
 501              		.cfi_endproc
 502              	.LFE11:
 504              		.section	.text.LayoutMargin_OutHeight,"ax",%progbits
 505              		.align	1
 506              		.global	LayoutMargin_OutHeight
 507              		.syntax unified
 508              		.thumb
 509              		.thumb_func
 510              		.fpu fpv5-sp-d16
 512              	LayoutMargin_OutHeight:
 513              	.LFB12:
  53:FT_Esd_Widgets/LayoutMargin__Generated.c **** 
  54:FT_Esd_Widgets/LayoutMargin__Generated.c **** int LayoutMargin_OutHeight(LayoutMargin *context)
  55:FT_Esd_Widgets/LayoutMargin__Generated.c **** {
 514              		.loc 1 55 0
 515              		.cfi_startproc
 516              		@ args = 0, pretend = 0, frame = 32
 517              		@ frame_needed = 1, uses_anonymous_args = 0
 518 0000 80B5     		push	{r7, lr}
 519              	.LCFI51:
 520              		.cfi_def_cfa_offset 8
 521              		.cfi_offset 7, -8
 522              		.cfi_offset 14, -4
 523 0002 88B0     		sub	sp, sp, #32
 524              	.LCFI52:
 525              		.cfi_def_cfa_offset 40
 526 0004 00AF     		add	r7, sp, #0
 527              	.LCFI53:
 528              		.cfi_def_cfa_register 7
 529 0006 7860     		str	r0, [r7, #4]
  56:FT_Esd_Widgets/LayoutMargin__Generated.c **** 	void *parent = context->Parent;
 530              		.loc 1 56 0
 531 0008 7B68     		ldr	r3, [r7, #4]
 532 000a 1B68     		ldr	r3, [r3]
 533 000c FB61     		str	r3, [r7, #28]
ARM GAS  /var/folders/n8/cvzdcwlj0vl4g_wtyz1ffy300000gn/T//ccpXrSkm.s 			page 11


  57:FT_Esd_Widgets/LayoutMargin__Generated.c **** 	int left_4 = context->Height(parent);
 534              		.loc 1 57 0
 535 000e 7B68     		ldr	r3, [r7, #4]
 536 0010 1B69     		ldr	r3, [r3, #16]
 537 0012 F869     		ldr	r0, [r7, #28]
 538 0014 9847     		blx	r3
 539              	.LVL6:
 540 0016 B861     		str	r0, [r7, #24]
  58:FT_Esd_Widgets/LayoutMargin__Generated.c **** 	int left_5 = context->Margin(parent);
 541              		.loc 1 58 0
 542 0018 7B68     		ldr	r3, [r7, #4]
 543 001a 5B69     		ldr	r3, [r3, #20]
 544 001c F869     		ldr	r0, [r7, #28]
 545 001e 9847     		blx	r3
 546              	.LVL7:
 547 0020 7861     		str	r0, [r7, #20]
  59:FT_Esd_Widgets/LayoutMargin__Generated.c **** 	int right_5 = 2L;
 548              		.loc 1 59 0
 549 0022 0223     		movs	r3, #2
 550 0024 3B61     		str	r3, [r7, #16]
  60:FT_Esd_Widgets/LayoutMargin__Generated.c **** 	int right_4 = left_5 * right_5;
 551              		.loc 1 60 0
 552 0026 7B69     		ldr	r3, [r7, #20]
 553 0028 3A69     		ldr	r2, [r7, #16]
 554 002a 02FB03F3 		mul	r3, r2, r3
 555 002e FB60     		str	r3, [r7, #12]
  61:FT_Esd_Widgets/LayoutMargin__Generated.c **** 	return left_4 - right_4;
 556              		.loc 1 61 0
 557 0030 BA69     		ldr	r2, [r7, #24]
 558 0032 FB68     		ldr	r3, [r7, #12]
 559 0034 D31A     		subs	r3, r2, r3
  62:FT_Esd_Widgets/LayoutMargin__Generated.c **** }
 560              		.loc 1 62 0
 561 0036 1846     		mov	r0, r3
 562 0038 2037     		adds	r7, r7, #32
 563              	.LCFI54:
 564              		.cfi_def_cfa_offset 8
 565 003a BD46     		mov	sp, r7
 566              	.LCFI55:
 567              		.cfi_def_cfa_register 13
 568              		@ sp needed
 569 003c 80BD     		pop	{r7, pc}
 570              		.cfi_endproc
 571              	.LFE12:
 573              		.text
 574              	.Letext0:
 575              		.file 2 "/usr/local/Cellar/arm-none-eabi-gcc/20180627/arm-none-eabi/include/sys/lock.h"
 576              		.file 3 "/usr/local/Cellar/arm-none-eabi-gcc/20180627/arm-none-eabi/include/sys/_types.h"
 577              		.file 4 "/usr/local/Cellar/arm-none-eabi-gcc/20180627/lib/gcc/arm-none-eabi/7.3.1/include/stddef.h
 578              		.file 5 "/usr/local/Cellar/arm-none-eabi-gcc/20180627/arm-none-eabi/include/sys/unistd.h"
 579              		.file 6 "/usr/local/Cellar/arm-none-eabi-gcc/20180627/arm-none-eabi/include/sys/reent.h"
 580              		.file 7 "/usr/local/Cellar/arm-none-eabi-gcc/20180627/arm-none-eabi/include/stdlib.h"
 581              		.file 8 "FT_Esd_Widgets/LayoutMargin.h"
ARM GAS  /var/folders/n8/cvzdcwlj0vl4g_wtyz1ffy300000gn/T//ccpXrSkm.s 			page 12

