ARM GAS  /var/folders/n8/cvzdcwlj0vl4g_wtyz1ffy300000gn/T//ccgP0p27.s 			page 1


   1              		.cpu cortex-m7
   2              		.eabi_attribute 27, 1
   3              		.eabi_attribute 28, 1
   4              		.eabi_attribute 20, 1
   5              		.eabi_attribute 21, 1
   6              		.eabi_attribute 23, 3
   7              		.eabi_attribute 24, 1
   8              		.eabi_attribute 25, 1
   9              		.eabi_attribute 26, 1
  10              		.eabi_attribute 30, 6
  11              		.eabi_attribute 34, 1
  12              		.eabi_attribute 18, 4
  13              		.file	"MainPage__Generated.c"
  14              		.text
  15              	.Ltext0:
  16              		.cfi_sections	.debug_frame
  17              		.section	.text.Ft_Esd_BitmapCell_GetInfo,"ax",%progbits
  18              		.align	1
  19              		.syntax unified
  20              		.thumb
  21              		.thumb_func
  22              		.fpu fpv5-sp-d16
  24              	Ft_Esd_BitmapCell_GetInfo:
  25              	.LFB9:
  26              		.file 1 "FT_Esd_Framework/Ft_Esd_BitmapInfo.h"
   1:FT_Esd_Framework/Ft_Esd_BitmapInfo.h **** /*
   2:FT_Esd_Framework/Ft_Esd_BitmapInfo.h **** Bitmap info structure
   3:FT_Esd_Framework/Ft_Esd_BitmapInfo.h **** */
   4:FT_Esd_Framework/Ft_Esd_BitmapInfo.h **** 
   5:FT_Esd_Framework/Ft_Esd_BitmapInfo.h **** #ifndef FT_ESD_BITMAPINFO_H
   6:FT_Esd_Framework/Ft_Esd_BitmapInfo.h **** #define FT_ESD_BITMAPINFO_H
   7:FT_Esd_Framework/Ft_Esd_BitmapInfo.h **** 
   8:FT_Esd_Framework/Ft_Esd_BitmapInfo.h **** #include "Ft_Esd.h"
   9:FT_Esd_Framework/Ft_Esd_BitmapInfo.h **** #include "FT_DataTypes.h"
  10:FT_Esd_Framework/Ft_Esd_BitmapInfo.h **** #include "Ft_Esd_GpuAlloc.h"
  11:FT_Esd_Framework/Ft_Esd_BitmapInfo.h **** 
  12:FT_Esd_Framework/Ft_Esd_BitmapInfo.h **** ESD_TYPE(Ft_Esd_BitmapInfo, Native = Struct) // TODO: Struct support, expose values
  13:FT_Esd_Framework/Ft_Esd_BitmapInfo.h **** typedef struct
  14:FT_Esd_Framework/Ft_Esd_BitmapInfo.h **** {
  15:FT_Esd_Framework/Ft_Esd_BitmapInfo.h **** 	ft_int32_t Width;
  16:FT_Esd_Framework/Ft_Esd_BitmapInfo.h **** 	ft_int32_t Height;
  17:FT_Esd_Framework/Ft_Esd_BitmapInfo.h **** 	ft_int32_t Stride;
  18:FT_Esd_Framework/Ft_Esd_BitmapInfo.h **** 	ft_int32_t Format;
  19:FT_Esd_Framework/Ft_Esd_BitmapInfo.h **** 	ft_int32_t Size;
  20:FT_Esd_Framework/Ft_Esd_BitmapInfo.h **** 	const char *File;
  21:FT_Esd_Framework/Ft_Esd_BitmapInfo.h **** 
  22:FT_Esd_Framework/Ft_Esd_BitmapInfo.h **** 	// Handle pointing to the address in RAM_G if it is allocated
  23:FT_Esd_Framework/Ft_Esd_BitmapInfo.h **** 	Ft_Esd_GpuHandle GpuHandle;
  24:FT_Esd_Framework/Ft_Esd_BitmapInfo.h **** 
  25:FT_Esd_Framework/Ft_Esd_BitmapInfo.h **** 	// Bitmap handle that is being used
  26:FT_Esd_Framework/Ft_Esd_BitmapInfo.h **** 	ft_uint32_t BitmapHandle;
  27:FT_Esd_Framework/Ft_Esd_BitmapInfo.h **** 
  28:FT_Esd_Framework/Ft_Esd_BitmapInfo.h **** 	const char *PaletteFile;
  29:FT_Esd_Framework/Ft_Esd_BitmapInfo.h **** 	Ft_Esd_GpuHandle PaletteGpuHandle;
  30:FT_Esd_Framework/Ft_Esd_BitmapInfo.h **** 
  31:FT_Esd_Framework/Ft_Esd_BitmapInfo.h **** 	// When this is set, the allocated ram is not free'd automatically
  32:FT_Esd_Framework/Ft_Esd_BitmapInfo.h **** 	// Use Ft_Esd_GpuAlloc_Free(GpuAlloc, GpuHandle) to free the GPU ram manually
ARM GAS  /var/folders/n8/cvzdcwlj0vl4g_wtyz1ffy300000gn/T//ccgP0p27.s 			page 2


  33:FT_Esd_Framework/Ft_Esd_BitmapInfo.h **** 	ft_bool_t Persistent;
  34:FT_Esd_Framework/Ft_Esd_BitmapInfo.h **** 
  35:FT_Esd_Framework/Ft_Esd_BitmapInfo.h **** } Ft_Esd_BitmapInfo;
  36:FT_Esd_Framework/Ft_Esd_BitmapInfo.h **** 
  37:FT_Esd_Framework/Ft_Esd_BitmapInfo.h **** ESD_TYPE(Ft_Esd_BitmapInfo *, Native = Pointer, Edit = Library)
  38:FT_Esd_Framework/Ft_Esd_BitmapInfo.h **** 
  39:FT_Esd_Framework/Ft_Esd_BitmapInfo.h **** ESD_TYPE(Ft_Esd_BitmapCell, Native = Struct) // TODO: Struct support, expose values
  40:FT_Esd_Framework/Ft_Esd_BitmapInfo.h **** typedef struct
  41:FT_Esd_Framework/Ft_Esd_BitmapInfo.h **** {
  42:FT_Esd_Framework/Ft_Esd_BitmapInfo.h **** 	Ft_Esd_BitmapInfo *Info;
  43:FT_Esd_Framework/Ft_Esd_BitmapInfo.h **** 	ft_int32_t Cell;
  44:FT_Esd_Framework/Ft_Esd_BitmapInfo.h **** } Ft_Esd_BitmapCell;
  45:FT_Esd_Framework/Ft_Esd_BitmapInfo.h **** 
  46:FT_Esd_Framework/Ft_Esd_BitmapInfo.h **** ESD_TYPE(Ft_Esd_BitmapCell *, Native = Pointer, Edit = Library)
  47:FT_Esd_Framework/Ft_Esd_BitmapInfo.h **** 
  48:FT_Esd_Framework/Ft_Esd_BitmapInfo.h **** // Attempts to load the specified bitmap if it has not been loaded into RAM_G yet.
  49:FT_Esd_Framework/Ft_Esd_BitmapInfo.h **** // Call during the Update cycle of each frame to keep the bitmap flagged as in use, otherwise the m
  50:FT_Esd_Framework/Ft_Esd_BitmapInfo.h **** ESD_FUNCTION(Ft_Esd_LoadBitmap, Type = ft_uint32_t, Include = "Ft_Esd_BitmapInfo.h", DisplayName = 
  51:FT_Esd_Framework/Ft_Esd_BitmapInfo.h **** ESD_PARAMETER(bitmapInfo, Type = Ft_Esd_BitmapInfo *)
  52:FT_Esd_Framework/Ft_Esd_BitmapInfo.h **** ft_uint32_t Ft_Esd_LoadBitmap(Ft_Esd_BitmapInfo *bitmapInfo);
  53:FT_Esd_Framework/Ft_Esd_BitmapInfo.h **** 
  54:FT_Esd_Framework/Ft_Esd_BitmapInfo.h **** ESD_FUNCTION(Ft_Esd_LoadPalette, Type = ft_uint32_t, Include = "Ft_Esd_BitmapInfo.h", DisplayName =
  55:FT_Esd_Framework/Ft_Esd_BitmapInfo.h **** ESD_PARAMETER(bitmapInfo, Type = Ft_Esd_BitmapInfo *)
  56:FT_Esd_Framework/Ft_Esd_BitmapInfo.h **** ft_uint32_t Ft_Esd_LoadPalette(Ft_Esd_BitmapInfo *bitmapInfo);
  57:FT_Esd_Framework/Ft_Esd_BitmapInfo.h **** 
  58:FT_Esd_Framework/Ft_Esd_BitmapInfo.h **** ESD_ENUM(_BitmapResourceFormat, DisplayName = "Bitmap Format")
  59:FT_Esd_Framework/Ft_Esd_BitmapInfo.h **** ESD_IDENTIFIER(ARGB1555)
  60:FT_Esd_Framework/Ft_Esd_BitmapInfo.h **** ESD_IDENTIFIER(L1)
  61:FT_Esd_Framework/Ft_Esd_BitmapInfo.h **** ESD_IDENTIFIER(L2)
  62:FT_Esd_Framework/Ft_Esd_BitmapInfo.h **** ESD_IDENTIFIER(L4)
  63:FT_Esd_Framework/Ft_Esd_BitmapInfo.h **** ESD_IDENTIFIER(L8)
  64:FT_Esd_Framework/Ft_Esd_BitmapInfo.h **** ESD_IDENTIFIER(RGB332)
  65:FT_Esd_Framework/Ft_Esd_BitmapInfo.h **** ESD_IDENTIFIER(ARGB2)
  66:FT_Esd_Framework/Ft_Esd_BitmapInfo.h **** ESD_IDENTIFIER(ARGB4)
  67:FT_Esd_Framework/Ft_Esd_BitmapInfo.h **** ESD_IDENTIFIER(RGB565)
  68:FT_Esd_Framework/Ft_Esd_BitmapInfo.h **** ESD_IDENTIFIER(PALETTED565)
  69:FT_Esd_Framework/Ft_Esd_BitmapInfo.h **** ESD_IDENTIFIER(PALETTED4444)
  70:FT_Esd_Framework/Ft_Esd_BitmapInfo.h **** // ESD_IDENTIFIER(PALETTED8)
  71:FT_Esd_Framework/Ft_Esd_BitmapInfo.h **** // ESD_IDENTIFIER(JPEG)
  72:FT_Esd_Framework/Ft_Esd_BitmapInfo.h **** // ESD_IDENTIFIER(PNG)
  73:FT_Esd_Framework/Ft_Esd_BitmapInfo.h **** ESD_END()
  74:FT_Esd_Framework/Ft_Esd_BitmapInfo.h **** 
  75:FT_Esd_Framework/Ft_Esd_BitmapInfo.h **** ESD_LOGIC(Ft_Esd_SwitchBitmapCell, Callback, Include = "Ft_Esd_BitmapInfo.h", DisplayName = "Switch
  76:FT_Esd_Framework/Ft_Esd_BitmapInfo.h **** typedef struct
  77:FT_Esd_Framework/Ft_Esd_BitmapInfo.h **** {
  78:FT_Esd_Framework/Ft_Esd_BitmapInfo.h **** 	// Callback
  79:FT_Esd_Framework/Ft_Esd_BitmapInfo.h **** 	void *Parent;
  80:FT_Esd_Framework/Ft_Esd_BitmapInfo.h **** 
  81:FT_Esd_Framework/Ft_Esd_BitmapInfo.h **** 	//
  82:FT_Esd_Framework/Ft_Esd_BitmapInfo.h **** 	// Input
  83:FT_Esd_Framework/Ft_Esd_BitmapInfo.h **** 	//
  84:FT_Esd_Framework/Ft_Esd_BitmapInfo.h **** 
  85:FT_Esd_Framework/Ft_Esd_BitmapInfo.h **** 	ESD_INPUT(BitmapInfo, Type = Ft_Esd_BitmapInfo *, DisplayName = "Bitmap Info")
  86:FT_Esd_Framework/Ft_Esd_BitmapInfo.h **** 	Ft_Esd_BitmapInfo *(* BitmapInfo)(void *context);
  87:FT_Esd_Framework/Ft_Esd_BitmapInfo.h **** 
  88:FT_Esd_Framework/Ft_Esd_BitmapInfo.h **** 	ESD_INPUT(Cell, Type = ft_uint8_t, DisplayName = "Cell")
  89:FT_Esd_Framework/Ft_Esd_BitmapInfo.h **** 	ft_uint8_t(* Cell)(void *context);
ARM GAS  /var/folders/n8/cvzdcwlj0vl4g_wtyz1ffy300000gn/T//ccgP0p27.s 			page 3


  90:FT_Esd_Framework/Ft_Esd_BitmapInfo.h **** 
  91:FT_Esd_Framework/Ft_Esd_BitmapInfo.h **** 	//
  92:FT_Esd_Framework/Ft_Esd_BitmapInfo.h **** 	// Variables
  93:FT_Esd_Framework/Ft_Esd_BitmapInfo.h **** 	//
  94:FT_Esd_Framework/Ft_Esd_BitmapInfo.h **** 
  95:FT_Esd_Framework/Ft_Esd_BitmapInfo.h **** 	// BitmapCell object
  96:FT_Esd_Framework/Ft_Esd_BitmapInfo.h **** 	Ft_Esd_BitmapCell BitmapCell;
  97:FT_Esd_Framework/Ft_Esd_BitmapInfo.h **** 
  98:FT_Esd_Framework/Ft_Esd_BitmapInfo.h **** } Ft_Esd_SwitchBitmapCell;
  99:FT_Esd_Framework/Ft_Esd_BitmapInfo.h **** 
 100:FT_Esd_Framework/Ft_Esd_BitmapInfo.h **** void Ft_Esd_SwitchBitmapCell__Initializer(Ft_Esd_SwitchBitmapCell *context);
 101:FT_Esd_Framework/Ft_Esd_BitmapInfo.h **** 
 102:FT_Esd_Framework/Ft_Esd_BitmapInfo.h **** ESD_OUTPUT(BitmapCell, Type = Ft_Esd_BitmapCell *, DisplayName = "Bitmap Cell")
 103:FT_Esd_Framework/Ft_Esd_BitmapInfo.h **** Ft_Esd_BitmapCell *Ft_Esd_SwitchBitmapCell_BitmapCell(Ft_Esd_SwitchBitmapCell *context);
 104:FT_Esd_Framework/Ft_Esd_BitmapInfo.h **** 
 105:FT_Esd_Framework/Ft_Esd_BitmapInfo.h **** ESD_UPDATE(Ft_Esd_BitmapPersist, DisplayName = "Bitmap Persist", Category = EsdUtilities)
 106:FT_Esd_Framework/Ft_Esd_BitmapInfo.h **** ESD_PARAMETER(bitmapCell, Type = Ft_Esd_BitmapCell *)
 107:FT_Esd_Framework/Ft_Esd_BitmapInfo.h **** void Ft_Esd_BitmapPersist(Ft_Esd_BitmapCell *bitmapCell);
 108:FT_Esd_Framework/Ft_Esd_BitmapInfo.h **** 
 109:FT_Esd_Framework/Ft_Esd_BitmapInfo.h **** ESD_FUNCTION(Ft_Esd_BitmapCell_GetInfo, Type = Ft_Esd_BitmapInfo *, DisplayName = "ESD BitmapCell G
 110:FT_Esd_Framework/Ft_Esd_BitmapInfo.h **** ESD_PARAMETER(bitmapCell, Type = Ft_Esd_BitmapCell *)
 111:FT_Esd_Framework/Ft_Esd_BitmapInfo.h **** static Ft_Esd_BitmapInfo *Ft_Esd_BitmapCell_GetInfo(Ft_Esd_BitmapCell *bitmapCell)
 112:FT_Esd_Framework/Ft_Esd_BitmapInfo.h **** {
  27              		.loc 1 112 0
  28              		.cfi_startproc
  29              		@ args = 0, pretend = 0, frame = 8
  30              		@ frame_needed = 1, uses_anonymous_args = 0
  31              		@ link register save eliminated.
  32 0000 80B4     		push	{r7}
  33              	.LCFI0:
  34              		.cfi_def_cfa_offset 4
  35              		.cfi_offset 7, -4
  36 0002 83B0     		sub	sp, sp, #12
  37              	.LCFI1:
  38              		.cfi_def_cfa_offset 16
  39 0004 00AF     		add	r7, sp, #0
  40              	.LCFI2:
  41              		.cfi_def_cfa_register 7
  42 0006 7860     		str	r0, [r7, #4]
 113:FT_Esd_Framework/Ft_Esd_BitmapInfo.h **** 	if (!bitmapCell) return 0;
  43              		.loc 1 113 0
  44 0008 7B68     		ldr	r3, [r7, #4]
  45 000a 002B     		cmp	r3, #0
  46 000c 01D1     		bne	.L2
  47              		.loc 1 113 0 is_stmt 0 discriminator 1
  48 000e 0023     		movs	r3, #0
  49 0010 01E0     		b	.L3
  50              	.L2:
 114:FT_Esd_Framework/Ft_Esd_BitmapInfo.h **** 	return bitmapCell->Info;
  51              		.loc 1 114 0 is_stmt 1
  52 0012 7B68     		ldr	r3, [r7, #4]
  53 0014 1B68     		ldr	r3, [r3]
  54              	.L3:
 115:FT_Esd_Framework/Ft_Esd_BitmapInfo.h **** }
  55              		.loc 1 115 0
  56 0016 1846     		mov	r0, r3
  57 0018 0C37     		adds	r7, r7, #12
ARM GAS  /var/folders/n8/cvzdcwlj0vl4g_wtyz1ffy300000gn/T//ccgP0p27.s 			page 4


  58              	.LCFI3:
  59              		.cfi_def_cfa_offset 4
  60 001a BD46     		mov	sp, r7
  61              	.LCFI4:
  62              		.cfi_def_cfa_register 13
  63              		@ sp needed
  64 001c 5DF8047B 		ldr	r7, [sp], #4
  65              	.LCFI5:
  66              		.cfi_restore 7
  67              		.cfi_def_cfa_offset 0
  68 0020 7047     		bx	lr
  69              		.cfi_endproc
  70              	.LFE9:
  72              		.section	.text.MainPage_ESD3_Label_Font__Property,"ax",%progbits
  73              		.align	1
  74              		.syntax unified
  75              		.thumb
  76              		.thumb_func
  77              		.fpu fpv5-sp-d16
  79              	MainPage_ESD3_Label_Font__Property:
  80              	.LFB15:
  81              		.file 2 "Timer/MainPage__Generated.c"
   1:Timer/MainPage__Generated.c **** /*
   2:Timer/MainPage__Generated.c **** This file is automatically generated
   3:Timer/MainPage__Generated.c **** MainPage
   4:Timer/MainPage__Generated.c **** C Source
   5:Timer/MainPage__Generated.c **** */
   6:Timer/MainPage__Generated.c **** 
   7:Timer/MainPage__Generated.c **** #include "MainPage.h"
   8:Timer/MainPage__Generated.c **** 
   9:Timer/MainPage__Generated.c **** extern void Ft_Esd_Noop(void *context);
  10:Timer/MainPage__Generated.c **** 
  11:Timer/MainPage__Generated.c **** Ft_Esd_Theme * Ft_Esd_Theme_GetCurrent();
  12:Timer/MainPage__Generated.c **** static ft_int16_t MainPage_ESD3_Label_Font__Property(void *context) { return 31; }
  82              		.loc 2 12 0
  83              		.cfi_startproc
  84              		@ args = 0, pretend = 0, frame = 8
  85              		@ frame_needed = 1, uses_anonymous_args = 0
  86              		@ link register save eliminated.
  87 0000 80B4     		push	{r7}
  88              	.LCFI6:
  89              		.cfi_def_cfa_offset 4
  90              		.cfi_offset 7, -4
  91 0002 83B0     		sub	sp, sp, #12
  92              	.LCFI7:
  93              		.cfi_def_cfa_offset 16
  94 0004 00AF     		add	r7, sp, #0
  95              	.LCFI8:
  96              		.cfi_def_cfa_register 7
  97 0006 7860     		str	r0, [r7, #4]
  98              		.loc 2 12 0
  99 0008 1F23     		movs	r3, #31
 100 000a 1846     		mov	r0, r3
 101 000c 0C37     		adds	r7, r7, #12
 102              	.LCFI9:
 103              		.cfi_def_cfa_offset 4
 104 000e BD46     		mov	sp, r7
ARM GAS  /var/folders/n8/cvzdcwlj0vl4g_wtyz1ffy300000gn/T//ccgP0p27.s 			page 5


 105              	.LCFI10:
 106              		.cfi_def_cfa_register 13
 107              		@ sp needed
 108 0010 5DF8047B 		ldr	r7, [sp], #4
 109              	.LCFI11:
 110              		.cfi_restore 7
 111              		.cfi_def_cfa_offset 0
 112 0014 7047     		bx	lr
 113              		.cfi_endproc
 114              	.LFE15:
 116              		.section	.rodata
 117              		.align	2
 118              	.LC0:
 119 0000 45534433 		.ascii	"ESD3\000"
 119      00
 120              		.section	.text.MainPage_ESD3_Label_Text__Property,"ax",%progbits
 121              		.align	1
 122              		.syntax unified
 123              		.thumb
 124              		.thumb_func
 125              		.fpu fpv5-sp-d16
 127              	MainPage_ESD3_Label_Text__Property:
 128              	.LFB16:
  13:Timer/MainPage__Generated.c **** static const char * MainPage_ESD3_Label_Text__Property(void *context) { return "ESD3"; }
 129              		.loc 2 13 0
 130              		.cfi_startproc
 131              		@ args = 0, pretend = 0, frame = 8
 132              		@ frame_needed = 1, uses_anonymous_args = 0
 133              		@ link register save eliminated.
 134 0000 80B4     		push	{r7}
 135              	.LCFI12:
 136              		.cfi_def_cfa_offset 4
 137              		.cfi_offset 7, -4
 138 0002 83B0     		sub	sp, sp, #12
 139              	.LCFI13:
 140              		.cfi_def_cfa_offset 16
 141 0004 00AF     		add	r7, sp, #0
 142              	.LCFI14:
 143              		.cfi_def_cfa_register 7
 144 0006 7860     		str	r0, [r7, #4]
 145              		.loc 2 13 0
 146 0008 034B     		ldr	r3, .L8
 147 000a 1846     		mov	r0, r3
 148 000c 0C37     		adds	r7, r7, #12
 149              	.LCFI15:
 150              		.cfi_def_cfa_offset 4
 151 000e BD46     		mov	sp, r7
 152              	.LCFI16:
 153              		.cfi_def_cfa_register 13
 154              		@ sp needed
 155 0010 5DF8047B 		ldr	r7, [sp], #4
 156              	.LCFI17:
 157              		.cfi_restore 7
 158              		.cfi_def_cfa_offset 0
 159 0014 7047     		bx	lr
 160              	.L9:
 161 0016 00BF     		.align	2
ARM GAS  /var/folders/n8/cvzdcwlj0vl4g_wtyz1ffy300000gn/T//ccgP0p27.s 			page 6


 162              	.L8:
 163 0018 00000000 		.word	.LC0
 164              		.cfi_endproc
 165              	.LFE16:
 167              		.section	.text.MainPage_ESD3_Label_X__Property,"ax",%progbits
 168              		.align	1
 169              		.syntax unified
 170              		.thumb
 171              		.thumb_func
 172              		.fpu fpv5-sp-d16
 174              	MainPage_ESD3_Label_X__Property:
 175              	.LFB17:
  14:Timer/MainPage__Generated.c **** static ft_int16_t MainPage_ESD3_Label_X__Property(void *context) { return 6; }
 176              		.loc 2 14 0
 177              		.cfi_startproc
 178              		@ args = 0, pretend = 0, frame = 8
 179              		@ frame_needed = 1, uses_anonymous_args = 0
 180              		@ link register save eliminated.
 181 0000 80B4     		push	{r7}
 182              	.LCFI18:
 183              		.cfi_def_cfa_offset 4
 184              		.cfi_offset 7, -4
 185 0002 83B0     		sub	sp, sp, #12
 186              	.LCFI19:
 187              		.cfi_def_cfa_offset 16
 188 0004 00AF     		add	r7, sp, #0
 189              	.LCFI20:
 190              		.cfi_def_cfa_register 7
 191 0006 7860     		str	r0, [r7, #4]
 192              		.loc 2 14 0
 193 0008 0623     		movs	r3, #6
 194 000a 1846     		mov	r0, r3
 195 000c 0C37     		adds	r7, r7, #12
 196              	.LCFI21:
 197              		.cfi_def_cfa_offset 4
 198 000e BD46     		mov	sp, r7
 199              	.LCFI22:
 200              		.cfi_def_cfa_register 13
 201              		@ sp needed
 202 0010 5DF8047B 		ldr	r7, [sp], #4
 203              	.LCFI23:
 204              		.cfi_restore 7
 205              		.cfi_def_cfa_offset 0
 206 0014 7047     		bx	lr
 207              		.cfi_endproc
 208              	.LFE17:
 210              		.section	.text.MainPage_ESD_Push_Button_2_X__Property,"ax",%progbits
 211              		.align	1
 212              		.syntax unified
 213              		.thumb
 214              		.thumb_func
 215              		.fpu fpv5-sp-d16
 217              	MainPage_ESD_Push_Button_2_X__Property:
 218              	.LFB18:
  15:Timer/MainPage__Generated.c **** static ft_int16_t MainPage_ESD_Push_Button_2_X__Property(void *context) { return 576; }
 219              		.loc 2 15 0
 220              		.cfi_startproc
ARM GAS  /var/folders/n8/cvzdcwlj0vl4g_wtyz1ffy300000gn/T//ccgP0p27.s 			page 7


 221              		@ args = 0, pretend = 0, frame = 8
 222              		@ frame_needed = 1, uses_anonymous_args = 0
 223              		@ link register save eliminated.
 224 0000 80B4     		push	{r7}
 225              	.LCFI24:
 226              		.cfi_def_cfa_offset 4
 227              		.cfi_offset 7, -4
 228 0002 83B0     		sub	sp, sp, #12
 229              	.LCFI25:
 230              		.cfi_def_cfa_offset 16
 231 0004 00AF     		add	r7, sp, #0
 232              	.LCFI26:
 233              		.cfi_def_cfa_register 7
 234 0006 7860     		str	r0, [r7, #4]
 235              		.loc 2 15 0
 236 0008 4FF41073 		mov	r3, #576
 237 000c 1846     		mov	r0, r3
 238 000e 0C37     		adds	r7, r7, #12
 239              	.LCFI27:
 240              		.cfi_def_cfa_offset 4
 241 0010 BD46     		mov	sp, r7
 242              	.LCFI28:
 243              		.cfi_def_cfa_register 13
 244              		@ sp needed
 245 0012 5DF8047B 		ldr	r7, [sp], #4
 246              	.LCFI29:
 247              		.cfi_restore 7
 248              		.cfi_def_cfa_offset 0
 249 0016 7047     		bx	lr
 250              		.cfi_endproc
 251              	.LFE18:
 253              		.section	.text.MainPage_ESD_Push_Button_2_Y__Property,"ax",%progbits
 254              		.align	1
 255              		.syntax unified
 256              		.thumb
 257              		.thumb_func
 258              		.fpu fpv5-sp-d16
 260              	MainPage_ESD_Push_Button_2_Y__Property:
 261              	.LFB19:
  16:Timer/MainPage__Generated.c **** static ft_int16_t MainPage_ESD_Push_Button_2_Y__Property(void *context) { return 188; }
 262              		.loc 2 16 0
 263              		.cfi_startproc
 264              		@ args = 0, pretend = 0, frame = 8
 265              		@ frame_needed = 1, uses_anonymous_args = 0
 266              		@ link register save eliminated.
 267 0000 80B4     		push	{r7}
 268              	.LCFI30:
 269              		.cfi_def_cfa_offset 4
 270              		.cfi_offset 7, -4
 271 0002 83B0     		sub	sp, sp, #12
 272              	.LCFI31:
 273              		.cfi_def_cfa_offset 16
 274 0004 00AF     		add	r7, sp, #0
 275              	.LCFI32:
 276              		.cfi_def_cfa_register 7
 277 0006 7860     		str	r0, [r7, #4]
 278              		.loc 2 16 0
ARM GAS  /var/folders/n8/cvzdcwlj0vl4g_wtyz1ffy300000gn/T//ccgP0p27.s 			page 8


 279 0008 BC23     		movs	r3, #188
 280 000a 1846     		mov	r0, r3
 281 000c 0C37     		adds	r7, r7, #12
 282              	.LCFI33:
 283              		.cfi_def_cfa_offset 4
 284 000e BD46     		mov	sp, r7
 285              	.LCFI34:
 286              		.cfi_def_cfa_register 13
 287              		@ sp needed
 288 0010 5DF8047B 		ldr	r7, [sp], #4
 289              	.LCFI35:
 290              		.cfi_restore 7
 291              		.cfi_def_cfa_offset 0
 292 0014 7047     		bx	lr
 293              		.cfi_endproc
 294              	.LFE19:
 296              		.section	.rodata
 297 0005 000000   		.align	2
 298              	.LC1:
 299 0008 48616C74 		.ascii	"Halt\000"
 299      00
 300              		.section	.text.MainPage_ESD_Push_Button_2_Text__Property,"ax",%progbits
 301              		.align	1
 302              		.syntax unified
 303              		.thumb
 304              		.thumb_func
 305              		.fpu fpv5-sp-d16
 307              	MainPage_ESD_Push_Button_2_Text__Property:
 308              	.LFB20:
  17:Timer/MainPage__Generated.c **** static const char * MainPage_ESD_Push_Button_2_Text__Property(void *context) { return "Halt"; }
 309              		.loc 2 17 0
 310              		.cfi_startproc
 311              		@ args = 0, pretend = 0, frame = 8
 312              		@ frame_needed = 1, uses_anonymous_args = 0
 313              		@ link register save eliminated.
 314 0000 80B4     		push	{r7}
 315              	.LCFI36:
 316              		.cfi_def_cfa_offset 4
 317              		.cfi_offset 7, -4
 318 0002 83B0     		sub	sp, sp, #12
 319              	.LCFI37:
 320              		.cfi_def_cfa_offset 16
 321 0004 00AF     		add	r7, sp, #0
 322              	.LCFI38:
 323              		.cfi_def_cfa_register 7
 324 0006 7860     		str	r0, [r7, #4]
 325              		.loc 2 17 0
 326 0008 034B     		ldr	r3, .L18
 327 000a 1846     		mov	r0, r3
 328 000c 0C37     		adds	r7, r7, #12
 329              	.LCFI39:
 330              		.cfi_def_cfa_offset 4
 331 000e BD46     		mov	sp, r7
 332              	.LCFI40:
 333              		.cfi_def_cfa_register 13
 334              		@ sp needed
 335 0010 5DF8047B 		ldr	r7, [sp], #4
ARM GAS  /var/folders/n8/cvzdcwlj0vl4g_wtyz1ffy300000gn/T//ccgP0p27.s 			page 9


 336              	.LCFI41:
 337              		.cfi_restore 7
 338              		.cfi_def_cfa_offset 0
 339 0014 7047     		bx	lr
 340              	.L19:
 341 0016 00BF     		.align	2
 342              	.L18:
 343 0018 08000000 		.word	.LC1
 344              		.cfi_endproc
 345              	.LFE20:
 347              		.section	.text.MainPage_ESD_Push_Button_X__Property,"ax",%progbits
 348              		.align	1
 349              		.syntax unified
 350              		.thumb
 351              		.thumb_func
 352              		.fpu fpv5-sp-d16
 354              	MainPage_ESD_Push_Button_X__Property:
 355              	.LFB21:
  18:Timer/MainPage__Generated.c **** static ft_int16_t MainPage_ESD_Push_Button_X__Property(void *context) { return 573; }
 356              		.loc 2 18 0
 357              		.cfi_startproc
 358              		@ args = 0, pretend = 0, frame = 8
 359              		@ frame_needed = 1, uses_anonymous_args = 0
 360              		@ link register save eliminated.
 361 0000 80B4     		push	{r7}
 362              	.LCFI42:
 363              		.cfi_def_cfa_offset 4
 364              		.cfi_offset 7, -4
 365 0002 83B0     		sub	sp, sp, #12
 366              	.LCFI43:
 367              		.cfi_def_cfa_offset 16
 368 0004 00AF     		add	r7, sp, #0
 369              	.LCFI44:
 370              		.cfi_def_cfa_register 7
 371 0006 7860     		str	r0, [r7, #4]
 372              		.loc 2 18 0
 373 0008 40F23D23 		movw	r3, #573
 374 000c 1846     		mov	r0, r3
 375 000e 0C37     		adds	r7, r7, #12
 376              	.LCFI45:
 377              		.cfi_def_cfa_offset 4
 378 0010 BD46     		mov	sp, r7
 379              	.LCFI46:
 380              		.cfi_def_cfa_register 13
 381              		@ sp needed
 382 0012 5DF8047B 		ldr	r7, [sp], #4
 383              	.LCFI47:
 384              		.cfi_restore 7
 385              		.cfi_def_cfa_offset 0
 386 0016 7047     		bx	lr
 387              		.cfi_endproc
 388              	.LFE21:
 390              		.section	.text.MainPage_ESD_Push_Button_Y__Property,"ax",%progbits
 391              		.align	1
 392              		.syntax unified
 393              		.thumb
 394              		.thumb_func
ARM GAS  /var/folders/n8/cvzdcwlj0vl4g_wtyz1ffy300000gn/T//ccgP0p27.s 			page 10


 395              		.fpu fpv5-sp-d16
 397              	MainPage_ESD_Push_Button_Y__Property:
 398              	.LFB22:
  19:Timer/MainPage__Generated.c **** static ft_int16_t MainPage_ESD_Push_Button_Y__Property(void *context) { return 126; }
 399              		.loc 2 19 0
 400              		.cfi_startproc
 401              		@ args = 0, pretend = 0, frame = 8
 402              		@ frame_needed = 1, uses_anonymous_args = 0
 403              		@ link register save eliminated.
 404 0000 80B4     		push	{r7}
 405              	.LCFI48:
 406              		.cfi_def_cfa_offset 4
 407              		.cfi_offset 7, -4
 408 0002 83B0     		sub	sp, sp, #12
 409              	.LCFI49:
 410              		.cfi_def_cfa_offset 16
 411 0004 00AF     		add	r7, sp, #0
 412              	.LCFI50:
 413              		.cfi_def_cfa_register 7
 414 0006 7860     		str	r0, [r7, #4]
 415              		.loc 2 19 0
 416 0008 7E23     		movs	r3, #126
 417 000a 1846     		mov	r0, r3
 418 000c 0C37     		adds	r7, r7, #12
 419              	.LCFI51:
 420              		.cfi_def_cfa_offset 4
 421 000e BD46     		mov	sp, r7
 422              	.LCFI52:
 423              		.cfi_def_cfa_register 13
 424              		@ sp needed
 425 0010 5DF8047B 		ldr	r7, [sp], #4
 426              	.LCFI53:
 427              		.cfi_restore 7
 428              		.cfi_def_cfa_offset 0
 429 0014 7047     		bx	lr
 430              		.cfi_endproc
 431              	.LFE22:
 433              		.section	.rodata
 434 000d 000000   		.align	2
 435              	.LC2:
 436 0010 52756E00 		.ascii	"Run\000"
 437              		.section	.text.MainPage_ESD_Push_Button_Text__Property,"ax",%progbits
 438              		.align	1
 439              		.syntax unified
 440              		.thumb
 441              		.thumb_func
 442              		.fpu fpv5-sp-d16
 444              	MainPage_ESD_Push_Button_Text__Property:
 445              	.LFB23:
  20:Timer/MainPage__Generated.c **** static const char * MainPage_ESD_Push_Button_Text__Property(void *context) { return "Run"; }
 446              		.loc 2 20 0
 447              		.cfi_startproc
 448              		@ args = 0, pretend = 0, frame = 8
 449              		@ frame_needed = 1, uses_anonymous_args = 0
 450              		@ link register save eliminated.
 451 0000 80B4     		push	{r7}
 452              	.LCFI54:
ARM GAS  /var/folders/n8/cvzdcwlj0vl4g_wtyz1ffy300000gn/T//ccgP0p27.s 			page 11


 453              		.cfi_def_cfa_offset 4
 454              		.cfi_offset 7, -4
 455 0002 83B0     		sub	sp, sp, #12
 456              	.LCFI55:
 457              		.cfi_def_cfa_offset 16
 458 0004 00AF     		add	r7, sp, #0
 459              	.LCFI56:
 460              		.cfi_def_cfa_register 7
 461 0006 7860     		str	r0, [r7, #4]
 462              		.loc 2 20 0
 463 0008 034B     		ldr	r3, .L26
 464 000a 1846     		mov	r0, r3
 465 000c 0C37     		adds	r7, r7, #12
 466              	.LCFI57:
 467              		.cfi_def_cfa_offset 4
 468 000e BD46     		mov	sp, r7
 469              	.LCFI58:
 470              		.cfi_def_cfa_register 13
 471              		@ sp needed
 472 0010 5DF8047B 		ldr	r7, [sp], #4
 473              	.LCFI59:
 474              		.cfi_restore 7
 475              		.cfi_def_cfa_offset 0
 476 0014 7047     		bx	lr
 477              	.L27:
 478 0016 00BF     		.align	2
 479              	.L26:
 480 0018 10000000 		.word	.LC2
 481              		.cfi_endproc
 482              	.LFE23:
 484              		.section	.text.MainPage_ESD_SpinBox_X__Property,"ax",%progbits
 485              		.align	1
 486              		.syntax unified
 487              		.thumb
 488              		.thumb_func
 489              		.fpu fpv5-sp-d16
 491              	MainPage_ESD_SpinBox_X__Property:
 492              	.LFB24:
  21:Timer/MainPage__Generated.c **** static ft_int16_t MainPage_ESD_SpinBox_X__Property(void *context) { return 18; }
 493              		.loc 2 21 0
 494              		.cfi_startproc
 495              		@ args = 0, pretend = 0, frame = 8
 496              		@ frame_needed = 1, uses_anonymous_args = 0
 497              		@ link register save eliminated.
 498 0000 80B4     		push	{r7}
 499              	.LCFI60:
 500              		.cfi_def_cfa_offset 4
 501              		.cfi_offset 7, -4
 502 0002 83B0     		sub	sp, sp, #12
 503              	.LCFI61:
 504              		.cfi_def_cfa_offset 16
 505 0004 00AF     		add	r7, sp, #0
 506              	.LCFI62:
 507              		.cfi_def_cfa_register 7
 508 0006 7860     		str	r0, [r7, #4]
 509              		.loc 2 21 0
 510 0008 1223     		movs	r3, #18
ARM GAS  /var/folders/n8/cvzdcwlj0vl4g_wtyz1ffy300000gn/T//ccgP0p27.s 			page 12


 511 000a 1846     		mov	r0, r3
 512 000c 0C37     		adds	r7, r7, #12
 513              	.LCFI63:
 514              		.cfi_def_cfa_offset 4
 515 000e BD46     		mov	sp, r7
 516              	.LCFI64:
 517              		.cfi_def_cfa_register 13
 518              		@ sp needed
 519 0010 5DF8047B 		ldr	r7, [sp], #4
 520              	.LCFI65:
 521              		.cfi_restore 7
 522              		.cfi_def_cfa_offset 0
 523 0014 7047     		bx	lr
 524              		.cfi_endproc
 525              	.LFE24:
 527              		.section	.text.MainPage_ESD_SpinBox_Y__Property,"ax",%progbits
 528              		.align	1
 529              		.syntax unified
 530              		.thumb
 531              		.thumb_func
 532              		.fpu fpv5-sp-d16
 534              	MainPage_ESD_SpinBox_Y__Property:
 535              	.LFB25:
  22:Timer/MainPage__Generated.c **** static ft_int16_t MainPage_ESD_SpinBox_Y__Property(void *context) { return 258; }
 536              		.loc 2 22 0
 537              		.cfi_startproc
 538              		@ args = 0, pretend = 0, frame = 8
 539              		@ frame_needed = 1, uses_anonymous_args = 0
 540              		@ link register save eliminated.
 541 0000 80B4     		push	{r7}
 542              	.LCFI66:
 543              		.cfi_def_cfa_offset 4
 544              		.cfi_offset 7, -4
 545 0002 83B0     		sub	sp, sp, #12
 546              	.LCFI67:
 547              		.cfi_def_cfa_offset 16
 548 0004 00AF     		add	r7, sp, #0
 549              	.LCFI68:
 550              		.cfi_def_cfa_register 7
 551 0006 7860     		str	r0, [r7, #4]
 552              		.loc 2 22 0
 553 0008 4FF48173 		mov	r3, #258
 554 000c 1846     		mov	r0, r3
 555 000e 0C37     		adds	r7, r7, #12
 556              	.LCFI69:
 557              		.cfi_def_cfa_offset 4
 558 0010 BD46     		mov	sp, r7
 559              	.LCFI70:
 560              		.cfi_def_cfa_register 13
 561              		@ sp needed
 562 0012 5DF8047B 		ldr	r7, [sp], #4
 563              	.LCFI71:
 564              		.cfi_restore 7
 565              		.cfi_def_cfa_offset 0
 566 0016 7047     		bx	lr
 567              		.cfi_endproc
 568              	.LFE25:
ARM GAS  /var/folders/n8/cvzdcwlj0vl4g_wtyz1ffy300000gn/T//ccgP0p27.s 			page 13


 570              		.section	.text.MainPage_ESD_SpinBox_3_X__Property,"ax",%progbits
 571              		.align	1
 572              		.syntax unified
 573              		.thumb
 574              		.thumb_func
 575              		.fpu fpv5-sp-d16
 577              	MainPage_ESD_SpinBox_3_X__Property:
 578              	.LFB26:
  23:Timer/MainPage__Generated.c **** static ft_int16_t MainPage_ESD_SpinBox_3_X__Property(void *context) { return 527; }
 579              		.loc 2 23 0
 580              		.cfi_startproc
 581              		@ args = 0, pretend = 0, frame = 8
 582              		@ frame_needed = 1, uses_anonymous_args = 0
 583              		@ link register save eliminated.
 584 0000 80B4     		push	{r7}
 585              	.LCFI72:
 586              		.cfi_def_cfa_offset 4
 587              		.cfi_offset 7, -4
 588 0002 83B0     		sub	sp, sp, #12
 589              	.LCFI73:
 590              		.cfi_def_cfa_offset 16
 591 0004 00AF     		add	r7, sp, #0
 592              	.LCFI74:
 593              		.cfi_def_cfa_register 7
 594 0006 7860     		str	r0, [r7, #4]
 595              		.loc 2 23 0
 596 0008 40F20F23 		movw	r3, #527
 597 000c 1846     		mov	r0, r3
 598 000e 0C37     		adds	r7, r7, #12
 599              	.LCFI75:
 600              		.cfi_def_cfa_offset 4
 601 0010 BD46     		mov	sp, r7
 602              	.LCFI76:
 603              		.cfi_def_cfa_register 13
 604              		@ sp needed
 605 0012 5DF8047B 		ldr	r7, [sp], #4
 606              	.LCFI77:
 607              		.cfi_restore 7
 608              		.cfi_def_cfa_offset 0
 609 0016 7047     		bx	lr
 610              		.cfi_endproc
 611              	.LFE26:
 613              		.section	.text.MainPage_ESD_SpinBox_3_Y__Property,"ax",%progbits
 614              		.align	1
 615              		.syntax unified
 616              		.thumb
 617              		.thumb_func
 618              		.fpu fpv5-sp-d16
 620              	MainPage_ESD_SpinBox_3_Y__Property:
 621              	.LFB27:
  24:Timer/MainPage__Generated.c **** static ft_int16_t MainPage_ESD_SpinBox_3_Y__Property(void *context) { return 258; }
 622              		.loc 2 24 0
 623              		.cfi_startproc
 624              		@ args = 0, pretend = 0, frame = 8
 625              		@ frame_needed = 1, uses_anonymous_args = 0
 626              		@ link register save eliminated.
 627 0000 80B4     		push	{r7}
ARM GAS  /var/folders/n8/cvzdcwlj0vl4g_wtyz1ffy300000gn/T//ccgP0p27.s 			page 14


 628              	.LCFI78:
 629              		.cfi_def_cfa_offset 4
 630              		.cfi_offset 7, -4
 631 0002 83B0     		sub	sp, sp, #12
 632              	.LCFI79:
 633              		.cfi_def_cfa_offset 16
 634 0004 00AF     		add	r7, sp, #0
 635              	.LCFI80:
 636              		.cfi_def_cfa_register 7
 637 0006 7860     		str	r0, [r7, #4]
 638              		.loc 2 24 0
 639 0008 4FF48173 		mov	r3, #258
 640 000c 1846     		mov	r0, r3
 641 000e 0C37     		adds	r7, r7, #12
 642              	.LCFI81:
 643              		.cfi_def_cfa_offset 4
 644 0010 BD46     		mov	sp, r7
 645              	.LCFI82:
 646              		.cfi_def_cfa_register 13
 647              		@ sp needed
 648 0012 5DF8047B 		ldr	r7, [sp], #4
 649              	.LCFI83:
 650              		.cfi_restore 7
 651              		.cfi_def_cfa_offset 0
 652 0016 7047     		bx	lr
 653              		.cfi_endproc
 654              	.LFE27:
 656              		.section	.text.MainPage_ESD_SpinBox_2_X__Property,"ax",%progbits
 657              		.align	1
 658              		.syntax unified
 659              		.thumb
 660              		.thumb_func
 661              		.fpu fpv5-sp-d16
 663              	MainPage_ESD_SpinBox_2_X__Property:
 664              	.LFB28:
  25:Timer/MainPage__Generated.c **** static ft_int16_t MainPage_ESD_SpinBox_2_X__Property(void *context) { return 272; }
 665              		.loc 2 25 0
 666              		.cfi_startproc
 667              		@ args = 0, pretend = 0, frame = 8
 668              		@ frame_needed = 1, uses_anonymous_args = 0
 669              		@ link register save eliminated.
 670 0000 80B4     		push	{r7}
 671              	.LCFI84:
 672              		.cfi_def_cfa_offset 4
 673              		.cfi_offset 7, -4
 674 0002 83B0     		sub	sp, sp, #12
 675              	.LCFI85:
 676              		.cfi_def_cfa_offset 16
 677 0004 00AF     		add	r7, sp, #0
 678              	.LCFI86:
 679              		.cfi_def_cfa_register 7
 680 0006 7860     		str	r0, [r7, #4]
 681              		.loc 2 25 0
 682 0008 4FF48873 		mov	r3, #272
 683 000c 1846     		mov	r0, r3
 684 000e 0C37     		adds	r7, r7, #12
 685              	.LCFI87:
ARM GAS  /var/folders/n8/cvzdcwlj0vl4g_wtyz1ffy300000gn/T//ccgP0p27.s 			page 15


 686              		.cfi_def_cfa_offset 4
 687 0010 BD46     		mov	sp, r7
 688              	.LCFI88:
 689              		.cfi_def_cfa_register 13
 690              		@ sp needed
 691 0012 5DF8047B 		ldr	r7, [sp], #4
 692              	.LCFI89:
 693              		.cfi_restore 7
 694              		.cfi_def_cfa_offset 0
 695 0016 7047     		bx	lr
 696              		.cfi_endproc
 697              	.LFE28:
 699              		.section	.text.MainPage_ESD_SpinBox_2_Y__Property,"ax",%progbits
 700              		.align	1
 701              		.syntax unified
 702              		.thumb
 703              		.thumb_func
 704              		.fpu fpv5-sp-d16
 706              	MainPage_ESD_SpinBox_2_Y__Property:
 707              	.LFB29:
  26:Timer/MainPage__Generated.c **** static ft_int16_t MainPage_ESD_SpinBox_2_Y__Property(void *context) { return 258; }
 708              		.loc 2 26 0
 709              		.cfi_startproc
 710              		@ args = 0, pretend = 0, frame = 8
 711              		@ frame_needed = 1, uses_anonymous_args = 0
 712              		@ link register save eliminated.
 713 0000 80B4     		push	{r7}
 714              	.LCFI90:
 715              		.cfi_def_cfa_offset 4
 716              		.cfi_offset 7, -4
 717 0002 83B0     		sub	sp, sp, #12
 718              	.LCFI91:
 719              		.cfi_def_cfa_offset 16
 720 0004 00AF     		add	r7, sp, #0
 721              	.LCFI92:
 722              		.cfi_def_cfa_register 7
 723 0006 7860     		str	r0, [r7, #4]
 724              		.loc 2 26 0
 725 0008 4FF48173 		mov	r3, #258
 726 000c 1846     		mov	r0, r3
 727 000e 0C37     		adds	r7, r7, #12
 728              	.LCFI93:
 729              		.cfi_def_cfa_offset 4
 730 0010 BD46     		mov	sp, r7
 731              	.LCFI94:
 732              		.cfi_def_cfa_register 13
 733              		@ sp needed
 734 0012 5DF8047B 		ldr	r7, [sp], #4
 735              	.LCFI95:
 736              		.cfi_restore 7
 737              		.cfi_def_cfa_offset 0
 738 0016 7047     		bx	lr
 739              		.cfi_endproc
 740              	.LFE29:
 742              		.section	.text.MainPage__Initializer,"ax",%progbits
 743              		.align	1
 744              		.global	MainPage__Initializer
ARM GAS  /var/folders/n8/cvzdcwlj0vl4g_wtyz1ffy300000gn/T//ccgP0p27.s 			page 16


 745              		.syntax unified
 746              		.thumb
 747              		.thumb_func
 748              		.fpu fpv5-sp-d16
 750              	MainPage__Initializer:
 751              	.LFB30:
  27:Timer/MainPage__Generated.c **** 
  28:Timer/MainPage__Generated.c **** static void MainPage_ESD_Timer_2_Fired__Signal(void *context);
  29:Timer/MainPage__Generated.c **** static void MainPage_ESD_Timer_Fired__Signal(void *context);
  30:Timer/MainPage__Generated.c **** static void MainPage_ESD_Timer_3_Fired__Signal(void *context);
  31:Timer/MainPage__Generated.c **** static void MainPage_ESD_Push_Button_2_Pushed__Signal(void *context);
  32:Timer/MainPage__Generated.c **** static void MainPage_ESD_Push_Button_Pushed__Signal(void *context);
  33:Timer/MainPage__Generated.c **** 
  34:Timer/MainPage__Generated.c **** void MainPage__Initializer(MainPage *context)
  35:Timer/MainPage__Generated.c **** {
 752              		.loc 2 35 0
 753              		.cfi_startproc
 754              		@ args = 0, pretend = 0, frame = 8
 755              		@ frame_needed = 1, uses_anonymous_args = 0
 756 0000 80B5     		push	{r7, lr}
 757              	.LCFI96:
 758              		.cfi_def_cfa_offset 8
 759              		.cfi_offset 7, -8
 760              		.cfi_offset 14, -4
 761 0002 82B0     		sub	sp, sp, #8
 762              	.LCFI97:
 763              		.cfi_def_cfa_offset 16
 764 0004 00AF     		add	r7, sp, #0
 765              	.LCFI98:
 766              		.cfi_def_cfa_register 7
 767 0006 7860     		str	r0, [r7, #4]
  36:Timer/MainPage__Generated.c **** 	context->Parent = 0;
 768              		.loc 2 36 0
 769 0008 7B68     		ldr	r3, [r7, #4]
 770 000a 0022     		movs	r2, #0
 771 000c 1A60     		str	r2, [r3]
  37:Timer/MainPage__Generated.c **** 	Ft_Esd_Timer__Initializer(&context->ESD_Timer_2);
 772              		.loc 2 37 0
 773 000e 7B68     		ldr	r3, [r7, #4]
 774 0010 0433     		adds	r3, r3, #4
 775 0012 1846     		mov	r0, r3
 776 0014 FFF7FEFF 		bl	Ft_Esd_Timer__Initializer
  38:Timer/MainPage__Generated.c **** 	context->ESD_Timer_2.Parent = context;
 777              		.loc 2 38 0
 778 0018 7B68     		ldr	r3, [r7, #4]
 779 001a 7A68     		ldr	r2, [r7, #4]
 780 001c 5A60     		str	r2, [r3, #4]
  39:Timer/MainPage__Generated.c **** 	context->ESD_Timer_2.TimeoutMs = 300L;
 781              		.loc 2 39 0
 782 001e 7B68     		ldr	r3, [r7, #4]
 783 0020 4FF49672 		mov	r2, #300
 784 0024 DA60     		str	r2, [r3, #12]
  40:Timer/MainPage__Generated.c **** 	context->ESD_Timer_2.Repeat = 1;
 785              		.loc 2 40 0
 786 0026 7B68     		ldr	r3, [r7, #4]
 787 0028 0122     		movs	r2, #1
 788 002a 1A74     		strb	r2, [r3, #16]
ARM GAS  /var/folders/n8/cvzdcwlj0vl4g_wtyz1ffy300000gn/T//ccgP0p27.s 			page 17


  41:Timer/MainPage__Generated.c **** 	context->ESD_Timer_2.Fired = MainPage_ESD_Timer_2_Fired__Signal;
 789              		.loc 2 41 0
 790 002c 7B68     		ldr	r3, [r7, #4]
 791 002e 4D4A     		ldr	r2, .L41
 792 0030 9A60     		str	r2, [r3, #8]
  42:Timer/MainPage__Generated.c **** 	Ft_Esd_Timer__Initializer(&context->ESD_Timer);
 793              		.loc 2 42 0
 794 0032 7B68     		ldr	r3, [r7, #4]
 795 0034 1433     		adds	r3, r3, #20
 796 0036 1846     		mov	r0, r3
 797 0038 FFF7FEFF 		bl	Ft_Esd_Timer__Initializer
  43:Timer/MainPage__Generated.c **** 	context->ESD_Timer.Parent = context;
 798              		.loc 2 43 0
 799 003c 7B68     		ldr	r3, [r7, #4]
 800 003e 7A68     		ldr	r2, [r7, #4]
 801 0040 5A61     		str	r2, [r3, #20]
  44:Timer/MainPage__Generated.c **** 	context->ESD_Timer.Repeat = 1;
 802              		.loc 2 44 0
 803 0042 7B68     		ldr	r3, [r7, #4]
 804 0044 0122     		movs	r2, #1
 805 0046 83F82020 		strb	r2, [r3, #32]
  45:Timer/MainPage__Generated.c **** 	context->ESD_Timer.Fired = MainPage_ESD_Timer_Fired__Signal;
 806              		.loc 2 45 0
 807 004a 7B68     		ldr	r3, [r7, #4]
 808 004c 464A     		ldr	r2, .L41+4
 809 004e 9A61     		str	r2, [r3, #24]
  46:Timer/MainPage__Generated.c **** 	Ft_Esd_Timer__Initializer(&context->ESD_Timer_3);
 810              		.loc 2 46 0
 811 0050 7B68     		ldr	r3, [r7, #4]
 812 0052 2433     		adds	r3, r3, #36
 813 0054 1846     		mov	r0, r3
 814 0056 FFF7FEFF 		bl	Ft_Esd_Timer__Initializer
  47:Timer/MainPage__Generated.c **** 	context->ESD_Timer_3.Parent = context;
 815              		.loc 2 47 0
 816 005a 7B68     		ldr	r3, [r7, #4]
 817 005c 7A68     		ldr	r2, [r7, #4]
 818 005e 5A62     		str	r2, [r3, #36]
  48:Timer/MainPage__Generated.c **** 	context->ESD_Timer_3.TimeoutMs = 90L;
 819              		.loc 2 48 0
 820 0060 7B68     		ldr	r3, [r7, #4]
 821 0062 5A22     		movs	r2, #90
 822 0064 DA62     		str	r2, [r3, #44]
  49:Timer/MainPage__Generated.c **** 	context->ESD_Timer_3.Repeat = 1;
 823              		.loc 2 49 0
 824 0066 7B68     		ldr	r3, [r7, #4]
 825 0068 0122     		movs	r2, #1
 826 006a 83F83020 		strb	r2, [r3, #48]
  50:Timer/MainPage__Generated.c **** 	context->ESD_Timer_3.Fired = MainPage_ESD_Timer_3_Fired__Signal;
 827              		.loc 2 50 0
 828 006e 7B68     		ldr	r3, [r7, #4]
 829 0070 3E4A     		ldr	r2, .L41+8
 830 0072 9A62     		str	r2, [r3, #40]
  51:Timer/MainPage__Generated.c **** 	Ft_Esd_Label__Initializer(&context->ESD3_Label);
 831              		.loc 2 51 0
 832 0074 7B68     		ldr	r3, [r7, #4]
 833 0076 3433     		adds	r3, r3, #52
 834 0078 1846     		mov	r0, r3
ARM GAS  /var/folders/n8/cvzdcwlj0vl4g_wtyz1ffy300000gn/T//ccgP0p27.s 			page 18


 835 007a FFF7FEFF 		bl	Ft_Esd_Label__Initializer
  52:Timer/MainPage__Generated.c **** 	context->ESD3_Label.Parent = context;
 836              		.loc 2 52 0
 837 007e 7B68     		ldr	r3, [r7, #4]
 838 0080 7A68     		ldr	r2, [r7, #4]
 839 0082 5A63     		str	r2, [r3, #52]
  53:Timer/MainPage__Generated.c **** 	context->ESD3_Label.Font = MainPage_ESD3_Label_Font__Property;
 840              		.loc 2 53 0
 841 0084 7B68     		ldr	r3, [r7, #4]
 842 0086 3A4A     		ldr	r2, .L41+12
 843 0088 DA63     		str	r2, [r3, #60]
  54:Timer/MainPage__Generated.c **** 	context->ESD3_Label.Text = MainPage_ESD3_Label_Text__Property;
 844              		.loc 2 54 0
 845 008a 7B68     		ldr	r3, [r7, #4]
 846 008c 394A     		ldr	r2, .L41+16
 847 008e 1A64     		str	r2, [r3, #64]
  55:Timer/MainPage__Generated.c **** 	context->ESD3_Label.X = MainPage_ESD3_Label_X__Property;
 848              		.loc 2 55 0
 849 0090 7B68     		ldr	r3, [r7, #4]
 850 0092 394A     		ldr	r2, .L41+20
 851 0094 5A64     		str	r2, [r3, #68]
  56:Timer/MainPage__Generated.c **** 	Ft_Esd_PushButton__Initializer(&context->ESD_Push_Button_2);
 852              		.loc 2 56 0
 853 0096 7B68     		ldr	r3, [r7, #4]
 854 0098 5C33     		adds	r3, r3, #92
 855 009a 1846     		mov	r0, r3
 856 009c FFF7FEFF 		bl	Ft_Esd_PushButton__Initializer
  57:Timer/MainPage__Generated.c **** 	context->ESD_Push_Button_2.Parent = context;
 857              		.loc 2 57 0
 858 00a0 7B68     		ldr	r3, [r7, #4]
 859 00a2 7A68     		ldr	r2, [r7, #4]
 860 00a4 DA65     		str	r2, [r3, #92]
  58:Timer/MainPage__Generated.c **** 	context->ESD_Push_Button_2.X = MainPage_ESD_Push_Button_2_X__Property;
 861              		.loc 2 58 0
 862 00a6 7B68     		ldr	r3, [r7, #4]
 863 00a8 344A     		ldr	r2, .L41+24
 864 00aa 5A66     		str	r2, [r3, #100]
  59:Timer/MainPage__Generated.c **** 	context->ESD_Push_Button_2.Y = MainPage_ESD_Push_Button_2_Y__Property;
 865              		.loc 2 59 0
 866 00ac 7B68     		ldr	r3, [r7, #4]
 867 00ae 344A     		ldr	r2, .L41+28
 868 00b0 9A66     		str	r2, [r3, #104]
  60:Timer/MainPage__Generated.c **** 	context->ESD_Push_Button_2.Text = MainPage_ESD_Push_Button_2_Text__Property;
 869              		.loc 2 60 0
 870 00b2 7B68     		ldr	r3, [r7, #4]
 871 00b4 334A     		ldr	r2, .L41+32
 872 00b6 9A67     		str	r2, [r3, #120]
  61:Timer/MainPage__Generated.c **** 	context->ESD_Push_Button_2.Pushed = MainPage_ESD_Push_Button_2_Pushed__Signal;
 873              		.loc 2 61 0
 874 00b8 7B68     		ldr	r3, [r7, #4]
 875 00ba 334A     		ldr	r2, .L41+36
 876 00bc C3F8A020 		str	r2, [r3, #160]
  62:Timer/MainPage__Generated.c **** 	Ft_Esd_PushButton__Initializer(&context->ESD_Push_Button);
 877              		.loc 2 62 0
 878 00c0 7B68     		ldr	r3, [r7, #4]
 879 00c2 A433     		adds	r3, r3, #164
 880 00c4 1846     		mov	r0, r3
ARM GAS  /var/folders/n8/cvzdcwlj0vl4g_wtyz1ffy300000gn/T//ccgP0p27.s 			page 19


 881 00c6 FFF7FEFF 		bl	Ft_Esd_PushButton__Initializer
  63:Timer/MainPage__Generated.c **** 	context->ESD_Push_Button.Parent = context;
 882              		.loc 2 63 0
 883 00ca 7B68     		ldr	r3, [r7, #4]
 884 00cc 7A68     		ldr	r2, [r7, #4]
 885 00ce C3F8A420 		str	r2, [r3, #164]
  64:Timer/MainPage__Generated.c **** 	context->ESD_Push_Button.X = MainPage_ESD_Push_Button_X__Property;
 886              		.loc 2 64 0
 887 00d2 7B68     		ldr	r3, [r7, #4]
 888 00d4 2D4A     		ldr	r2, .L41+40
 889 00d6 C3F8AC20 		str	r2, [r3, #172]
  65:Timer/MainPage__Generated.c **** 	context->ESD_Push_Button.Y = MainPage_ESD_Push_Button_Y__Property;
 890              		.loc 2 65 0
 891 00da 7B68     		ldr	r3, [r7, #4]
 892 00dc 2C4A     		ldr	r2, .L41+44
 893 00de C3F8B020 		str	r2, [r3, #176]
  66:Timer/MainPage__Generated.c **** 	context->ESD_Push_Button.Text = MainPage_ESD_Push_Button_Text__Property;
 894              		.loc 2 66 0
 895 00e2 7B68     		ldr	r3, [r7, #4]
 896 00e4 2B4A     		ldr	r2, .L41+48
 897 00e6 C3F8C020 		str	r2, [r3, #192]
  67:Timer/MainPage__Generated.c **** 	context->ESD_Push_Button.Pushed = MainPage_ESD_Push_Button_Pushed__Signal;
 898              		.loc 2 67 0
 899 00ea 7B68     		ldr	r3, [r7, #4]
 900 00ec 2A4A     		ldr	r2, .L41+52
 901 00ee C3F8E820 		str	r2, [r3, #232]
  68:Timer/MainPage__Generated.c **** 	Ft_Esd_SpinBox__Initializer(&context->ESD_SpinBox);
 902              		.loc 2 68 0
 903 00f2 7B68     		ldr	r3, [r7, #4]
 904 00f4 EC33     		adds	r3, r3, #236
 905 00f6 1846     		mov	r0, r3
 906 00f8 FFF7FEFF 		bl	Ft_Esd_SpinBox__Initializer
  69:Timer/MainPage__Generated.c **** 	context->ESD_SpinBox.Parent = context;
 907              		.loc 2 69 0
 908 00fc 7B68     		ldr	r3, [r7, #4]
 909 00fe 7A68     		ldr	r2, [r7, #4]
 910 0100 C3F8EC20 		str	r2, [r3, #236]
  70:Timer/MainPage__Generated.c **** 	context->ESD_SpinBox.X = MainPage_ESD_SpinBox_X__Property;
 911              		.loc 2 70 0
 912 0104 7B68     		ldr	r3, [r7, #4]
 913 0106 254A     		ldr	r2, .L41+56
 914 0108 C3F80C21 		str	r2, [r3, #268]
  71:Timer/MainPage__Generated.c **** 	context->ESD_SpinBox.Y = MainPage_ESD_SpinBox_Y__Property;
 915              		.loc 2 71 0
 916 010c 7B68     		ldr	r3, [r7, #4]
 917 010e 244A     		ldr	r2, .L41+60
 918 0110 C3F81021 		str	r2, [r3, #272]
  72:Timer/MainPage__Generated.c **** 	Ft_Esd_SpinBox__Initializer(&context->ESD_SpinBox_3);
 919              		.loc 2 72 0
 920 0114 7B68     		ldr	r3, [r7, #4]
 921 0116 03F50373 		add	r3, r3, #524
 922 011a 1846     		mov	r0, r3
 923 011c FFF7FEFF 		bl	Ft_Esd_SpinBox__Initializer
  73:Timer/MainPage__Generated.c **** 	context->ESD_SpinBox_3.Parent = context;
 924              		.loc 2 73 0
 925 0120 7B68     		ldr	r3, [r7, #4]
 926 0122 7A68     		ldr	r2, [r7, #4]
ARM GAS  /var/folders/n8/cvzdcwlj0vl4g_wtyz1ffy300000gn/T//ccgP0p27.s 			page 20


 927 0124 C3F80C22 		str	r2, [r3, #524]
  74:Timer/MainPage__Generated.c **** 	context->ESD_SpinBox_3.X = MainPage_ESD_SpinBox_3_X__Property;
 928              		.loc 2 74 0
 929 0128 7B68     		ldr	r3, [r7, #4]
 930 012a 1E4A     		ldr	r2, .L41+64
 931 012c C3F82C22 		str	r2, [r3, #556]
  75:Timer/MainPage__Generated.c **** 	context->ESD_SpinBox_3.Y = MainPage_ESD_SpinBox_3_Y__Property;
 932              		.loc 2 75 0
 933 0130 7B68     		ldr	r3, [r7, #4]
 934 0132 1D4A     		ldr	r2, .L41+68
 935 0134 C3F83022 		str	r2, [r3, #560]
  76:Timer/MainPage__Generated.c **** 	Ft_Esd_SpinBox__Initializer(&context->ESD_SpinBox_2);
 936              		.loc 2 76 0
 937 0138 7B68     		ldr	r3, [r7, #4]
 938 013a 03F54B73 		add	r3, r3, #812
 939 013e 1846     		mov	r0, r3
 940 0140 FFF7FEFF 		bl	Ft_Esd_SpinBox__Initializer
  77:Timer/MainPage__Generated.c **** 	context->ESD_SpinBox_2.Parent = context;
 941              		.loc 2 77 0
 942 0144 7B68     		ldr	r3, [r7, #4]
 943 0146 7A68     		ldr	r2, [r7, #4]
 944 0148 C3F82C23 		str	r2, [r3, #812]
  78:Timer/MainPage__Generated.c **** 	context->ESD_SpinBox_2.X = MainPage_ESD_SpinBox_2_X__Property;
 945              		.loc 2 78 0
 946 014c 7B68     		ldr	r3, [r7, #4]
 947 014e 174A     		ldr	r2, .L41+72
 948 0150 C3F84C23 		str	r2, [r3, #844]
  79:Timer/MainPage__Generated.c **** 	context->ESD_SpinBox_2.Y = MainPage_ESD_SpinBox_2_Y__Property;
 949              		.loc 2 79 0
 950 0154 7B68     		ldr	r3, [r7, #4]
 951 0156 164A     		ldr	r2, .L41+76
 952 0158 C3F85023 		str	r2, [r3, #848]
  80:Timer/MainPage__Generated.c **** }
 953              		.loc 2 80 0
 954 015c 00BF     		nop
 955 015e 0837     		adds	r7, r7, #8
 956              	.LCFI99:
 957              		.cfi_def_cfa_offset 8
 958 0160 BD46     		mov	sp, r7
 959              	.LCFI100:
 960              		.cfi_def_cfa_register 13
 961              		@ sp needed
 962 0162 80BD     		pop	{r7, pc}
 963              	.L42:
 964              		.align	2
 965              	.L41:
 966 0164 00000000 		.word	MainPage_ESD_Timer_2_Fired__Signal
 967 0168 00000000 		.word	MainPage_ESD_Timer_Fired__Signal
 968 016c 00000000 		.word	MainPage_ESD_Timer_3_Fired__Signal
 969 0170 00000000 		.word	MainPage_ESD3_Label_Font__Property
 970 0174 00000000 		.word	MainPage_ESD3_Label_Text__Property
 971 0178 00000000 		.word	MainPage_ESD3_Label_X__Property
 972 017c 00000000 		.word	MainPage_ESD_Push_Button_2_X__Property
 973 0180 00000000 		.word	MainPage_ESD_Push_Button_2_Y__Property
 974 0184 00000000 		.word	MainPage_ESD_Push_Button_2_Text__Property
 975 0188 00000000 		.word	MainPage_ESD_Push_Button_2_Pushed__Signal
 976 018c 00000000 		.word	MainPage_ESD_Push_Button_X__Property
ARM GAS  /var/folders/n8/cvzdcwlj0vl4g_wtyz1ffy300000gn/T//ccgP0p27.s 			page 21


 977 0190 00000000 		.word	MainPage_ESD_Push_Button_Y__Property
 978 0194 00000000 		.word	MainPage_ESD_Push_Button_Text__Property
 979 0198 00000000 		.word	MainPage_ESD_Push_Button_Pushed__Signal
 980 019c 00000000 		.word	MainPage_ESD_SpinBox_X__Property
 981 01a0 00000000 		.word	MainPage_ESD_SpinBox_Y__Property
 982 01a4 00000000 		.word	MainPage_ESD_SpinBox_3_X__Property
 983 01a8 00000000 		.word	MainPage_ESD_SpinBox_3_Y__Property
 984 01ac 00000000 		.word	MainPage_ESD_SpinBox_2_X__Property
 985 01b0 00000000 		.word	MainPage_ESD_SpinBox_2_Y__Property
 986              		.cfi_endproc
 987              	.LFE30:
 989              		.section	.text.MainPage_Start,"ax",%progbits
 990              		.align	1
 991              		.global	MainPage_Start
 992              		.syntax unified
 993              		.thumb
 994              		.thumb_func
 995              		.fpu fpv5-sp-d16
 997              	MainPage_Start:
 998              	.LFB31:
  81:Timer/MainPage__Generated.c **** 
  82:Timer/MainPage__Generated.c **** void MainPage_Start(MainPage *context)
  83:Timer/MainPage__Generated.c **** {
 999              		.loc 2 83 0
 1000              		.cfi_startproc
 1001              		@ args = 0, pretend = 0, frame = 16
 1002              		@ frame_needed = 1, uses_anonymous_args = 0
 1003 0000 80B5     		push	{r7, lr}
 1004              	.LCFI101:
 1005              		.cfi_def_cfa_offset 8
 1006              		.cfi_offset 7, -8
 1007              		.cfi_offset 14, -4
 1008 0002 84B0     		sub	sp, sp, #16
 1009              	.LCFI102:
 1010              		.cfi_def_cfa_offset 24
 1011 0004 00AF     		add	r7, sp, #0
 1012              	.LCFI103:
 1013              		.cfi_def_cfa_register 7
 1014 0006 7860     		str	r0, [r7, #4]
  84:Timer/MainPage__Generated.c **** 	void *parent = context->Parent;
 1015              		.loc 2 84 0
 1016 0008 7B68     		ldr	r3, [r7, #4]
 1017 000a 1B68     		ldr	r3, [r3]
 1018 000c FB60     		str	r3, [r7, #12]
  85:Timer/MainPage__Generated.c **** 	Ft_Esd_PushButton_Start(&context->ESD_Push_Button_2);
 1019              		.loc 2 85 0
 1020 000e 7B68     		ldr	r3, [r7, #4]
 1021 0010 5C33     		adds	r3, r3, #92
 1022 0012 1846     		mov	r0, r3
 1023 0014 FFF7FEFF 		bl	Ft_Esd_PushButton_Start
  86:Timer/MainPage__Generated.c **** 	Ft_Esd_PushButton_Start(&context->ESD_Push_Button);
 1024              		.loc 2 86 0
 1025 0018 7B68     		ldr	r3, [r7, #4]
 1026 001a A433     		adds	r3, r3, #164
 1027 001c 1846     		mov	r0, r3
 1028 001e FFF7FEFF 		bl	Ft_Esd_PushButton_Start
  87:Timer/MainPage__Generated.c **** 	Ft_Esd_SpinBox_Start(&context->ESD_SpinBox);
ARM GAS  /var/folders/n8/cvzdcwlj0vl4g_wtyz1ffy300000gn/T//ccgP0p27.s 			page 22


 1029              		.loc 2 87 0
 1030 0022 7B68     		ldr	r3, [r7, #4]
 1031 0024 EC33     		adds	r3, r3, #236
 1032 0026 1846     		mov	r0, r3
 1033 0028 FFF7FEFF 		bl	Ft_Esd_SpinBox_Start
  88:Timer/MainPage__Generated.c **** 	Ft_Esd_SpinBox_Start(&context->ESD_SpinBox_3);
 1034              		.loc 2 88 0
 1035 002c 7B68     		ldr	r3, [r7, #4]
 1036 002e 03F50373 		add	r3, r3, #524
 1037 0032 1846     		mov	r0, r3
 1038 0034 FFF7FEFF 		bl	Ft_Esd_SpinBox_Start
  89:Timer/MainPage__Generated.c **** 	Ft_Esd_SpinBox_Start(&context->ESD_SpinBox_2);
 1039              		.loc 2 89 0
 1040 0038 7B68     		ldr	r3, [r7, #4]
 1041 003a 03F54B73 		add	r3, r3, #812
 1042 003e 1846     		mov	r0, r3
 1043 0040 FFF7FEFF 		bl	Ft_Esd_SpinBox_Start
  90:Timer/MainPage__Generated.c **** }
 1044              		.loc 2 90 0
 1045 0044 00BF     		nop
 1046 0046 1037     		adds	r7, r7, #16
 1047              	.LCFI104:
 1048              		.cfi_def_cfa_offset 8
 1049 0048 BD46     		mov	sp, r7
 1050              	.LCFI105:
 1051              		.cfi_def_cfa_register 13
 1052              		@ sp needed
 1053 004a 80BD     		pop	{r7, pc}
 1054              		.cfi_endproc
 1055              	.LFE31:
 1057              		.section	.text.MainPage_Update,"ax",%progbits
 1058              		.align	1
 1059              		.global	MainPage_Update
 1060              		.syntax unified
 1061              		.thumb
 1062              		.thumb_func
 1063              		.fpu fpv5-sp-d16
 1065              	MainPage_Update:
 1066              	.LFB32:
  91:Timer/MainPage__Generated.c **** 
  92:Timer/MainPage__Generated.c **** void MainPage_Update(MainPage *context)
  93:Timer/MainPage__Generated.c **** {
 1067              		.loc 2 93 0
 1068              		.cfi_startproc
 1069              		@ args = 0, pretend = 0, frame = 16
 1070              		@ frame_needed = 1, uses_anonymous_args = 0
 1071 0000 80B5     		push	{r7, lr}
 1072              	.LCFI106:
 1073              		.cfi_def_cfa_offset 8
 1074              		.cfi_offset 7, -8
 1075              		.cfi_offset 14, -4
 1076 0002 84B0     		sub	sp, sp, #16
 1077              	.LCFI107:
 1078              		.cfi_def_cfa_offset 24
 1079 0004 00AF     		add	r7, sp, #0
 1080              	.LCFI108:
 1081              		.cfi_def_cfa_register 7
ARM GAS  /var/folders/n8/cvzdcwlj0vl4g_wtyz1ffy300000gn/T//ccgP0p27.s 			page 23


 1082 0006 7860     		str	r0, [r7, #4]
  94:Timer/MainPage__Generated.c **** 	void *parent = context->Parent;
 1083              		.loc 2 94 0
 1084 0008 7B68     		ldr	r3, [r7, #4]
 1085 000a 1B68     		ldr	r3, [r3]
 1086 000c FB60     		str	r3, [r7, #12]
  95:Timer/MainPage__Generated.c **** 	Ft_Esd_PushButton_Update(&context->ESD_Push_Button_2);
 1087              		.loc 2 95 0
 1088 000e 7B68     		ldr	r3, [r7, #4]
 1089 0010 5C33     		adds	r3, r3, #92
 1090 0012 1846     		mov	r0, r3
 1091 0014 FFF7FEFF 		bl	Ft_Esd_PushButton_Update
  96:Timer/MainPage__Generated.c **** 	Ft_Esd_PushButton_Update(&context->ESD_Push_Button);
 1092              		.loc 2 96 0
 1093 0018 7B68     		ldr	r3, [r7, #4]
 1094 001a A433     		adds	r3, r3, #164
 1095 001c 1846     		mov	r0, r3
 1096 001e FFF7FEFF 		bl	Ft_Esd_PushButton_Update
  97:Timer/MainPage__Generated.c **** 	Ft_Esd_SpinBox_Update(&context->ESD_SpinBox);
 1097              		.loc 2 97 0
 1098 0022 7B68     		ldr	r3, [r7, #4]
 1099 0024 EC33     		adds	r3, r3, #236
 1100 0026 1846     		mov	r0, r3
 1101 0028 FFF7FEFF 		bl	Ft_Esd_SpinBox_Update
  98:Timer/MainPage__Generated.c **** 	Ft_Esd_SpinBox_Update(&context->ESD_SpinBox_3);
 1102              		.loc 2 98 0
 1103 002c 7B68     		ldr	r3, [r7, #4]
 1104 002e 03F50373 		add	r3, r3, #524
 1105 0032 1846     		mov	r0, r3
 1106 0034 FFF7FEFF 		bl	Ft_Esd_SpinBox_Update
  99:Timer/MainPage__Generated.c **** 	Ft_Esd_SpinBox_Update(&context->ESD_SpinBox_2);
 1107              		.loc 2 99 0
 1108 0038 7B68     		ldr	r3, [r7, #4]
 1109 003a 03F54B73 		add	r3, r3, #812
 1110 003e 1846     		mov	r0, r3
 1111 0040 FFF7FEFF 		bl	Ft_Esd_SpinBox_Update
 100:Timer/MainPage__Generated.c **** }
 1112              		.loc 2 100 0
 1113 0044 00BF     		nop
 1114 0046 1037     		adds	r7, r7, #16
 1115              	.LCFI109:
 1116              		.cfi_def_cfa_offset 8
 1117 0048 BD46     		mov	sp, r7
 1118              	.LCFI110:
 1119              		.cfi_def_cfa_register 13
 1120              		@ sp needed
 1121 004a 80BD     		pop	{r7, pc}
 1122              		.cfi_endproc
 1123              	.LFE32:
 1125              		.section	.text.MainPage_Render,"ax",%progbits
 1126              		.align	1
 1127              		.global	MainPage_Render
 1128              		.syntax unified
 1129              		.thumb
 1130              		.thumb_func
 1131              		.fpu fpv5-sp-d16
 1133              	MainPage_Render:
ARM GAS  /var/folders/n8/cvzdcwlj0vl4g_wtyz1ffy300000gn/T//ccgP0p27.s 			page 24


 1134              	.LFB33:
 101:Timer/MainPage__Generated.c **** 
 102:Timer/MainPage__Generated.c **** void MainPage_Render(MainPage *context)
 103:Timer/MainPage__Generated.c **** {
 1135              		.loc 2 103 0
 1136              		.cfi_startproc
 1137              		@ args = 0, pretend = 0, frame = 16
 1138              		@ frame_needed = 1, uses_anonymous_args = 0
 1139 0000 80B5     		push	{r7, lr}
 1140              	.LCFI111:
 1141              		.cfi_def_cfa_offset 8
 1142              		.cfi_offset 7, -8
 1143              		.cfi_offset 14, -4
 1144 0002 84B0     		sub	sp, sp, #16
 1145              	.LCFI112:
 1146              		.cfi_def_cfa_offset 24
 1147 0004 00AF     		add	r7, sp, #0
 1148              	.LCFI113:
 1149              		.cfi_def_cfa_register 7
 1150 0006 7860     		str	r0, [r7, #4]
 104:Timer/MainPage__Generated.c **** 	void *parent = context->Parent;
 1151              		.loc 2 104 0
 1152 0008 7B68     		ldr	r3, [r7, #4]
 1153 000a 1B68     		ldr	r3, [r3]
 1154 000c FB60     		str	r3, [r7, #12]
 105:Timer/MainPage__Generated.c **** 	Ft_Esd_Label_Render(&context->ESD3_Label);
 1155              		.loc 2 105 0
 1156 000e 7B68     		ldr	r3, [r7, #4]
 1157 0010 3433     		adds	r3, r3, #52
 1158 0012 1846     		mov	r0, r3
 1159 0014 FFF7FEFF 		bl	Ft_Esd_Label_Render
 106:Timer/MainPage__Generated.c **** 	Ft_Esd_PushButton_Render(&context->ESD_Push_Button_2);
 1160              		.loc 2 106 0
 1161 0018 7B68     		ldr	r3, [r7, #4]
 1162 001a 5C33     		adds	r3, r3, #92
 1163 001c 1846     		mov	r0, r3
 1164 001e FFF7FEFF 		bl	Ft_Esd_PushButton_Render
 107:Timer/MainPage__Generated.c **** 	Ft_Esd_PushButton_Render(&context->ESD_Push_Button);
 1165              		.loc 2 107 0
 1166 0022 7B68     		ldr	r3, [r7, #4]
 1167 0024 A433     		adds	r3, r3, #164
 1168 0026 1846     		mov	r0, r3
 1169 0028 FFF7FEFF 		bl	Ft_Esd_PushButton_Render
 108:Timer/MainPage__Generated.c **** 	Ft_Esd_SpinBox_Render(&context->ESD_SpinBox);
 1170              		.loc 2 108 0
 1171 002c 7B68     		ldr	r3, [r7, #4]
 1172 002e EC33     		adds	r3, r3, #236
 1173 0030 1846     		mov	r0, r3
 1174 0032 FFF7FEFF 		bl	Ft_Esd_SpinBox_Render
 109:Timer/MainPage__Generated.c **** 	Ft_Esd_SpinBox_Render(&context->ESD_SpinBox_3);
 1175              		.loc 2 109 0
 1176 0036 7B68     		ldr	r3, [r7, #4]
 1177 0038 03F50373 		add	r3, r3, #524
 1178 003c 1846     		mov	r0, r3
 1179 003e FFF7FEFF 		bl	Ft_Esd_SpinBox_Render
 110:Timer/MainPage__Generated.c **** 	Ft_Esd_SpinBox_Render(&context->ESD_SpinBox_2);
 1180              		.loc 2 110 0
ARM GAS  /var/folders/n8/cvzdcwlj0vl4g_wtyz1ffy300000gn/T//ccgP0p27.s 			page 25


 1181 0042 7B68     		ldr	r3, [r7, #4]
 1182 0044 03F54B73 		add	r3, r3, #812
 1183 0048 1846     		mov	r0, r3
 1184 004a FFF7FEFF 		bl	Ft_Esd_SpinBox_Render
 111:Timer/MainPage__Generated.c **** }
 1185              		.loc 2 111 0
 1186 004e 00BF     		nop
 1187 0050 1037     		adds	r7, r7, #16
 1188              	.LCFI114:
 1189              		.cfi_def_cfa_offset 8
 1190 0052 BD46     		mov	sp, r7
 1191              	.LCFI115:
 1192              		.cfi_def_cfa_register 13
 1193              		@ sp needed
 1194 0054 80BD     		pop	{r7, pc}
 1195              		.cfi_endproc
 1196              	.LFE33:
 1198              		.section	.text.MainPage_Idle,"ax",%progbits
 1199              		.align	1
 1200              		.global	MainPage_Idle
 1201              		.syntax unified
 1202              		.thumb
 1203              		.thumb_func
 1204              		.fpu fpv5-sp-d16
 1206              	MainPage_Idle:
 1207              	.LFB34:
 112:Timer/MainPage__Generated.c **** 
 113:Timer/MainPage__Generated.c **** void MainPage_Idle(MainPage *context)
 114:Timer/MainPage__Generated.c **** {
 1208              		.loc 2 114 0
 1209              		.cfi_startproc
 1210              		@ args = 0, pretend = 0, frame = 16
 1211              		@ frame_needed = 1, uses_anonymous_args = 0
 1212              		@ link register save eliminated.
 1213 0000 80B4     		push	{r7}
 1214              	.LCFI116:
 1215              		.cfi_def_cfa_offset 4
 1216              		.cfi_offset 7, -4
 1217 0002 85B0     		sub	sp, sp, #20
 1218              	.LCFI117:
 1219              		.cfi_def_cfa_offset 24
 1220 0004 00AF     		add	r7, sp, #0
 1221              	.LCFI118:
 1222              		.cfi_def_cfa_register 7
 1223 0006 7860     		str	r0, [r7, #4]
 115:Timer/MainPage__Generated.c **** 	void *parent = context->Parent;
 1224              		.loc 2 115 0
 1225 0008 7B68     		ldr	r3, [r7, #4]
 1226 000a 1B68     		ldr	r3, [r3]
 1227 000c FB60     		str	r3, [r7, #12]
 116:Timer/MainPage__Generated.c **** }
 1228              		.loc 2 116 0
 1229 000e 00BF     		nop
 1230 0010 1437     		adds	r7, r7, #20
 1231              	.LCFI119:
 1232              		.cfi_def_cfa_offset 4
 1233 0012 BD46     		mov	sp, r7
ARM GAS  /var/folders/n8/cvzdcwlj0vl4g_wtyz1ffy300000gn/T//ccgP0p27.s 			page 26


 1234              	.LCFI120:
 1235              		.cfi_def_cfa_register 13
 1236              		@ sp needed
 1237 0014 5DF8047B 		ldr	r7, [sp], #4
 1238              	.LCFI121:
 1239              		.cfi_restore 7
 1240              		.cfi_def_cfa_offset 0
 1241 0018 7047     		bx	lr
 1242              		.cfi_endproc
 1243              	.LFE34:
 1245              		.section	.text.MainPage_End,"ax",%progbits
 1246              		.align	1
 1247              		.global	MainPage_End
 1248              		.syntax unified
 1249              		.thumb
 1250              		.thumb_func
 1251              		.fpu fpv5-sp-d16
 1253              	MainPage_End:
 1254              	.LFB35:
 117:Timer/MainPage__Generated.c **** 
 118:Timer/MainPage__Generated.c **** void MainPage_End(MainPage *context)
 119:Timer/MainPage__Generated.c **** {
 1255              		.loc 2 119 0
 1256              		.cfi_startproc
 1257              		@ args = 0, pretend = 0, frame = 16
 1258              		@ frame_needed = 1, uses_anonymous_args = 0
 1259 0000 80B5     		push	{r7, lr}
 1260              	.LCFI122:
 1261              		.cfi_def_cfa_offset 8
 1262              		.cfi_offset 7, -8
 1263              		.cfi_offset 14, -4
 1264 0002 84B0     		sub	sp, sp, #16
 1265              	.LCFI123:
 1266              		.cfi_def_cfa_offset 24
 1267 0004 00AF     		add	r7, sp, #0
 1268              	.LCFI124:
 1269              		.cfi_def_cfa_register 7
 1270 0006 7860     		str	r0, [r7, #4]
 120:Timer/MainPage__Generated.c **** 	void *parent = context->Parent;
 1271              		.loc 2 120 0
 1272 0008 7B68     		ldr	r3, [r7, #4]
 1273 000a 1B68     		ldr	r3, [r3]
 1274 000c FB60     		str	r3, [r7, #12]
 121:Timer/MainPage__Generated.c **** 	Ft_Esd_Timer_End(&context->ESD_Timer_2);
 1275              		.loc 2 121 0
 1276 000e 7B68     		ldr	r3, [r7, #4]
 1277 0010 0433     		adds	r3, r3, #4
 1278 0012 1846     		mov	r0, r3
 1279 0014 FFF7FEFF 		bl	Ft_Esd_Timer_End
 122:Timer/MainPage__Generated.c **** 	Ft_Esd_Timer_End(&context->ESD_Timer);
 1280              		.loc 2 122 0
 1281 0018 7B68     		ldr	r3, [r7, #4]
 1282 001a 1433     		adds	r3, r3, #20
 1283 001c 1846     		mov	r0, r3
 1284 001e FFF7FEFF 		bl	Ft_Esd_Timer_End
 123:Timer/MainPage__Generated.c **** 	Ft_Esd_Timer_End(&context->ESD_Timer_3);
 1285              		.loc 2 123 0
ARM GAS  /var/folders/n8/cvzdcwlj0vl4g_wtyz1ffy300000gn/T//ccgP0p27.s 			page 27


 1286 0022 7B68     		ldr	r3, [r7, #4]
 1287 0024 2433     		adds	r3, r3, #36
 1288 0026 1846     		mov	r0, r3
 1289 0028 FFF7FEFF 		bl	Ft_Esd_Timer_End
 124:Timer/MainPage__Generated.c **** 	Ft_Esd_PushButton_End(&context->ESD_Push_Button_2);
 1290              		.loc 2 124 0
 1291 002c 7B68     		ldr	r3, [r7, #4]
 1292 002e 5C33     		adds	r3, r3, #92
 1293 0030 1846     		mov	r0, r3
 1294 0032 FFF7FEFF 		bl	Ft_Esd_PushButton_End
 125:Timer/MainPage__Generated.c **** 	Ft_Esd_PushButton_End(&context->ESD_Push_Button);
 1295              		.loc 2 125 0
 1296 0036 7B68     		ldr	r3, [r7, #4]
 1297 0038 A433     		adds	r3, r3, #164
 1298 003a 1846     		mov	r0, r3
 1299 003c FFF7FEFF 		bl	Ft_Esd_PushButton_End
 126:Timer/MainPage__Generated.c **** 	Ft_Esd_SpinBox_End(&context->ESD_SpinBox);
 1300              		.loc 2 126 0
 1301 0040 7B68     		ldr	r3, [r7, #4]
 1302 0042 EC33     		adds	r3, r3, #236
 1303 0044 1846     		mov	r0, r3
 1304 0046 FFF7FEFF 		bl	Ft_Esd_SpinBox_End
 127:Timer/MainPage__Generated.c **** 	Ft_Esd_SpinBox_End(&context->ESD_SpinBox_3);
 1305              		.loc 2 127 0
 1306 004a 7B68     		ldr	r3, [r7, #4]
 1307 004c 03F50373 		add	r3, r3, #524
 1308 0050 1846     		mov	r0, r3
 1309 0052 FFF7FEFF 		bl	Ft_Esd_SpinBox_End
 128:Timer/MainPage__Generated.c **** 	Ft_Esd_SpinBox_End(&context->ESD_SpinBox_2);
 1310              		.loc 2 128 0
 1311 0056 7B68     		ldr	r3, [r7, #4]
 1312 0058 03F54B73 		add	r3, r3, #812
 1313 005c 1846     		mov	r0, r3
 1314 005e FFF7FEFF 		bl	Ft_Esd_SpinBox_End
 129:Timer/MainPage__Generated.c **** }
 1315              		.loc 2 129 0
 1316 0062 00BF     		nop
 1317 0064 1037     		adds	r7, r7, #16
 1318              	.LCFI125:
 1319              		.cfi_def_cfa_offset 8
 1320 0066 BD46     		mov	sp, r7
 1321              	.LCFI126:
 1322              		.cfi_def_cfa_register 13
 1323              		@ sp needed
 1324 0068 80BD     		pop	{r7, pc}
 1325              		.cfi_endproc
 1326              	.LFE35:
 1328              		.section	.text.MainPage_ESD_Timer_2_Fired__Signal,"ax",%progbits
 1329              		.align	1
 1330              		.syntax unified
 1331              		.thumb
 1332              		.thumb_func
 1333              		.fpu fpv5-sp-d16
 1335              	MainPage_ESD_Timer_2_Fired__Signal:
 1336              	.LFB36:
 130:Timer/MainPage__Generated.c **** 
 131:Timer/MainPage__Generated.c **** void MainPage_ESD_Timer_2_Fired__Signal(void *c)
ARM GAS  /var/folders/n8/cvzdcwlj0vl4g_wtyz1ffy300000gn/T//ccgP0p27.s 			page 28


 132:Timer/MainPage__Generated.c **** {
 1337              		.loc 2 132 0
 1338              		.cfi_startproc
 1339              		@ args = 0, pretend = 0, frame = 16
 1340              		@ frame_needed = 1, uses_anonymous_args = 0
 1341 0000 80B5     		push	{r7, lr}
 1342              	.LCFI127:
 1343              		.cfi_def_cfa_offset 8
 1344              		.cfi_offset 7, -8
 1345              		.cfi_offset 14, -4
 1346 0002 84B0     		sub	sp, sp, #16
 1347              	.LCFI128:
 1348              		.cfi_def_cfa_offset 24
 1349 0004 00AF     		add	r7, sp, #0
 1350              	.LCFI129:
 1351              		.cfi_def_cfa_register 7
 1352 0006 7860     		str	r0, [r7, #4]
 133:Timer/MainPage__Generated.c **** 	MainPage *context = (MainPage *)c;
 1353              		.loc 2 133 0
 1354 0008 7B68     		ldr	r3, [r7, #4]
 1355 000a FB60     		str	r3, [r7, #12]
 134:Timer/MainPage__Generated.c **** 	void *parent = context->Parent;
 1356              		.loc 2 134 0
 1357 000c FB68     		ldr	r3, [r7, #12]
 1358 000e 1B68     		ldr	r3, [r3]
 1359 0010 BB60     		str	r3, [r7, #8]
 135:Timer/MainPage__Generated.c **** 	Ft_Esd_SpinBox_Increase(&context->ESD_SpinBox_2);
 1360              		.loc 2 135 0
 1361 0012 FB68     		ldr	r3, [r7, #12]
 1362 0014 03F54B73 		add	r3, r3, #812
 1363 0018 1846     		mov	r0, r3
 1364 001a FFF7FEFF 		bl	Ft_Esd_SpinBox_Increase
 136:Timer/MainPage__Generated.c **** }
 1365              		.loc 2 136 0
 1366 001e 00BF     		nop
 1367 0020 1037     		adds	r7, r7, #16
 1368              	.LCFI130:
 1369              		.cfi_def_cfa_offset 8
 1370 0022 BD46     		mov	sp, r7
 1371              	.LCFI131:
 1372              		.cfi_def_cfa_register 13
 1373              		@ sp needed
 1374 0024 80BD     		pop	{r7, pc}
 1375              		.cfi_endproc
 1376              	.LFE36:
 1378              		.section	.text.MainPage_ESD_Timer_Fired__Signal,"ax",%progbits
 1379              		.align	1
 1380              		.syntax unified
 1381              		.thumb
 1382              		.thumb_func
 1383              		.fpu fpv5-sp-d16
 1385              	MainPage_ESD_Timer_Fired__Signal:
 1386              	.LFB37:
 137:Timer/MainPage__Generated.c **** 
 138:Timer/MainPage__Generated.c **** void MainPage_ESD_Timer_Fired__Signal(void *c)
 139:Timer/MainPage__Generated.c **** {
 1387              		.loc 2 139 0
ARM GAS  /var/folders/n8/cvzdcwlj0vl4g_wtyz1ffy300000gn/T//ccgP0p27.s 			page 29


 1388              		.cfi_startproc
 1389              		@ args = 0, pretend = 0, frame = 16
 1390              		@ frame_needed = 1, uses_anonymous_args = 0
 1391 0000 80B5     		push	{r7, lr}
 1392              	.LCFI132:
 1393              		.cfi_def_cfa_offset 8
 1394              		.cfi_offset 7, -8
 1395              		.cfi_offset 14, -4
 1396 0002 84B0     		sub	sp, sp, #16
 1397              	.LCFI133:
 1398              		.cfi_def_cfa_offset 24
 1399 0004 00AF     		add	r7, sp, #0
 1400              	.LCFI134:
 1401              		.cfi_def_cfa_register 7
 1402 0006 7860     		str	r0, [r7, #4]
 140:Timer/MainPage__Generated.c **** 	MainPage *context = (MainPage *)c;
 1403              		.loc 2 140 0
 1404 0008 7B68     		ldr	r3, [r7, #4]
 1405 000a FB60     		str	r3, [r7, #12]
 141:Timer/MainPage__Generated.c **** 	void *parent = context->Parent;
 1406              		.loc 2 141 0
 1407 000c FB68     		ldr	r3, [r7, #12]
 1408 000e 1B68     		ldr	r3, [r3]
 1409 0010 BB60     		str	r3, [r7, #8]
 142:Timer/MainPage__Generated.c **** 	Ft_Esd_SpinBox_Increase(&context->ESD_SpinBox);
 1410              		.loc 2 142 0
 1411 0012 FB68     		ldr	r3, [r7, #12]
 1412 0014 EC33     		adds	r3, r3, #236
 1413 0016 1846     		mov	r0, r3
 1414 0018 FFF7FEFF 		bl	Ft_Esd_SpinBox_Increase
 143:Timer/MainPage__Generated.c **** }
 1415              		.loc 2 143 0
 1416 001c 00BF     		nop
 1417 001e 1037     		adds	r7, r7, #16
 1418              	.LCFI135:
 1419              		.cfi_def_cfa_offset 8
 1420 0020 BD46     		mov	sp, r7
 1421              	.LCFI136:
 1422              		.cfi_def_cfa_register 13
 1423              		@ sp needed
 1424 0022 80BD     		pop	{r7, pc}
 1425              		.cfi_endproc
 1426              	.LFE37:
 1428              		.section	.text.MainPage_ESD_Timer_3_Fired__Signal,"ax",%progbits
 1429              		.align	1
 1430              		.syntax unified
 1431              		.thumb
 1432              		.thumb_func
 1433              		.fpu fpv5-sp-d16
 1435              	MainPage_ESD_Timer_3_Fired__Signal:
 1436              	.LFB38:
 144:Timer/MainPage__Generated.c **** 
 145:Timer/MainPage__Generated.c **** void MainPage_ESD_Timer_3_Fired__Signal(void *c)
 146:Timer/MainPage__Generated.c **** {
 1437              		.loc 2 146 0
 1438              		.cfi_startproc
 1439              		@ args = 0, pretend = 0, frame = 16
ARM GAS  /var/folders/n8/cvzdcwlj0vl4g_wtyz1ffy300000gn/T//ccgP0p27.s 			page 30


 1440              		@ frame_needed = 1, uses_anonymous_args = 0
 1441 0000 80B5     		push	{r7, lr}
 1442              	.LCFI137:
 1443              		.cfi_def_cfa_offset 8
 1444              		.cfi_offset 7, -8
 1445              		.cfi_offset 14, -4
 1446 0002 84B0     		sub	sp, sp, #16
 1447              	.LCFI138:
 1448              		.cfi_def_cfa_offset 24
 1449 0004 00AF     		add	r7, sp, #0
 1450              	.LCFI139:
 1451              		.cfi_def_cfa_register 7
 1452 0006 7860     		str	r0, [r7, #4]
 147:Timer/MainPage__Generated.c **** 	MainPage *context = (MainPage *)c;
 1453              		.loc 2 147 0
 1454 0008 7B68     		ldr	r3, [r7, #4]
 1455 000a FB60     		str	r3, [r7, #12]
 148:Timer/MainPage__Generated.c **** 	void *parent = context->Parent;
 1456              		.loc 2 148 0
 1457 000c FB68     		ldr	r3, [r7, #12]
 1458 000e 1B68     		ldr	r3, [r3]
 1459 0010 BB60     		str	r3, [r7, #8]
 149:Timer/MainPage__Generated.c **** 	Ft_Esd_SpinBox_Increase(&context->ESD_SpinBox_3);
 1460              		.loc 2 149 0
 1461 0012 FB68     		ldr	r3, [r7, #12]
 1462 0014 03F50373 		add	r3, r3, #524
 1463 0018 1846     		mov	r0, r3
 1464 001a FFF7FEFF 		bl	Ft_Esd_SpinBox_Increase
 150:Timer/MainPage__Generated.c **** }
 1465              		.loc 2 150 0
 1466 001e 00BF     		nop
 1467 0020 1037     		adds	r7, r7, #16
 1468              	.LCFI140:
 1469              		.cfi_def_cfa_offset 8
 1470 0022 BD46     		mov	sp, r7
 1471              	.LCFI141:
 1472              		.cfi_def_cfa_register 13
 1473              		@ sp needed
 1474 0024 80BD     		pop	{r7, pc}
 1475              		.cfi_endproc
 1476              	.LFE38:
 1478              		.section	.text.MainPage_ESD_Push_Button_2_Pushed__Signal,"ax",%progbits
 1479              		.align	1
 1480              		.syntax unified
 1481              		.thumb
 1482              		.thumb_func
 1483              		.fpu fpv5-sp-d16
 1485              	MainPage_ESD_Push_Button_2_Pushed__Signal:
 1486              	.LFB39:
 151:Timer/MainPage__Generated.c **** 
 152:Timer/MainPage__Generated.c **** void MainPage_ESD_Push_Button_2_Pushed__Signal(void *c)
 153:Timer/MainPage__Generated.c **** {
 1487              		.loc 2 153 0
 1488              		.cfi_startproc
 1489              		@ args = 0, pretend = 0, frame = 16
 1490              		@ frame_needed = 1, uses_anonymous_args = 0
 1491 0000 80B5     		push	{r7, lr}
ARM GAS  /var/folders/n8/cvzdcwlj0vl4g_wtyz1ffy300000gn/T//ccgP0p27.s 			page 31


 1492              	.LCFI142:
 1493              		.cfi_def_cfa_offset 8
 1494              		.cfi_offset 7, -8
 1495              		.cfi_offset 14, -4
 1496 0002 84B0     		sub	sp, sp, #16
 1497              	.LCFI143:
 1498              		.cfi_def_cfa_offset 24
 1499 0004 00AF     		add	r7, sp, #0
 1500              	.LCFI144:
 1501              		.cfi_def_cfa_register 7
 1502 0006 7860     		str	r0, [r7, #4]
 154:Timer/MainPage__Generated.c **** 	MainPage *context = (MainPage *)c;
 1503              		.loc 2 154 0
 1504 0008 7B68     		ldr	r3, [r7, #4]
 1505 000a FB60     		str	r3, [r7, #12]
 155:Timer/MainPage__Generated.c **** 	void *parent = context->Parent;
 1506              		.loc 2 155 0
 1507 000c FB68     		ldr	r3, [r7, #12]
 1508 000e 1B68     		ldr	r3, [r3]
 1509 0010 BB60     		str	r3, [r7, #8]
 156:Timer/MainPage__Generated.c **** 	Ft_Esd_Timer_Halt(&context->ESD_Timer_2);
 1510              		.loc 2 156 0
 1511 0012 FB68     		ldr	r3, [r7, #12]
 1512 0014 0433     		adds	r3, r3, #4
 1513 0016 1846     		mov	r0, r3
 1514 0018 FFF7FEFF 		bl	Ft_Esd_Timer_Halt
 157:Timer/MainPage__Generated.c **** 	Ft_Esd_Timer_Halt(&context->ESD_Timer);
 1515              		.loc 2 157 0
 1516 001c FB68     		ldr	r3, [r7, #12]
 1517 001e 1433     		adds	r3, r3, #20
 1518 0020 1846     		mov	r0, r3
 1519 0022 FFF7FEFF 		bl	Ft_Esd_Timer_Halt
 158:Timer/MainPage__Generated.c **** 	Ft_Esd_Timer_Halt(&context->ESD_Timer_3);
 1520              		.loc 2 158 0
 1521 0026 FB68     		ldr	r3, [r7, #12]
 1522 0028 2433     		adds	r3, r3, #36
 1523 002a 1846     		mov	r0, r3
 1524 002c FFF7FEFF 		bl	Ft_Esd_Timer_Halt
 159:Timer/MainPage__Generated.c **** }
 1525              		.loc 2 159 0
 1526 0030 00BF     		nop
 1527 0032 1037     		adds	r7, r7, #16
 1528              	.LCFI145:
 1529              		.cfi_def_cfa_offset 8
 1530 0034 BD46     		mov	sp, r7
 1531              	.LCFI146:
 1532              		.cfi_def_cfa_register 13
 1533              		@ sp needed
 1534 0036 80BD     		pop	{r7, pc}
 1535              		.cfi_endproc
 1536              	.LFE39:
 1538              		.section	.text.MainPage_ESD_Push_Button_Pushed__Signal,"ax",%progbits
 1539              		.align	1
 1540              		.syntax unified
 1541              		.thumb
 1542              		.thumb_func
 1543              		.fpu fpv5-sp-d16
ARM GAS  /var/folders/n8/cvzdcwlj0vl4g_wtyz1ffy300000gn/T//ccgP0p27.s 			page 32


 1545              	MainPage_ESD_Push_Button_Pushed__Signal:
 1546              	.LFB40:
 160:Timer/MainPage__Generated.c **** 
 161:Timer/MainPage__Generated.c **** void MainPage_ESD_Push_Button_Pushed__Signal(void *c)
 162:Timer/MainPage__Generated.c **** {
 1547              		.loc 2 162 0
 1548              		.cfi_startproc
 1549              		@ args = 0, pretend = 0, frame = 16
 1550              		@ frame_needed = 1, uses_anonymous_args = 0
 1551 0000 80B5     		push	{r7, lr}
 1552              	.LCFI147:
 1553              		.cfi_def_cfa_offset 8
 1554              		.cfi_offset 7, -8
 1555              		.cfi_offset 14, -4
 1556 0002 84B0     		sub	sp, sp, #16
 1557              	.LCFI148:
 1558              		.cfi_def_cfa_offset 24
 1559 0004 00AF     		add	r7, sp, #0
 1560              	.LCFI149:
 1561              		.cfi_def_cfa_register 7
 1562 0006 7860     		str	r0, [r7, #4]
 163:Timer/MainPage__Generated.c **** 	MainPage *context = (MainPage *)c;
 1563              		.loc 2 163 0
 1564 0008 7B68     		ldr	r3, [r7, #4]
 1565 000a FB60     		str	r3, [r7, #12]
 164:Timer/MainPage__Generated.c **** 	void *parent = context->Parent;
 1566              		.loc 2 164 0
 1567 000c FB68     		ldr	r3, [r7, #12]
 1568 000e 1B68     		ldr	r3, [r3]
 1569 0010 BB60     		str	r3, [r7, #8]
 165:Timer/MainPage__Generated.c **** 	Ft_Esd_Timer_Run(&context->ESD_Timer_2);
 1570              		.loc 2 165 0
 1571 0012 FB68     		ldr	r3, [r7, #12]
 1572 0014 0433     		adds	r3, r3, #4
 1573 0016 1846     		mov	r0, r3
 1574 0018 FFF7FEFF 		bl	Ft_Esd_Timer_Run
 166:Timer/MainPage__Generated.c **** 	Ft_Esd_Timer_Run(&context->ESD_Timer);
 1575              		.loc 2 166 0
 1576 001c FB68     		ldr	r3, [r7, #12]
 1577 001e 1433     		adds	r3, r3, #20
 1578 0020 1846     		mov	r0, r3
 1579 0022 FFF7FEFF 		bl	Ft_Esd_Timer_Run
 167:Timer/MainPage__Generated.c **** 	Ft_Esd_Timer_Run(&context->ESD_Timer_3);
 1580              		.loc 2 167 0
 1581 0026 FB68     		ldr	r3, [r7, #12]
 1582 0028 2433     		adds	r3, r3, #36
 1583 002a 1846     		mov	r0, r3
 1584 002c FFF7FEFF 		bl	Ft_Esd_Timer_Run
 168:Timer/MainPage__Generated.c **** }
 1585              		.loc 2 168 0
 1586 0030 00BF     		nop
 1587 0032 1037     		adds	r7, r7, #16
 1588              	.LCFI150:
 1589              		.cfi_def_cfa_offset 8
 1590 0034 BD46     		mov	sp, r7
 1591              	.LCFI151:
 1592              		.cfi_def_cfa_register 13
ARM GAS  /var/folders/n8/cvzdcwlj0vl4g_wtyz1ffy300000gn/T//ccgP0p27.s 			page 33


 1593              		@ sp needed
 1594 0036 80BD     		pop	{r7, pc}
 1595              		.cfi_endproc
 1596              	.LFE40:
 1598              		.text
 1599              	.Letext0:
 1600              		.file 3 "FT_Eve_Hal/FT_DataTypes.h"
 1601              		.file 4 "/usr/local/Cellar/arm-none-eabi-gcc/20180627/arm-none-eabi/include/sys/lock.h"
 1602              		.file 5 "/usr/local/Cellar/arm-none-eabi-gcc/20180627/arm-none-eabi/include/sys/_types.h"
 1603              		.file 6 "/usr/local/Cellar/arm-none-eabi-gcc/20180627/lib/gcc/arm-none-eabi/7.3.1/include/stddef.h
 1604              		.file 7 "/usr/local/Cellar/arm-none-eabi-gcc/20180627/arm-none-eabi/include/sys/unistd.h"
 1605              		.file 8 "/usr/local/Cellar/arm-none-eabi-gcc/20180627/arm-none-eabi/include/sys/reent.h"
 1606              		.file 9 "/usr/local/Cellar/arm-none-eabi-gcc/20180627/arm-none-eabi/include/stdlib.h"
 1607              		.file 10 "FT_Esd_Framework/Ft_Esd.h"
 1608              		.file 11 "FT_Esd_Widgets/FT_Esd_Theme.h"
 1609              		.file 12 "FT_Esd_Widgets/Ft_Esd_DefaultTheme.h"
 1610              		.file 13 "FT_Esd_Widgets/Ft_Esd_Label.h"
 1611              		.file 14 "FT_Esd_Framework/Ft_Esd_TouchTag.h"
 1612              		.file 15 "FT_Esd_Widgets/Ft_Esd_PushButton.h"
 1613              		.file 16 "FT_Esd_Framework/Ft_Esd_GpuAlloc.h"
 1614              		.file 17 "FT_Esd_Widgets/LayoutMargin.h"
 1615              		.file 18 "FT_Esd_Widgets/LayoutSplit.h"
 1616              		.file 19 "FT_Esd_Widgets/Ft_Esd_SpinBox.h"
 1617              		.file 20 "FT_Esd_Framework/Ft_Esd_Timer.h"
 1618              		.file 21 "Timer/MainPage.h"
ARM GAS  /var/folders/n8/cvzdcwlj0vl4g_wtyz1ffy300000gn/T//ccgP0p27.s 			page 34

