ARM GAS  /var/folders/n8/cvzdcwlj0vl4g_wtyz1ffy300000gn/T//ccBPNZvy.s 			page 1


   1              		.cpu cortex-m7
   2              		.eabi_attribute 27, 1
   3              		.eabi_attribute 28, 1
   4              		.eabi_attribute 20, 1
   5              		.eabi_attribute 21, 1
   6              		.eabi_attribute 23, 3
   7              		.eabi_attribute 24, 1
   8              		.eabi_attribute 25, 1
   9              		.eabi_attribute 26, 1
  10              		.eabi_attribute 30, 6
  11              		.eabi_attribute 34, 1
  12              		.eabi_attribute 18, 4
  13              		.file	"stm32f7xx_hal_i2c.c"
  14              		.text
  15              	.Ltext0:
  16              		.cfi_sections	.debug_frame
  17              		.section	.text.HAL_I2C_Init,"ax",%progbits
  18              		.align	1
  19              		.global	HAL_I2C_Init
  20              		.syntax unified
  21              		.thumb
  22              		.thumb_func
  23              		.fpu fpv5-sp-d16
  25              	HAL_I2C_Init:
  26              	.LFB138:
  27              		.file 1 "Drivers/STM32F7xx_HAL_Driver/Src/stm32f7xx_hal_i2c.c"
   1:Drivers/STM32F7xx_HAL_Driver/Src/stm32f7xx_hal_i2c.c **** /**
   2:Drivers/STM32F7xx_HAL_Driver/Src/stm32f7xx_hal_i2c.c ****   ******************************************************************************
   3:Drivers/STM32F7xx_HAL_Driver/Src/stm32f7xx_hal_i2c.c ****   * @file    stm32f7xx_hal_i2c.c
   4:Drivers/STM32F7xx_HAL_Driver/Src/stm32f7xx_hal_i2c.c ****   * @author  MCD Application Team
   5:Drivers/STM32F7xx_HAL_Driver/Src/stm32f7xx_hal_i2c.c ****   * @brief   I2C HAL module driver.
   6:Drivers/STM32F7xx_HAL_Driver/Src/stm32f7xx_hal_i2c.c ****   *          This file provides firmware functions to manage the following
   7:Drivers/STM32F7xx_HAL_Driver/Src/stm32f7xx_hal_i2c.c ****   *          functionalities of the Inter Integrated Circuit (I2C) peripheral:
   8:Drivers/STM32F7xx_HAL_Driver/Src/stm32f7xx_hal_i2c.c ****   *           + Initialization and de-initialization functions
   9:Drivers/STM32F7xx_HAL_Driver/Src/stm32f7xx_hal_i2c.c ****   *           + IO operation functions
  10:Drivers/STM32F7xx_HAL_Driver/Src/stm32f7xx_hal_i2c.c ****   *           + Peripheral State and Errors functions
  11:Drivers/STM32F7xx_HAL_Driver/Src/stm32f7xx_hal_i2c.c ****   *
  12:Drivers/STM32F7xx_HAL_Driver/Src/stm32f7xx_hal_i2c.c ****   @verbatim
  13:Drivers/STM32F7xx_HAL_Driver/Src/stm32f7xx_hal_i2c.c ****   ==============================================================================
  14:Drivers/STM32F7xx_HAL_Driver/Src/stm32f7xx_hal_i2c.c ****                         ##### How to use this driver #####
  15:Drivers/STM32F7xx_HAL_Driver/Src/stm32f7xx_hal_i2c.c ****   ==============================================================================
  16:Drivers/STM32F7xx_HAL_Driver/Src/stm32f7xx_hal_i2c.c ****     [..]
  17:Drivers/STM32F7xx_HAL_Driver/Src/stm32f7xx_hal_i2c.c ****     The I2C HAL driver can be used as follows:
  18:Drivers/STM32F7xx_HAL_Driver/Src/stm32f7xx_hal_i2c.c **** 
  19:Drivers/STM32F7xx_HAL_Driver/Src/stm32f7xx_hal_i2c.c ****     (#) Declare a I2C_HandleTypeDef handle structure, for example:
  20:Drivers/STM32F7xx_HAL_Driver/Src/stm32f7xx_hal_i2c.c ****         I2C_HandleTypeDef  hi2c;
  21:Drivers/STM32F7xx_HAL_Driver/Src/stm32f7xx_hal_i2c.c **** 
  22:Drivers/STM32F7xx_HAL_Driver/Src/stm32f7xx_hal_i2c.c ****     (#)Initialize the I2C low level resources by implementing the HAL_I2C_MspInit() API:
  23:Drivers/STM32F7xx_HAL_Driver/Src/stm32f7xx_hal_i2c.c ****         (##) Enable the I2Cx interface clock
  24:Drivers/STM32F7xx_HAL_Driver/Src/stm32f7xx_hal_i2c.c ****         (##) I2C pins configuration
  25:Drivers/STM32F7xx_HAL_Driver/Src/stm32f7xx_hal_i2c.c ****             (+++) Enable the clock for the I2C GPIOs
  26:Drivers/STM32F7xx_HAL_Driver/Src/stm32f7xx_hal_i2c.c ****             (+++) Configure I2C pins as alternate function open-drain
  27:Drivers/STM32F7xx_HAL_Driver/Src/stm32f7xx_hal_i2c.c ****         (##) NVIC configuration if you need to use interrupt process
  28:Drivers/STM32F7xx_HAL_Driver/Src/stm32f7xx_hal_i2c.c ****             (+++) Configure the I2Cx interrupt priority
  29:Drivers/STM32F7xx_HAL_Driver/Src/stm32f7xx_hal_i2c.c ****             (+++) Enable the NVIC I2C IRQ Channel
  30:Drivers/STM32F7xx_HAL_Driver/Src/stm32f7xx_hal_i2c.c ****         (##) DMA Configuration if you need to use DMA process
  31:Drivers/STM32F7xx_HAL_Driver/Src/stm32f7xx_hal_i2c.c ****             (+++) Declare a DMA_HandleTypeDef handle structure for the transmit or receive stream
ARM GAS  /var/folders/n8/cvzdcwlj0vl4g_wtyz1ffy300000gn/T//ccBPNZvy.s 			page 2


  32:Drivers/STM32F7xx_HAL_Driver/Src/stm32f7xx_hal_i2c.c ****             (+++) Enable the DMAx interface clock using
  33:Drivers/STM32F7xx_HAL_Driver/Src/stm32f7xx_hal_i2c.c ****             (+++) Configure the DMA handle parameters
  34:Drivers/STM32F7xx_HAL_Driver/Src/stm32f7xx_hal_i2c.c ****             (+++) Configure the DMA Tx or Rx stream
  35:Drivers/STM32F7xx_HAL_Driver/Src/stm32f7xx_hal_i2c.c ****             (+++) Associate the initialized DMA handle to the hi2c DMA Tx or Rx handle
  36:Drivers/STM32F7xx_HAL_Driver/Src/stm32f7xx_hal_i2c.c ****             (+++) Configure the priority and enable the NVIC for the transfer complete interrupt on
  37:Drivers/STM32F7xx_HAL_Driver/Src/stm32f7xx_hal_i2c.c ****                   the DMA Tx or Rx stream
  38:Drivers/STM32F7xx_HAL_Driver/Src/stm32f7xx_hal_i2c.c **** 
  39:Drivers/STM32F7xx_HAL_Driver/Src/stm32f7xx_hal_i2c.c ****     (#) Configure the Communication Clock Timing, Own Address1, Master Addressing mode, Dual Addres
  40:Drivers/STM32F7xx_HAL_Driver/Src/stm32f7xx_hal_i2c.c ****         Own Address2, Own Address2 Mask, General call and Nostretch mode in the hi2c Init structure
  41:Drivers/STM32F7xx_HAL_Driver/Src/stm32f7xx_hal_i2c.c **** 
  42:Drivers/STM32F7xx_HAL_Driver/Src/stm32f7xx_hal_i2c.c ****     (#) Initialize the I2C registers by calling the HAL_I2C_Init(), configures also the low level H
  43:Drivers/STM32F7xx_HAL_Driver/Src/stm32f7xx_hal_i2c.c ****         (GPIO, CLOCK, NVIC...etc) by calling the customized HAL_I2C_MspInit(&hi2c) API.
  44:Drivers/STM32F7xx_HAL_Driver/Src/stm32f7xx_hal_i2c.c **** 
  45:Drivers/STM32F7xx_HAL_Driver/Src/stm32f7xx_hal_i2c.c ****     (#) To check if target device is ready for communication, use the function HAL_I2C_IsDeviceRead
  46:Drivers/STM32F7xx_HAL_Driver/Src/stm32f7xx_hal_i2c.c **** 
  47:Drivers/STM32F7xx_HAL_Driver/Src/stm32f7xx_hal_i2c.c ****     (#) For I2C IO and IO MEM operations, three operation modes are available within this driver :
  48:Drivers/STM32F7xx_HAL_Driver/Src/stm32f7xx_hal_i2c.c **** 
  49:Drivers/STM32F7xx_HAL_Driver/Src/stm32f7xx_hal_i2c.c ****     *** Polling mode IO operation ***
  50:Drivers/STM32F7xx_HAL_Driver/Src/stm32f7xx_hal_i2c.c ****     =================================
  51:Drivers/STM32F7xx_HAL_Driver/Src/stm32f7xx_hal_i2c.c ****     [..]
  52:Drivers/STM32F7xx_HAL_Driver/Src/stm32f7xx_hal_i2c.c ****       (+) Transmit in master mode an amount of data in blocking mode using HAL_I2C_Master_Transmit(
  53:Drivers/STM32F7xx_HAL_Driver/Src/stm32f7xx_hal_i2c.c ****       (+) Receive in master mode an amount of data in blocking mode using HAL_I2C_Master_Receive()
  54:Drivers/STM32F7xx_HAL_Driver/Src/stm32f7xx_hal_i2c.c ****       (+) Transmit in slave mode an amount of data in blocking mode using HAL_I2C_Slave_Transmit()
  55:Drivers/STM32F7xx_HAL_Driver/Src/stm32f7xx_hal_i2c.c ****       (+) Receive in slave mode an amount of data in blocking mode using HAL_I2C_Slave_Receive()
  56:Drivers/STM32F7xx_HAL_Driver/Src/stm32f7xx_hal_i2c.c **** 
  57:Drivers/STM32F7xx_HAL_Driver/Src/stm32f7xx_hal_i2c.c ****     *** Polling mode IO MEM operation ***
  58:Drivers/STM32F7xx_HAL_Driver/Src/stm32f7xx_hal_i2c.c ****     =====================================
  59:Drivers/STM32F7xx_HAL_Driver/Src/stm32f7xx_hal_i2c.c ****     [..]
  60:Drivers/STM32F7xx_HAL_Driver/Src/stm32f7xx_hal_i2c.c ****       (+) Write an amount of data in blocking mode to a specific memory address using HAL_I2C_Mem_W
  61:Drivers/STM32F7xx_HAL_Driver/Src/stm32f7xx_hal_i2c.c ****       (+) Read an amount of data in blocking mode from a specific memory address using HAL_I2C_Mem_
  62:Drivers/STM32F7xx_HAL_Driver/Src/stm32f7xx_hal_i2c.c **** 
  63:Drivers/STM32F7xx_HAL_Driver/Src/stm32f7xx_hal_i2c.c **** 
  64:Drivers/STM32F7xx_HAL_Driver/Src/stm32f7xx_hal_i2c.c ****     *** Interrupt mode IO operation ***
  65:Drivers/STM32F7xx_HAL_Driver/Src/stm32f7xx_hal_i2c.c ****     ===================================
  66:Drivers/STM32F7xx_HAL_Driver/Src/stm32f7xx_hal_i2c.c ****     [..]
  67:Drivers/STM32F7xx_HAL_Driver/Src/stm32f7xx_hal_i2c.c ****       (+) Transmit in master mode an amount of data in non-blocking mode using HAL_I2C_Master_Trans
  68:Drivers/STM32F7xx_HAL_Driver/Src/stm32f7xx_hal_i2c.c ****       (+) At transmission end of transfer, HAL_I2C_MasterTxCpltCallback() is executed and user can
  69:Drivers/STM32F7xx_HAL_Driver/Src/stm32f7xx_hal_i2c.c ****            add his own code by customization of function pointer HAL_I2C_MasterTxCpltCallback()
  70:Drivers/STM32F7xx_HAL_Driver/Src/stm32f7xx_hal_i2c.c ****       (+) Receive in master mode an amount of data in non-blocking mode using HAL_I2C_Master_Receiv
  71:Drivers/STM32F7xx_HAL_Driver/Src/stm32f7xx_hal_i2c.c ****       (+) At reception end of transfer, HAL_I2C_MasterRxCpltCallback() is executed and user can
  72:Drivers/STM32F7xx_HAL_Driver/Src/stm32f7xx_hal_i2c.c ****            add his own code by customization of function pointer HAL_I2C_MasterRxCpltCallback()
  73:Drivers/STM32F7xx_HAL_Driver/Src/stm32f7xx_hal_i2c.c ****       (+) Transmit in slave mode an amount of data in non-blocking mode using HAL_I2C_Slave_Transmi
  74:Drivers/STM32F7xx_HAL_Driver/Src/stm32f7xx_hal_i2c.c ****       (+) At transmission end of transfer, HAL_I2C_SlaveTxCpltCallback() is executed and user can
  75:Drivers/STM32F7xx_HAL_Driver/Src/stm32f7xx_hal_i2c.c ****            add his own code by customization of function pointer HAL_I2C_SlaveTxCpltCallback()
  76:Drivers/STM32F7xx_HAL_Driver/Src/stm32f7xx_hal_i2c.c ****       (+) Receive in slave mode an amount of data in non-blocking mode using HAL_I2C_Slave_Receive_
  77:Drivers/STM32F7xx_HAL_Driver/Src/stm32f7xx_hal_i2c.c ****       (+) At reception end of transfer, HAL_I2C_SlaveRxCpltCallback() is executed and user can
  78:Drivers/STM32F7xx_HAL_Driver/Src/stm32f7xx_hal_i2c.c ****            add his own code by customization of function pointer HAL_I2C_SlaveRxCpltCallback()
  79:Drivers/STM32F7xx_HAL_Driver/Src/stm32f7xx_hal_i2c.c ****       (+) In case of transfer Error, HAL_I2C_ErrorCallback() function is executed and user can
  80:Drivers/STM32F7xx_HAL_Driver/Src/stm32f7xx_hal_i2c.c ****            add his own code by customization of function pointer HAL_I2C_ErrorCallback()
  81:Drivers/STM32F7xx_HAL_Driver/Src/stm32f7xx_hal_i2c.c ****       (+) Abort a master I2C process communication with Interrupt using HAL_I2C_Master_Abort_IT()
  82:Drivers/STM32F7xx_HAL_Driver/Src/stm32f7xx_hal_i2c.c ****       (+) End of abort process, HAL_I2C_AbortCpltCallback() is executed and user can
  83:Drivers/STM32F7xx_HAL_Driver/Src/stm32f7xx_hal_i2c.c ****            add his own code by customization of function pointer HAL_I2C_AbortCpltCallback()
  84:Drivers/STM32F7xx_HAL_Driver/Src/stm32f7xx_hal_i2c.c ****       (+) Discard a slave I2C process communication using __HAL_I2C_GENERATE_NACK() macro.
  85:Drivers/STM32F7xx_HAL_Driver/Src/stm32f7xx_hal_i2c.c ****            This action will inform Master to generate a Stop condition to discard the communication
  86:Drivers/STM32F7xx_HAL_Driver/Src/stm32f7xx_hal_i2c.c **** 
  87:Drivers/STM32F7xx_HAL_Driver/Src/stm32f7xx_hal_i2c.c **** 
  88:Drivers/STM32F7xx_HAL_Driver/Src/stm32f7xx_hal_i2c.c ****     *** Interrupt mode IO sequential operation ***
ARM GAS  /var/folders/n8/cvzdcwlj0vl4g_wtyz1ffy300000gn/T//ccBPNZvy.s 			page 3


  89:Drivers/STM32F7xx_HAL_Driver/Src/stm32f7xx_hal_i2c.c ****     ==============================================
  90:Drivers/STM32F7xx_HAL_Driver/Src/stm32f7xx_hal_i2c.c ****     [..]
  91:Drivers/STM32F7xx_HAL_Driver/Src/stm32f7xx_hal_i2c.c ****       (@) These interfaces allow to manage a sequential transfer with a repeated start condition
  92:Drivers/STM32F7xx_HAL_Driver/Src/stm32f7xx_hal_i2c.c ****           when a direction change during transfer
  93:Drivers/STM32F7xx_HAL_Driver/Src/stm32f7xx_hal_i2c.c ****     [..]
  94:Drivers/STM32F7xx_HAL_Driver/Src/stm32f7xx_hal_i2c.c ****       (+) A specific option field manage the different steps of a sequential transfer
  95:Drivers/STM32F7xx_HAL_Driver/Src/stm32f7xx_hal_i2c.c ****       (+) Option field values are defined through @ref I2C_XFEROPTIONS and are listed below:
  96:Drivers/STM32F7xx_HAL_Driver/Src/stm32f7xx_hal_i2c.c ****       (++) I2C_FIRST_AND_LAST_FRAME: No sequential usage, functionnal is same as associated interfa
  97:Drivers/STM32F7xx_HAL_Driver/Src/stm32f7xx_hal_i2c.c ****       (++) I2C_FIRST_FRAME: Sequential usage, this option allow to manage a sequence with start con
  98:Drivers/STM32F7xx_HAL_Driver/Src/stm32f7xx_hal_i2c.c ****                             and data to transfer without a final stop condition
  99:Drivers/STM32F7xx_HAL_Driver/Src/stm32f7xx_hal_i2c.c ****       (++) I2C_FIRST_AND_NEXT_FRAME: Sequential usage (Master only), this option allow to manage a 
 100:Drivers/STM32F7xx_HAL_Driver/Src/stm32f7xx_hal_i2c.c ****                             and data to transfer without a final stop condition, an then permit a c
 101:Drivers/STM32F7xx_HAL_Driver/Src/stm32f7xx_hal_i2c.c ****                             several times (like HAL_I2C_Master_Sequential_Transmit_IT() then HAL_I2
 102:Drivers/STM32F7xx_HAL_Driver/Src/stm32f7xx_hal_i2c.c ****       (++) I2C_NEXT_FRAME: Sequential usage, this option allow to manage a sequence with a restart 
 103:Drivers/STM32F7xx_HAL_Driver/Src/stm32f7xx_hal_i2c.c ****                             and with new data to transfer if the direction change or manage only th
 104:Drivers/STM32F7xx_HAL_Driver/Src/stm32f7xx_hal_i2c.c ****                             if no direction change and without a final stop condition in both cases
 105:Drivers/STM32F7xx_HAL_Driver/Src/stm32f7xx_hal_i2c.c ****       (++) I2C_LAST_FRAME: Sequential usage, this option allow to manage a sequance with a restart 
 106:Drivers/STM32F7xx_HAL_Driver/Src/stm32f7xx_hal_i2c.c ****                             and with new data to transfer if the direction change or manage only th
 107:Drivers/STM32F7xx_HAL_Driver/Src/stm32f7xx_hal_i2c.c ****                             if no direction change and with a final stop condition in both cases
 108:Drivers/STM32F7xx_HAL_Driver/Src/stm32f7xx_hal_i2c.c ****       (++) I2C_LAST_FRAME_NO_STOP: Sequential usage (Master only), this option allow to manage a re
 109:Drivers/STM32F7xx_HAL_Driver/Src/stm32f7xx_hal_i2c.c ****                             interface several times (link with option I2C_FIRST_AND_NEXT_FRAME).
 110:Drivers/STM32F7xx_HAL_Driver/Src/stm32f7xx_hal_i2c.c ****                             Usage can, transfer several bytes one by one using HAL_I2C_Master_Seque
 111:Drivers/STM32F7xx_HAL_Driver/Src/stm32f7xx_hal_i2c.c ****                               or HAL_I2C_Master_Sequential_Receive_IT(option I2C_FIRST_AND_NEXT_FRA
 112:Drivers/STM32F7xx_HAL_Driver/Src/stm32f7xx_hal_i2c.c ****                             Then usage of this option I2C_LAST_FRAME_NO_STOP at the last Transmit o
 113:Drivers/STM32F7xx_HAL_Driver/Src/stm32f7xx_hal_i2c.c ****                               without stopping the communication and so generate a restart conditio
 114:Drivers/STM32F7xx_HAL_Driver/Src/stm32f7xx_hal_i2c.c **** 
 115:Drivers/STM32F7xx_HAL_Driver/Src/stm32f7xx_hal_i2c.c ****       (+) Differents sequential I2C interfaces are listed below:
 116:Drivers/STM32F7xx_HAL_Driver/Src/stm32f7xx_hal_i2c.c ****       (++) Sequential transmit in master I2C mode an amount of data in non-blocking mode using HAL_
 117:Drivers/STM32F7xx_HAL_Driver/Src/stm32f7xx_hal_i2c.c ****       (+++) At transmission end of current frame transfer, HAL_I2C_MasterTxCpltCallback() is execut
 118:Drivers/STM32F7xx_HAL_Driver/Src/stm32f7xx_hal_i2c.c ****            add his own code by customization of function pointer HAL_I2C_MasterTxCpltCallback()
 119:Drivers/STM32F7xx_HAL_Driver/Src/stm32f7xx_hal_i2c.c ****       (++) Sequential receive in master I2C mode an amount of data in non-blocking mode using HAL_I
 120:Drivers/STM32F7xx_HAL_Driver/Src/stm32f7xx_hal_i2c.c ****       (+++) At reception end of current frame transfer, HAL_I2C_MasterRxCpltCallback() is executed 
 121:Drivers/STM32F7xx_HAL_Driver/Src/stm32f7xx_hal_i2c.c ****            add his own code by customization of function pointer HAL_I2C_MasterRxCpltCallback()
 122:Drivers/STM32F7xx_HAL_Driver/Src/stm32f7xx_hal_i2c.c ****       (++) Abort a master I2C process communication with Interrupt using HAL_I2C_Master_Abort_IT()
 123:Drivers/STM32F7xx_HAL_Driver/Src/stm32f7xx_hal_i2c.c ****       (+++) End of abort process, HAL_I2C_AbortCpltCallback() is executed and user can
 124:Drivers/STM32F7xx_HAL_Driver/Src/stm32f7xx_hal_i2c.c ****            add his own code by customization of function pointer HAL_I2C_AbortCpltCallback()
 125:Drivers/STM32F7xx_HAL_Driver/Src/stm32f7xx_hal_i2c.c ****       (++) Enable/disable the Address listen mode in slave I2C mode using HAL_I2C_EnableListen_IT()
 126:Drivers/STM32F7xx_HAL_Driver/Src/stm32f7xx_hal_i2c.c ****       (+++) When address slave I2C match, HAL_I2C_AddrCallback() is executed and user can
 127:Drivers/STM32F7xx_HAL_Driver/Src/stm32f7xx_hal_i2c.c ****            add his own code to check the Address Match Code and the transmission direction request 
 128:Drivers/STM32F7xx_HAL_Driver/Src/stm32f7xx_hal_i2c.c ****       (+++) At Listen mode end HAL_I2C_ListenCpltCallback() is executed and user can
 129:Drivers/STM32F7xx_HAL_Driver/Src/stm32f7xx_hal_i2c.c ****            add his own code by customization of function pointer HAL_I2C_ListenCpltCallback()
 130:Drivers/STM32F7xx_HAL_Driver/Src/stm32f7xx_hal_i2c.c ****       (++) Sequential transmit in slave I2C mode an amount of data in non-blocking mode using HAL_I
 131:Drivers/STM32F7xx_HAL_Driver/Src/stm32f7xx_hal_i2c.c ****       (+++) At transmission end of current frame transfer, HAL_I2C_SlaveTxCpltCallback() is execute
 132:Drivers/STM32F7xx_HAL_Driver/Src/stm32f7xx_hal_i2c.c ****            add his own code by customization of function pointer HAL_I2C_SlaveTxCpltCallback()
 133:Drivers/STM32F7xx_HAL_Driver/Src/stm32f7xx_hal_i2c.c ****       (++) Sequential receive in slave I2C mode an amount of data in non-blocking mode using HAL_I2
 134:Drivers/STM32F7xx_HAL_Driver/Src/stm32f7xx_hal_i2c.c ****       (+++) At reception end of current frame transfer, HAL_I2C_SlaveRxCpltCallback() is executed a
 135:Drivers/STM32F7xx_HAL_Driver/Src/stm32f7xx_hal_i2c.c ****            add his own code by customization of function pointer HAL_I2C_SlaveRxCpltCallback()
 136:Drivers/STM32F7xx_HAL_Driver/Src/stm32f7xx_hal_i2c.c ****       (++) In case of transfer Error, HAL_I2C_ErrorCallback() function is executed and user can
 137:Drivers/STM32F7xx_HAL_Driver/Src/stm32f7xx_hal_i2c.c ****            add his own code by customization of function pointer HAL_I2C_ErrorCallback()
 138:Drivers/STM32F7xx_HAL_Driver/Src/stm32f7xx_hal_i2c.c ****       (++) Abort a master I2C process communication with Interrupt using HAL_I2C_Master_Abort_IT()
 139:Drivers/STM32F7xx_HAL_Driver/Src/stm32f7xx_hal_i2c.c ****       (++) End of abort process, HAL_I2C_AbortCpltCallback() is executed and user can
 140:Drivers/STM32F7xx_HAL_Driver/Src/stm32f7xx_hal_i2c.c ****            add his own code by customization of function pointer HAL_I2C_AbortCpltCallback()
 141:Drivers/STM32F7xx_HAL_Driver/Src/stm32f7xx_hal_i2c.c ****       (++) Discard a slave I2C process communication using __HAL_I2C_GENERATE_NACK() macro.
 142:Drivers/STM32F7xx_HAL_Driver/Src/stm32f7xx_hal_i2c.c ****            This action will inform Master to generate a Stop condition to discard the communication
 143:Drivers/STM32F7xx_HAL_Driver/Src/stm32f7xx_hal_i2c.c **** 
 144:Drivers/STM32F7xx_HAL_Driver/Src/stm32f7xx_hal_i2c.c ****     *** Interrupt mode IO MEM operation ***
 145:Drivers/STM32F7xx_HAL_Driver/Src/stm32f7xx_hal_i2c.c ****     =======================================
ARM GAS  /var/folders/n8/cvzdcwlj0vl4g_wtyz1ffy300000gn/T//ccBPNZvy.s 			page 4


 146:Drivers/STM32F7xx_HAL_Driver/Src/stm32f7xx_hal_i2c.c ****     [..]
 147:Drivers/STM32F7xx_HAL_Driver/Src/stm32f7xx_hal_i2c.c ****       (+) Write an amount of data in non-blocking mode with Interrupt to a specific memory address 
 148:Drivers/STM32F7xx_HAL_Driver/Src/stm32f7xx_hal_i2c.c ****           HAL_I2C_Mem_Write_IT()
 149:Drivers/STM32F7xx_HAL_Driver/Src/stm32f7xx_hal_i2c.c ****       (+) At Memory end of write transfer, HAL_I2C_MemTxCpltCallback() is executed and user can
 150:Drivers/STM32F7xx_HAL_Driver/Src/stm32f7xx_hal_i2c.c ****            add his own code by customization of function pointer HAL_I2C_MemTxCpltCallback()
 151:Drivers/STM32F7xx_HAL_Driver/Src/stm32f7xx_hal_i2c.c ****       (+) Read an amount of data in non-blocking mode with Interrupt from a specific memory address
 152:Drivers/STM32F7xx_HAL_Driver/Src/stm32f7xx_hal_i2c.c ****           HAL_I2C_Mem_Read_IT()
 153:Drivers/STM32F7xx_HAL_Driver/Src/stm32f7xx_hal_i2c.c ****       (+) At Memory end of read transfer, HAL_I2C_MemRxCpltCallback() is executed and user can
 154:Drivers/STM32F7xx_HAL_Driver/Src/stm32f7xx_hal_i2c.c ****            add his own code by customization of function pointer HAL_I2C_MemRxCpltCallback()
 155:Drivers/STM32F7xx_HAL_Driver/Src/stm32f7xx_hal_i2c.c ****       (+) In case of transfer Error, HAL_I2C_ErrorCallback() function is executed and user can
 156:Drivers/STM32F7xx_HAL_Driver/Src/stm32f7xx_hal_i2c.c ****            add his own code by customization of function pointer HAL_I2C_ErrorCallback()
 157:Drivers/STM32F7xx_HAL_Driver/Src/stm32f7xx_hal_i2c.c **** 
 158:Drivers/STM32F7xx_HAL_Driver/Src/stm32f7xx_hal_i2c.c ****     *** DMA mode IO operation ***
 159:Drivers/STM32F7xx_HAL_Driver/Src/stm32f7xx_hal_i2c.c ****     ==============================
 160:Drivers/STM32F7xx_HAL_Driver/Src/stm32f7xx_hal_i2c.c ****     [..]
 161:Drivers/STM32F7xx_HAL_Driver/Src/stm32f7xx_hal_i2c.c ****       (+) Transmit in master mode an amount of data in non-blocking mode (DMA) using
 162:Drivers/STM32F7xx_HAL_Driver/Src/stm32f7xx_hal_i2c.c ****           HAL_I2C_Master_Transmit_DMA()
 163:Drivers/STM32F7xx_HAL_Driver/Src/stm32f7xx_hal_i2c.c ****       (+) At transmission end of transfer, HAL_I2C_MasterTxCpltCallback() is executed and user can
 164:Drivers/STM32F7xx_HAL_Driver/Src/stm32f7xx_hal_i2c.c ****            add his own code by customization of function pointer HAL_I2C_MasterTxCpltCallback()
 165:Drivers/STM32F7xx_HAL_Driver/Src/stm32f7xx_hal_i2c.c ****       (+) Receive in master mode an amount of data in non-blocking mode (DMA) using
 166:Drivers/STM32F7xx_HAL_Driver/Src/stm32f7xx_hal_i2c.c ****           HAL_I2C_Master_Receive_DMA()
 167:Drivers/STM32F7xx_HAL_Driver/Src/stm32f7xx_hal_i2c.c ****       (+) At reception end of transfer, HAL_I2C_MasterRxCpltCallback() is executed and user can
 168:Drivers/STM32F7xx_HAL_Driver/Src/stm32f7xx_hal_i2c.c ****            add his own code by customization of function pointer HAL_I2C_MasterRxCpltCallback()
 169:Drivers/STM32F7xx_HAL_Driver/Src/stm32f7xx_hal_i2c.c ****       (+) Transmit in slave mode an amount of data in non-blocking mode (DMA) using
 170:Drivers/STM32F7xx_HAL_Driver/Src/stm32f7xx_hal_i2c.c ****           HAL_I2C_Slave_Transmit_DMA()
 171:Drivers/STM32F7xx_HAL_Driver/Src/stm32f7xx_hal_i2c.c ****       (+) At transmission end of transfer, HAL_I2C_SlaveTxCpltCallback() is executed and user can
 172:Drivers/STM32F7xx_HAL_Driver/Src/stm32f7xx_hal_i2c.c ****            add his own code by customization of function pointer HAL_I2C_SlaveTxCpltCallback()
 173:Drivers/STM32F7xx_HAL_Driver/Src/stm32f7xx_hal_i2c.c ****       (+) Receive in slave mode an amount of data in non-blocking mode (DMA) using
 174:Drivers/STM32F7xx_HAL_Driver/Src/stm32f7xx_hal_i2c.c ****           HAL_I2C_Slave_Receive_DMA()
 175:Drivers/STM32F7xx_HAL_Driver/Src/stm32f7xx_hal_i2c.c ****       (+) At reception end of transfer, HAL_I2C_SlaveRxCpltCallback() is executed and user can
 176:Drivers/STM32F7xx_HAL_Driver/Src/stm32f7xx_hal_i2c.c ****            add his own code by customization of function pointer HAL_I2C_SlaveRxCpltCallback()
 177:Drivers/STM32F7xx_HAL_Driver/Src/stm32f7xx_hal_i2c.c ****       (+) In case of transfer Error, HAL_I2C_ErrorCallback() function is executed and user can
 178:Drivers/STM32F7xx_HAL_Driver/Src/stm32f7xx_hal_i2c.c ****            add his own code by customization of function pointer HAL_I2C_ErrorCallback()
 179:Drivers/STM32F7xx_HAL_Driver/Src/stm32f7xx_hal_i2c.c ****       (+) Abort a master I2C process communication with Interrupt using HAL_I2C_Master_Abort_IT()
 180:Drivers/STM32F7xx_HAL_Driver/Src/stm32f7xx_hal_i2c.c ****       (+) End of abort process, HAL_I2C_AbortCpltCallback() is executed and user can
 181:Drivers/STM32F7xx_HAL_Driver/Src/stm32f7xx_hal_i2c.c ****            add his own code by customization of function pointer HAL_I2C_AbortCpltCallback()
 182:Drivers/STM32F7xx_HAL_Driver/Src/stm32f7xx_hal_i2c.c ****       (+) Discard a slave I2C process communication using __HAL_I2C_GENERATE_NACK() macro.
 183:Drivers/STM32F7xx_HAL_Driver/Src/stm32f7xx_hal_i2c.c ****            This action will inform Master to generate a Stop condition to discard the communication
 184:Drivers/STM32F7xx_HAL_Driver/Src/stm32f7xx_hal_i2c.c **** 
 185:Drivers/STM32F7xx_HAL_Driver/Src/stm32f7xx_hal_i2c.c ****     *** DMA mode IO MEM operation ***
 186:Drivers/STM32F7xx_HAL_Driver/Src/stm32f7xx_hal_i2c.c ****     =================================
 187:Drivers/STM32F7xx_HAL_Driver/Src/stm32f7xx_hal_i2c.c ****     [..]
 188:Drivers/STM32F7xx_HAL_Driver/Src/stm32f7xx_hal_i2c.c ****       (+) Write an amount of data in non-blocking mode with DMA to a specific memory address using
 189:Drivers/STM32F7xx_HAL_Driver/Src/stm32f7xx_hal_i2c.c ****           HAL_I2C_Mem_Write_DMA()
 190:Drivers/STM32F7xx_HAL_Driver/Src/stm32f7xx_hal_i2c.c ****       (+) At Memory end of write transfer, HAL_I2C_MemTxCpltCallback() is executed and user can
 191:Drivers/STM32F7xx_HAL_Driver/Src/stm32f7xx_hal_i2c.c ****            add his own code by customization of function pointer HAL_I2C_MemTxCpltCallback()
 192:Drivers/STM32F7xx_HAL_Driver/Src/stm32f7xx_hal_i2c.c ****       (+) Read an amount of data in non-blocking mode with DMA from a specific memory address using
 193:Drivers/STM32F7xx_HAL_Driver/Src/stm32f7xx_hal_i2c.c ****           HAL_I2C_Mem_Read_DMA()
 194:Drivers/STM32F7xx_HAL_Driver/Src/stm32f7xx_hal_i2c.c ****       (+) At Memory end of read transfer, HAL_I2C_MemRxCpltCallback() is executed and user can
 195:Drivers/STM32F7xx_HAL_Driver/Src/stm32f7xx_hal_i2c.c ****            add his own code by customization of function pointer HAL_I2C_MemRxCpltCallback()
 196:Drivers/STM32F7xx_HAL_Driver/Src/stm32f7xx_hal_i2c.c ****       (+) In case of transfer Error, HAL_I2C_ErrorCallback() function is executed and user can
 197:Drivers/STM32F7xx_HAL_Driver/Src/stm32f7xx_hal_i2c.c ****            add his own code by customization of function pointer HAL_I2C_ErrorCallback()
 198:Drivers/STM32F7xx_HAL_Driver/Src/stm32f7xx_hal_i2c.c **** 
 199:Drivers/STM32F7xx_HAL_Driver/Src/stm32f7xx_hal_i2c.c **** 
 200:Drivers/STM32F7xx_HAL_Driver/Src/stm32f7xx_hal_i2c.c ****      *** I2C HAL driver macros list ***
 201:Drivers/STM32F7xx_HAL_Driver/Src/stm32f7xx_hal_i2c.c ****      ==================================
 202:Drivers/STM32F7xx_HAL_Driver/Src/stm32f7xx_hal_i2c.c ****      [..]
ARM GAS  /var/folders/n8/cvzdcwlj0vl4g_wtyz1ffy300000gn/T//ccBPNZvy.s 			page 5


 203:Drivers/STM32F7xx_HAL_Driver/Src/stm32f7xx_hal_i2c.c ****        Below the list of most used macros in I2C HAL driver.
 204:Drivers/STM32F7xx_HAL_Driver/Src/stm32f7xx_hal_i2c.c **** 
 205:Drivers/STM32F7xx_HAL_Driver/Src/stm32f7xx_hal_i2c.c ****       (+) __HAL_I2C_ENABLE: Enable the I2C peripheral
 206:Drivers/STM32F7xx_HAL_Driver/Src/stm32f7xx_hal_i2c.c ****       (+) __HAL_I2C_DISABLE: Disable the I2C peripheral
 207:Drivers/STM32F7xx_HAL_Driver/Src/stm32f7xx_hal_i2c.c ****       (+) __HAL_I2C_GENERATE_NACK: Generate a Non-Acknowledge I2C peripheral in Slave mode
 208:Drivers/STM32F7xx_HAL_Driver/Src/stm32f7xx_hal_i2c.c ****       (+) __HAL_I2C_GET_FLAG: Check whether the specified I2C flag is set or not
 209:Drivers/STM32F7xx_HAL_Driver/Src/stm32f7xx_hal_i2c.c ****       (+) __HAL_I2C_CLEAR_FLAG: Clear the specified I2C pending flag
 210:Drivers/STM32F7xx_HAL_Driver/Src/stm32f7xx_hal_i2c.c ****       (+) __HAL_I2C_ENABLE_IT: Enable the specified I2C interrupt
 211:Drivers/STM32F7xx_HAL_Driver/Src/stm32f7xx_hal_i2c.c ****       (+) __HAL_I2C_DISABLE_IT: Disable the specified I2C interrupt
 212:Drivers/STM32F7xx_HAL_Driver/Src/stm32f7xx_hal_i2c.c **** 
 213:Drivers/STM32F7xx_HAL_Driver/Src/stm32f7xx_hal_i2c.c ****      [..]
 214:Drivers/STM32F7xx_HAL_Driver/Src/stm32f7xx_hal_i2c.c ****        (@) You can refer to the I2C HAL driver header file for more useful macros
 215:Drivers/STM32F7xx_HAL_Driver/Src/stm32f7xx_hal_i2c.c **** 
 216:Drivers/STM32F7xx_HAL_Driver/Src/stm32f7xx_hal_i2c.c ****   @endverbatim
 217:Drivers/STM32F7xx_HAL_Driver/Src/stm32f7xx_hal_i2c.c ****   ******************************************************************************
 218:Drivers/STM32F7xx_HAL_Driver/Src/stm32f7xx_hal_i2c.c ****   * @attention
 219:Drivers/STM32F7xx_HAL_Driver/Src/stm32f7xx_hal_i2c.c ****   *
 220:Drivers/STM32F7xx_HAL_Driver/Src/stm32f7xx_hal_i2c.c ****   * <h2><center>&copy; COPYRIGHT(c) 2017 STMicroelectronics</center></h2>
 221:Drivers/STM32F7xx_HAL_Driver/Src/stm32f7xx_hal_i2c.c ****   *
 222:Drivers/STM32F7xx_HAL_Driver/Src/stm32f7xx_hal_i2c.c ****   * Redistribution and use in source and binary forms, with or without modification,
 223:Drivers/STM32F7xx_HAL_Driver/Src/stm32f7xx_hal_i2c.c ****   * are permitted provided that the following conditions are met:
 224:Drivers/STM32F7xx_HAL_Driver/Src/stm32f7xx_hal_i2c.c ****   *   1. Redistributions of source code must retain the above copyright notice,
 225:Drivers/STM32F7xx_HAL_Driver/Src/stm32f7xx_hal_i2c.c ****   *      this list of conditions and the following disclaimer.
 226:Drivers/STM32F7xx_HAL_Driver/Src/stm32f7xx_hal_i2c.c ****   *   2. Redistributions in binary form must reproduce the above copyright notice,
 227:Drivers/STM32F7xx_HAL_Driver/Src/stm32f7xx_hal_i2c.c ****   *      this list of conditions and the following disclaimer in the documentation
 228:Drivers/STM32F7xx_HAL_Driver/Src/stm32f7xx_hal_i2c.c ****   *      and/or other materials provided with the distribution.
 229:Drivers/STM32F7xx_HAL_Driver/Src/stm32f7xx_hal_i2c.c ****   *   3. Neither the name of STMicroelectronics nor the names of its contributors
 230:Drivers/STM32F7xx_HAL_Driver/Src/stm32f7xx_hal_i2c.c ****   *      may be used to endorse or promote products derived from this software
 231:Drivers/STM32F7xx_HAL_Driver/Src/stm32f7xx_hal_i2c.c ****   *      without specific prior written permission.
 232:Drivers/STM32F7xx_HAL_Driver/Src/stm32f7xx_hal_i2c.c ****   *
 233:Drivers/STM32F7xx_HAL_Driver/Src/stm32f7xx_hal_i2c.c ****   * THIS SOFTWARE IS PROVIDED BY THE COPYRIGHT HOLDERS AND CONTRIBUTORS "AS IS"
 234:Drivers/STM32F7xx_HAL_Driver/Src/stm32f7xx_hal_i2c.c ****   * AND ANY EXPRESS OR IMPLIED WARRANTIES, INCLUDING, BUT NOT LIMITED TO, THE
 235:Drivers/STM32F7xx_HAL_Driver/Src/stm32f7xx_hal_i2c.c ****   * IMPLIED WARRANTIES OF MERCHANTABILITY AND FITNESS FOR A PARTICULAR PURPOSE ARE
 236:Drivers/STM32F7xx_HAL_Driver/Src/stm32f7xx_hal_i2c.c ****   * DISCLAIMED. IN NO EVENT SHALL THE COPYRIGHT HOLDER OR CONTRIBUTORS BE LIABLE
 237:Drivers/STM32F7xx_HAL_Driver/Src/stm32f7xx_hal_i2c.c ****   * FOR ANY DIRECT, INDIRECT, INCIDENTAL, SPECIAL, EXEMPLARY, OR CONSEQUENTIAL
 238:Drivers/STM32F7xx_HAL_Driver/Src/stm32f7xx_hal_i2c.c ****   * DAMAGES (INCLUDING, BUT NOT LIMITED TO, PROCUREMENT OF SUBSTITUTE GOODS OR
 239:Drivers/STM32F7xx_HAL_Driver/Src/stm32f7xx_hal_i2c.c ****   * SERVICES; LOSS OF USE, DATA, OR PROFITS; OR BUSINESS INTERRUPTION) HOWEVER
 240:Drivers/STM32F7xx_HAL_Driver/Src/stm32f7xx_hal_i2c.c ****   * CAUSED AND ON ANY THEORY OF LIABILITY, WHETHER IN CONTRACT, STRICT LIABILITY,
 241:Drivers/STM32F7xx_HAL_Driver/Src/stm32f7xx_hal_i2c.c ****   * OR TORT (INCLUDING NEGLIGENCE OR OTHERWISE) ARISING IN ANY WAY OUT OF THE USE
 242:Drivers/STM32F7xx_HAL_Driver/Src/stm32f7xx_hal_i2c.c ****   * OF THIS SOFTWARE, EVEN IF ADVISED OF THE POSSIBILITY OF SUCH DAMAGE.
 243:Drivers/STM32F7xx_HAL_Driver/Src/stm32f7xx_hal_i2c.c ****   *
 244:Drivers/STM32F7xx_HAL_Driver/Src/stm32f7xx_hal_i2c.c ****   ******************************************************************************
 245:Drivers/STM32F7xx_HAL_Driver/Src/stm32f7xx_hal_i2c.c ****   */
 246:Drivers/STM32F7xx_HAL_Driver/Src/stm32f7xx_hal_i2c.c **** 
 247:Drivers/STM32F7xx_HAL_Driver/Src/stm32f7xx_hal_i2c.c **** /* Includes ------------------------------------------------------------------*/
 248:Drivers/STM32F7xx_HAL_Driver/Src/stm32f7xx_hal_i2c.c **** #include "stm32f7xx_hal.h"
 249:Drivers/STM32F7xx_HAL_Driver/Src/stm32f7xx_hal_i2c.c **** 
 250:Drivers/STM32F7xx_HAL_Driver/Src/stm32f7xx_hal_i2c.c **** /** @addtogroup STM32F7xx_HAL_Driver
 251:Drivers/STM32F7xx_HAL_Driver/Src/stm32f7xx_hal_i2c.c ****   * @{
 252:Drivers/STM32F7xx_HAL_Driver/Src/stm32f7xx_hal_i2c.c ****   */
 253:Drivers/STM32F7xx_HAL_Driver/Src/stm32f7xx_hal_i2c.c **** 
 254:Drivers/STM32F7xx_HAL_Driver/Src/stm32f7xx_hal_i2c.c **** /** @defgroup I2C I2C
 255:Drivers/STM32F7xx_HAL_Driver/Src/stm32f7xx_hal_i2c.c ****   * @brief I2C HAL module driver
 256:Drivers/STM32F7xx_HAL_Driver/Src/stm32f7xx_hal_i2c.c ****   * @{
 257:Drivers/STM32F7xx_HAL_Driver/Src/stm32f7xx_hal_i2c.c ****   */
 258:Drivers/STM32F7xx_HAL_Driver/Src/stm32f7xx_hal_i2c.c **** 
 259:Drivers/STM32F7xx_HAL_Driver/Src/stm32f7xx_hal_i2c.c **** #ifdef HAL_I2C_MODULE_ENABLED
ARM GAS  /var/folders/n8/cvzdcwlj0vl4g_wtyz1ffy300000gn/T//ccBPNZvy.s 			page 6


 260:Drivers/STM32F7xx_HAL_Driver/Src/stm32f7xx_hal_i2c.c **** 
 261:Drivers/STM32F7xx_HAL_Driver/Src/stm32f7xx_hal_i2c.c **** /* Private typedef -----------------------------------------------------------*/
 262:Drivers/STM32F7xx_HAL_Driver/Src/stm32f7xx_hal_i2c.c **** /* Private define ------------------------------------------------------------*/
 263:Drivers/STM32F7xx_HAL_Driver/Src/stm32f7xx_hal_i2c.c **** 
 264:Drivers/STM32F7xx_HAL_Driver/Src/stm32f7xx_hal_i2c.c **** /** @defgroup I2C_Private_Define I2C Private Define
 265:Drivers/STM32F7xx_HAL_Driver/Src/stm32f7xx_hal_i2c.c ****   * @{
 266:Drivers/STM32F7xx_HAL_Driver/Src/stm32f7xx_hal_i2c.c ****   */
 267:Drivers/STM32F7xx_HAL_Driver/Src/stm32f7xx_hal_i2c.c **** #define TIMING_CLEAR_MASK   (0xF0FFFFFFU)  /*!< I2C TIMING clear register Mask */
 268:Drivers/STM32F7xx_HAL_Driver/Src/stm32f7xx_hal_i2c.c **** #define I2C_TIMEOUT_ADDR    (10000U)       /*!< 10 s  */
 269:Drivers/STM32F7xx_HAL_Driver/Src/stm32f7xx_hal_i2c.c **** #define I2C_TIMEOUT_BUSY    (25U)          /*!< 25 ms */
 270:Drivers/STM32F7xx_HAL_Driver/Src/stm32f7xx_hal_i2c.c **** #define I2C_TIMEOUT_DIR     (25U)          /*!< 25 ms */
 271:Drivers/STM32F7xx_HAL_Driver/Src/stm32f7xx_hal_i2c.c **** #define I2C_TIMEOUT_RXNE    (25U)          /*!< 25 ms */
 272:Drivers/STM32F7xx_HAL_Driver/Src/stm32f7xx_hal_i2c.c **** #define I2C_TIMEOUT_STOPF   (25U)          /*!< 25 ms */
 273:Drivers/STM32F7xx_HAL_Driver/Src/stm32f7xx_hal_i2c.c **** #define I2C_TIMEOUT_TC      (25U)          /*!< 25 ms */
 274:Drivers/STM32F7xx_HAL_Driver/Src/stm32f7xx_hal_i2c.c **** #define I2C_TIMEOUT_TCR     (25U)          /*!< 25 ms */
 275:Drivers/STM32F7xx_HAL_Driver/Src/stm32f7xx_hal_i2c.c **** #define I2C_TIMEOUT_TXIS    (25U)          /*!< 25 ms */
 276:Drivers/STM32F7xx_HAL_Driver/Src/stm32f7xx_hal_i2c.c **** #define I2C_TIMEOUT_FLAG    (25U)          /*!< 25 ms */
 277:Drivers/STM32F7xx_HAL_Driver/Src/stm32f7xx_hal_i2c.c **** 
 278:Drivers/STM32F7xx_HAL_Driver/Src/stm32f7xx_hal_i2c.c **** #define MAX_NBYTE_SIZE      255U
 279:Drivers/STM32F7xx_HAL_Driver/Src/stm32f7xx_hal_i2c.c **** #define SlaveAddr_SHIFT     7U
 280:Drivers/STM32F7xx_HAL_Driver/Src/stm32f7xx_hal_i2c.c **** #define SlaveAddr_MSK       0x06U
 281:Drivers/STM32F7xx_HAL_Driver/Src/stm32f7xx_hal_i2c.c **** 
 282:Drivers/STM32F7xx_HAL_Driver/Src/stm32f7xx_hal_i2c.c **** /* Private define for @ref PreviousState usage */
 283:Drivers/STM32F7xx_HAL_Driver/Src/stm32f7xx_hal_i2c.c **** #define I2C_STATE_MSK             ((uint32_t)((HAL_I2C_STATE_BUSY_TX | HAL_I2C_STATE_BUSY_RX) & (~(
 284:Drivers/STM32F7xx_HAL_Driver/Src/stm32f7xx_hal_i2c.c **** #define I2C_STATE_NONE            ((uint32_t)(HAL_I2C_MODE_NONE))                                  
 285:Drivers/STM32F7xx_HAL_Driver/Src/stm32f7xx_hal_i2c.c **** #define I2C_STATE_MASTER_BUSY_TX  ((uint32_t)((HAL_I2C_STATE_BUSY_TX & I2C_STATE_MSK) | HAL_I2C_MOD
 286:Drivers/STM32F7xx_HAL_Driver/Src/stm32f7xx_hal_i2c.c **** #define I2C_STATE_MASTER_BUSY_RX  ((uint32_t)((HAL_I2C_STATE_BUSY_RX & I2C_STATE_MSK) | HAL_I2C_MOD
 287:Drivers/STM32F7xx_HAL_Driver/Src/stm32f7xx_hal_i2c.c **** #define I2C_STATE_SLAVE_BUSY_TX   ((uint32_t)((HAL_I2C_STATE_BUSY_TX & I2C_STATE_MSK) | HAL_I2C_MOD
 288:Drivers/STM32F7xx_HAL_Driver/Src/stm32f7xx_hal_i2c.c **** #define I2C_STATE_SLAVE_BUSY_RX   ((uint32_t)((HAL_I2C_STATE_BUSY_RX & I2C_STATE_MSK) | HAL_I2C_MOD
 289:Drivers/STM32F7xx_HAL_Driver/Src/stm32f7xx_hal_i2c.c **** #define I2C_STATE_MEM_BUSY_TX     ((uint32_t)((HAL_I2C_STATE_BUSY_TX & I2C_STATE_MSK) | HAL_I2C_MOD
 290:Drivers/STM32F7xx_HAL_Driver/Src/stm32f7xx_hal_i2c.c **** #define I2C_STATE_MEM_BUSY_RX     ((uint32_t)((HAL_I2C_STATE_BUSY_RX & I2C_STATE_MSK) | HAL_I2C_MOD
 291:Drivers/STM32F7xx_HAL_Driver/Src/stm32f7xx_hal_i2c.c **** 
 292:Drivers/STM32F7xx_HAL_Driver/Src/stm32f7xx_hal_i2c.c **** 
 293:Drivers/STM32F7xx_HAL_Driver/Src/stm32f7xx_hal_i2c.c **** /* Private define to centralize the enable/disable of Interrupts */
 294:Drivers/STM32F7xx_HAL_Driver/Src/stm32f7xx_hal_i2c.c **** #define I2C_XFER_TX_IT          (0x00000001U)
 295:Drivers/STM32F7xx_HAL_Driver/Src/stm32f7xx_hal_i2c.c **** #define I2C_XFER_RX_IT          (0x00000002U)
 296:Drivers/STM32F7xx_HAL_Driver/Src/stm32f7xx_hal_i2c.c **** #define I2C_XFER_LISTEN_IT      (0x00000004U)
 297:Drivers/STM32F7xx_HAL_Driver/Src/stm32f7xx_hal_i2c.c **** 
 298:Drivers/STM32F7xx_HAL_Driver/Src/stm32f7xx_hal_i2c.c **** #define I2C_XFER_ERROR_IT       (0x00000011U)
 299:Drivers/STM32F7xx_HAL_Driver/Src/stm32f7xx_hal_i2c.c **** #define I2C_XFER_CPLT_IT        (0x00000012U)
 300:Drivers/STM32F7xx_HAL_Driver/Src/stm32f7xx_hal_i2c.c **** #define I2C_XFER_RELOAD_IT      (0x00000012U)
 301:Drivers/STM32F7xx_HAL_Driver/Src/stm32f7xx_hal_i2c.c **** 
 302:Drivers/STM32F7xx_HAL_Driver/Src/stm32f7xx_hal_i2c.c **** /* Private define Sequential Transfer Options default/reset value */
 303:Drivers/STM32F7xx_HAL_Driver/Src/stm32f7xx_hal_i2c.c **** #define I2C_NO_OPTION_FRAME     (0xFFFF0000U)
 304:Drivers/STM32F7xx_HAL_Driver/Src/stm32f7xx_hal_i2c.c **** /**
 305:Drivers/STM32F7xx_HAL_Driver/Src/stm32f7xx_hal_i2c.c ****   * @}
 306:Drivers/STM32F7xx_HAL_Driver/Src/stm32f7xx_hal_i2c.c ****   */
 307:Drivers/STM32F7xx_HAL_Driver/Src/stm32f7xx_hal_i2c.c **** 
 308:Drivers/STM32F7xx_HAL_Driver/Src/stm32f7xx_hal_i2c.c **** /* Private macro -------------------------------------------------------------*/
 309:Drivers/STM32F7xx_HAL_Driver/Src/stm32f7xx_hal_i2c.c **** #define I2C_GET_DMA_REMAIN_DATA(__HANDLE__) ((((__HANDLE__)->State) == HAL_I2C_STATE_BUSY_TX)   ? \
 310:Drivers/STM32F7xx_HAL_Driver/Src/stm32f7xx_hal_i2c.c ****                                               ((uint32_t)(((DMA_Stream_TypeDef *)(__HANDLE__)->hdma
 311:Drivers/STM32F7xx_HAL_Driver/Src/stm32f7xx_hal_i2c.c ****                                               ((uint32_t)(((DMA_Stream_TypeDef *)(__HANDLE__)->hdma
 312:Drivers/STM32F7xx_HAL_Driver/Src/stm32f7xx_hal_i2c.c **** 
 313:Drivers/STM32F7xx_HAL_Driver/Src/stm32f7xx_hal_i2c.c **** /* Private variables ---------------------------------------------------------*/
 314:Drivers/STM32F7xx_HAL_Driver/Src/stm32f7xx_hal_i2c.c **** /* Private function prototypes -----------------------------------------------*/
 315:Drivers/STM32F7xx_HAL_Driver/Src/stm32f7xx_hal_i2c.c **** 
 316:Drivers/STM32F7xx_HAL_Driver/Src/stm32f7xx_hal_i2c.c **** /** @defgroup I2C_Private_Functions I2C Private Functions
ARM GAS  /var/folders/n8/cvzdcwlj0vl4g_wtyz1ffy300000gn/T//ccBPNZvy.s 			page 7


 317:Drivers/STM32F7xx_HAL_Driver/Src/stm32f7xx_hal_i2c.c ****   * @{
 318:Drivers/STM32F7xx_HAL_Driver/Src/stm32f7xx_hal_i2c.c ****   */
 319:Drivers/STM32F7xx_HAL_Driver/Src/stm32f7xx_hal_i2c.c **** /* Private functions to handle DMA transfer */
 320:Drivers/STM32F7xx_HAL_Driver/Src/stm32f7xx_hal_i2c.c **** static void I2C_DMAMasterTransmitCplt(DMA_HandleTypeDef *hdma);
 321:Drivers/STM32F7xx_HAL_Driver/Src/stm32f7xx_hal_i2c.c **** static void I2C_DMAMasterReceiveCplt(DMA_HandleTypeDef *hdma);
 322:Drivers/STM32F7xx_HAL_Driver/Src/stm32f7xx_hal_i2c.c **** static void I2C_DMASlaveTransmitCplt(DMA_HandleTypeDef *hdma);
 323:Drivers/STM32F7xx_HAL_Driver/Src/stm32f7xx_hal_i2c.c **** static void I2C_DMASlaveReceiveCplt(DMA_HandleTypeDef *hdma);
 324:Drivers/STM32F7xx_HAL_Driver/Src/stm32f7xx_hal_i2c.c **** static void I2C_DMAError(DMA_HandleTypeDef *hdma);
 325:Drivers/STM32F7xx_HAL_Driver/Src/stm32f7xx_hal_i2c.c **** static void I2C_DMAAbort(DMA_HandleTypeDef *hdma);
 326:Drivers/STM32F7xx_HAL_Driver/Src/stm32f7xx_hal_i2c.c **** 
 327:Drivers/STM32F7xx_HAL_Driver/Src/stm32f7xx_hal_i2c.c **** /* Private functions to handle IT transfer */
 328:Drivers/STM32F7xx_HAL_Driver/Src/stm32f7xx_hal_i2c.c **** static void I2C_ITAddrCplt(I2C_HandleTypeDef *hi2c, uint32_t ITFlags);
 329:Drivers/STM32F7xx_HAL_Driver/Src/stm32f7xx_hal_i2c.c **** static void I2C_ITMasterSequentialCplt(I2C_HandleTypeDef *hi2c);
 330:Drivers/STM32F7xx_HAL_Driver/Src/stm32f7xx_hal_i2c.c **** static void I2C_ITSlaveSequentialCplt(I2C_HandleTypeDef *hi2c);
 331:Drivers/STM32F7xx_HAL_Driver/Src/stm32f7xx_hal_i2c.c **** static void I2C_ITMasterCplt(I2C_HandleTypeDef *hi2c, uint32_t ITFlags);
 332:Drivers/STM32F7xx_HAL_Driver/Src/stm32f7xx_hal_i2c.c **** static void I2C_ITSlaveCplt(I2C_HandleTypeDef *hi2c, uint32_t ITFlags);
 333:Drivers/STM32F7xx_HAL_Driver/Src/stm32f7xx_hal_i2c.c **** static void I2C_ITListenCplt(I2C_HandleTypeDef *hi2c, uint32_t ITFlags);
 334:Drivers/STM32F7xx_HAL_Driver/Src/stm32f7xx_hal_i2c.c **** static void I2C_ITError(I2C_HandleTypeDef *hi2c, uint32_t ErrorCode);
 335:Drivers/STM32F7xx_HAL_Driver/Src/stm32f7xx_hal_i2c.c **** 
 336:Drivers/STM32F7xx_HAL_Driver/Src/stm32f7xx_hal_i2c.c **** /* Private functions to handle IT transfer */
 337:Drivers/STM32F7xx_HAL_Driver/Src/stm32f7xx_hal_i2c.c **** static HAL_StatusTypeDef I2C_RequestMemoryWrite(I2C_HandleTypeDef *hi2c, uint16_t DevAddress, uint1
 338:Drivers/STM32F7xx_HAL_Driver/Src/stm32f7xx_hal_i2c.c **** static HAL_StatusTypeDef I2C_RequestMemoryRead(I2C_HandleTypeDef *hi2c, uint16_t DevAddress, uint16
 339:Drivers/STM32F7xx_HAL_Driver/Src/stm32f7xx_hal_i2c.c **** 
 340:Drivers/STM32F7xx_HAL_Driver/Src/stm32f7xx_hal_i2c.c **** /* Private functions for I2C transfer IRQ handler */
 341:Drivers/STM32F7xx_HAL_Driver/Src/stm32f7xx_hal_i2c.c **** static HAL_StatusTypeDef I2C_Master_ISR_IT(struct __I2C_HandleTypeDef *hi2c, uint32_t ITFlags, uint
 342:Drivers/STM32F7xx_HAL_Driver/Src/stm32f7xx_hal_i2c.c **** static HAL_StatusTypeDef I2C_Slave_ISR_IT(struct __I2C_HandleTypeDef *hi2c, uint32_t ITFlags, uint3
 343:Drivers/STM32F7xx_HAL_Driver/Src/stm32f7xx_hal_i2c.c **** static HAL_StatusTypeDef I2C_Master_ISR_DMA(struct __I2C_HandleTypeDef *hi2c, uint32_t ITFlags, uin
 344:Drivers/STM32F7xx_HAL_Driver/Src/stm32f7xx_hal_i2c.c **** static HAL_StatusTypeDef I2C_Slave_ISR_DMA(struct __I2C_HandleTypeDef *hi2c, uint32_t ITFlags, uint
 345:Drivers/STM32F7xx_HAL_Driver/Src/stm32f7xx_hal_i2c.c **** 
 346:Drivers/STM32F7xx_HAL_Driver/Src/stm32f7xx_hal_i2c.c **** /* Private functions to handle flags during polling transfer */
 347:Drivers/STM32F7xx_HAL_Driver/Src/stm32f7xx_hal_i2c.c **** static HAL_StatusTypeDef I2C_WaitOnFlagUntilTimeout(I2C_HandleTypeDef *hi2c, uint32_t Flag, FlagSta
 348:Drivers/STM32F7xx_HAL_Driver/Src/stm32f7xx_hal_i2c.c **** static HAL_StatusTypeDef I2C_WaitOnTXISFlagUntilTimeout(I2C_HandleTypeDef *hi2c, uint32_t Timeout, 
 349:Drivers/STM32F7xx_HAL_Driver/Src/stm32f7xx_hal_i2c.c **** static HAL_StatusTypeDef I2C_WaitOnRXNEFlagUntilTimeout(I2C_HandleTypeDef *hi2c, uint32_t Timeout, 
 350:Drivers/STM32F7xx_HAL_Driver/Src/stm32f7xx_hal_i2c.c **** static HAL_StatusTypeDef I2C_WaitOnSTOPFlagUntilTimeout(I2C_HandleTypeDef *hi2c, uint32_t Timeout, 
 351:Drivers/STM32F7xx_HAL_Driver/Src/stm32f7xx_hal_i2c.c **** static HAL_StatusTypeDef I2C_IsAcknowledgeFailed(I2C_HandleTypeDef *hi2c, uint32_t Timeout, uint32_
 352:Drivers/STM32F7xx_HAL_Driver/Src/stm32f7xx_hal_i2c.c **** 
 353:Drivers/STM32F7xx_HAL_Driver/Src/stm32f7xx_hal_i2c.c **** /* Private functions to centralize the enable/disable of Interrupts */
 354:Drivers/STM32F7xx_HAL_Driver/Src/stm32f7xx_hal_i2c.c **** static HAL_StatusTypeDef I2C_Enable_IRQ(I2C_HandleTypeDef *hi2c, uint16_t InterruptRequest);
 355:Drivers/STM32F7xx_HAL_Driver/Src/stm32f7xx_hal_i2c.c **** static HAL_StatusTypeDef I2C_Disable_IRQ(I2C_HandleTypeDef *hi2c, uint16_t InterruptRequest);
 356:Drivers/STM32F7xx_HAL_Driver/Src/stm32f7xx_hal_i2c.c **** 
 357:Drivers/STM32F7xx_HAL_Driver/Src/stm32f7xx_hal_i2c.c **** /* Private functions to flush TXDR register */
 358:Drivers/STM32F7xx_HAL_Driver/Src/stm32f7xx_hal_i2c.c **** static void I2C_Flush_TXDR(I2C_HandleTypeDef *hi2c);
 359:Drivers/STM32F7xx_HAL_Driver/Src/stm32f7xx_hal_i2c.c **** 
 360:Drivers/STM32F7xx_HAL_Driver/Src/stm32f7xx_hal_i2c.c **** /* Private functions to handle  start, restart or stop a transfer */
 361:Drivers/STM32F7xx_HAL_Driver/Src/stm32f7xx_hal_i2c.c **** static void I2C_TransferConfig(I2C_HandleTypeDef *hi2c,  uint16_t DevAddress, uint8_t Size, uint32_
 362:Drivers/STM32F7xx_HAL_Driver/Src/stm32f7xx_hal_i2c.c **** /**
 363:Drivers/STM32F7xx_HAL_Driver/Src/stm32f7xx_hal_i2c.c ****   * @}
 364:Drivers/STM32F7xx_HAL_Driver/Src/stm32f7xx_hal_i2c.c ****   */
 365:Drivers/STM32F7xx_HAL_Driver/Src/stm32f7xx_hal_i2c.c **** 
 366:Drivers/STM32F7xx_HAL_Driver/Src/stm32f7xx_hal_i2c.c **** /* Exported functions --------------------------------------------------------*/
 367:Drivers/STM32F7xx_HAL_Driver/Src/stm32f7xx_hal_i2c.c **** 
 368:Drivers/STM32F7xx_HAL_Driver/Src/stm32f7xx_hal_i2c.c **** /** @defgroup I2C_Exported_Functions I2C Exported Functions
 369:Drivers/STM32F7xx_HAL_Driver/Src/stm32f7xx_hal_i2c.c ****   * @{
 370:Drivers/STM32F7xx_HAL_Driver/Src/stm32f7xx_hal_i2c.c ****   */
 371:Drivers/STM32F7xx_HAL_Driver/Src/stm32f7xx_hal_i2c.c **** 
 372:Drivers/STM32F7xx_HAL_Driver/Src/stm32f7xx_hal_i2c.c **** /** @defgroup I2C_Exported_Functions_Group1 Initialization and de-initialization functions
 373:Drivers/STM32F7xx_HAL_Driver/Src/stm32f7xx_hal_i2c.c ****  *  @brief    Initialization and Configuration functions
ARM GAS  /var/folders/n8/cvzdcwlj0vl4g_wtyz1ffy300000gn/T//ccBPNZvy.s 			page 8


 374:Drivers/STM32F7xx_HAL_Driver/Src/stm32f7xx_hal_i2c.c ****  *
 375:Drivers/STM32F7xx_HAL_Driver/Src/stm32f7xx_hal_i2c.c **** @verbatim
 376:Drivers/STM32F7xx_HAL_Driver/Src/stm32f7xx_hal_i2c.c ****  ===============================================================================
 377:Drivers/STM32F7xx_HAL_Driver/Src/stm32f7xx_hal_i2c.c ****               ##### Initialization and de-initialization functions #####
 378:Drivers/STM32F7xx_HAL_Driver/Src/stm32f7xx_hal_i2c.c ****  ===============================================================================
 379:Drivers/STM32F7xx_HAL_Driver/Src/stm32f7xx_hal_i2c.c ****     [..]  This subsection provides a set of functions allowing to initialize and
 380:Drivers/STM32F7xx_HAL_Driver/Src/stm32f7xx_hal_i2c.c ****           deinitialize the I2Cx peripheral:
 381:Drivers/STM32F7xx_HAL_Driver/Src/stm32f7xx_hal_i2c.c **** 
 382:Drivers/STM32F7xx_HAL_Driver/Src/stm32f7xx_hal_i2c.c ****       (+) User must Implement HAL_I2C_MspInit() function in which he configures
 383:Drivers/STM32F7xx_HAL_Driver/Src/stm32f7xx_hal_i2c.c ****           all related peripherals resources (CLOCK, GPIO, DMA, IT and NVIC ).
 384:Drivers/STM32F7xx_HAL_Driver/Src/stm32f7xx_hal_i2c.c **** 
 385:Drivers/STM32F7xx_HAL_Driver/Src/stm32f7xx_hal_i2c.c ****       (+) Call the function HAL_I2C_Init() to configure the selected device with
 386:Drivers/STM32F7xx_HAL_Driver/Src/stm32f7xx_hal_i2c.c ****           the selected configuration:
 387:Drivers/STM32F7xx_HAL_Driver/Src/stm32f7xx_hal_i2c.c ****         (++) Clock Timing
 388:Drivers/STM32F7xx_HAL_Driver/Src/stm32f7xx_hal_i2c.c ****         (++) Own Address 1
 389:Drivers/STM32F7xx_HAL_Driver/Src/stm32f7xx_hal_i2c.c ****         (++) Addressing mode (Master, Slave)
 390:Drivers/STM32F7xx_HAL_Driver/Src/stm32f7xx_hal_i2c.c ****         (++) Dual Addressing mode
 391:Drivers/STM32F7xx_HAL_Driver/Src/stm32f7xx_hal_i2c.c ****         (++) Own Address 2
 392:Drivers/STM32F7xx_HAL_Driver/Src/stm32f7xx_hal_i2c.c ****         (++) Own Address 2 Mask
 393:Drivers/STM32F7xx_HAL_Driver/Src/stm32f7xx_hal_i2c.c ****         (++) General call mode
 394:Drivers/STM32F7xx_HAL_Driver/Src/stm32f7xx_hal_i2c.c ****         (++) Nostretch mode
 395:Drivers/STM32F7xx_HAL_Driver/Src/stm32f7xx_hal_i2c.c **** 
 396:Drivers/STM32F7xx_HAL_Driver/Src/stm32f7xx_hal_i2c.c ****       (+) Call the function HAL_I2C_DeInit() to restore the default configuration
 397:Drivers/STM32F7xx_HAL_Driver/Src/stm32f7xx_hal_i2c.c ****           of the selected I2Cx peripheral.
 398:Drivers/STM32F7xx_HAL_Driver/Src/stm32f7xx_hal_i2c.c **** 
 399:Drivers/STM32F7xx_HAL_Driver/Src/stm32f7xx_hal_i2c.c **** @endverbatim
 400:Drivers/STM32F7xx_HAL_Driver/Src/stm32f7xx_hal_i2c.c ****   * @{
 401:Drivers/STM32F7xx_HAL_Driver/Src/stm32f7xx_hal_i2c.c ****   */
 402:Drivers/STM32F7xx_HAL_Driver/Src/stm32f7xx_hal_i2c.c **** 
 403:Drivers/STM32F7xx_HAL_Driver/Src/stm32f7xx_hal_i2c.c **** /**
 404:Drivers/STM32F7xx_HAL_Driver/Src/stm32f7xx_hal_i2c.c ****   * @brief  Initializes the I2C according to the specified parameters
 405:Drivers/STM32F7xx_HAL_Driver/Src/stm32f7xx_hal_i2c.c ****   *         in the I2C_InitTypeDef and initialize the associated handle.
 406:Drivers/STM32F7xx_HAL_Driver/Src/stm32f7xx_hal_i2c.c ****   * @param  hi2c Pointer to a I2C_HandleTypeDef structure that contains
 407:Drivers/STM32F7xx_HAL_Driver/Src/stm32f7xx_hal_i2c.c ****   *                the configuration information for the specified I2C.
 408:Drivers/STM32F7xx_HAL_Driver/Src/stm32f7xx_hal_i2c.c ****   * @retval HAL status
 409:Drivers/STM32F7xx_HAL_Driver/Src/stm32f7xx_hal_i2c.c ****   */
 410:Drivers/STM32F7xx_HAL_Driver/Src/stm32f7xx_hal_i2c.c **** HAL_StatusTypeDef HAL_I2C_Init(I2C_HandleTypeDef *hi2c)
 411:Drivers/STM32F7xx_HAL_Driver/Src/stm32f7xx_hal_i2c.c **** {
  28              		.loc 1 411 0
  29              		.cfi_startproc
  30              		@ args = 0, pretend = 0, frame = 8
  31              		@ frame_needed = 1, uses_anonymous_args = 0
  32 0000 80B5     		push	{r7, lr}
  33              	.LCFI0:
  34              		.cfi_def_cfa_offset 8
  35              		.cfi_offset 7, -8
  36              		.cfi_offset 14, -4
  37 0002 82B0     		sub	sp, sp, #8
  38              	.LCFI1:
  39              		.cfi_def_cfa_offset 16
  40 0004 00AF     		add	r7, sp, #0
  41              	.LCFI2:
  42              		.cfi_def_cfa_register 7
  43 0006 7860     		str	r0, [r7, #4]
 412:Drivers/STM32F7xx_HAL_Driver/Src/stm32f7xx_hal_i2c.c ****   /* Check the I2C handle allocation */
 413:Drivers/STM32F7xx_HAL_Driver/Src/stm32f7xx_hal_i2c.c ****   if (hi2c == NULL)
  44              		.loc 1 413 0
ARM GAS  /var/folders/n8/cvzdcwlj0vl4g_wtyz1ffy300000gn/T//ccBPNZvy.s 			page 9


  45 0008 7B68     		ldr	r3, [r7, #4]
  46 000a 002B     		cmp	r3, #0
  47 000c 01D1     		bne	.L2
 414:Drivers/STM32F7xx_HAL_Driver/Src/stm32f7xx_hal_i2c.c ****   {
 415:Drivers/STM32F7xx_HAL_Driver/Src/stm32f7xx_hal_i2c.c ****     return HAL_ERROR;
  48              		.loc 1 415 0
  49 000e 0123     		movs	r3, #1
  50 0010 7FE0     		b	.L3
  51              	.L2:
 416:Drivers/STM32F7xx_HAL_Driver/Src/stm32f7xx_hal_i2c.c ****   }
 417:Drivers/STM32F7xx_HAL_Driver/Src/stm32f7xx_hal_i2c.c **** 
 418:Drivers/STM32F7xx_HAL_Driver/Src/stm32f7xx_hal_i2c.c ****   /* Check the parameters */
 419:Drivers/STM32F7xx_HAL_Driver/Src/stm32f7xx_hal_i2c.c ****   assert_param(IS_I2C_ALL_INSTANCE(hi2c->Instance));
 420:Drivers/STM32F7xx_HAL_Driver/Src/stm32f7xx_hal_i2c.c ****   assert_param(IS_I2C_OWN_ADDRESS1(hi2c->Init.OwnAddress1));
 421:Drivers/STM32F7xx_HAL_Driver/Src/stm32f7xx_hal_i2c.c ****   assert_param(IS_I2C_ADDRESSING_MODE(hi2c->Init.AddressingMode));
 422:Drivers/STM32F7xx_HAL_Driver/Src/stm32f7xx_hal_i2c.c ****   assert_param(IS_I2C_DUAL_ADDRESS(hi2c->Init.DualAddressMode));
 423:Drivers/STM32F7xx_HAL_Driver/Src/stm32f7xx_hal_i2c.c ****   assert_param(IS_I2C_OWN_ADDRESS2(hi2c->Init.OwnAddress2));
 424:Drivers/STM32F7xx_HAL_Driver/Src/stm32f7xx_hal_i2c.c ****   assert_param(IS_I2C_OWN_ADDRESS2_MASK(hi2c->Init.OwnAddress2Masks));
 425:Drivers/STM32F7xx_HAL_Driver/Src/stm32f7xx_hal_i2c.c ****   assert_param(IS_I2C_GENERAL_CALL(hi2c->Init.GeneralCallMode));
 426:Drivers/STM32F7xx_HAL_Driver/Src/stm32f7xx_hal_i2c.c ****   assert_param(IS_I2C_NO_STRETCH(hi2c->Init.NoStretchMode));
 427:Drivers/STM32F7xx_HAL_Driver/Src/stm32f7xx_hal_i2c.c **** 
 428:Drivers/STM32F7xx_HAL_Driver/Src/stm32f7xx_hal_i2c.c ****   if (hi2c->State == HAL_I2C_STATE_RESET)
  52              		.loc 1 428 0
  53 0012 7B68     		ldr	r3, [r7, #4]
  54 0014 93F84130 		ldrb	r3, [r3, #65]
  55 0018 DBB2     		uxtb	r3, r3
  56 001a 002B     		cmp	r3, #0
  57 001c 06D1     		bne	.L4
 429:Drivers/STM32F7xx_HAL_Driver/Src/stm32f7xx_hal_i2c.c ****   {
 430:Drivers/STM32F7xx_HAL_Driver/Src/stm32f7xx_hal_i2c.c ****     /* Allocate lock resource and initialize it */
 431:Drivers/STM32F7xx_HAL_Driver/Src/stm32f7xx_hal_i2c.c ****     hi2c->Lock = HAL_UNLOCKED;
  58              		.loc 1 431 0
  59 001e 7B68     		ldr	r3, [r7, #4]
  60 0020 0022     		movs	r2, #0
  61 0022 83F84020 		strb	r2, [r3, #64]
 432:Drivers/STM32F7xx_HAL_Driver/Src/stm32f7xx_hal_i2c.c **** 
 433:Drivers/STM32F7xx_HAL_Driver/Src/stm32f7xx_hal_i2c.c ****     /* Init the low level hardware : GPIO, CLOCK, CORTEX...etc */
 434:Drivers/STM32F7xx_HAL_Driver/Src/stm32f7xx_hal_i2c.c ****     HAL_I2C_MspInit(hi2c);
  62              		.loc 1 434 0
  63 0026 7868     		ldr	r0, [r7, #4]
  64 0028 FFF7FEFF 		bl	HAL_I2C_MspInit
  65              	.L4:
 435:Drivers/STM32F7xx_HAL_Driver/Src/stm32f7xx_hal_i2c.c ****   }
 436:Drivers/STM32F7xx_HAL_Driver/Src/stm32f7xx_hal_i2c.c **** 
 437:Drivers/STM32F7xx_HAL_Driver/Src/stm32f7xx_hal_i2c.c ****   hi2c->State = HAL_I2C_STATE_BUSY;
  66              		.loc 1 437 0
  67 002c 7B68     		ldr	r3, [r7, #4]
  68 002e 2422     		movs	r2, #36
  69 0030 83F84120 		strb	r2, [r3, #65]
 438:Drivers/STM32F7xx_HAL_Driver/Src/stm32f7xx_hal_i2c.c **** 
 439:Drivers/STM32F7xx_HAL_Driver/Src/stm32f7xx_hal_i2c.c ****   /* Disable the selected I2C peripheral */
 440:Drivers/STM32F7xx_HAL_Driver/Src/stm32f7xx_hal_i2c.c ****   __HAL_I2C_DISABLE(hi2c);
  70              		.loc 1 440 0
  71 0034 7B68     		ldr	r3, [r7, #4]
  72 0036 1B68     		ldr	r3, [r3]
  73 0038 1A68     		ldr	r2, [r3]
  74 003a 7B68     		ldr	r3, [r7, #4]
ARM GAS  /var/folders/n8/cvzdcwlj0vl4g_wtyz1ffy300000gn/T//ccBPNZvy.s 			page 10


  75 003c 1B68     		ldr	r3, [r3]
  76 003e 22F00102 		bic	r2, r2, #1
  77 0042 1A60     		str	r2, [r3]
 441:Drivers/STM32F7xx_HAL_Driver/Src/stm32f7xx_hal_i2c.c **** 
 442:Drivers/STM32F7xx_HAL_Driver/Src/stm32f7xx_hal_i2c.c ****   /*---------------------------- I2Cx TIMINGR Configuration ------------------*/
 443:Drivers/STM32F7xx_HAL_Driver/Src/stm32f7xx_hal_i2c.c ****   /* Configure I2Cx: Frequency range */
 444:Drivers/STM32F7xx_HAL_Driver/Src/stm32f7xx_hal_i2c.c ****   hi2c->Instance->TIMINGR = hi2c->Init.Timing & TIMING_CLEAR_MASK;
  78              		.loc 1 444 0
  79 0044 7B68     		ldr	r3, [r7, #4]
  80 0046 5A68     		ldr	r2, [r3, #4]
  81 0048 7B68     		ldr	r3, [r7, #4]
  82 004a 1B68     		ldr	r3, [r3]
  83 004c 22F07062 		bic	r2, r2, #251658240
  84 0050 1A61     		str	r2, [r3, #16]
 445:Drivers/STM32F7xx_HAL_Driver/Src/stm32f7xx_hal_i2c.c **** 
 446:Drivers/STM32F7xx_HAL_Driver/Src/stm32f7xx_hal_i2c.c ****   /*---------------------------- I2Cx OAR1 Configuration ---------------------*/
 447:Drivers/STM32F7xx_HAL_Driver/Src/stm32f7xx_hal_i2c.c ****   /* Disable Own Address1 before set the Own Address1 configuration */
 448:Drivers/STM32F7xx_HAL_Driver/Src/stm32f7xx_hal_i2c.c ****   hi2c->Instance->OAR1 &= ~I2C_OAR1_OA1EN;
  85              		.loc 1 448 0
  86 0052 7B68     		ldr	r3, [r7, #4]
  87 0054 1B68     		ldr	r3, [r3]
  88 0056 9A68     		ldr	r2, [r3, #8]
  89 0058 7B68     		ldr	r3, [r7, #4]
  90 005a 1B68     		ldr	r3, [r3]
  91 005c 22F40042 		bic	r2, r2, #32768
  92 0060 9A60     		str	r2, [r3, #8]
 449:Drivers/STM32F7xx_HAL_Driver/Src/stm32f7xx_hal_i2c.c **** 
 450:Drivers/STM32F7xx_HAL_Driver/Src/stm32f7xx_hal_i2c.c ****   /* Configure I2Cx: Own Address1 and ack own address1 mode */
 451:Drivers/STM32F7xx_HAL_Driver/Src/stm32f7xx_hal_i2c.c ****   if (hi2c->Init.AddressingMode == I2C_ADDRESSINGMODE_7BIT)
  93              		.loc 1 451 0
  94 0062 7B68     		ldr	r3, [r7, #4]
  95 0064 DB68     		ldr	r3, [r3, #12]
  96 0066 012B     		cmp	r3, #1
  97 0068 07D1     		bne	.L5
 452:Drivers/STM32F7xx_HAL_Driver/Src/stm32f7xx_hal_i2c.c ****   {
 453:Drivers/STM32F7xx_HAL_Driver/Src/stm32f7xx_hal_i2c.c ****     hi2c->Instance->OAR1 = (I2C_OAR1_OA1EN | hi2c->Init.OwnAddress1);
  98              		.loc 1 453 0
  99 006a 7B68     		ldr	r3, [r7, #4]
 100 006c 9A68     		ldr	r2, [r3, #8]
 101 006e 7B68     		ldr	r3, [r7, #4]
 102 0070 1B68     		ldr	r3, [r3]
 103 0072 42F40042 		orr	r2, r2, #32768
 104 0076 9A60     		str	r2, [r3, #8]
 105 0078 06E0     		b	.L6
 106              	.L5:
 454:Drivers/STM32F7xx_HAL_Driver/Src/stm32f7xx_hal_i2c.c ****   }
 455:Drivers/STM32F7xx_HAL_Driver/Src/stm32f7xx_hal_i2c.c ****   else /* I2C_ADDRESSINGMODE_10BIT */
 456:Drivers/STM32F7xx_HAL_Driver/Src/stm32f7xx_hal_i2c.c ****   {
 457:Drivers/STM32F7xx_HAL_Driver/Src/stm32f7xx_hal_i2c.c ****     hi2c->Instance->OAR1 = (I2C_OAR1_OA1EN | I2C_OAR1_OA1MODE | hi2c->Init.OwnAddress1);
 107              		.loc 1 457 0
 108 007a 7B68     		ldr	r3, [r7, #4]
 109 007c 9A68     		ldr	r2, [r3, #8]
 110 007e 7B68     		ldr	r3, [r7, #4]
 111 0080 1B68     		ldr	r3, [r3]
 112 0082 42F40442 		orr	r2, r2, #33792
 113 0086 9A60     		str	r2, [r3, #8]
 114              	.L6:
ARM GAS  /var/folders/n8/cvzdcwlj0vl4g_wtyz1ffy300000gn/T//ccBPNZvy.s 			page 11


 458:Drivers/STM32F7xx_HAL_Driver/Src/stm32f7xx_hal_i2c.c ****   }
 459:Drivers/STM32F7xx_HAL_Driver/Src/stm32f7xx_hal_i2c.c **** 
 460:Drivers/STM32F7xx_HAL_Driver/Src/stm32f7xx_hal_i2c.c ****   /*---------------------------- I2Cx CR2 Configuration ----------------------*/
 461:Drivers/STM32F7xx_HAL_Driver/Src/stm32f7xx_hal_i2c.c ****   /* Configure I2Cx: Addressing Master mode */
 462:Drivers/STM32F7xx_HAL_Driver/Src/stm32f7xx_hal_i2c.c ****   if (hi2c->Init.AddressingMode == I2C_ADDRESSINGMODE_10BIT)
 115              		.loc 1 462 0
 116 0088 7B68     		ldr	r3, [r7, #4]
 117 008a DB68     		ldr	r3, [r3, #12]
 118 008c 022B     		cmp	r3, #2
 119 008e 04D1     		bne	.L7
 463:Drivers/STM32F7xx_HAL_Driver/Src/stm32f7xx_hal_i2c.c ****   {
 464:Drivers/STM32F7xx_HAL_Driver/Src/stm32f7xx_hal_i2c.c ****     hi2c->Instance->CR2 = (I2C_CR2_ADD10);
 120              		.loc 1 464 0
 121 0090 7B68     		ldr	r3, [r7, #4]
 122 0092 1B68     		ldr	r3, [r3]
 123 0094 4FF40062 		mov	r2, #2048
 124 0098 5A60     		str	r2, [r3, #4]
 125              	.L7:
 465:Drivers/STM32F7xx_HAL_Driver/Src/stm32f7xx_hal_i2c.c ****   }
 466:Drivers/STM32F7xx_HAL_Driver/Src/stm32f7xx_hal_i2c.c ****   /* Enable the AUTOEND by default, and enable NACK (should be disable only during Slave process */
 467:Drivers/STM32F7xx_HAL_Driver/Src/stm32f7xx_hal_i2c.c ****   hi2c->Instance->CR2 |= (I2C_CR2_AUTOEND | I2C_CR2_NACK);
 126              		.loc 1 467 0
 127 009a 7B68     		ldr	r3, [r7, #4]
 128 009c 1B68     		ldr	r3, [r3]
 129 009e 5968     		ldr	r1, [r3, #4]
 130 00a0 7B68     		ldr	r3, [r7, #4]
 131 00a2 1A68     		ldr	r2, [r3]
 132 00a4 1D4B     		ldr	r3, .L8
 133 00a6 0B43     		orrs	r3, r3, r1
 134 00a8 5360     		str	r3, [r2, #4]
 468:Drivers/STM32F7xx_HAL_Driver/Src/stm32f7xx_hal_i2c.c **** 
 469:Drivers/STM32F7xx_HAL_Driver/Src/stm32f7xx_hal_i2c.c ****   /*---------------------------- I2Cx OAR2 Configuration ---------------------*/
 470:Drivers/STM32F7xx_HAL_Driver/Src/stm32f7xx_hal_i2c.c ****   /* Disable Own Address2 before set the Own Address2 configuration */
 471:Drivers/STM32F7xx_HAL_Driver/Src/stm32f7xx_hal_i2c.c ****   hi2c->Instance->OAR2 &= ~I2C_DUALADDRESS_ENABLE;
 135              		.loc 1 471 0
 136 00aa 7B68     		ldr	r3, [r7, #4]
 137 00ac 1B68     		ldr	r3, [r3]
 138 00ae DA68     		ldr	r2, [r3, #12]
 139 00b0 7B68     		ldr	r3, [r7, #4]
 140 00b2 1B68     		ldr	r3, [r3]
 141 00b4 22F40042 		bic	r2, r2, #32768
 142 00b8 DA60     		str	r2, [r3, #12]
 472:Drivers/STM32F7xx_HAL_Driver/Src/stm32f7xx_hal_i2c.c **** 
 473:Drivers/STM32F7xx_HAL_Driver/Src/stm32f7xx_hal_i2c.c ****   /* Configure I2Cx: Dual mode and Own Address2 */
 474:Drivers/STM32F7xx_HAL_Driver/Src/stm32f7xx_hal_i2c.c ****   hi2c->Instance->OAR2 = (hi2c->Init.DualAddressMode | hi2c->Init.OwnAddress2 | (hi2c->Init.OwnAddr
 143              		.loc 1 474 0
 144 00ba 7B68     		ldr	r3, [r7, #4]
 145 00bc 1A69     		ldr	r2, [r3, #16]
 146 00be 7B68     		ldr	r3, [r7, #4]
 147 00c0 5B69     		ldr	r3, [r3, #20]
 148 00c2 42EA0301 		orr	r1, r2, r3
 149 00c6 7B68     		ldr	r3, [r7, #4]
 150 00c8 9B69     		ldr	r3, [r3, #24]
 151 00ca 1A02     		lsls	r2, r3, #8
 152 00cc 7B68     		ldr	r3, [r7, #4]
 153 00ce 1B68     		ldr	r3, [r3]
 154 00d0 0A43     		orrs	r2, r2, r1
ARM GAS  /var/folders/n8/cvzdcwlj0vl4g_wtyz1ffy300000gn/T//ccBPNZvy.s 			page 12


 155 00d2 DA60     		str	r2, [r3, #12]
 475:Drivers/STM32F7xx_HAL_Driver/Src/stm32f7xx_hal_i2c.c **** 
 476:Drivers/STM32F7xx_HAL_Driver/Src/stm32f7xx_hal_i2c.c ****   /*---------------------------- I2Cx CR1 Configuration ----------------------*/
 477:Drivers/STM32F7xx_HAL_Driver/Src/stm32f7xx_hal_i2c.c ****   /* Configure I2Cx: Generalcall and NoStretch mode */
 478:Drivers/STM32F7xx_HAL_Driver/Src/stm32f7xx_hal_i2c.c ****   hi2c->Instance->CR1 = (hi2c->Init.GeneralCallMode | hi2c->Init.NoStretchMode);
 156              		.loc 1 478 0
 157 00d4 7B68     		ldr	r3, [r7, #4]
 158 00d6 D969     		ldr	r1, [r3, #28]
 159 00d8 7B68     		ldr	r3, [r7, #4]
 160 00da 1A6A     		ldr	r2, [r3, #32]
 161 00dc 7B68     		ldr	r3, [r7, #4]
 162 00de 1B68     		ldr	r3, [r3]
 163 00e0 0A43     		orrs	r2, r2, r1
 164 00e2 1A60     		str	r2, [r3]
 479:Drivers/STM32F7xx_HAL_Driver/Src/stm32f7xx_hal_i2c.c **** 
 480:Drivers/STM32F7xx_HAL_Driver/Src/stm32f7xx_hal_i2c.c ****   /* Enable the selected I2C peripheral */
 481:Drivers/STM32F7xx_HAL_Driver/Src/stm32f7xx_hal_i2c.c ****   __HAL_I2C_ENABLE(hi2c);
 165              		.loc 1 481 0
 166 00e4 7B68     		ldr	r3, [r7, #4]
 167 00e6 1B68     		ldr	r3, [r3]
 168 00e8 1A68     		ldr	r2, [r3]
 169 00ea 7B68     		ldr	r3, [r7, #4]
 170 00ec 1B68     		ldr	r3, [r3]
 171 00ee 42F00102 		orr	r2, r2, #1
 172 00f2 1A60     		str	r2, [r3]
 482:Drivers/STM32F7xx_HAL_Driver/Src/stm32f7xx_hal_i2c.c **** 
 483:Drivers/STM32F7xx_HAL_Driver/Src/stm32f7xx_hal_i2c.c ****   hi2c->ErrorCode = HAL_I2C_ERROR_NONE;
 173              		.loc 1 483 0
 174 00f4 7B68     		ldr	r3, [r7, #4]
 175 00f6 0022     		movs	r2, #0
 176 00f8 5A64     		str	r2, [r3, #68]
 484:Drivers/STM32F7xx_HAL_Driver/Src/stm32f7xx_hal_i2c.c ****   hi2c->State = HAL_I2C_STATE_READY;
 177              		.loc 1 484 0
 178 00fa 7B68     		ldr	r3, [r7, #4]
 179 00fc 2022     		movs	r2, #32
 180 00fe 83F84120 		strb	r2, [r3, #65]
 485:Drivers/STM32F7xx_HAL_Driver/Src/stm32f7xx_hal_i2c.c ****   hi2c->PreviousState = I2C_STATE_NONE;
 181              		.loc 1 485 0
 182 0102 7B68     		ldr	r3, [r7, #4]
 183 0104 0022     		movs	r2, #0
 184 0106 1A63     		str	r2, [r3, #48]
 486:Drivers/STM32F7xx_HAL_Driver/Src/stm32f7xx_hal_i2c.c ****   hi2c->Mode = HAL_I2C_MODE_NONE;
 185              		.loc 1 486 0
 186 0108 7B68     		ldr	r3, [r7, #4]
 187 010a 0022     		movs	r2, #0
 188 010c 83F84220 		strb	r2, [r3, #66]
 487:Drivers/STM32F7xx_HAL_Driver/Src/stm32f7xx_hal_i2c.c **** 
 488:Drivers/STM32F7xx_HAL_Driver/Src/stm32f7xx_hal_i2c.c ****   return HAL_OK;
 189              		.loc 1 488 0
 190 0110 0023     		movs	r3, #0
 191              	.L3:
 489:Drivers/STM32F7xx_HAL_Driver/Src/stm32f7xx_hal_i2c.c **** }
 192              		.loc 1 489 0
 193 0112 1846     		mov	r0, r3
 194 0114 0837     		adds	r7, r7, #8
 195              	.LCFI3:
 196              		.cfi_def_cfa_offset 8
ARM GAS  /var/folders/n8/cvzdcwlj0vl4g_wtyz1ffy300000gn/T//ccBPNZvy.s 			page 13


 197 0116 BD46     		mov	sp, r7
 198              	.LCFI4:
 199              		.cfi_def_cfa_register 13
 200              		@ sp needed
 201 0118 80BD     		pop	{r7, pc}
 202              	.L9:
 203 011a 00BF     		.align	2
 204              	.L8:
 205 011c 00800002 		.word	33587200
 206              		.cfi_endproc
 207              	.LFE138:
 209              		.section	.text.HAL_I2C_DeInit,"ax",%progbits
 210              		.align	1
 211              		.global	HAL_I2C_DeInit
 212              		.syntax unified
 213              		.thumb
 214              		.thumb_func
 215              		.fpu fpv5-sp-d16
 217              	HAL_I2C_DeInit:
 218              	.LFB139:
 490:Drivers/STM32F7xx_HAL_Driver/Src/stm32f7xx_hal_i2c.c **** 
 491:Drivers/STM32F7xx_HAL_Driver/Src/stm32f7xx_hal_i2c.c **** /**
 492:Drivers/STM32F7xx_HAL_Driver/Src/stm32f7xx_hal_i2c.c ****   * @brief  DeInitialize the I2C peripheral.
 493:Drivers/STM32F7xx_HAL_Driver/Src/stm32f7xx_hal_i2c.c ****   * @param  hi2c Pointer to a I2C_HandleTypeDef structure that contains
 494:Drivers/STM32F7xx_HAL_Driver/Src/stm32f7xx_hal_i2c.c ****   *                the configuration information for the specified I2C.
 495:Drivers/STM32F7xx_HAL_Driver/Src/stm32f7xx_hal_i2c.c ****   * @retval HAL status
 496:Drivers/STM32F7xx_HAL_Driver/Src/stm32f7xx_hal_i2c.c ****   */
 497:Drivers/STM32F7xx_HAL_Driver/Src/stm32f7xx_hal_i2c.c **** HAL_StatusTypeDef HAL_I2C_DeInit(I2C_HandleTypeDef *hi2c)
 498:Drivers/STM32F7xx_HAL_Driver/Src/stm32f7xx_hal_i2c.c **** {
 219              		.loc 1 498 0
 220              		.cfi_startproc
 221              		@ args = 0, pretend = 0, frame = 8
 222              		@ frame_needed = 1, uses_anonymous_args = 0
 223 0000 80B5     		push	{r7, lr}
 224              	.LCFI5:
 225              		.cfi_def_cfa_offset 8
 226              		.cfi_offset 7, -8
 227              		.cfi_offset 14, -4
 228 0002 82B0     		sub	sp, sp, #8
 229              	.LCFI6:
 230              		.cfi_def_cfa_offset 16
 231 0004 00AF     		add	r7, sp, #0
 232              	.LCFI7:
 233              		.cfi_def_cfa_register 7
 234 0006 7860     		str	r0, [r7, #4]
 499:Drivers/STM32F7xx_HAL_Driver/Src/stm32f7xx_hal_i2c.c ****   /* Check the I2C handle allocation */
 500:Drivers/STM32F7xx_HAL_Driver/Src/stm32f7xx_hal_i2c.c ****   if (hi2c == NULL)
 235              		.loc 1 500 0
 236 0008 7B68     		ldr	r3, [r7, #4]
 237 000a 002B     		cmp	r3, #0
 238 000c 01D1     		bne	.L11
 501:Drivers/STM32F7xx_HAL_Driver/Src/stm32f7xx_hal_i2c.c ****   {
 502:Drivers/STM32F7xx_HAL_Driver/Src/stm32f7xx_hal_i2c.c ****     return HAL_ERROR;
 239              		.loc 1 502 0
 240 000e 0123     		movs	r3, #1
 241 0010 21E0     		b	.L12
 242              	.L11:
ARM GAS  /var/folders/n8/cvzdcwlj0vl4g_wtyz1ffy300000gn/T//ccBPNZvy.s 			page 14


 503:Drivers/STM32F7xx_HAL_Driver/Src/stm32f7xx_hal_i2c.c ****   }
 504:Drivers/STM32F7xx_HAL_Driver/Src/stm32f7xx_hal_i2c.c **** 
 505:Drivers/STM32F7xx_HAL_Driver/Src/stm32f7xx_hal_i2c.c ****   /* Check the parameters */
 506:Drivers/STM32F7xx_HAL_Driver/Src/stm32f7xx_hal_i2c.c ****   assert_param(IS_I2C_ALL_INSTANCE(hi2c->Instance));
 507:Drivers/STM32F7xx_HAL_Driver/Src/stm32f7xx_hal_i2c.c **** 
 508:Drivers/STM32F7xx_HAL_Driver/Src/stm32f7xx_hal_i2c.c ****   hi2c->State = HAL_I2C_STATE_BUSY;
 243              		.loc 1 508 0
 244 0012 7B68     		ldr	r3, [r7, #4]
 245 0014 2422     		movs	r2, #36
 246 0016 83F84120 		strb	r2, [r3, #65]
 509:Drivers/STM32F7xx_HAL_Driver/Src/stm32f7xx_hal_i2c.c **** 
 510:Drivers/STM32F7xx_HAL_Driver/Src/stm32f7xx_hal_i2c.c ****   /* Disable the I2C Peripheral Clock */
 511:Drivers/STM32F7xx_HAL_Driver/Src/stm32f7xx_hal_i2c.c ****   __HAL_I2C_DISABLE(hi2c);
 247              		.loc 1 511 0
 248 001a 7B68     		ldr	r3, [r7, #4]
 249 001c 1B68     		ldr	r3, [r3]
 250 001e 1A68     		ldr	r2, [r3]
 251 0020 7B68     		ldr	r3, [r7, #4]
 252 0022 1B68     		ldr	r3, [r3]
 253 0024 22F00102 		bic	r2, r2, #1
 254 0028 1A60     		str	r2, [r3]
 512:Drivers/STM32F7xx_HAL_Driver/Src/stm32f7xx_hal_i2c.c **** 
 513:Drivers/STM32F7xx_HAL_Driver/Src/stm32f7xx_hal_i2c.c ****   /* DeInit the low level hardware: GPIO, CLOCK, NVIC */
 514:Drivers/STM32F7xx_HAL_Driver/Src/stm32f7xx_hal_i2c.c ****   HAL_I2C_MspDeInit(hi2c);
 255              		.loc 1 514 0
 256 002a 7868     		ldr	r0, [r7, #4]
 257 002c FFF7FEFF 		bl	HAL_I2C_MspDeInit
 515:Drivers/STM32F7xx_HAL_Driver/Src/stm32f7xx_hal_i2c.c **** 
 516:Drivers/STM32F7xx_HAL_Driver/Src/stm32f7xx_hal_i2c.c ****   hi2c->ErrorCode = HAL_I2C_ERROR_NONE;
 258              		.loc 1 516 0
 259 0030 7B68     		ldr	r3, [r7, #4]
 260 0032 0022     		movs	r2, #0
 261 0034 5A64     		str	r2, [r3, #68]
 517:Drivers/STM32F7xx_HAL_Driver/Src/stm32f7xx_hal_i2c.c ****   hi2c->State = HAL_I2C_STATE_RESET;
 262              		.loc 1 517 0
 263 0036 7B68     		ldr	r3, [r7, #4]
 264 0038 0022     		movs	r2, #0
 265 003a 83F84120 		strb	r2, [r3, #65]
 518:Drivers/STM32F7xx_HAL_Driver/Src/stm32f7xx_hal_i2c.c ****   hi2c->PreviousState = I2C_STATE_NONE;
 266              		.loc 1 518 0
 267 003e 7B68     		ldr	r3, [r7, #4]
 268 0040 0022     		movs	r2, #0
 269 0042 1A63     		str	r2, [r3, #48]
 519:Drivers/STM32F7xx_HAL_Driver/Src/stm32f7xx_hal_i2c.c ****   hi2c->Mode = HAL_I2C_MODE_NONE;
 270              		.loc 1 519 0
 271 0044 7B68     		ldr	r3, [r7, #4]
 272 0046 0022     		movs	r2, #0
 273 0048 83F84220 		strb	r2, [r3, #66]
 520:Drivers/STM32F7xx_HAL_Driver/Src/stm32f7xx_hal_i2c.c **** 
 521:Drivers/STM32F7xx_HAL_Driver/Src/stm32f7xx_hal_i2c.c ****   /* Release Lock */
 522:Drivers/STM32F7xx_HAL_Driver/Src/stm32f7xx_hal_i2c.c ****   __HAL_UNLOCK(hi2c);
 274              		.loc 1 522 0
 275 004c 7B68     		ldr	r3, [r7, #4]
 276 004e 0022     		movs	r2, #0
 277 0050 83F84020 		strb	r2, [r3, #64]
 523:Drivers/STM32F7xx_HAL_Driver/Src/stm32f7xx_hal_i2c.c **** 
 524:Drivers/STM32F7xx_HAL_Driver/Src/stm32f7xx_hal_i2c.c ****   return HAL_OK;
ARM GAS  /var/folders/n8/cvzdcwlj0vl4g_wtyz1ffy300000gn/T//ccBPNZvy.s 			page 15


 278              		.loc 1 524 0
 279 0054 0023     		movs	r3, #0
 280              	.L12:
 525:Drivers/STM32F7xx_HAL_Driver/Src/stm32f7xx_hal_i2c.c **** }
 281              		.loc 1 525 0
 282 0056 1846     		mov	r0, r3
 283 0058 0837     		adds	r7, r7, #8
 284              	.LCFI8:
 285              		.cfi_def_cfa_offset 8
 286 005a BD46     		mov	sp, r7
 287              	.LCFI9:
 288              		.cfi_def_cfa_register 13
 289              		@ sp needed
 290 005c 80BD     		pop	{r7, pc}
 291              		.cfi_endproc
 292              	.LFE139:
 294              		.section	.text.HAL_I2C_MspInit,"ax",%progbits
 295              		.align	1
 296              		.weak	HAL_I2C_MspInit
 297              		.syntax unified
 298              		.thumb
 299              		.thumb_func
 300              		.fpu fpv5-sp-d16
 302              	HAL_I2C_MspInit:
 303              	.LFB140:
 526:Drivers/STM32F7xx_HAL_Driver/Src/stm32f7xx_hal_i2c.c **** 
 527:Drivers/STM32F7xx_HAL_Driver/Src/stm32f7xx_hal_i2c.c **** /**
 528:Drivers/STM32F7xx_HAL_Driver/Src/stm32f7xx_hal_i2c.c ****   * @brief Initialize the I2C MSP.
 529:Drivers/STM32F7xx_HAL_Driver/Src/stm32f7xx_hal_i2c.c ****   * @param  hi2c Pointer to a I2C_HandleTypeDef structure that contains
 530:Drivers/STM32F7xx_HAL_Driver/Src/stm32f7xx_hal_i2c.c ****   *                the configuration information for the specified I2C.
 531:Drivers/STM32F7xx_HAL_Driver/Src/stm32f7xx_hal_i2c.c ****   * @retval None
 532:Drivers/STM32F7xx_HAL_Driver/Src/stm32f7xx_hal_i2c.c ****   */
 533:Drivers/STM32F7xx_HAL_Driver/Src/stm32f7xx_hal_i2c.c **** __weak void HAL_I2C_MspInit(I2C_HandleTypeDef *hi2c)
 534:Drivers/STM32F7xx_HAL_Driver/Src/stm32f7xx_hal_i2c.c **** {
 304              		.loc 1 534 0
 305              		.cfi_startproc
 306              		@ args = 0, pretend = 0, frame = 8
 307              		@ frame_needed = 1, uses_anonymous_args = 0
 308              		@ link register save eliminated.
 309 0000 80B4     		push	{r7}
 310              	.LCFI10:
 311              		.cfi_def_cfa_offset 4
 312              		.cfi_offset 7, -4
 313 0002 83B0     		sub	sp, sp, #12
 314              	.LCFI11:
 315              		.cfi_def_cfa_offset 16
 316 0004 00AF     		add	r7, sp, #0
 317              	.LCFI12:
 318              		.cfi_def_cfa_register 7
 319 0006 7860     		str	r0, [r7, #4]
 535:Drivers/STM32F7xx_HAL_Driver/Src/stm32f7xx_hal_i2c.c ****   /* Prevent unused argument(s) compilation warning */
 536:Drivers/STM32F7xx_HAL_Driver/Src/stm32f7xx_hal_i2c.c ****   UNUSED(hi2c);
 537:Drivers/STM32F7xx_HAL_Driver/Src/stm32f7xx_hal_i2c.c **** 
 538:Drivers/STM32F7xx_HAL_Driver/Src/stm32f7xx_hal_i2c.c ****   /* NOTE : This function should not be modified, when the callback is needed,
 539:Drivers/STM32F7xx_HAL_Driver/Src/stm32f7xx_hal_i2c.c ****             the HAL_I2C_MspInit could be implemented in the user file
 540:Drivers/STM32F7xx_HAL_Driver/Src/stm32f7xx_hal_i2c.c ****    */
 541:Drivers/STM32F7xx_HAL_Driver/Src/stm32f7xx_hal_i2c.c **** }
ARM GAS  /var/folders/n8/cvzdcwlj0vl4g_wtyz1ffy300000gn/T//ccBPNZvy.s 			page 16


 320              		.loc 1 541 0
 321 0008 00BF     		nop
 322 000a 0C37     		adds	r7, r7, #12
 323              	.LCFI13:
 324              		.cfi_def_cfa_offset 4
 325 000c BD46     		mov	sp, r7
 326              	.LCFI14:
 327              		.cfi_def_cfa_register 13
 328              		@ sp needed
 329 000e 5DF8047B 		ldr	r7, [sp], #4
 330              	.LCFI15:
 331              		.cfi_restore 7
 332              		.cfi_def_cfa_offset 0
 333 0012 7047     		bx	lr
 334              		.cfi_endproc
 335              	.LFE140:
 337              		.section	.text.HAL_I2C_MspDeInit,"ax",%progbits
 338              		.align	1
 339              		.weak	HAL_I2C_MspDeInit
 340              		.syntax unified
 341              		.thumb
 342              		.thumb_func
 343              		.fpu fpv5-sp-d16
 345              	HAL_I2C_MspDeInit:
 346              	.LFB141:
 542:Drivers/STM32F7xx_HAL_Driver/Src/stm32f7xx_hal_i2c.c **** 
 543:Drivers/STM32F7xx_HAL_Driver/Src/stm32f7xx_hal_i2c.c **** /**
 544:Drivers/STM32F7xx_HAL_Driver/Src/stm32f7xx_hal_i2c.c ****   * @brief DeInitialize the I2C MSP.
 545:Drivers/STM32F7xx_HAL_Driver/Src/stm32f7xx_hal_i2c.c ****   * @param  hi2c Pointer to a I2C_HandleTypeDef structure that contains
 546:Drivers/STM32F7xx_HAL_Driver/Src/stm32f7xx_hal_i2c.c ****   *                the configuration information for the specified I2C.
 547:Drivers/STM32F7xx_HAL_Driver/Src/stm32f7xx_hal_i2c.c ****   * @retval None
 548:Drivers/STM32F7xx_HAL_Driver/Src/stm32f7xx_hal_i2c.c ****   */
 549:Drivers/STM32F7xx_HAL_Driver/Src/stm32f7xx_hal_i2c.c **** __weak void HAL_I2C_MspDeInit(I2C_HandleTypeDef *hi2c)
 550:Drivers/STM32F7xx_HAL_Driver/Src/stm32f7xx_hal_i2c.c **** {
 347              		.loc 1 550 0
 348              		.cfi_startproc
 349              		@ args = 0, pretend = 0, frame = 8
 350              		@ frame_needed = 1, uses_anonymous_args = 0
 351              		@ link register save eliminated.
 352 0000 80B4     		push	{r7}
 353              	.LCFI16:
 354              		.cfi_def_cfa_offset 4
 355              		.cfi_offset 7, -4
 356 0002 83B0     		sub	sp, sp, #12
 357              	.LCFI17:
 358              		.cfi_def_cfa_offset 16
 359 0004 00AF     		add	r7, sp, #0
 360              	.LCFI18:
 361              		.cfi_def_cfa_register 7
 362 0006 7860     		str	r0, [r7, #4]
 551:Drivers/STM32F7xx_HAL_Driver/Src/stm32f7xx_hal_i2c.c ****   /* Prevent unused argument(s) compilation warning */
 552:Drivers/STM32F7xx_HAL_Driver/Src/stm32f7xx_hal_i2c.c ****   UNUSED(hi2c);
 553:Drivers/STM32F7xx_HAL_Driver/Src/stm32f7xx_hal_i2c.c **** 
 554:Drivers/STM32F7xx_HAL_Driver/Src/stm32f7xx_hal_i2c.c ****   /* NOTE : This function should not be modified, when the callback is needed,
 555:Drivers/STM32F7xx_HAL_Driver/Src/stm32f7xx_hal_i2c.c ****             the HAL_I2C_MspDeInit could be implemented in the user file
 556:Drivers/STM32F7xx_HAL_Driver/Src/stm32f7xx_hal_i2c.c ****    */
 557:Drivers/STM32F7xx_HAL_Driver/Src/stm32f7xx_hal_i2c.c **** }
ARM GAS  /var/folders/n8/cvzdcwlj0vl4g_wtyz1ffy300000gn/T//ccBPNZvy.s 			page 17


 363              		.loc 1 557 0
 364 0008 00BF     		nop
 365 000a 0C37     		adds	r7, r7, #12
 366              	.LCFI19:
 367              		.cfi_def_cfa_offset 4
 368 000c BD46     		mov	sp, r7
 369              	.LCFI20:
 370              		.cfi_def_cfa_register 13
 371              		@ sp needed
 372 000e 5DF8047B 		ldr	r7, [sp], #4
 373              	.LCFI21:
 374              		.cfi_restore 7
 375              		.cfi_def_cfa_offset 0
 376 0012 7047     		bx	lr
 377              		.cfi_endproc
 378              	.LFE141:
 380              		.section	.text.HAL_I2C_Master_Transmit,"ax",%progbits
 381              		.align	1
 382              		.global	HAL_I2C_Master_Transmit
 383              		.syntax unified
 384              		.thumb
 385              		.thumb_func
 386              		.fpu fpv5-sp-d16
 388              	HAL_I2C_Master_Transmit:
 389              	.LFB142:
 558:Drivers/STM32F7xx_HAL_Driver/Src/stm32f7xx_hal_i2c.c **** 
 559:Drivers/STM32F7xx_HAL_Driver/Src/stm32f7xx_hal_i2c.c **** /**
 560:Drivers/STM32F7xx_HAL_Driver/Src/stm32f7xx_hal_i2c.c ****   * @}
 561:Drivers/STM32F7xx_HAL_Driver/Src/stm32f7xx_hal_i2c.c ****   */
 562:Drivers/STM32F7xx_HAL_Driver/Src/stm32f7xx_hal_i2c.c **** 
 563:Drivers/STM32F7xx_HAL_Driver/Src/stm32f7xx_hal_i2c.c **** /** @defgroup I2C_Exported_Functions_Group2 Input and Output operation functions
 564:Drivers/STM32F7xx_HAL_Driver/Src/stm32f7xx_hal_i2c.c ****  *  @brief   Data transfers functions
 565:Drivers/STM32F7xx_HAL_Driver/Src/stm32f7xx_hal_i2c.c ****  *
 566:Drivers/STM32F7xx_HAL_Driver/Src/stm32f7xx_hal_i2c.c **** @verbatim
 567:Drivers/STM32F7xx_HAL_Driver/Src/stm32f7xx_hal_i2c.c ****  ===============================================================================
 568:Drivers/STM32F7xx_HAL_Driver/Src/stm32f7xx_hal_i2c.c ****                       ##### IO operation functions #####
 569:Drivers/STM32F7xx_HAL_Driver/Src/stm32f7xx_hal_i2c.c ****  ===============================================================================
 570:Drivers/STM32F7xx_HAL_Driver/Src/stm32f7xx_hal_i2c.c ****     [..]
 571:Drivers/STM32F7xx_HAL_Driver/Src/stm32f7xx_hal_i2c.c ****     This subsection provides a set of functions allowing to manage the I2C data
 572:Drivers/STM32F7xx_HAL_Driver/Src/stm32f7xx_hal_i2c.c ****     transfers.
 573:Drivers/STM32F7xx_HAL_Driver/Src/stm32f7xx_hal_i2c.c **** 
 574:Drivers/STM32F7xx_HAL_Driver/Src/stm32f7xx_hal_i2c.c ****     (#) There are two modes of transfer:
 575:Drivers/STM32F7xx_HAL_Driver/Src/stm32f7xx_hal_i2c.c ****        (++) Blocking mode : The communication is performed in the polling mode.
 576:Drivers/STM32F7xx_HAL_Driver/Src/stm32f7xx_hal_i2c.c ****             The status of all data processing is returned by the same function
 577:Drivers/STM32F7xx_HAL_Driver/Src/stm32f7xx_hal_i2c.c ****             after finishing transfer.
 578:Drivers/STM32F7xx_HAL_Driver/Src/stm32f7xx_hal_i2c.c ****        (++) No-Blocking mode : The communication is performed using Interrupts
 579:Drivers/STM32F7xx_HAL_Driver/Src/stm32f7xx_hal_i2c.c ****             or DMA. These functions return the status of the transfer startup.
 580:Drivers/STM32F7xx_HAL_Driver/Src/stm32f7xx_hal_i2c.c ****             The end of the data processing will be indicated through the
 581:Drivers/STM32F7xx_HAL_Driver/Src/stm32f7xx_hal_i2c.c ****             dedicated I2C IRQ when using Interrupt mode or the DMA IRQ when
 582:Drivers/STM32F7xx_HAL_Driver/Src/stm32f7xx_hal_i2c.c ****             using DMA mode.
 583:Drivers/STM32F7xx_HAL_Driver/Src/stm32f7xx_hal_i2c.c **** 
 584:Drivers/STM32F7xx_HAL_Driver/Src/stm32f7xx_hal_i2c.c ****     (#) Blocking mode functions are :
 585:Drivers/STM32F7xx_HAL_Driver/Src/stm32f7xx_hal_i2c.c ****         (++) HAL_I2C_Master_Transmit()
 586:Drivers/STM32F7xx_HAL_Driver/Src/stm32f7xx_hal_i2c.c ****         (++) HAL_I2C_Master_Receive()
 587:Drivers/STM32F7xx_HAL_Driver/Src/stm32f7xx_hal_i2c.c ****         (++) HAL_I2C_Slave_Transmit()
 588:Drivers/STM32F7xx_HAL_Driver/Src/stm32f7xx_hal_i2c.c ****         (++) HAL_I2C_Slave_Receive()
 589:Drivers/STM32F7xx_HAL_Driver/Src/stm32f7xx_hal_i2c.c ****         (++) HAL_I2C_Mem_Write()
ARM GAS  /var/folders/n8/cvzdcwlj0vl4g_wtyz1ffy300000gn/T//ccBPNZvy.s 			page 18


 590:Drivers/STM32F7xx_HAL_Driver/Src/stm32f7xx_hal_i2c.c ****         (++) HAL_I2C_Mem_Read()
 591:Drivers/STM32F7xx_HAL_Driver/Src/stm32f7xx_hal_i2c.c ****         (++) HAL_I2C_IsDeviceReady()
 592:Drivers/STM32F7xx_HAL_Driver/Src/stm32f7xx_hal_i2c.c **** 
 593:Drivers/STM32F7xx_HAL_Driver/Src/stm32f7xx_hal_i2c.c ****     (#) No-Blocking mode functions with Interrupt are :
 594:Drivers/STM32F7xx_HAL_Driver/Src/stm32f7xx_hal_i2c.c ****         (++) HAL_I2C_Master_Transmit_IT()
 595:Drivers/STM32F7xx_HAL_Driver/Src/stm32f7xx_hal_i2c.c ****         (++) HAL_I2C_Master_Receive_IT()
 596:Drivers/STM32F7xx_HAL_Driver/Src/stm32f7xx_hal_i2c.c ****         (++) HAL_I2C_Slave_Transmit_IT()
 597:Drivers/STM32F7xx_HAL_Driver/Src/stm32f7xx_hal_i2c.c ****         (++) HAL_I2C_Slave_Receive_IT()
 598:Drivers/STM32F7xx_HAL_Driver/Src/stm32f7xx_hal_i2c.c ****         (++) HAL_I2C_Mem_Write_IT()
 599:Drivers/STM32F7xx_HAL_Driver/Src/stm32f7xx_hal_i2c.c ****         (++) HAL_I2C_Mem_Read_IT()
 600:Drivers/STM32F7xx_HAL_Driver/Src/stm32f7xx_hal_i2c.c **** 
 601:Drivers/STM32F7xx_HAL_Driver/Src/stm32f7xx_hal_i2c.c ****     (#) No-Blocking mode functions with DMA are :
 602:Drivers/STM32F7xx_HAL_Driver/Src/stm32f7xx_hal_i2c.c ****         (++) HAL_I2C_Master_Transmit_DMA()
 603:Drivers/STM32F7xx_HAL_Driver/Src/stm32f7xx_hal_i2c.c ****         (++) HAL_I2C_Master_Receive_DMA()
 604:Drivers/STM32F7xx_HAL_Driver/Src/stm32f7xx_hal_i2c.c ****         (++) HAL_I2C_Slave_Transmit_DMA()
 605:Drivers/STM32F7xx_HAL_Driver/Src/stm32f7xx_hal_i2c.c ****         (++) HAL_I2C_Slave_Receive_DMA()
 606:Drivers/STM32F7xx_HAL_Driver/Src/stm32f7xx_hal_i2c.c ****         (++) HAL_I2C_Mem_Write_DMA()
 607:Drivers/STM32F7xx_HAL_Driver/Src/stm32f7xx_hal_i2c.c ****         (++) HAL_I2C_Mem_Read_DMA()
 608:Drivers/STM32F7xx_HAL_Driver/Src/stm32f7xx_hal_i2c.c **** 
 609:Drivers/STM32F7xx_HAL_Driver/Src/stm32f7xx_hal_i2c.c ****     (#) A set of Transfer Complete Callbacks are provided in non Blocking mode:
 610:Drivers/STM32F7xx_HAL_Driver/Src/stm32f7xx_hal_i2c.c ****         (++) HAL_I2C_MemTxCpltCallback()
 611:Drivers/STM32F7xx_HAL_Driver/Src/stm32f7xx_hal_i2c.c ****         (++) HAL_I2C_MemRxCpltCallback()
 612:Drivers/STM32F7xx_HAL_Driver/Src/stm32f7xx_hal_i2c.c ****         (++) HAL_I2C_MasterTxCpltCallback()
 613:Drivers/STM32F7xx_HAL_Driver/Src/stm32f7xx_hal_i2c.c ****         (++) HAL_I2C_MasterRxCpltCallback()
 614:Drivers/STM32F7xx_HAL_Driver/Src/stm32f7xx_hal_i2c.c ****         (++) HAL_I2C_SlaveTxCpltCallback()
 615:Drivers/STM32F7xx_HAL_Driver/Src/stm32f7xx_hal_i2c.c ****         (++) HAL_I2C_SlaveRxCpltCallback()
 616:Drivers/STM32F7xx_HAL_Driver/Src/stm32f7xx_hal_i2c.c ****         (++) HAL_I2C_ErrorCallback()
 617:Drivers/STM32F7xx_HAL_Driver/Src/stm32f7xx_hal_i2c.c **** 
 618:Drivers/STM32F7xx_HAL_Driver/Src/stm32f7xx_hal_i2c.c **** @endverbatim
 619:Drivers/STM32F7xx_HAL_Driver/Src/stm32f7xx_hal_i2c.c ****   * @{
 620:Drivers/STM32F7xx_HAL_Driver/Src/stm32f7xx_hal_i2c.c ****   */
 621:Drivers/STM32F7xx_HAL_Driver/Src/stm32f7xx_hal_i2c.c **** 
 622:Drivers/STM32F7xx_HAL_Driver/Src/stm32f7xx_hal_i2c.c **** /**
 623:Drivers/STM32F7xx_HAL_Driver/Src/stm32f7xx_hal_i2c.c ****   * @brief  Transmits in master mode an amount of data in blocking mode.
 624:Drivers/STM32F7xx_HAL_Driver/Src/stm32f7xx_hal_i2c.c ****   * @param  hi2c Pointer to a I2C_HandleTypeDef structure that contains
 625:Drivers/STM32F7xx_HAL_Driver/Src/stm32f7xx_hal_i2c.c ****   *                the configuration information for the specified I2C.
 626:Drivers/STM32F7xx_HAL_Driver/Src/stm32f7xx_hal_i2c.c ****   * @param  DevAddress Target device address which contain device 7 or 10 bits address value
 627:Drivers/STM32F7xx_HAL_Driver/Src/stm32f7xx_hal_i2c.c ****   *         in datasheet must be shifted to the left before calling the interface
 628:Drivers/STM32F7xx_HAL_Driver/Src/stm32f7xx_hal_i2c.c ****   * @param  pData Pointer to data buffer
 629:Drivers/STM32F7xx_HAL_Driver/Src/stm32f7xx_hal_i2c.c ****   * @param  Size Amount of data to be sent
 630:Drivers/STM32F7xx_HAL_Driver/Src/stm32f7xx_hal_i2c.c ****   * @param  Timeout Timeout duration
 631:Drivers/STM32F7xx_HAL_Driver/Src/stm32f7xx_hal_i2c.c ****   * @retval HAL status
 632:Drivers/STM32F7xx_HAL_Driver/Src/stm32f7xx_hal_i2c.c ****   */
 633:Drivers/STM32F7xx_HAL_Driver/Src/stm32f7xx_hal_i2c.c **** HAL_StatusTypeDef HAL_I2C_Master_Transmit(I2C_HandleTypeDef *hi2c, uint16_t DevAddress, uint8_t *pD
 634:Drivers/STM32F7xx_HAL_Driver/Src/stm32f7xx_hal_i2c.c **** {
 390              		.loc 1 634 0
 391              		.cfi_startproc
 392              		@ args = 4, pretend = 0, frame = 24
 393              		@ frame_needed = 1, uses_anonymous_args = 0
 394 0000 80B5     		push	{r7, lr}
 395              	.LCFI22:
 396              		.cfi_def_cfa_offset 8
 397              		.cfi_offset 7, -8
 398              		.cfi_offset 14, -4
 399 0002 88B0     		sub	sp, sp, #32
 400              	.LCFI23:
 401              		.cfi_def_cfa_offset 40
ARM GAS  /var/folders/n8/cvzdcwlj0vl4g_wtyz1ffy300000gn/T//ccBPNZvy.s 			page 19


 402 0004 02AF     		add	r7, sp, #8
 403              	.LCFI24:
 404              		.cfi_def_cfa 7, 32
 405 0006 F860     		str	r0, [r7, #12]
 406 0008 7A60     		str	r2, [r7, #4]
 407 000a 1A46     		mov	r2, r3
 408 000c 0B46     		mov	r3, r1	@ movhi
 409 000e 7B81     		strh	r3, [r7, #10]	@ movhi
 410 0010 1346     		mov	r3, r2	@ movhi
 411 0012 3B81     		strh	r3, [r7, #8]	@ movhi
 635:Drivers/STM32F7xx_HAL_Driver/Src/stm32f7xx_hal_i2c.c ****   uint32_t tickstart = 0U;
 412              		.loc 1 635 0
 413 0014 0023     		movs	r3, #0
 414 0016 7B61     		str	r3, [r7, #20]
 636:Drivers/STM32F7xx_HAL_Driver/Src/stm32f7xx_hal_i2c.c **** 
 637:Drivers/STM32F7xx_HAL_Driver/Src/stm32f7xx_hal_i2c.c ****   if (hi2c->State == HAL_I2C_STATE_READY)
 415              		.loc 1 637 0
 416 0018 FB68     		ldr	r3, [r7, #12]
 417 001a 93F84130 		ldrb	r3, [r3, #65]
 418 001e DBB2     		uxtb	r3, r3
 419 0020 202B     		cmp	r3, #32
 420 0022 40F0E480 		bne	.L16
 638:Drivers/STM32F7xx_HAL_Driver/Src/stm32f7xx_hal_i2c.c ****   {
 639:Drivers/STM32F7xx_HAL_Driver/Src/stm32f7xx_hal_i2c.c ****     /* Process Locked */
 640:Drivers/STM32F7xx_HAL_Driver/Src/stm32f7xx_hal_i2c.c ****     __HAL_LOCK(hi2c);
 421              		.loc 1 640 0
 422 0026 FB68     		ldr	r3, [r7, #12]
 423 0028 93F84030 		ldrb	r3, [r3, #64]	@ zero_extendqisi2
 424 002c 012B     		cmp	r3, #1
 425 002e 01D1     		bne	.L17
 426              		.loc 1 640 0 is_stmt 0 discriminator 1
 427 0030 0223     		movs	r3, #2
 428 0032 DDE0     		b	.L18
 429              	.L17:
 430              		.loc 1 640 0 discriminator 2
 431 0034 FB68     		ldr	r3, [r7, #12]
 432 0036 0122     		movs	r2, #1
 433 0038 83F84020 		strb	r2, [r3, #64]
 641:Drivers/STM32F7xx_HAL_Driver/Src/stm32f7xx_hal_i2c.c **** 
 642:Drivers/STM32F7xx_HAL_Driver/Src/stm32f7xx_hal_i2c.c ****     /* Init tickstart for timeout management*/
 643:Drivers/STM32F7xx_HAL_Driver/Src/stm32f7xx_hal_i2c.c ****     tickstart = HAL_GetTick();
 434              		.loc 1 643 0 is_stmt 1 discriminator 2
 435 003c FFF7FEFF 		bl	HAL_GetTick
 436 0040 7861     		str	r0, [r7, #20]
 644:Drivers/STM32F7xx_HAL_Driver/Src/stm32f7xx_hal_i2c.c **** 
 645:Drivers/STM32F7xx_HAL_Driver/Src/stm32f7xx_hal_i2c.c ****     if (I2C_WaitOnFlagUntilTimeout(hi2c, I2C_FLAG_BUSY, SET, I2C_TIMEOUT_BUSY, tickstart) != HAL_OK
 437              		.loc 1 645 0 discriminator 2
 438 0042 7B69     		ldr	r3, [r7, #20]
 439 0044 0093     		str	r3, [sp]
 440 0046 1923     		movs	r3, #25
 441 0048 0122     		movs	r2, #1
 442 004a 4FF40041 		mov	r1, #32768
 443 004e F868     		ldr	r0, [r7, #12]
 444 0050 FFF7FEFF 		bl	I2C_WaitOnFlagUntilTimeout
 445 0054 0346     		mov	r3, r0
 446 0056 002B     		cmp	r3, #0
 447 0058 01D0     		beq	.L19
ARM GAS  /var/folders/n8/cvzdcwlj0vl4g_wtyz1ffy300000gn/T//ccBPNZvy.s 			page 20


 646:Drivers/STM32F7xx_HAL_Driver/Src/stm32f7xx_hal_i2c.c ****     {
 647:Drivers/STM32F7xx_HAL_Driver/Src/stm32f7xx_hal_i2c.c ****       return HAL_TIMEOUT;
 448              		.loc 1 647 0
 449 005a 0323     		movs	r3, #3
 450 005c C8E0     		b	.L18
 451              	.L19:
 648:Drivers/STM32F7xx_HAL_Driver/Src/stm32f7xx_hal_i2c.c ****     }
 649:Drivers/STM32F7xx_HAL_Driver/Src/stm32f7xx_hal_i2c.c **** 
 650:Drivers/STM32F7xx_HAL_Driver/Src/stm32f7xx_hal_i2c.c ****     hi2c->State     = HAL_I2C_STATE_BUSY_TX;
 452              		.loc 1 650 0
 453 005e FB68     		ldr	r3, [r7, #12]
 454 0060 2122     		movs	r2, #33
 455 0062 83F84120 		strb	r2, [r3, #65]
 651:Drivers/STM32F7xx_HAL_Driver/Src/stm32f7xx_hal_i2c.c ****     hi2c->Mode      = HAL_I2C_MODE_MASTER;
 456              		.loc 1 651 0
 457 0066 FB68     		ldr	r3, [r7, #12]
 458 0068 1022     		movs	r2, #16
 459 006a 83F84220 		strb	r2, [r3, #66]
 652:Drivers/STM32F7xx_HAL_Driver/Src/stm32f7xx_hal_i2c.c ****     hi2c->ErrorCode = HAL_I2C_ERROR_NONE;
 460              		.loc 1 652 0
 461 006e FB68     		ldr	r3, [r7, #12]
 462 0070 0022     		movs	r2, #0
 463 0072 5A64     		str	r2, [r3, #68]
 653:Drivers/STM32F7xx_HAL_Driver/Src/stm32f7xx_hal_i2c.c **** 
 654:Drivers/STM32F7xx_HAL_Driver/Src/stm32f7xx_hal_i2c.c ****     /* Prepare transfer parameters */
 655:Drivers/STM32F7xx_HAL_Driver/Src/stm32f7xx_hal_i2c.c ****     hi2c->pBuffPtr  = pData;
 464              		.loc 1 655 0
 465 0074 FB68     		ldr	r3, [r7, #12]
 466 0076 7A68     		ldr	r2, [r7, #4]
 467 0078 5A62     		str	r2, [r3, #36]
 656:Drivers/STM32F7xx_HAL_Driver/Src/stm32f7xx_hal_i2c.c ****     hi2c->XferCount = Size;
 468              		.loc 1 656 0
 469 007a FB68     		ldr	r3, [r7, #12]
 470 007c 3A89     		ldrh	r2, [r7, #8]	@ movhi
 471 007e 5A85     		strh	r2, [r3, #42]	@ movhi
 657:Drivers/STM32F7xx_HAL_Driver/Src/stm32f7xx_hal_i2c.c ****     hi2c->XferISR   = NULL;
 472              		.loc 1 657 0
 473 0080 FB68     		ldr	r3, [r7, #12]
 474 0082 0022     		movs	r2, #0
 475 0084 5A63     		str	r2, [r3, #52]
 658:Drivers/STM32F7xx_HAL_Driver/Src/stm32f7xx_hal_i2c.c **** 
 659:Drivers/STM32F7xx_HAL_Driver/Src/stm32f7xx_hal_i2c.c ****     /* Send Slave Address */
 660:Drivers/STM32F7xx_HAL_Driver/Src/stm32f7xx_hal_i2c.c ****     /* Set NBYTES to write and reload if hi2c->XferCount > MAX_NBYTE_SIZE and generate RESTART */
 661:Drivers/STM32F7xx_HAL_Driver/Src/stm32f7xx_hal_i2c.c ****     if (hi2c->XferCount > MAX_NBYTE_SIZE)
 476              		.loc 1 661 0
 477 0086 FB68     		ldr	r3, [r7, #12]
 478 0088 5B8D     		ldrh	r3, [r3, #42]	@ movhi
 479 008a 9BB2     		uxth	r3, r3
 480 008c FF2B     		cmp	r3, #255
 481 008e 0ED9     		bls	.L20
 662:Drivers/STM32F7xx_HAL_Driver/Src/stm32f7xx_hal_i2c.c ****     {
 663:Drivers/STM32F7xx_HAL_Driver/Src/stm32f7xx_hal_i2c.c ****       hi2c->XferSize = MAX_NBYTE_SIZE;
 482              		.loc 1 663 0
 483 0090 FB68     		ldr	r3, [r7, #12]
 484 0092 FF22     		movs	r2, #255
 485 0094 1A85     		strh	r2, [r3, #40]	@ movhi
 664:Drivers/STM32F7xx_HAL_Driver/Src/stm32f7xx_hal_i2c.c ****       I2C_TransferConfig(hi2c, DevAddress, hi2c->XferSize, I2C_RELOAD_MODE, I2C_GENERATE_START_WRIT
ARM GAS  /var/folders/n8/cvzdcwlj0vl4g_wtyz1ffy300000gn/T//ccBPNZvy.s 			page 21


 486              		.loc 1 664 0
 487 0096 FB68     		ldr	r3, [r7, #12]
 488 0098 1B8D     		ldrh	r3, [r3, #40]
 489 009a DAB2     		uxtb	r2, r3
 490 009c 7989     		ldrh	r1, [r7, #10]
 491 009e 564B     		ldr	r3, .L30
 492 00a0 0093     		str	r3, [sp]
 493 00a2 4FF08073 		mov	r3, #16777216
 494 00a6 F868     		ldr	r0, [r7, #12]
 495 00a8 FFF7FEFF 		bl	I2C_TransferConfig
 496 00ac 70E0     		b	.L22
 497              	.L20:
 665:Drivers/STM32F7xx_HAL_Driver/Src/stm32f7xx_hal_i2c.c ****     }
 666:Drivers/STM32F7xx_HAL_Driver/Src/stm32f7xx_hal_i2c.c ****     else
 667:Drivers/STM32F7xx_HAL_Driver/Src/stm32f7xx_hal_i2c.c ****     {
 668:Drivers/STM32F7xx_HAL_Driver/Src/stm32f7xx_hal_i2c.c ****       hi2c->XferSize = hi2c->XferCount;
 498              		.loc 1 668 0
 499 00ae FB68     		ldr	r3, [r7, #12]
 500 00b0 5B8D     		ldrh	r3, [r3, #42]	@ movhi
 501 00b2 9AB2     		uxth	r2, r3
 502 00b4 FB68     		ldr	r3, [r7, #12]
 503 00b6 1A85     		strh	r2, [r3, #40]	@ movhi
 669:Drivers/STM32F7xx_HAL_Driver/Src/stm32f7xx_hal_i2c.c ****       I2C_TransferConfig(hi2c, DevAddress, hi2c->XferSize, I2C_AUTOEND_MODE, I2C_GENERATE_START_WRI
 504              		.loc 1 669 0
 505 00b8 FB68     		ldr	r3, [r7, #12]
 506 00ba 1B8D     		ldrh	r3, [r3, #40]
 507 00bc DAB2     		uxtb	r2, r3
 508 00be 7989     		ldrh	r1, [r7, #10]
 509 00c0 4D4B     		ldr	r3, .L30
 510 00c2 0093     		str	r3, [sp]
 511 00c4 4FF00073 		mov	r3, #33554432
 512 00c8 F868     		ldr	r0, [r7, #12]
 513 00ca FFF7FEFF 		bl	I2C_TransferConfig
 670:Drivers/STM32F7xx_HAL_Driver/Src/stm32f7xx_hal_i2c.c ****     }
 671:Drivers/STM32F7xx_HAL_Driver/Src/stm32f7xx_hal_i2c.c **** 
 672:Drivers/STM32F7xx_HAL_Driver/Src/stm32f7xx_hal_i2c.c ****     while (hi2c->XferCount > 0U)
 514              		.loc 1 672 0
 515 00ce 5FE0     		b	.L22
 516              	.L27:
 673:Drivers/STM32F7xx_HAL_Driver/Src/stm32f7xx_hal_i2c.c ****     {
 674:Drivers/STM32F7xx_HAL_Driver/Src/stm32f7xx_hal_i2c.c ****       /* Wait until TXIS flag is set */
 675:Drivers/STM32F7xx_HAL_Driver/Src/stm32f7xx_hal_i2c.c ****       if (I2C_WaitOnTXISFlagUntilTimeout(hi2c, Timeout, tickstart) != HAL_OK)
 517              		.loc 1 675 0
 518 00d0 7A69     		ldr	r2, [r7, #20]
 519 00d2 396A     		ldr	r1, [r7, #32]
 520 00d4 F868     		ldr	r0, [r7, #12]
 521 00d6 FFF7FEFF 		bl	I2C_WaitOnTXISFlagUntilTimeout
 522 00da 0346     		mov	r3, r0
 523 00dc 002B     		cmp	r3, #0
 524 00de 07D0     		beq	.L23
 676:Drivers/STM32F7xx_HAL_Driver/Src/stm32f7xx_hal_i2c.c ****       {
 677:Drivers/STM32F7xx_HAL_Driver/Src/stm32f7xx_hal_i2c.c ****         if (hi2c->ErrorCode == HAL_I2C_ERROR_AF)
 525              		.loc 1 677 0
 526 00e0 FB68     		ldr	r3, [r7, #12]
 527 00e2 5B6C     		ldr	r3, [r3, #68]
 528 00e4 042B     		cmp	r3, #4
 529 00e6 01D1     		bne	.L24
ARM GAS  /var/folders/n8/cvzdcwlj0vl4g_wtyz1ffy300000gn/T//ccBPNZvy.s 			page 22


 678:Drivers/STM32F7xx_HAL_Driver/Src/stm32f7xx_hal_i2c.c ****         {
 679:Drivers/STM32F7xx_HAL_Driver/Src/stm32f7xx_hal_i2c.c ****           return HAL_ERROR;
 530              		.loc 1 679 0
 531 00e8 0123     		movs	r3, #1
 532 00ea 81E0     		b	.L18
 533              	.L24:
 680:Drivers/STM32F7xx_HAL_Driver/Src/stm32f7xx_hal_i2c.c ****         }
 681:Drivers/STM32F7xx_HAL_Driver/Src/stm32f7xx_hal_i2c.c ****         else
 682:Drivers/STM32F7xx_HAL_Driver/Src/stm32f7xx_hal_i2c.c ****         {
 683:Drivers/STM32F7xx_HAL_Driver/Src/stm32f7xx_hal_i2c.c ****           return HAL_TIMEOUT;
 534              		.loc 1 683 0
 535 00ec 0323     		movs	r3, #3
 536 00ee 7FE0     		b	.L18
 537              	.L23:
 684:Drivers/STM32F7xx_HAL_Driver/Src/stm32f7xx_hal_i2c.c ****         }
 685:Drivers/STM32F7xx_HAL_Driver/Src/stm32f7xx_hal_i2c.c ****       }
 686:Drivers/STM32F7xx_HAL_Driver/Src/stm32f7xx_hal_i2c.c ****       /* Write data to TXDR */
 687:Drivers/STM32F7xx_HAL_Driver/Src/stm32f7xx_hal_i2c.c ****       hi2c->Instance->TXDR = (*hi2c->pBuffPtr++);
 538              		.loc 1 687 0
 539 00f0 FB68     		ldr	r3, [r7, #12]
 540 00f2 5B6A     		ldr	r3, [r3, #36]
 541 00f4 591C     		adds	r1, r3, #1
 542 00f6 FA68     		ldr	r2, [r7, #12]
 543 00f8 5162     		str	r1, [r2, #36]
 544 00fa 1A78     		ldrb	r2, [r3]	@ zero_extendqisi2
 545 00fc FB68     		ldr	r3, [r7, #12]
 546 00fe 1B68     		ldr	r3, [r3]
 547 0100 9A62     		str	r2, [r3, #40]
 688:Drivers/STM32F7xx_HAL_Driver/Src/stm32f7xx_hal_i2c.c ****       hi2c->XferCount--;
 548              		.loc 1 688 0
 549 0102 FB68     		ldr	r3, [r7, #12]
 550 0104 5B8D     		ldrh	r3, [r3, #42]	@ movhi
 551 0106 9BB2     		uxth	r3, r3
 552 0108 013B     		subs	r3, r3, #1
 553 010a 9AB2     		uxth	r2, r3
 554 010c FB68     		ldr	r3, [r7, #12]
 555 010e 5A85     		strh	r2, [r3, #42]	@ movhi
 689:Drivers/STM32F7xx_HAL_Driver/Src/stm32f7xx_hal_i2c.c ****       hi2c->XferSize--;
 556              		.loc 1 689 0
 557 0110 FB68     		ldr	r3, [r7, #12]
 558 0112 1B8D     		ldrh	r3, [r3, #40]
 559 0114 013B     		subs	r3, r3, #1
 560 0116 9AB2     		uxth	r2, r3
 561 0118 FB68     		ldr	r3, [r7, #12]
 562 011a 1A85     		strh	r2, [r3, #40]	@ movhi
 690:Drivers/STM32F7xx_HAL_Driver/Src/stm32f7xx_hal_i2c.c **** 
 691:Drivers/STM32F7xx_HAL_Driver/Src/stm32f7xx_hal_i2c.c ****       if ((hi2c->XferSize == 0U) && (hi2c->XferCount != 0U))
 563              		.loc 1 691 0
 564 011c FB68     		ldr	r3, [r7, #12]
 565 011e 1B8D     		ldrh	r3, [r3, #40]
 566 0120 002B     		cmp	r3, #0
 567 0122 35D1     		bne	.L22
 568              		.loc 1 691 0 is_stmt 0 discriminator 1
 569 0124 FB68     		ldr	r3, [r7, #12]
 570 0126 5B8D     		ldrh	r3, [r3, #42]	@ movhi
 571 0128 9BB2     		uxth	r3, r3
 572 012a 002B     		cmp	r3, #0
ARM GAS  /var/folders/n8/cvzdcwlj0vl4g_wtyz1ffy300000gn/T//ccBPNZvy.s 			page 23


 573 012c 30D0     		beq	.L22
 692:Drivers/STM32F7xx_HAL_Driver/Src/stm32f7xx_hal_i2c.c ****       {
 693:Drivers/STM32F7xx_HAL_Driver/Src/stm32f7xx_hal_i2c.c ****         /* Wait until TCR flag is set */
 694:Drivers/STM32F7xx_HAL_Driver/Src/stm32f7xx_hal_i2c.c ****         if (I2C_WaitOnFlagUntilTimeout(hi2c, I2C_FLAG_TCR, RESET, Timeout, tickstart) != HAL_OK)
 574              		.loc 1 694 0 is_stmt 1
 575 012e 7B69     		ldr	r3, [r7, #20]
 576 0130 0093     		str	r3, [sp]
 577 0132 3B6A     		ldr	r3, [r7, #32]
 578 0134 0022     		movs	r2, #0
 579 0136 8021     		movs	r1, #128
 580 0138 F868     		ldr	r0, [r7, #12]
 581 013a FFF7FEFF 		bl	I2C_WaitOnFlagUntilTimeout
 582 013e 0346     		mov	r3, r0
 583 0140 002B     		cmp	r3, #0
 584 0142 01D0     		beq	.L25
 695:Drivers/STM32F7xx_HAL_Driver/Src/stm32f7xx_hal_i2c.c ****         {
 696:Drivers/STM32F7xx_HAL_Driver/Src/stm32f7xx_hal_i2c.c ****           return HAL_TIMEOUT;
 585              		.loc 1 696 0
 586 0144 0323     		movs	r3, #3
 587 0146 53E0     		b	.L18
 588              	.L25:
 697:Drivers/STM32F7xx_HAL_Driver/Src/stm32f7xx_hal_i2c.c ****         }
 698:Drivers/STM32F7xx_HAL_Driver/Src/stm32f7xx_hal_i2c.c **** 
 699:Drivers/STM32F7xx_HAL_Driver/Src/stm32f7xx_hal_i2c.c ****         if (hi2c->XferCount > MAX_NBYTE_SIZE)
 589              		.loc 1 699 0
 590 0148 FB68     		ldr	r3, [r7, #12]
 591 014a 5B8D     		ldrh	r3, [r3, #42]	@ movhi
 592 014c 9BB2     		uxth	r3, r3
 593 014e FF2B     		cmp	r3, #255
 594 0150 0ED9     		bls	.L26
 700:Drivers/STM32F7xx_HAL_Driver/Src/stm32f7xx_hal_i2c.c ****         {
 701:Drivers/STM32F7xx_HAL_Driver/Src/stm32f7xx_hal_i2c.c ****           hi2c->XferSize = MAX_NBYTE_SIZE;
 595              		.loc 1 701 0
 596 0152 FB68     		ldr	r3, [r7, #12]
 597 0154 FF22     		movs	r2, #255
 598 0156 1A85     		strh	r2, [r3, #40]	@ movhi
 702:Drivers/STM32F7xx_HAL_Driver/Src/stm32f7xx_hal_i2c.c ****           I2C_TransferConfig(hi2c, DevAddress, hi2c->XferSize, I2C_RELOAD_MODE, I2C_NO_STARTSTOP);
 599              		.loc 1 702 0
 600 0158 FB68     		ldr	r3, [r7, #12]
 601 015a 1B8D     		ldrh	r3, [r3, #40]
 602 015c DAB2     		uxtb	r2, r3
 603 015e 7989     		ldrh	r1, [r7, #10]
 604 0160 0023     		movs	r3, #0
 605 0162 0093     		str	r3, [sp]
 606 0164 4FF08073 		mov	r3, #16777216
 607 0168 F868     		ldr	r0, [r7, #12]
 608 016a FFF7FEFF 		bl	I2C_TransferConfig
 609 016e 0FE0     		b	.L22
 610              	.L26:
 703:Drivers/STM32F7xx_HAL_Driver/Src/stm32f7xx_hal_i2c.c ****         }
 704:Drivers/STM32F7xx_HAL_Driver/Src/stm32f7xx_hal_i2c.c ****         else
 705:Drivers/STM32F7xx_HAL_Driver/Src/stm32f7xx_hal_i2c.c ****         {
 706:Drivers/STM32F7xx_HAL_Driver/Src/stm32f7xx_hal_i2c.c ****           hi2c->XferSize = hi2c->XferCount;
 611              		.loc 1 706 0
 612 0170 FB68     		ldr	r3, [r7, #12]
 613 0172 5B8D     		ldrh	r3, [r3, #42]	@ movhi
 614 0174 9AB2     		uxth	r2, r3
ARM GAS  /var/folders/n8/cvzdcwlj0vl4g_wtyz1ffy300000gn/T//ccBPNZvy.s 			page 24


 615 0176 FB68     		ldr	r3, [r7, #12]
 616 0178 1A85     		strh	r2, [r3, #40]	@ movhi
 707:Drivers/STM32F7xx_HAL_Driver/Src/stm32f7xx_hal_i2c.c ****           I2C_TransferConfig(hi2c, DevAddress, hi2c->XferSize, I2C_AUTOEND_MODE, I2C_NO_STARTSTOP);
 617              		.loc 1 707 0
 618 017a FB68     		ldr	r3, [r7, #12]
 619 017c 1B8D     		ldrh	r3, [r3, #40]
 620 017e DAB2     		uxtb	r2, r3
 621 0180 7989     		ldrh	r1, [r7, #10]
 622 0182 0023     		movs	r3, #0
 623 0184 0093     		str	r3, [sp]
 624 0186 4FF00073 		mov	r3, #33554432
 625 018a F868     		ldr	r0, [r7, #12]
 626 018c FFF7FEFF 		bl	I2C_TransferConfig
 627              	.L22:
 672:Drivers/STM32F7xx_HAL_Driver/Src/stm32f7xx_hal_i2c.c ****     {
 628              		.loc 1 672 0
 629 0190 FB68     		ldr	r3, [r7, #12]
 630 0192 5B8D     		ldrh	r3, [r3, #42]	@ movhi
 631 0194 9BB2     		uxth	r3, r3
 632 0196 002B     		cmp	r3, #0
 633 0198 9AD1     		bne	.L27
 708:Drivers/STM32F7xx_HAL_Driver/Src/stm32f7xx_hal_i2c.c ****         }
 709:Drivers/STM32F7xx_HAL_Driver/Src/stm32f7xx_hal_i2c.c ****       }
 710:Drivers/STM32F7xx_HAL_Driver/Src/stm32f7xx_hal_i2c.c ****     }
 711:Drivers/STM32F7xx_HAL_Driver/Src/stm32f7xx_hal_i2c.c **** 
 712:Drivers/STM32F7xx_HAL_Driver/Src/stm32f7xx_hal_i2c.c ****     /* No need to Check TC flag, with AUTOEND mode the stop is automatically generated */
 713:Drivers/STM32F7xx_HAL_Driver/Src/stm32f7xx_hal_i2c.c ****     /* Wait until STOPF flag is set */
 714:Drivers/STM32F7xx_HAL_Driver/Src/stm32f7xx_hal_i2c.c ****     if (I2C_WaitOnSTOPFlagUntilTimeout(hi2c, Timeout, tickstart) != HAL_OK)
 634              		.loc 1 714 0
 635 019a 7A69     		ldr	r2, [r7, #20]
 636 019c 396A     		ldr	r1, [r7, #32]
 637 019e F868     		ldr	r0, [r7, #12]
 638 01a0 FFF7FEFF 		bl	I2C_WaitOnSTOPFlagUntilTimeout
 639 01a4 0346     		mov	r3, r0
 640 01a6 002B     		cmp	r3, #0
 641 01a8 07D0     		beq	.L28
 715:Drivers/STM32F7xx_HAL_Driver/Src/stm32f7xx_hal_i2c.c ****     {
 716:Drivers/STM32F7xx_HAL_Driver/Src/stm32f7xx_hal_i2c.c ****       if (hi2c->ErrorCode == HAL_I2C_ERROR_AF)
 642              		.loc 1 716 0
 643 01aa FB68     		ldr	r3, [r7, #12]
 644 01ac 5B6C     		ldr	r3, [r3, #68]
 645 01ae 042B     		cmp	r3, #4
 646 01b0 01D1     		bne	.L29
 717:Drivers/STM32F7xx_HAL_Driver/Src/stm32f7xx_hal_i2c.c ****       {
 718:Drivers/STM32F7xx_HAL_Driver/Src/stm32f7xx_hal_i2c.c ****         return HAL_ERROR;
 647              		.loc 1 718 0
 648 01b2 0123     		movs	r3, #1
 649 01b4 1CE0     		b	.L18
 650              	.L29:
 719:Drivers/STM32F7xx_HAL_Driver/Src/stm32f7xx_hal_i2c.c ****       }
 720:Drivers/STM32F7xx_HAL_Driver/Src/stm32f7xx_hal_i2c.c ****       else
 721:Drivers/STM32F7xx_HAL_Driver/Src/stm32f7xx_hal_i2c.c ****       {
 722:Drivers/STM32F7xx_HAL_Driver/Src/stm32f7xx_hal_i2c.c ****         return HAL_TIMEOUT;
 651              		.loc 1 722 0
 652 01b6 0323     		movs	r3, #3
 653 01b8 1AE0     		b	.L18
 654              	.L28:
ARM GAS  /var/folders/n8/cvzdcwlj0vl4g_wtyz1ffy300000gn/T//ccBPNZvy.s 			page 25


 723:Drivers/STM32F7xx_HAL_Driver/Src/stm32f7xx_hal_i2c.c ****       }
 724:Drivers/STM32F7xx_HAL_Driver/Src/stm32f7xx_hal_i2c.c ****     }
 725:Drivers/STM32F7xx_HAL_Driver/Src/stm32f7xx_hal_i2c.c **** 
 726:Drivers/STM32F7xx_HAL_Driver/Src/stm32f7xx_hal_i2c.c ****     /* Clear STOP Flag */
 727:Drivers/STM32F7xx_HAL_Driver/Src/stm32f7xx_hal_i2c.c ****     __HAL_I2C_CLEAR_FLAG(hi2c, I2C_FLAG_STOPF);
 655              		.loc 1 727 0
 656 01ba FB68     		ldr	r3, [r7, #12]
 657 01bc 1B68     		ldr	r3, [r3]
 658 01be 2022     		movs	r2, #32
 659 01c0 DA61     		str	r2, [r3, #28]
 728:Drivers/STM32F7xx_HAL_Driver/Src/stm32f7xx_hal_i2c.c **** 
 729:Drivers/STM32F7xx_HAL_Driver/Src/stm32f7xx_hal_i2c.c ****     /* Clear Configuration Register 2 */
 730:Drivers/STM32F7xx_HAL_Driver/Src/stm32f7xx_hal_i2c.c ****     I2C_RESET_CR2(hi2c);
 660              		.loc 1 730 0
 661 01c2 FB68     		ldr	r3, [r7, #12]
 662 01c4 1B68     		ldr	r3, [r3]
 663 01c6 5968     		ldr	r1, [r3, #4]
 664 01c8 FB68     		ldr	r3, [r7, #12]
 665 01ca 1A68     		ldr	r2, [r3]
 666 01cc 0B4B     		ldr	r3, .L30+4
 667 01ce 0B40     		ands	r3, r3, r1
 668 01d0 5360     		str	r3, [r2, #4]
 731:Drivers/STM32F7xx_HAL_Driver/Src/stm32f7xx_hal_i2c.c **** 
 732:Drivers/STM32F7xx_HAL_Driver/Src/stm32f7xx_hal_i2c.c ****     hi2c->State = HAL_I2C_STATE_READY;
 669              		.loc 1 732 0
 670 01d2 FB68     		ldr	r3, [r7, #12]
 671 01d4 2022     		movs	r2, #32
 672 01d6 83F84120 		strb	r2, [r3, #65]
 733:Drivers/STM32F7xx_HAL_Driver/Src/stm32f7xx_hal_i2c.c ****     hi2c->Mode  = HAL_I2C_MODE_NONE;
 673              		.loc 1 733 0
 674 01da FB68     		ldr	r3, [r7, #12]
 675 01dc 0022     		movs	r2, #0
 676 01de 83F84220 		strb	r2, [r3, #66]
 734:Drivers/STM32F7xx_HAL_Driver/Src/stm32f7xx_hal_i2c.c **** 
 735:Drivers/STM32F7xx_HAL_Driver/Src/stm32f7xx_hal_i2c.c ****     /* Process Unlocked */
 736:Drivers/STM32F7xx_HAL_Driver/Src/stm32f7xx_hal_i2c.c ****     __HAL_UNLOCK(hi2c);
 677              		.loc 1 736 0
 678 01e2 FB68     		ldr	r3, [r7, #12]
 679 01e4 0022     		movs	r2, #0
 680 01e6 83F84020 		strb	r2, [r3, #64]
 737:Drivers/STM32F7xx_HAL_Driver/Src/stm32f7xx_hal_i2c.c **** 
 738:Drivers/STM32F7xx_HAL_Driver/Src/stm32f7xx_hal_i2c.c ****     return HAL_OK;
 681              		.loc 1 738 0
 682 01ea 0023     		movs	r3, #0
 683 01ec 00E0     		b	.L18
 684              	.L16:
 739:Drivers/STM32F7xx_HAL_Driver/Src/stm32f7xx_hal_i2c.c ****   }
 740:Drivers/STM32F7xx_HAL_Driver/Src/stm32f7xx_hal_i2c.c ****   else
 741:Drivers/STM32F7xx_HAL_Driver/Src/stm32f7xx_hal_i2c.c ****   {
 742:Drivers/STM32F7xx_HAL_Driver/Src/stm32f7xx_hal_i2c.c ****     return HAL_BUSY;
 685              		.loc 1 742 0
 686 01ee 0223     		movs	r3, #2
 687              	.L18:
 743:Drivers/STM32F7xx_HAL_Driver/Src/stm32f7xx_hal_i2c.c ****   }
 744:Drivers/STM32F7xx_HAL_Driver/Src/stm32f7xx_hal_i2c.c **** }
 688              		.loc 1 744 0
 689 01f0 1846     		mov	r0, r3
ARM GAS  /var/folders/n8/cvzdcwlj0vl4g_wtyz1ffy300000gn/T//ccBPNZvy.s 			page 26


 690 01f2 1837     		adds	r7, r7, #24
 691              	.LCFI25:
 692              		.cfi_def_cfa_offset 8
 693 01f4 BD46     		mov	sp, r7
 694              	.LCFI26:
 695              		.cfi_def_cfa_register 13
 696              		@ sp needed
 697 01f6 80BD     		pop	{r7, pc}
 698              	.L31:
 699              		.align	2
 700              	.L30:
 701 01f8 00200080 		.word	-2147475456
 702 01fc 00E800FE 		.word	-33495040
 703              		.cfi_endproc
 704              	.LFE142:
 706              		.section	.text.HAL_I2C_Master_Receive,"ax",%progbits
 707              		.align	1
 708              		.global	HAL_I2C_Master_Receive
 709              		.syntax unified
 710              		.thumb
 711              		.thumb_func
 712              		.fpu fpv5-sp-d16
 714              	HAL_I2C_Master_Receive:
 715              	.LFB143:
 745:Drivers/STM32F7xx_HAL_Driver/Src/stm32f7xx_hal_i2c.c **** 
 746:Drivers/STM32F7xx_HAL_Driver/Src/stm32f7xx_hal_i2c.c **** /**
 747:Drivers/STM32F7xx_HAL_Driver/Src/stm32f7xx_hal_i2c.c ****   * @brief  Receives in master mode an amount of data in blocking mode.
 748:Drivers/STM32F7xx_HAL_Driver/Src/stm32f7xx_hal_i2c.c ****   * @param  hi2c Pointer to a I2C_HandleTypeDef structure that contains
 749:Drivers/STM32F7xx_HAL_Driver/Src/stm32f7xx_hal_i2c.c ****   *                the configuration information for the specified I2C.
 750:Drivers/STM32F7xx_HAL_Driver/Src/stm32f7xx_hal_i2c.c ****   * @param  DevAddress Target device address which contain device 7 or 10 bits address value
 751:Drivers/STM32F7xx_HAL_Driver/Src/stm32f7xx_hal_i2c.c ****   *         in datasheet must be shifted to the left before calling the interface
 752:Drivers/STM32F7xx_HAL_Driver/Src/stm32f7xx_hal_i2c.c ****   * @param  pData Pointer to data buffer
 753:Drivers/STM32F7xx_HAL_Driver/Src/stm32f7xx_hal_i2c.c ****   * @param  Size Amount of data to be sent
 754:Drivers/STM32F7xx_HAL_Driver/Src/stm32f7xx_hal_i2c.c ****   * @param  Timeout Timeout duration
 755:Drivers/STM32F7xx_HAL_Driver/Src/stm32f7xx_hal_i2c.c ****   * @retval HAL status
 756:Drivers/STM32F7xx_HAL_Driver/Src/stm32f7xx_hal_i2c.c ****   */
 757:Drivers/STM32F7xx_HAL_Driver/Src/stm32f7xx_hal_i2c.c **** HAL_StatusTypeDef HAL_I2C_Master_Receive(I2C_HandleTypeDef *hi2c, uint16_t DevAddress, uint8_t *pDa
 758:Drivers/STM32F7xx_HAL_Driver/Src/stm32f7xx_hal_i2c.c **** {
 716              		.loc 1 758 0
 717              		.cfi_startproc
 718              		@ args = 4, pretend = 0, frame = 24
 719              		@ frame_needed = 1, uses_anonymous_args = 0
 720 0000 80B5     		push	{r7, lr}
 721              	.LCFI27:
 722              		.cfi_def_cfa_offset 8
 723              		.cfi_offset 7, -8
 724              		.cfi_offset 14, -4
 725 0002 88B0     		sub	sp, sp, #32
 726              	.LCFI28:
 727              		.cfi_def_cfa_offset 40
 728 0004 02AF     		add	r7, sp, #8
 729              	.LCFI29:
 730              		.cfi_def_cfa 7, 32
 731 0006 F860     		str	r0, [r7, #12]
 732 0008 7A60     		str	r2, [r7, #4]
 733 000a 1A46     		mov	r2, r3
 734 000c 0B46     		mov	r3, r1	@ movhi
ARM GAS  /var/folders/n8/cvzdcwlj0vl4g_wtyz1ffy300000gn/T//ccBPNZvy.s 			page 27


 735 000e 7B81     		strh	r3, [r7, #10]	@ movhi
 736 0010 1346     		mov	r3, r2	@ movhi
 737 0012 3B81     		strh	r3, [r7, #8]	@ movhi
 759:Drivers/STM32F7xx_HAL_Driver/Src/stm32f7xx_hal_i2c.c ****   uint32_t tickstart = 0U;
 738              		.loc 1 759 0
 739 0014 0023     		movs	r3, #0
 740 0016 7B61     		str	r3, [r7, #20]
 760:Drivers/STM32F7xx_HAL_Driver/Src/stm32f7xx_hal_i2c.c **** 
 761:Drivers/STM32F7xx_HAL_Driver/Src/stm32f7xx_hal_i2c.c ****   if (hi2c->State == HAL_I2C_STATE_READY)
 741              		.loc 1 761 0
 742 0018 FB68     		ldr	r3, [r7, #12]
 743 001a 93F84130 		ldrb	r3, [r3, #65]
 744 001e DBB2     		uxtb	r3, r3
 745 0020 202B     		cmp	r3, #32
 746 0022 40F0E580 		bne	.L33
 762:Drivers/STM32F7xx_HAL_Driver/Src/stm32f7xx_hal_i2c.c ****   {
 763:Drivers/STM32F7xx_HAL_Driver/Src/stm32f7xx_hal_i2c.c ****     /* Process Locked */
 764:Drivers/STM32F7xx_HAL_Driver/Src/stm32f7xx_hal_i2c.c ****     __HAL_LOCK(hi2c);
 747              		.loc 1 764 0
 748 0026 FB68     		ldr	r3, [r7, #12]
 749 0028 93F84030 		ldrb	r3, [r3, #64]	@ zero_extendqisi2
 750 002c 012B     		cmp	r3, #1
 751 002e 01D1     		bne	.L34
 752              		.loc 1 764 0 is_stmt 0 discriminator 1
 753 0030 0223     		movs	r3, #2
 754 0032 DEE0     		b	.L35
 755              	.L34:
 756              		.loc 1 764 0 discriminator 2
 757 0034 FB68     		ldr	r3, [r7, #12]
 758 0036 0122     		movs	r2, #1
 759 0038 83F84020 		strb	r2, [r3, #64]
 765:Drivers/STM32F7xx_HAL_Driver/Src/stm32f7xx_hal_i2c.c **** 
 766:Drivers/STM32F7xx_HAL_Driver/Src/stm32f7xx_hal_i2c.c ****     /* Init tickstart for timeout management*/
 767:Drivers/STM32F7xx_HAL_Driver/Src/stm32f7xx_hal_i2c.c ****     tickstart = HAL_GetTick();
 760              		.loc 1 767 0 is_stmt 1 discriminator 2
 761 003c FFF7FEFF 		bl	HAL_GetTick
 762 0040 7861     		str	r0, [r7, #20]
 768:Drivers/STM32F7xx_HAL_Driver/Src/stm32f7xx_hal_i2c.c **** 
 769:Drivers/STM32F7xx_HAL_Driver/Src/stm32f7xx_hal_i2c.c ****     if (I2C_WaitOnFlagUntilTimeout(hi2c, I2C_FLAG_BUSY, SET, I2C_TIMEOUT_BUSY, tickstart) != HAL_OK
 763              		.loc 1 769 0 discriminator 2
 764 0042 7B69     		ldr	r3, [r7, #20]
 765 0044 0093     		str	r3, [sp]
 766 0046 1923     		movs	r3, #25
 767 0048 0122     		movs	r2, #1
 768 004a 4FF40041 		mov	r1, #32768
 769 004e F868     		ldr	r0, [r7, #12]
 770 0050 FFF7FEFF 		bl	I2C_WaitOnFlagUntilTimeout
 771 0054 0346     		mov	r3, r0
 772 0056 002B     		cmp	r3, #0
 773 0058 01D0     		beq	.L36
 770:Drivers/STM32F7xx_HAL_Driver/Src/stm32f7xx_hal_i2c.c ****     {
 771:Drivers/STM32F7xx_HAL_Driver/Src/stm32f7xx_hal_i2c.c ****       return HAL_TIMEOUT;
 774              		.loc 1 771 0
 775 005a 0323     		movs	r3, #3
 776 005c C9E0     		b	.L35
 777              	.L36:
 772:Drivers/STM32F7xx_HAL_Driver/Src/stm32f7xx_hal_i2c.c ****     }
ARM GAS  /var/folders/n8/cvzdcwlj0vl4g_wtyz1ffy300000gn/T//ccBPNZvy.s 			page 28


 773:Drivers/STM32F7xx_HAL_Driver/Src/stm32f7xx_hal_i2c.c **** 
 774:Drivers/STM32F7xx_HAL_Driver/Src/stm32f7xx_hal_i2c.c ****     hi2c->State     = HAL_I2C_STATE_BUSY_RX;
 778              		.loc 1 774 0
 779 005e FB68     		ldr	r3, [r7, #12]
 780 0060 2222     		movs	r2, #34
 781 0062 83F84120 		strb	r2, [r3, #65]
 775:Drivers/STM32F7xx_HAL_Driver/Src/stm32f7xx_hal_i2c.c ****     hi2c->Mode      = HAL_I2C_MODE_MASTER;
 782              		.loc 1 775 0
 783 0066 FB68     		ldr	r3, [r7, #12]
 784 0068 1022     		movs	r2, #16
 785 006a 83F84220 		strb	r2, [r3, #66]
 776:Drivers/STM32F7xx_HAL_Driver/Src/stm32f7xx_hal_i2c.c ****     hi2c->ErrorCode = HAL_I2C_ERROR_NONE;
 786              		.loc 1 776 0
 787 006e FB68     		ldr	r3, [r7, #12]
 788 0070 0022     		movs	r2, #0
 789 0072 5A64     		str	r2, [r3, #68]
 777:Drivers/STM32F7xx_HAL_Driver/Src/stm32f7xx_hal_i2c.c **** 
 778:Drivers/STM32F7xx_HAL_Driver/Src/stm32f7xx_hal_i2c.c ****     /* Prepare transfer parameters */
 779:Drivers/STM32F7xx_HAL_Driver/Src/stm32f7xx_hal_i2c.c ****     hi2c->pBuffPtr  = pData;
 790              		.loc 1 779 0
 791 0074 FB68     		ldr	r3, [r7, #12]
 792 0076 7A68     		ldr	r2, [r7, #4]
 793 0078 5A62     		str	r2, [r3, #36]
 780:Drivers/STM32F7xx_HAL_Driver/Src/stm32f7xx_hal_i2c.c ****     hi2c->XferCount = Size;
 794              		.loc 1 780 0
 795 007a FB68     		ldr	r3, [r7, #12]
 796 007c 3A89     		ldrh	r2, [r7, #8]	@ movhi
 797 007e 5A85     		strh	r2, [r3, #42]	@ movhi
 781:Drivers/STM32F7xx_HAL_Driver/Src/stm32f7xx_hal_i2c.c ****     hi2c->XferISR   = NULL;
 798              		.loc 1 781 0
 799 0080 FB68     		ldr	r3, [r7, #12]
 800 0082 0022     		movs	r2, #0
 801 0084 5A63     		str	r2, [r3, #52]
 782:Drivers/STM32F7xx_HAL_Driver/Src/stm32f7xx_hal_i2c.c **** 
 783:Drivers/STM32F7xx_HAL_Driver/Src/stm32f7xx_hal_i2c.c ****     /* Send Slave Address */
 784:Drivers/STM32F7xx_HAL_Driver/Src/stm32f7xx_hal_i2c.c ****     /* Set NBYTES to write and reload if hi2c->XferCount > MAX_NBYTE_SIZE and generate RESTART */
 785:Drivers/STM32F7xx_HAL_Driver/Src/stm32f7xx_hal_i2c.c ****     if (hi2c->XferCount > MAX_NBYTE_SIZE)
 802              		.loc 1 785 0
 803 0086 FB68     		ldr	r3, [r7, #12]
 804 0088 5B8D     		ldrh	r3, [r3, #42]	@ movhi
 805 008a 9BB2     		uxth	r3, r3
 806 008c FF2B     		cmp	r3, #255
 807 008e 0ED9     		bls	.L37
 786:Drivers/STM32F7xx_HAL_Driver/Src/stm32f7xx_hal_i2c.c ****     {
 787:Drivers/STM32F7xx_HAL_Driver/Src/stm32f7xx_hal_i2c.c ****       hi2c->XferSize = MAX_NBYTE_SIZE;
 808              		.loc 1 787 0
 809 0090 FB68     		ldr	r3, [r7, #12]
 810 0092 FF22     		movs	r2, #255
 811 0094 1A85     		strh	r2, [r3, #40]	@ movhi
 788:Drivers/STM32F7xx_HAL_Driver/Src/stm32f7xx_hal_i2c.c ****       I2C_TransferConfig(hi2c, DevAddress, hi2c->XferSize, I2C_RELOAD_MODE, I2C_GENERATE_START_READ
 812              		.loc 1 788 0
 813 0096 FB68     		ldr	r3, [r7, #12]
 814 0098 1B8D     		ldrh	r3, [r3, #40]
 815 009a DAB2     		uxtb	r2, r3
 816 009c 7989     		ldrh	r1, [r7, #10]
 817 009e 574B     		ldr	r3, .L47
 818 00a0 0093     		str	r3, [sp]
ARM GAS  /var/folders/n8/cvzdcwlj0vl4g_wtyz1ffy300000gn/T//ccBPNZvy.s 			page 29


 819 00a2 4FF08073 		mov	r3, #16777216
 820 00a6 F868     		ldr	r0, [r7, #12]
 821 00a8 FFF7FEFF 		bl	I2C_TransferConfig
 822 00ac 71E0     		b	.L39
 823              	.L37:
 789:Drivers/STM32F7xx_HAL_Driver/Src/stm32f7xx_hal_i2c.c ****     }
 790:Drivers/STM32F7xx_HAL_Driver/Src/stm32f7xx_hal_i2c.c ****     else
 791:Drivers/STM32F7xx_HAL_Driver/Src/stm32f7xx_hal_i2c.c ****     {
 792:Drivers/STM32F7xx_HAL_Driver/Src/stm32f7xx_hal_i2c.c ****       hi2c->XferSize = hi2c->XferCount;
 824              		.loc 1 792 0
 825 00ae FB68     		ldr	r3, [r7, #12]
 826 00b0 5B8D     		ldrh	r3, [r3, #42]	@ movhi
 827 00b2 9AB2     		uxth	r2, r3
 828 00b4 FB68     		ldr	r3, [r7, #12]
 829 00b6 1A85     		strh	r2, [r3, #40]	@ movhi
 793:Drivers/STM32F7xx_HAL_Driver/Src/stm32f7xx_hal_i2c.c ****       I2C_TransferConfig(hi2c, DevAddress, hi2c->XferSize, I2C_AUTOEND_MODE, I2C_GENERATE_START_REA
 830              		.loc 1 793 0
 831 00b8 FB68     		ldr	r3, [r7, #12]
 832 00ba 1B8D     		ldrh	r3, [r3, #40]
 833 00bc DAB2     		uxtb	r2, r3
 834 00be 7989     		ldrh	r1, [r7, #10]
 835 00c0 4E4B     		ldr	r3, .L47
 836 00c2 0093     		str	r3, [sp]
 837 00c4 4FF00073 		mov	r3, #33554432
 838 00c8 F868     		ldr	r0, [r7, #12]
 839 00ca FFF7FEFF 		bl	I2C_TransferConfig
 794:Drivers/STM32F7xx_HAL_Driver/Src/stm32f7xx_hal_i2c.c ****     }
 795:Drivers/STM32F7xx_HAL_Driver/Src/stm32f7xx_hal_i2c.c **** 
 796:Drivers/STM32F7xx_HAL_Driver/Src/stm32f7xx_hal_i2c.c ****     while (hi2c->XferCount > 0U)
 840              		.loc 1 796 0
 841 00ce 60E0     		b	.L39
 842              	.L44:
 797:Drivers/STM32F7xx_HAL_Driver/Src/stm32f7xx_hal_i2c.c ****     {
 798:Drivers/STM32F7xx_HAL_Driver/Src/stm32f7xx_hal_i2c.c ****       /* Wait until RXNE flag is set */
 799:Drivers/STM32F7xx_HAL_Driver/Src/stm32f7xx_hal_i2c.c ****       if (I2C_WaitOnRXNEFlagUntilTimeout(hi2c, Timeout, tickstart) != HAL_OK)
 843              		.loc 1 799 0
 844 00d0 7A69     		ldr	r2, [r7, #20]
 845 00d2 396A     		ldr	r1, [r7, #32]
 846 00d4 F868     		ldr	r0, [r7, #12]
 847 00d6 FFF7FEFF 		bl	I2C_WaitOnRXNEFlagUntilTimeout
 848 00da 0346     		mov	r3, r0
 849 00dc 002B     		cmp	r3, #0
 850 00de 07D0     		beq	.L40
 800:Drivers/STM32F7xx_HAL_Driver/Src/stm32f7xx_hal_i2c.c ****       {
 801:Drivers/STM32F7xx_HAL_Driver/Src/stm32f7xx_hal_i2c.c ****         if (hi2c->ErrorCode == HAL_I2C_ERROR_AF)
 851              		.loc 1 801 0
 852 00e0 FB68     		ldr	r3, [r7, #12]
 853 00e2 5B6C     		ldr	r3, [r3, #68]
 854 00e4 042B     		cmp	r3, #4
 855 00e6 01D1     		bne	.L41
 802:Drivers/STM32F7xx_HAL_Driver/Src/stm32f7xx_hal_i2c.c ****         {
 803:Drivers/STM32F7xx_HAL_Driver/Src/stm32f7xx_hal_i2c.c ****           return HAL_ERROR;
 856              		.loc 1 803 0
 857 00e8 0123     		movs	r3, #1
 858 00ea 82E0     		b	.L35
 859              	.L41:
 804:Drivers/STM32F7xx_HAL_Driver/Src/stm32f7xx_hal_i2c.c ****         }
ARM GAS  /var/folders/n8/cvzdcwlj0vl4g_wtyz1ffy300000gn/T//ccBPNZvy.s 			page 30


 805:Drivers/STM32F7xx_HAL_Driver/Src/stm32f7xx_hal_i2c.c ****         else
 806:Drivers/STM32F7xx_HAL_Driver/Src/stm32f7xx_hal_i2c.c ****         {
 807:Drivers/STM32F7xx_HAL_Driver/Src/stm32f7xx_hal_i2c.c ****           return HAL_TIMEOUT;
 860              		.loc 1 807 0
 861 00ec 0323     		movs	r3, #3
 862 00ee 80E0     		b	.L35
 863              	.L40:
 808:Drivers/STM32F7xx_HAL_Driver/Src/stm32f7xx_hal_i2c.c ****         }
 809:Drivers/STM32F7xx_HAL_Driver/Src/stm32f7xx_hal_i2c.c ****       }
 810:Drivers/STM32F7xx_HAL_Driver/Src/stm32f7xx_hal_i2c.c **** 
 811:Drivers/STM32F7xx_HAL_Driver/Src/stm32f7xx_hal_i2c.c ****       /* Read data from RXDR */
 812:Drivers/STM32F7xx_HAL_Driver/Src/stm32f7xx_hal_i2c.c ****       (*hi2c->pBuffPtr++) = hi2c->Instance->RXDR;
 864              		.loc 1 812 0
 865 00f0 FB68     		ldr	r3, [r7, #12]
 866 00f2 1B68     		ldr	r3, [r3]
 867 00f4 586A     		ldr	r0, [r3, #36]
 868 00f6 FB68     		ldr	r3, [r7, #12]
 869 00f8 5B6A     		ldr	r3, [r3, #36]
 870 00fa 591C     		adds	r1, r3, #1
 871 00fc FA68     		ldr	r2, [r7, #12]
 872 00fe 5162     		str	r1, [r2, #36]
 873 0100 C2B2     		uxtb	r2, r0
 874 0102 1A70     		strb	r2, [r3]
 813:Drivers/STM32F7xx_HAL_Driver/Src/stm32f7xx_hal_i2c.c ****       hi2c->XferSize--;
 875              		.loc 1 813 0
 876 0104 FB68     		ldr	r3, [r7, #12]
 877 0106 1B8D     		ldrh	r3, [r3, #40]
 878 0108 013B     		subs	r3, r3, #1
 879 010a 9AB2     		uxth	r2, r3
 880 010c FB68     		ldr	r3, [r7, #12]
 881 010e 1A85     		strh	r2, [r3, #40]	@ movhi
 814:Drivers/STM32F7xx_HAL_Driver/Src/stm32f7xx_hal_i2c.c ****       hi2c->XferCount--;
 882              		.loc 1 814 0
 883 0110 FB68     		ldr	r3, [r7, #12]
 884 0112 5B8D     		ldrh	r3, [r3, #42]	@ movhi
 885 0114 9BB2     		uxth	r3, r3
 886 0116 013B     		subs	r3, r3, #1
 887 0118 9AB2     		uxth	r2, r3
 888 011a FB68     		ldr	r3, [r7, #12]
 889 011c 5A85     		strh	r2, [r3, #42]	@ movhi
 815:Drivers/STM32F7xx_HAL_Driver/Src/stm32f7xx_hal_i2c.c **** 
 816:Drivers/STM32F7xx_HAL_Driver/Src/stm32f7xx_hal_i2c.c ****       if ((hi2c->XferSize == 0U) && (hi2c->XferCount != 0U))
 890              		.loc 1 816 0
 891 011e FB68     		ldr	r3, [r7, #12]
 892 0120 1B8D     		ldrh	r3, [r3, #40]
 893 0122 002B     		cmp	r3, #0
 894 0124 35D1     		bne	.L39
 895              		.loc 1 816 0 is_stmt 0 discriminator 1
 896 0126 FB68     		ldr	r3, [r7, #12]
 897 0128 5B8D     		ldrh	r3, [r3, #42]	@ movhi
 898 012a 9BB2     		uxth	r3, r3
 899 012c 002B     		cmp	r3, #0
 900 012e 30D0     		beq	.L39
 817:Drivers/STM32F7xx_HAL_Driver/Src/stm32f7xx_hal_i2c.c ****       {
 818:Drivers/STM32F7xx_HAL_Driver/Src/stm32f7xx_hal_i2c.c ****         /* Wait until TCR flag is set */
 819:Drivers/STM32F7xx_HAL_Driver/Src/stm32f7xx_hal_i2c.c ****         if (I2C_WaitOnFlagUntilTimeout(hi2c, I2C_FLAG_TCR, RESET, Timeout, tickstart) != HAL_OK)
 901              		.loc 1 819 0 is_stmt 1
ARM GAS  /var/folders/n8/cvzdcwlj0vl4g_wtyz1ffy300000gn/T//ccBPNZvy.s 			page 31


 902 0130 7B69     		ldr	r3, [r7, #20]
 903 0132 0093     		str	r3, [sp]
 904 0134 3B6A     		ldr	r3, [r7, #32]
 905 0136 0022     		movs	r2, #0
 906 0138 8021     		movs	r1, #128
 907 013a F868     		ldr	r0, [r7, #12]
 908 013c FFF7FEFF 		bl	I2C_WaitOnFlagUntilTimeout
 909 0140 0346     		mov	r3, r0
 910 0142 002B     		cmp	r3, #0
 911 0144 01D0     		beq	.L42
 820:Drivers/STM32F7xx_HAL_Driver/Src/stm32f7xx_hal_i2c.c ****         {
 821:Drivers/STM32F7xx_HAL_Driver/Src/stm32f7xx_hal_i2c.c ****           return HAL_TIMEOUT;
 912              		.loc 1 821 0
 913 0146 0323     		movs	r3, #3
 914 0148 53E0     		b	.L35
 915              	.L42:
 822:Drivers/STM32F7xx_HAL_Driver/Src/stm32f7xx_hal_i2c.c ****         }
 823:Drivers/STM32F7xx_HAL_Driver/Src/stm32f7xx_hal_i2c.c **** 
 824:Drivers/STM32F7xx_HAL_Driver/Src/stm32f7xx_hal_i2c.c ****         if (hi2c->XferCount > MAX_NBYTE_SIZE)
 916              		.loc 1 824 0
 917 014a FB68     		ldr	r3, [r7, #12]
 918 014c 5B8D     		ldrh	r3, [r3, #42]	@ movhi
 919 014e 9BB2     		uxth	r3, r3
 920 0150 FF2B     		cmp	r3, #255
 921 0152 0ED9     		bls	.L43
 825:Drivers/STM32F7xx_HAL_Driver/Src/stm32f7xx_hal_i2c.c ****         {
 826:Drivers/STM32F7xx_HAL_Driver/Src/stm32f7xx_hal_i2c.c ****           hi2c->XferSize = MAX_NBYTE_SIZE;
 922              		.loc 1 826 0
 923 0154 FB68     		ldr	r3, [r7, #12]
 924 0156 FF22     		movs	r2, #255
 925 0158 1A85     		strh	r2, [r3, #40]	@ movhi
 827:Drivers/STM32F7xx_HAL_Driver/Src/stm32f7xx_hal_i2c.c ****           I2C_TransferConfig(hi2c, DevAddress, hi2c->XferSize, I2C_RELOAD_MODE, I2C_NO_STARTSTOP);
 926              		.loc 1 827 0
 927 015a FB68     		ldr	r3, [r7, #12]
 928 015c 1B8D     		ldrh	r3, [r3, #40]
 929 015e DAB2     		uxtb	r2, r3
 930 0160 7989     		ldrh	r1, [r7, #10]
 931 0162 0023     		movs	r3, #0
 932 0164 0093     		str	r3, [sp]
 933 0166 4FF08073 		mov	r3, #16777216
 934 016a F868     		ldr	r0, [r7, #12]
 935 016c FFF7FEFF 		bl	I2C_TransferConfig
 936 0170 0FE0     		b	.L39
 937              	.L43:
 828:Drivers/STM32F7xx_HAL_Driver/Src/stm32f7xx_hal_i2c.c ****         }
 829:Drivers/STM32F7xx_HAL_Driver/Src/stm32f7xx_hal_i2c.c ****         else
 830:Drivers/STM32F7xx_HAL_Driver/Src/stm32f7xx_hal_i2c.c ****         {
 831:Drivers/STM32F7xx_HAL_Driver/Src/stm32f7xx_hal_i2c.c ****           hi2c->XferSize = hi2c->XferCount;
 938              		.loc 1 831 0
 939 0172 FB68     		ldr	r3, [r7, #12]
 940 0174 5B8D     		ldrh	r3, [r3, #42]	@ movhi
 941 0176 9AB2     		uxth	r2, r3
 942 0178 FB68     		ldr	r3, [r7, #12]
 943 017a 1A85     		strh	r2, [r3, #40]	@ movhi
 832:Drivers/STM32F7xx_HAL_Driver/Src/stm32f7xx_hal_i2c.c ****           I2C_TransferConfig(hi2c, DevAddress, hi2c->XferSize, I2C_AUTOEND_MODE, I2C_NO_STARTSTOP);
 944              		.loc 1 832 0
 945 017c FB68     		ldr	r3, [r7, #12]
ARM GAS  /var/folders/n8/cvzdcwlj0vl4g_wtyz1ffy300000gn/T//ccBPNZvy.s 			page 32


 946 017e 1B8D     		ldrh	r3, [r3, #40]
 947 0180 DAB2     		uxtb	r2, r3
 948 0182 7989     		ldrh	r1, [r7, #10]
 949 0184 0023     		movs	r3, #0
 950 0186 0093     		str	r3, [sp]
 951 0188 4FF00073 		mov	r3, #33554432
 952 018c F868     		ldr	r0, [r7, #12]
 953 018e FFF7FEFF 		bl	I2C_TransferConfig
 954              	.L39:
 796:Drivers/STM32F7xx_HAL_Driver/Src/stm32f7xx_hal_i2c.c ****     {
 955              		.loc 1 796 0
 956 0192 FB68     		ldr	r3, [r7, #12]
 957 0194 5B8D     		ldrh	r3, [r3, #42]	@ movhi
 958 0196 9BB2     		uxth	r3, r3
 959 0198 002B     		cmp	r3, #0
 960 019a 99D1     		bne	.L44
 833:Drivers/STM32F7xx_HAL_Driver/Src/stm32f7xx_hal_i2c.c ****         }
 834:Drivers/STM32F7xx_HAL_Driver/Src/stm32f7xx_hal_i2c.c ****       }
 835:Drivers/STM32F7xx_HAL_Driver/Src/stm32f7xx_hal_i2c.c ****     }
 836:Drivers/STM32F7xx_HAL_Driver/Src/stm32f7xx_hal_i2c.c **** 
 837:Drivers/STM32F7xx_HAL_Driver/Src/stm32f7xx_hal_i2c.c ****     /* No need to Check TC flag, with AUTOEND mode the stop is automatically generated */
 838:Drivers/STM32F7xx_HAL_Driver/Src/stm32f7xx_hal_i2c.c ****     /* Wait until STOPF flag is set */
 839:Drivers/STM32F7xx_HAL_Driver/Src/stm32f7xx_hal_i2c.c ****     if (I2C_WaitOnSTOPFlagUntilTimeout(hi2c, Timeout, tickstart) != HAL_OK)
 961              		.loc 1 839 0
 962 019c 7A69     		ldr	r2, [r7, #20]
 963 019e 396A     		ldr	r1, [r7, #32]
 964 01a0 F868     		ldr	r0, [r7, #12]
 965 01a2 FFF7FEFF 		bl	I2C_WaitOnSTOPFlagUntilTimeout
 966 01a6 0346     		mov	r3, r0
 967 01a8 002B     		cmp	r3, #0
 968 01aa 07D0     		beq	.L45
 840:Drivers/STM32F7xx_HAL_Driver/Src/stm32f7xx_hal_i2c.c ****     {
 841:Drivers/STM32F7xx_HAL_Driver/Src/stm32f7xx_hal_i2c.c ****       if (hi2c->ErrorCode == HAL_I2C_ERROR_AF)
 969              		.loc 1 841 0
 970 01ac FB68     		ldr	r3, [r7, #12]
 971 01ae 5B6C     		ldr	r3, [r3, #68]
 972 01b0 042B     		cmp	r3, #4
 973 01b2 01D1     		bne	.L46
 842:Drivers/STM32F7xx_HAL_Driver/Src/stm32f7xx_hal_i2c.c ****       {
 843:Drivers/STM32F7xx_HAL_Driver/Src/stm32f7xx_hal_i2c.c ****         return HAL_ERROR;
 974              		.loc 1 843 0
 975 01b4 0123     		movs	r3, #1
 976 01b6 1CE0     		b	.L35
 977              	.L46:
 844:Drivers/STM32F7xx_HAL_Driver/Src/stm32f7xx_hal_i2c.c ****       }
 845:Drivers/STM32F7xx_HAL_Driver/Src/stm32f7xx_hal_i2c.c ****       else
 846:Drivers/STM32F7xx_HAL_Driver/Src/stm32f7xx_hal_i2c.c ****       {
 847:Drivers/STM32F7xx_HAL_Driver/Src/stm32f7xx_hal_i2c.c ****         return HAL_TIMEOUT;
 978              		.loc 1 847 0
 979 01b8 0323     		movs	r3, #3
 980 01ba 1AE0     		b	.L35
 981              	.L45:
 848:Drivers/STM32F7xx_HAL_Driver/Src/stm32f7xx_hal_i2c.c ****       }
 849:Drivers/STM32F7xx_HAL_Driver/Src/stm32f7xx_hal_i2c.c ****     }
 850:Drivers/STM32F7xx_HAL_Driver/Src/stm32f7xx_hal_i2c.c **** 
 851:Drivers/STM32F7xx_HAL_Driver/Src/stm32f7xx_hal_i2c.c ****     /* Clear STOP Flag */
 852:Drivers/STM32F7xx_HAL_Driver/Src/stm32f7xx_hal_i2c.c ****     __HAL_I2C_CLEAR_FLAG(hi2c, I2C_FLAG_STOPF);
ARM GAS  /var/folders/n8/cvzdcwlj0vl4g_wtyz1ffy300000gn/T//ccBPNZvy.s 			page 33


 982              		.loc 1 852 0
 983 01bc FB68     		ldr	r3, [r7, #12]
 984 01be 1B68     		ldr	r3, [r3]
 985 01c0 2022     		movs	r2, #32
 986 01c2 DA61     		str	r2, [r3, #28]
 853:Drivers/STM32F7xx_HAL_Driver/Src/stm32f7xx_hal_i2c.c **** 
 854:Drivers/STM32F7xx_HAL_Driver/Src/stm32f7xx_hal_i2c.c ****     /* Clear Configuration Register 2 */
 855:Drivers/STM32F7xx_HAL_Driver/Src/stm32f7xx_hal_i2c.c ****     I2C_RESET_CR2(hi2c);
 987              		.loc 1 855 0
 988 01c4 FB68     		ldr	r3, [r7, #12]
 989 01c6 1B68     		ldr	r3, [r3]
 990 01c8 5968     		ldr	r1, [r3, #4]
 991 01ca FB68     		ldr	r3, [r7, #12]
 992 01cc 1A68     		ldr	r2, [r3]
 993 01ce 0C4B     		ldr	r3, .L47+4
 994 01d0 0B40     		ands	r3, r3, r1
 995 01d2 5360     		str	r3, [r2, #4]
 856:Drivers/STM32F7xx_HAL_Driver/Src/stm32f7xx_hal_i2c.c **** 
 857:Drivers/STM32F7xx_HAL_Driver/Src/stm32f7xx_hal_i2c.c ****     hi2c->State = HAL_I2C_STATE_READY;
 996              		.loc 1 857 0
 997 01d4 FB68     		ldr	r3, [r7, #12]
 998 01d6 2022     		movs	r2, #32
 999 01d8 83F84120 		strb	r2, [r3, #65]
 858:Drivers/STM32F7xx_HAL_Driver/Src/stm32f7xx_hal_i2c.c ****     hi2c->Mode  = HAL_I2C_MODE_NONE;
 1000              		.loc 1 858 0
 1001 01dc FB68     		ldr	r3, [r7, #12]
 1002 01de 0022     		movs	r2, #0
 1003 01e0 83F84220 		strb	r2, [r3, #66]
 859:Drivers/STM32F7xx_HAL_Driver/Src/stm32f7xx_hal_i2c.c **** 
 860:Drivers/STM32F7xx_HAL_Driver/Src/stm32f7xx_hal_i2c.c ****     /* Process Unlocked */
 861:Drivers/STM32F7xx_HAL_Driver/Src/stm32f7xx_hal_i2c.c ****     __HAL_UNLOCK(hi2c);
 1004              		.loc 1 861 0
 1005 01e4 FB68     		ldr	r3, [r7, #12]
 1006 01e6 0022     		movs	r2, #0
 1007 01e8 83F84020 		strb	r2, [r3, #64]
 862:Drivers/STM32F7xx_HAL_Driver/Src/stm32f7xx_hal_i2c.c **** 
 863:Drivers/STM32F7xx_HAL_Driver/Src/stm32f7xx_hal_i2c.c ****     return HAL_OK;
 1008              		.loc 1 863 0
 1009 01ec 0023     		movs	r3, #0
 1010 01ee 00E0     		b	.L35
 1011              	.L33:
 864:Drivers/STM32F7xx_HAL_Driver/Src/stm32f7xx_hal_i2c.c ****   }
 865:Drivers/STM32F7xx_HAL_Driver/Src/stm32f7xx_hal_i2c.c ****   else
 866:Drivers/STM32F7xx_HAL_Driver/Src/stm32f7xx_hal_i2c.c ****   {
 867:Drivers/STM32F7xx_HAL_Driver/Src/stm32f7xx_hal_i2c.c ****     return HAL_BUSY;
 1012              		.loc 1 867 0
 1013 01f0 0223     		movs	r3, #2
 1014              	.L35:
 868:Drivers/STM32F7xx_HAL_Driver/Src/stm32f7xx_hal_i2c.c ****   }
 869:Drivers/STM32F7xx_HAL_Driver/Src/stm32f7xx_hal_i2c.c **** }
 1015              		.loc 1 869 0
 1016 01f2 1846     		mov	r0, r3
 1017 01f4 1837     		adds	r7, r7, #24
 1018              	.LCFI30:
 1019              		.cfi_def_cfa_offset 8
 1020 01f6 BD46     		mov	sp, r7
 1021              	.LCFI31:
ARM GAS  /var/folders/n8/cvzdcwlj0vl4g_wtyz1ffy300000gn/T//ccBPNZvy.s 			page 34


 1022              		.cfi_def_cfa_register 13
 1023              		@ sp needed
 1024 01f8 80BD     		pop	{r7, pc}
 1025              	.L48:
 1026 01fa 00BF     		.align	2
 1027              	.L47:
 1028 01fc 00240080 		.word	-2147474432
 1029 0200 00E800FE 		.word	-33495040
 1030              		.cfi_endproc
 1031              	.LFE143:
 1033              		.section	.text.HAL_I2C_Slave_Transmit,"ax",%progbits
 1034              		.align	1
 1035              		.global	HAL_I2C_Slave_Transmit
 1036              		.syntax unified
 1037              		.thumb
 1038              		.thumb_func
 1039              		.fpu fpv5-sp-d16
 1041              	HAL_I2C_Slave_Transmit:
 1042              	.LFB144:
 870:Drivers/STM32F7xx_HAL_Driver/Src/stm32f7xx_hal_i2c.c **** 
 871:Drivers/STM32F7xx_HAL_Driver/Src/stm32f7xx_hal_i2c.c **** /**
 872:Drivers/STM32F7xx_HAL_Driver/Src/stm32f7xx_hal_i2c.c ****   * @brief  Transmits in slave mode an amount of data in blocking mode.
 873:Drivers/STM32F7xx_HAL_Driver/Src/stm32f7xx_hal_i2c.c ****   * @param  hi2c Pointer to a I2C_HandleTypeDef structure that contains
 874:Drivers/STM32F7xx_HAL_Driver/Src/stm32f7xx_hal_i2c.c ****   *                the configuration information for the specified I2C.
 875:Drivers/STM32F7xx_HAL_Driver/Src/stm32f7xx_hal_i2c.c ****   * @param  pData Pointer to data buffer
 876:Drivers/STM32F7xx_HAL_Driver/Src/stm32f7xx_hal_i2c.c ****   * @param  Size Amount of data to be sent
 877:Drivers/STM32F7xx_HAL_Driver/Src/stm32f7xx_hal_i2c.c ****   * @param  Timeout Timeout duration
 878:Drivers/STM32F7xx_HAL_Driver/Src/stm32f7xx_hal_i2c.c ****   * @retval HAL status
 879:Drivers/STM32F7xx_HAL_Driver/Src/stm32f7xx_hal_i2c.c ****   */
 880:Drivers/STM32F7xx_HAL_Driver/Src/stm32f7xx_hal_i2c.c **** HAL_StatusTypeDef HAL_I2C_Slave_Transmit(I2C_HandleTypeDef *hi2c, uint8_t *pData, uint16_t Size, ui
 881:Drivers/STM32F7xx_HAL_Driver/Src/stm32f7xx_hal_i2c.c **** {
 1043              		.loc 1 881 0
 1044              		.cfi_startproc
 1045              		@ args = 0, pretend = 0, frame = 24
 1046              		@ frame_needed = 1, uses_anonymous_args = 0
 1047 0000 80B5     		push	{r7, lr}
 1048              	.LCFI32:
 1049              		.cfi_def_cfa_offset 8
 1050              		.cfi_offset 7, -8
 1051              		.cfi_offset 14, -4
 1052 0002 88B0     		sub	sp, sp, #32
 1053              	.LCFI33:
 1054              		.cfi_def_cfa_offset 40
 1055 0004 02AF     		add	r7, sp, #8
 1056              	.LCFI34:
 1057              		.cfi_def_cfa 7, 32
 1058 0006 F860     		str	r0, [r7, #12]
 1059 0008 B960     		str	r1, [r7, #8]
 1060 000a 3B60     		str	r3, [r7]
 1061 000c 1346     		mov	r3, r2	@ movhi
 1062 000e FB80     		strh	r3, [r7, #6]	@ movhi
 882:Drivers/STM32F7xx_HAL_Driver/Src/stm32f7xx_hal_i2c.c ****   uint32_t tickstart = 0U;
 1063              		.loc 1 882 0
 1064 0010 0023     		movs	r3, #0
 1065 0012 7B61     		str	r3, [r7, #20]
 883:Drivers/STM32F7xx_HAL_Driver/Src/stm32f7xx_hal_i2c.c **** 
 884:Drivers/STM32F7xx_HAL_Driver/Src/stm32f7xx_hal_i2c.c ****   if (hi2c->State == HAL_I2C_STATE_READY)
ARM GAS  /var/folders/n8/cvzdcwlj0vl4g_wtyz1ffy300000gn/T//ccBPNZvy.s 			page 35


 1066              		.loc 1 884 0
 1067 0014 FB68     		ldr	r3, [r7, #12]
 1068 0016 93F84130 		ldrb	r3, [r3, #65]
 1069 001a DBB2     		uxtb	r3, r3
 1070 001c 202B     		cmp	r3, #32
 1071 001e 40F0F580 		bne	.L50
 885:Drivers/STM32F7xx_HAL_Driver/Src/stm32f7xx_hal_i2c.c ****   {
 886:Drivers/STM32F7xx_HAL_Driver/Src/stm32f7xx_hal_i2c.c ****     if ((pData == NULL) || (Size == 0U))
 1072              		.loc 1 886 0
 1073 0022 BB68     		ldr	r3, [r7, #8]
 1074 0024 002B     		cmp	r3, #0
 1075 0026 02D0     		beq	.L51
 1076              		.loc 1 886 0 is_stmt 0 discriminator 1
 1077 0028 FB88     		ldrh	r3, [r7, #6]
 1078 002a 002B     		cmp	r3, #0
 1079 002c 01D1     		bne	.L52
 1080              	.L51:
 887:Drivers/STM32F7xx_HAL_Driver/Src/stm32f7xx_hal_i2c.c ****     {
 888:Drivers/STM32F7xx_HAL_Driver/Src/stm32f7xx_hal_i2c.c ****       return  HAL_ERROR;
 1081              		.loc 1 888 0 is_stmt 1
 1082 002e 0123     		movs	r3, #1
 1083 0030 EDE0     		b	.L53
 1084              	.L52:
 889:Drivers/STM32F7xx_HAL_Driver/Src/stm32f7xx_hal_i2c.c ****     }
 890:Drivers/STM32F7xx_HAL_Driver/Src/stm32f7xx_hal_i2c.c ****     /* Process Locked */
 891:Drivers/STM32F7xx_HAL_Driver/Src/stm32f7xx_hal_i2c.c ****     __HAL_LOCK(hi2c);
 1085              		.loc 1 891 0
 1086 0032 FB68     		ldr	r3, [r7, #12]
 1087 0034 93F84030 		ldrb	r3, [r3, #64]	@ zero_extendqisi2
 1088 0038 012B     		cmp	r3, #1
 1089 003a 01D1     		bne	.L54
 1090              		.loc 1 891 0 is_stmt 0 discriminator 1
 1091 003c 0223     		movs	r3, #2
 1092 003e E6E0     		b	.L53
 1093              	.L54:
 1094              		.loc 1 891 0 discriminator 2
 1095 0040 FB68     		ldr	r3, [r7, #12]
 1096 0042 0122     		movs	r2, #1
 1097 0044 83F84020 		strb	r2, [r3, #64]
 892:Drivers/STM32F7xx_HAL_Driver/Src/stm32f7xx_hal_i2c.c **** 
 893:Drivers/STM32F7xx_HAL_Driver/Src/stm32f7xx_hal_i2c.c ****     /* Init tickstart for timeout management*/
 894:Drivers/STM32F7xx_HAL_Driver/Src/stm32f7xx_hal_i2c.c ****     tickstart = HAL_GetTick();
 1098              		.loc 1 894 0 is_stmt 1 discriminator 2
 1099 0048 FFF7FEFF 		bl	HAL_GetTick
 1100 004c 7861     		str	r0, [r7, #20]
 895:Drivers/STM32F7xx_HAL_Driver/Src/stm32f7xx_hal_i2c.c **** 
 896:Drivers/STM32F7xx_HAL_Driver/Src/stm32f7xx_hal_i2c.c ****     hi2c->State     = HAL_I2C_STATE_BUSY_TX;
 1101              		.loc 1 896 0 discriminator 2
 1102 004e FB68     		ldr	r3, [r7, #12]
 1103 0050 2122     		movs	r2, #33
 1104 0052 83F84120 		strb	r2, [r3, #65]
 897:Drivers/STM32F7xx_HAL_Driver/Src/stm32f7xx_hal_i2c.c ****     hi2c->Mode      = HAL_I2C_MODE_SLAVE;
 1105              		.loc 1 897 0 discriminator 2
 1106 0056 FB68     		ldr	r3, [r7, #12]
 1107 0058 2022     		movs	r2, #32
 1108 005a 83F84220 		strb	r2, [r3, #66]
 898:Drivers/STM32F7xx_HAL_Driver/Src/stm32f7xx_hal_i2c.c ****     hi2c->ErrorCode = HAL_I2C_ERROR_NONE;
ARM GAS  /var/folders/n8/cvzdcwlj0vl4g_wtyz1ffy300000gn/T//ccBPNZvy.s 			page 36


 1109              		.loc 1 898 0 discriminator 2
 1110 005e FB68     		ldr	r3, [r7, #12]
 1111 0060 0022     		movs	r2, #0
 1112 0062 5A64     		str	r2, [r3, #68]
 899:Drivers/STM32F7xx_HAL_Driver/Src/stm32f7xx_hal_i2c.c **** 
 900:Drivers/STM32F7xx_HAL_Driver/Src/stm32f7xx_hal_i2c.c ****     /* Prepare transfer parameters */
 901:Drivers/STM32F7xx_HAL_Driver/Src/stm32f7xx_hal_i2c.c ****     hi2c->pBuffPtr  = pData;
 1113              		.loc 1 901 0 discriminator 2
 1114 0064 FB68     		ldr	r3, [r7, #12]
 1115 0066 BA68     		ldr	r2, [r7, #8]
 1116 0068 5A62     		str	r2, [r3, #36]
 902:Drivers/STM32F7xx_HAL_Driver/Src/stm32f7xx_hal_i2c.c ****     hi2c->XferCount = Size;
 1117              		.loc 1 902 0 discriminator 2
 1118 006a FB68     		ldr	r3, [r7, #12]
 1119 006c FA88     		ldrh	r2, [r7, #6]	@ movhi
 1120 006e 5A85     		strh	r2, [r3, #42]	@ movhi
 903:Drivers/STM32F7xx_HAL_Driver/Src/stm32f7xx_hal_i2c.c ****     hi2c->XferISR   = NULL;
 1121              		.loc 1 903 0 discriminator 2
 1122 0070 FB68     		ldr	r3, [r7, #12]
 1123 0072 0022     		movs	r2, #0
 1124 0074 5A63     		str	r2, [r3, #52]
 904:Drivers/STM32F7xx_HAL_Driver/Src/stm32f7xx_hal_i2c.c **** 
 905:Drivers/STM32F7xx_HAL_Driver/Src/stm32f7xx_hal_i2c.c ****     /* Enable Address Acknowledge */
 906:Drivers/STM32F7xx_HAL_Driver/Src/stm32f7xx_hal_i2c.c ****     hi2c->Instance->CR2 &= ~I2C_CR2_NACK;
 1125              		.loc 1 906 0 discriminator 2
 1126 0076 FB68     		ldr	r3, [r7, #12]
 1127 0078 1B68     		ldr	r3, [r3]
 1128 007a 5A68     		ldr	r2, [r3, #4]
 1129 007c FB68     		ldr	r3, [r7, #12]
 1130 007e 1B68     		ldr	r3, [r3]
 1131 0080 22F40042 		bic	r2, r2, #32768
 1132 0084 5A60     		str	r2, [r3, #4]
 907:Drivers/STM32F7xx_HAL_Driver/Src/stm32f7xx_hal_i2c.c **** 
 908:Drivers/STM32F7xx_HAL_Driver/Src/stm32f7xx_hal_i2c.c ****     /* Wait until ADDR flag is set */
 909:Drivers/STM32F7xx_HAL_Driver/Src/stm32f7xx_hal_i2c.c ****     if (I2C_WaitOnFlagUntilTimeout(hi2c, I2C_FLAG_ADDR, RESET, Timeout, tickstart) != HAL_OK)
 1133              		.loc 1 909 0 discriminator 2
 1134 0086 7B69     		ldr	r3, [r7, #20]
 1135 0088 0093     		str	r3, [sp]
 1136 008a 3B68     		ldr	r3, [r7]
 1137 008c 0022     		movs	r2, #0
 1138 008e 0821     		movs	r1, #8
 1139 0090 F868     		ldr	r0, [r7, #12]
 1140 0092 FFF7FEFF 		bl	I2C_WaitOnFlagUntilTimeout
 1141 0096 0346     		mov	r3, r0
 1142 0098 002B     		cmp	r3, #0
 1143 009a 09D0     		beq	.L55
 910:Drivers/STM32F7xx_HAL_Driver/Src/stm32f7xx_hal_i2c.c ****     {
 911:Drivers/STM32F7xx_HAL_Driver/Src/stm32f7xx_hal_i2c.c ****       /* Disable Address Acknowledge */
 912:Drivers/STM32F7xx_HAL_Driver/Src/stm32f7xx_hal_i2c.c ****       hi2c->Instance->CR2 |= I2C_CR2_NACK;
 1144              		.loc 1 912 0
 1145 009c FB68     		ldr	r3, [r7, #12]
 1146 009e 1B68     		ldr	r3, [r3]
 1147 00a0 5A68     		ldr	r2, [r3, #4]
 1148 00a2 FB68     		ldr	r3, [r7, #12]
 1149 00a4 1B68     		ldr	r3, [r3]
 1150 00a6 42F40042 		orr	r2, r2, #32768
 1151 00aa 5A60     		str	r2, [r3, #4]
ARM GAS  /var/folders/n8/cvzdcwlj0vl4g_wtyz1ffy300000gn/T//ccBPNZvy.s 			page 37


 913:Drivers/STM32F7xx_HAL_Driver/Src/stm32f7xx_hal_i2c.c ****       return HAL_TIMEOUT;
 1152              		.loc 1 913 0
 1153 00ac 0323     		movs	r3, #3
 1154 00ae AEE0     		b	.L53
 1155              	.L55:
 914:Drivers/STM32F7xx_HAL_Driver/Src/stm32f7xx_hal_i2c.c ****     }
 915:Drivers/STM32F7xx_HAL_Driver/Src/stm32f7xx_hal_i2c.c **** 
 916:Drivers/STM32F7xx_HAL_Driver/Src/stm32f7xx_hal_i2c.c ****     /* Clear ADDR flag */
 917:Drivers/STM32F7xx_HAL_Driver/Src/stm32f7xx_hal_i2c.c ****     __HAL_I2C_CLEAR_FLAG(hi2c, I2C_FLAG_ADDR);
 1156              		.loc 1 917 0
 1157 00b0 FB68     		ldr	r3, [r7, #12]
 1158 00b2 1B68     		ldr	r3, [r3]
 1159 00b4 0822     		movs	r2, #8
 1160 00b6 DA61     		str	r2, [r3, #28]
 918:Drivers/STM32F7xx_HAL_Driver/Src/stm32f7xx_hal_i2c.c **** 
 919:Drivers/STM32F7xx_HAL_Driver/Src/stm32f7xx_hal_i2c.c ****     /* If 10bit addressing mode is selected */
 920:Drivers/STM32F7xx_HAL_Driver/Src/stm32f7xx_hal_i2c.c ****     if (hi2c->Init.AddressingMode == I2C_ADDRESSINGMODE_10BIT)
 1161              		.loc 1 920 0
 1162 00b8 FB68     		ldr	r3, [r7, #12]
 1163 00ba DB68     		ldr	r3, [r3, #12]
 1164 00bc 022B     		cmp	r3, #2
 1165 00be 18D1     		bne	.L56
 921:Drivers/STM32F7xx_HAL_Driver/Src/stm32f7xx_hal_i2c.c ****     {
 922:Drivers/STM32F7xx_HAL_Driver/Src/stm32f7xx_hal_i2c.c ****       /* Wait until ADDR flag is set */
 923:Drivers/STM32F7xx_HAL_Driver/Src/stm32f7xx_hal_i2c.c ****       if (I2C_WaitOnFlagUntilTimeout(hi2c, I2C_FLAG_ADDR, RESET, Timeout, tickstart) != HAL_OK)
 1166              		.loc 1 923 0
 1167 00c0 7B69     		ldr	r3, [r7, #20]
 1168 00c2 0093     		str	r3, [sp]
 1169 00c4 3B68     		ldr	r3, [r7]
 1170 00c6 0022     		movs	r2, #0
 1171 00c8 0821     		movs	r1, #8
 1172 00ca F868     		ldr	r0, [r7, #12]
 1173 00cc FFF7FEFF 		bl	I2C_WaitOnFlagUntilTimeout
 1174 00d0 0346     		mov	r3, r0
 1175 00d2 002B     		cmp	r3, #0
 1176 00d4 09D0     		beq	.L57
 924:Drivers/STM32F7xx_HAL_Driver/Src/stm32f7xx_hal_i2c.c ****       {
 925:Drivers/STM32F7xx_HAL_Driver/Src/stm32f7xx_hal_i2c.c ****         /* Disable Address Acknowledge */
 926:Drivers/STM32F7xx_HAL_Driver/Src/stm32f7xx_hal_i2c.c ****         hi2c->Instance->CR2 |= I2C_CR2_NACK;
 1177              		.loc 1 926 0
 1178 00d6 FB68     		ldr	r3, [r7, #12]
 1179 00d8 1B68     		ldr	r3, [r3]
 1180 00da 5A68     		ldr	r2, [r3, #4]
 1181 00dc FB68     		ldr	r3, [r7, #12]
 1182 00de 1B68     		ldr	r3, [r3]
 1183 00e0 42F40042 		orr	r2, r2, #32768
 1184 00e4 5A60     		str	r2, [r3, #4]
 927:Drivers/STM32F7xx_HAL_Driver/Src/stm32f7xx_hal_i2c.c ****         return HAL_TIMEOUT;
 1185              		.loc 1 927 0
 1186 00e6 0323     		movs	r3, #3
 1187 00e8 91E0     		b	.L53
 1188              	.L57:
 928:Drivers/STM32F7xx_HAL_Driver/Src/stm32f7xx_hal_i2c.c ****       }
 929:Drivers/STM32F7xx_HAL_Driver/Src/stm32f7xx_hal_i2c.c **** 
 930:Drivers/STM32F7xx_HAL_Driver/Src/stm32f7xx_hal_i2c.c ****       /* Clear ADDR flag */
 931:Drivers/STM32F7xx_HAL_Driver/Src/stm32f7xx_hal_i2c.c ****       __HAL_I2C_CLEAR_FLAG(hi2c, I2C_FLAG_ADDR);
 1189              		.loc 1 931 0
ARM GAS  /var/folders/n8/cvzdcwlj0vl4g_wtyz1ffy300000gn/T//ccBPNZvy.s 			page 38


 1190 00ea FB68     		ldr	r3, [r7, #12]
 1191 00ec 1B68     		ldr	r3, [r3]
 1192 00ee 0822     		movs	r2, #8
 1193 00f0 DA61     		str	r2, [r3, #28]
 1194              	.L56:
 932:Drivers/STM32F7xx_HAL_Driver/Src/stm32f7xx_hal_i2c.c ****     }
 933:Drivers/STM32F7xx_HAL_Driver/Src/stm32f7xx_hal_i2c.c **** 
 934:Drivers/STM32F7xx_HAL_Driver/Src/stm32f7xx_hal_i2c.c ****     /* Wait until DIR flag is set Transmitter mode */
 935:Drivers/STM32F7xx_HAL_Driver/Src/stm32f7xx_hal_i2c.c ****     if (I2C_WaitOnFlagUntilTimeout(hi2c, I2C_FLAG_DIR, RESET, Timeout, tickstart) != HAL_OK)
 1195              		.loc 1 935 0
 1196 00f2 7B69     		ldr	r3, [r7, #20]
 1197 00f4 0093     		str	r3, [sp]
 1198 00f6 3B68     		ldr	r3, [r7]
 1199 00f8 0022     		movs	r2, #0
 1200 00fa 4FF48031 		mov	r1, #65536
 1201 00fe F868     		ldr	r0, [r7, #12]
 1202 0100 FFF7FEFF 		bl	I2C_WaitOnFlagUntilTimeout
 1203 0104 0346     		mov	r3, r0
 1204 0106 002B     		cmp	r3, #0
 1205 0108 31D0     		beq	.L59
 936:Drivers/STM32F7xx_HAL_Driver/Src/stm32f7xx_hal_i2c.c ****     {
 937:Drivers/STM32F7xx_HAL_Driver/Src/stm32f7xx_hal_i2c.c ****       /* Disable Address Acknowledge */
 938:Drivers/STM32F7xx_HAL_Driver/Src/stm32f7xx_hal_i2c.c ****       hi2c->Instance->CR2 |= I2C_CR2_NACK;
 1206              		.loc 1 938 0
 1207 010a FB68     		ldr	r3, [r7, #12]
 1208 010c 1B68     		ldr	r3, [r3]
 1209 010e 5A68     		ldr	r2, [r3, #4]
 1210 0110 FB68     		ldr	r3, [r7, #12]
 1211 0112 1B68     		ldr	r3, [r3]
 1212 0114 42F40042 		orr	r2, r2, #32768
 1213 0118 5A60     		str	r2, [r3, #4]
 939:Drivers/STM32F7xx_HAL_Driver/Src/stm32f7xx_hal_i2c.c ****       return HAL_TIMEOUT;
 1214              		.loc 1 939 0
 1215 011a 0323     		movs	r3, #3
 1216 011c 77E0     		b	.L53
 1217              	.L62:
 940:Drivers/STM32F7xx_HAL_Driver/Src/stm32f7xx_hal_i2c.c ****     }
 941:Drivers/STM32F7xx_HAL_Driver/Src/stm32f7xx_hal_i2c.c **** 
 942:Drivers/STM32F7xx_HAL_Driver/Src/stm32f7xx_hal_i2c.c ****     while (hi2c->XferCount > 0U)
 943:Drivers/STM32F7xx_HAL_Driver/Src/stm32f7xx_hal_i2c.c ****     {
 944:Drivers/STM32F7xx_HAL_Driver/Src/stm32f7xx_hal_i2c.c ****       /* Wait until TXIS flag is set */
 945:Drivers/STM32F7xx_HAL_Driver/Src/stm32f7xx_hal_i2c.c ****       if (I2C_WaitOnTXISFlagUntilTimeout(hi2c, Timeout, tickstart) != HAL_OK)
 1218              		.loc 1 945 0
 1219 011e 7A69     		ldr	r2, [r7, #20]
 1220 0120 3968     		ldr	r1, [r7]
 1221 0122 F868     		ldr	r0, [r7, #12]
 1222 0124 FFF7FEFF 		bl	I2C_WaitOnTXISFlagUntilTimeout
 1223 0128 0346     		mov	r3, r0
 1224 012a 002B     		cmp	r3, #0
 1225 012c 0FD0     		beq	.L60
 946:Drivers/STM32F7xx_HAL_Driver/Src/stm32f7xx_hal_i2c.c ****       {
 947:Drivers/STM32F7xx_HAL_Driver/Src/stm32f7xx_hal_i2c.c ****         /* Disable Address Acknowledge */
 948:Drivers/STM32F7xx_HAL_Driver/Src/stm32f7xx_hal_i2c.c ****         hi2c->Instance->CR2 |= I2C_CR2_NACK;
 1226              		.loc 1 948 0
 1227 012e FB68     		ldr	r3, [r7, #12]
 1228 0130 1B68     		ldr	r3, [r3]
 1229 0132 5A68     		ldr	r2, [r3, #4]
ARM GAS  /var/folders/n8/cvzdcwlj0vl4g_wtyz1ffy300000gn/T//ccBPNZvy.s 			page 39


 1230 0134 FB68     		ldr	r3, [r7, #12]
 1231 0136 1B68     		ldr	r3, [r3]
 1232 0138 42F40042 		orr	r2, r2, #32768
 1233 013c 5A60     		str	r2, [r3, #4]
 949:Drivers/STM32F7xx_HAL_Driver/Src/stm32f7xx_hal_i2c.c **** 
 950:Drivers/STM32F7xx_HAL_Driver/Src/stm32f7xx_hal_i2c.c ****         if (hi2c->ErrorCode == HAL_I2C_ERROR_AF)
 1234              		.loc 1 950 0
 1235 013e FB68     		ldr	r3, [r7, #12]
 1236 0140 5B6C     		ldr	r3, [r3, #68]
 1237 0142 042B     		cmp	r3, #4
 1238 0144 01D1     		bne	.L61
 951:Drivers/STM32F7xx_HAL_Driver/Src/stm32f7xx_hal_i2c.c ****         {
 952:Drivers/STM32F7xx_HAL_Driver/Src/stm32f7xx_hal_i2c.c ****           return HAL_ERROR;
 1239              		.loc 1 952 0
 1240 0146 0123     		movs	r3, #1
 1241 0148 61E0     		b	.L53
 1242              	.L61:
 953:Drivers/STM32F7xx_HAL_Driver/Src/stm32f7xx_hal_i2c.c ****         }
 954:Drivers/STM32F7xx_HAL_Driver/Src/stm32f7xx_hal_i2c.c ****         else
 955:Drivers/STM32F7xx_HAL_Driver/Src/stm32f7xx_hal_i2c.c ****         {
 956:Drivers/STM32F7xx_HAL_Driver/Src/stm32f7xx_hal_i2c.c ****           return HAL_TIMEOUT;
 1243              		.loc 1 956 0
 1244 014a 0323     		movs	r3, #3
 1245 014c 5FE0     		b	.L53
 1246              	.L60:
 957:Drivers/STM32F7xx_HAL_Driver/Src/stm32f7xx_hal_i2c.c ****         }
 958:Drivers/STM32F7xx_HAL_Driver/Src/stm32f7xx_hal_i2c.c ****       }
 959:Drivers/STM32F7xx_HAL_Driver/Src/stm32f7xx_hal_i2c.c **** 
 960:Drivers/STM32F7xx_HAL_Driver/Src/stm32f7xx_hal_i2c.c ****       /* Write data to TXDR */
 961:Drivers/STM32F7xx_HAL_Driver/Src/stm32f7xx_hal_i2c.c ****       hi2c->Instance->TXDR = (*hi2c->pBuffPtr++);
 1247              		.loc 1 961 0
 1248 014e FB68     		ldr	r3, [r7, #12]
 1249 0150 5B6A     		ldr	r3, [r3, #36]
 1250 0152 591C     		adds	r1, r3, #1
 1251 0154 FA68     		ldr	r2, [r7, #12]
 1252 0156 5162     		str	r1, [r2, #36]
 1253 0158 1A78     		ldrb	r2, [r3]	@ zero_extendqisi2
 1254 015a FB68     		ldr	r3, [r7, #12]
 1255 015c 1B68     		ldr	r3, [r3]
 1256 015e 9A62     		str	r2, [r3, #40]
 962:Drivers/STM32F7xx_HAL_Driver/Src/stm32f7xx_hal_i2c.c ****       hi2c->XferCount--;
 1257              		.loc 1 962 0
 1258 0160 FB68     		ldr	r3, [r7, #12]
 1259 0162 5B8D     		ldrh	r3, [r3, #42]	@ movhi
 1260 0164 9BB2     		uxth	r3, r3
 1261 0166 013B     		subs	r3, r3, #1
 1262 0168 9AB2     		uxth	r2, r3
 1263 016a FB68     		ldr	r3, [r7, #12]
 1264 016c 5A85     		strh	r2, [r3, #42]	@ movhi
 1265              	.L59:
 942:Drivers/STM32F7xx_HAL_Driver/Src/stm32f7xx_hal_i2c.c ****     {
 1266              		.loc 1 942 0
 1267 016e FB68     		ldr	r3, [r7, #12]
 1268 0170 5B8D     		ldrh	r3, [r3, #42]	@ movhi
 1269 0172 9BB2     		uxth	r3, r3
 1270 0174 002B     		cmp	r3, #0
 1271 0176 D2D1     		bne	.L62
ARM GAS  /var/folders/n8/cvzdcwlj0vl4g_wtyz1ffy300000gn/T//ccBPNZvy.s 			page 40


 963:Drivers/STM32F7xx_HAL_Driver/Src/stm32f7xx_hal_i2c.c ****     }
 964:Drivers/STM32F7xx_HAL_Driver/Src/stm32f7xx_hal_i2c.c **** 
 965:Drivers/STM32F7xx_HAL_Driver/Src/stm32f7xx_hal_i2c.c ****     /* Wait until STOP flag is set */
 966:Drivers/STM32F7xx_HAL_Driver/Src/stm32f7xx_hal_i2c.c ****     if (I2C_WaitOnSTOPFlagUntilTimeout(hi2c, Timeout, tickstart) != HAL_OK)
 1272              		.loc 1 966 0
 1273 0178 7A69     		ldr	r2, [r7, #20]
 1274 017a 3968     		ldr	r1, [r7]
 1275 017c F868     		ldr	r0, [r7, #12]
 1276 017e FFF7FEFF 		bl	I2C_WaitOnSTOPFlagUntilTimeout
 1277 0182 0346     		mov	r3, r0
 1278 0184 002B     		cmp	r3, #0
 1279 0186 11D0     		beq	.L63
 967:Drivers/STM32F7xx_HAL_Driver/Src/stm32f7xx_hal_i2c.c ****     {
 968:Drivers/STM32F7xx_HAL_Driver/Src/stm32f7xx_hal_i2c.c ****       /* Disable Address Acknowledge */
 969:Drivers/STM32F7xx_HAL_Driver/Src/stm32f7xx_hal_i2c.c ****       hi2c->Instance->CR2 |= I2C_CR2_NACK;
 1280              		.loc 1 969 0
 1281 0188 FB68     		ldr	r3, [r7, #12]
 1282 018a 1B68     		ldr	r3, [r3]
 1283 018c 5A68     		ldr	r2, [r3, #4]
 1284 018e FB68     		ldr	r3, [r7, #12]
 1285 0190 1B68     		ldr	r3, [r3]
 1286 0192 42F40042 		orr	r2, r2, #32768
 1287 0196 5A60     		str	r2, [r3, #4]
 970:Drivers/STM32F7xx_HAL_Driver/Src/stm32f7xx_hal_i2c.c **** 
 971:Drivers/STM32F7xx_HAL_Driver/Src/stm32f7xx_hal_i2c.c ****       if (hi2c->ErrorCode == HAL_I2C_ERROR_AF)
 1288              		.loc 1 971 0
 1289 0198 FB68     		ldr	r3, [r7, #12]
 1290 019a 5B6C     		ldr	r3, [r3, #68]
 1291 019c 042B     		cmp	r3, #4
 1292 019e 03D1     		bne	.L64
 972:Drivers/STM32F7xx_HAL_Driver/Src/stm32f7xx_hal_i2c.c ****       {
 973:Drivers/STM32F7xx_HAL_Driver/Src/stm32f7xx_hal_i2c.c ****         /* Normal use case for Transmitter mode */
 974:Drivers/STM32F7xx_HAL_Driver/Src/stm32f7xx_hal_i2c.c ****         /* A NACK is generated to confirm the end of transfer */
 975:Drivers/STM32F7xx_HAL_Driver/Src/stm32f7xx_hal_i2c.c ****         hi2c->ErrorCode = HAL_I2C_ERROR_NONE;
 1293              		.loc 1 975 0
 1294 01a0 FB68     		ldr	r3, [r7, #12]
 1295 01a2 0022     		movs	r2, #0
 1296 01a4 5A64     		str	r2, [r3, #68]
 1297 01a6 01E0     		b	.L63
 1298              	.L64:
 976:Drivers/STM32F7xx_HAL_Driver/Src/stm32f7xx_hal_i2c.c ****       }
 977:Drivers/STM32F7xx_HAL_Driver/Src/stm32f7xx_hal_i2c.c ****       else
 978:Drivers/STM32F7xx_HAL_Driver/Src/stm32f7xx_hal_i2c.c ****       {
 979:Drivers/STM32F7xx_HAL_Driver/Src/stm32f7xx_hal_i2c.c ****         return HAL_TIMEOUT;
 1299              		.loc 1 979 0
 1300 01a8 0323     		movs	r3, #3
 1301 01aa 30E0     		b	.L53
 1302              	.L63:
 980:Drivers/STM32F7xx_HAL_Driver/Src/stm32f7xx_hal_i2c.c ****       }
 981:Drivers/STM32F7xx_HAL_Driver/Src/stm32f7xx_hal_i2c.c ****     }
 982:Drivers/STM32F7xx_HAL_Driver/Src/stm32f7xx_hal_i2c.c **** 
 983:Drivers/STM32F7xx_HAL_Driver/Src/stm32f7xx_hal_i2c.c ****     /* Clear STOP flag */
 984:Drivers/STM32F7xx_HAL_Driver/Src/stm32f7xx_hal_i2c.c ****     __HAL_I2C_CLEAR_FLAG(hi2c, I2C_FLAG_STOPF);
 1303              		.loc 1 984 0
 1304 01ac FB68     		ldr	r3, [r7, #12]
 1305 01ae 1B68     		ldr	r3, [r3]
 1306 01b0 2022     		movs	r2, #32
ARM GAS  /var/folders/n8/cvzdcwlj0vl4g_wtyz1ffy300000gn/T//ccBPNZvy.s 			page 41


 1307 01b2 DA61     		str	r2, [r3, #28]
 985:Drivers/STM32F7xx_HAL_Driver/Src/stm32f7xx_hal_i2c.c **** 
 986:Drivers/STM32F7xx_HAL_Driver/Src/stm32f7xx_hal_i2c.c ****     /* Wait until BUSY flag is reset */
 987:Drivers/STM32F7xx_HAL_Driver/Src/stm32f7xx_hal_i2c.c ****     if (I2C_WaitOnFlagUntilTimeout(hi2c, I2C_FLAG_BUSY, SET, Timeout, tickstart) != HAL_OK)
 1308              		.loc 1 987 0
 1309 01b4 7B69     		ldr	r3, [r7, #20]
 1310 01b6 0093     		str	r3, [sp]
 1311 01b8 3B68     		ldr	r3, [r7]
 1312 01ba 0122     		movs	r2, #1
 1313 01bc 4FF40041 		mov	r1, #32768
 1314 01c0 F868     		ldr	r0, [r7, #12]
 1315 01c2 FFF7FEFF 		bl	I2C_WaitOnFlagUntilTimeout
 1316 01c6 0346     		mov	r3, r0
 1317 01c8 002B     		cmp	r3, #0
 1318 01ca 09D0     		beq	.L65
 988:Drivers/STM32F7xx_HAL_Driver/Src/stm32f7xx_hal_i2c.c ****     {
 989:Drivers/STM32F7xx_HAL_Driver/Src/stm32f7xx_hal_i2c.c ****       /* Disable Address Acknowledge */
 990:Drivers/STM32F7xx_HAL_Driver/Src/stm32f7xx_hal_i2c.c ****       hi2c->Instance->CR2 |= I2C_CR2_NACK;
 1319              		.loc 1 990 0
 1320 01cc FB68     		ldr	r3, [r7, #12]
 1321 01ce 1B68     		ldr	r3, [r3]
 1322 01d0 5A68     		ldr	r2, [r3, #4]
 1323 01d2 FB68     		ldr	r3, [r7, #12]
 1324 01d4 1B68     		ldr	r3, [r3]
 1325 01d6 42F40042 		orr	r2, r2, #32768
 1326 01da 5A60     		str	r2, [r3, #4]
 991:Drivers/STM32F7xx_HAL_Driver/Src/stm32f7xx_hal_i2c.c ****       return HAL_TIMEOUT;
 1327              		.loc 1 991 0
 1328 01dc 0323     		movs	r3, #3
 1329 01de 16E0     		b	.L53
 1330              	.L65:
 992:Drivers/STM32F7xx_HAL_Driver/Src/stm32f7xx_hal_i2c.c ****     }
 993:Drivers/STM32F7xx_HAL_Driver/Src/stm32f7xx_hal_i2c.c **** 
 994:Drivers/STM32F7xx_HAL_Driver/Src/stm32f7xx_hal_i2c.c ****     /* Disable Address Acknowledge */
 995:Drivers/STM32F7xx_HAL_Driver/Src/stm32f7xx_hal_i2c.c ****     hi2c->Instance->CR2 |= I2C_CR2_NACK;
 1331              		.loc 1 995 0
 1332 01e0 FB68     		ldr	r3, [r7, #12]
 1333 01e2 1B68     		ldr	r3, [r3]
 1334 01e4 5A68     		ldr	r2, [r3, #4]
 1335 01e6 FB68     		ldr	r3, [r7, #12]
 1336 01e8 1B68     		ldr	r3, [r3]
 1337 01ea 42F40042 		orr	r2, r2, #32768
 1338 01ee 5A60     		str	r2, [r3, #4]
 996:Drivers/STM32F7xx_HAL_Driver/Src/stm32f7xx_hal_i2c.c **** 
 997:Drivers/STM32F7xx_HAL_Driver/Src/stm32f7xx_hal_i2c.c ****     hi2c->State = HAL_I2C_STATE_READY;
 1339              		.loc 1 997 0
 1340 01f0 FB68     		ldr	r3, [r7, #12]
 1341 01f2 2022     		movs	r2, #32
 1342 01f4 83F84120 		strb	r2, [r3, #65]
 998:Drivers/STM32F7xx_HAL_Driver/Src/stm32f7xx_hal_i2c.c ****     hi2c->Mode  = HAL_I2C_MODE_NONE;
 1343              		.loc 1 998 0
 1344 01f8 FB68     		ldr	r3, [r7, #12]
 1345 01fa 0022     		movs	r2, #0
 1346 01fc 83F84220 		strb	r2, [r3, #66]
 999:Drivers/STM32F7xx_HAL_Driver/Src/stm32f7xx_hal_i2c.c **** 
1000:Drivers/STM32F7xx_HAL_Driver/Src/stm32f7xx_hal_i2c.c ****     /* Process Unlocked */
1001:Drivers/STM32F7xx_HAL_Driver/Src/stm32f7xx_hal_i2c.c ****     __HAL_UNLOCK(hi2c);
ARM GAS  /var/folders/n8/cvzdcwlj0vl4g_wtyz1ffy300000gn/T//ccBPNZvy.s 			page 42


 1347              		.loc 1 1001 0
 1348 0200 FB68     		ldr	r3, [r7, #12]
 1349 0202 0022     		movs	r2, #0
 1350 0204 83F84020 		strb	r2, [r3, #64]
1002:Drivers/STM32F7xx_HAL_Driver/Src/stm32f7xx_hal_i2c.c **** 
1003:Drivers/STM32F7xx_HAL_Driver/Src/stm32f7xx_hal_i2c.c ****     return HAL_OK;
 1351              		.loc 1 1003 0
 1352 0208 0023     		movs	r3, #0
 1353 020a 00E0     		b	.L53
 1354              	.L50:
1004:Drivers/STM32F7xx_HAL_Driver/Src/stm32f7xx_hal_i2c.c ****   }
1005:Drivers/STM32F7xx_HAL_Driver/Src/stm32f7xx_hal_i2c.c ****   else
1006:Drivers/STM32F7xx_HAL_Driver/Src/stm32f7xx_hal_i2c.c ****   {
1007:Drivers/STM32F7xx_HAL_Driver/Src/stm32f7xx_hal_i2c.c ****     return HAL_BUSY;
 1355              		.loc 1 1007 0
 1356 020c 0223     		movs	r3, #2
 1357              	.L53:
1008:Drivers/STM32F7xx_HAL_Driver/Src/stm32f7xx_hal_i2c.c ****   }
1009:Drivers/STM32F7xx_HAL_Driver/Src/stm32f7xx_hal_i2c.c **** }
 1358              		.loc 1 1009 0
 1359 020e 1846     		mov	r0, r3
 1360 0210 1837     		adds	r7, r7, #24
 1361              	.LCFI35:
 1362              		.cfi_def_cfa_offset 8
 1363 0212 BD46     		mov	sp, r7
 1364              	.LCFI36:
 1365              		.cfi_def_cfa_register 13
 1366              		@ sp needed
 1367 0214 80BD     		pop	{r7, pc}
 1368              		.cfi_endproc
 1369              	.LFE144:
 1371              		.section	.text.HAL_I2C_Slave_Receive,"ax",%progbits
 1372              		.align	1
 1373              		.global	HAL_I2C_Slave_Receive
 1374              		.syntax unified
 1375              		.thumb
 1376              		.thumb_func
 1377              		.fpu fpv5-sp-d16
 1379              	HAL_I2C_Slave_Receive:
 1380              	.LFB145:
1010:Drivers/STM32F7xx_HAL_Driver/Src/stm32f7xx_hal_i2c.c **** 
1011:Drivers/STM32F7xx_HAL_Driver/Src/stm32f7xx_hal_i2c.c **** /**
1012:Drivers/STM32F7xx_HAL_Driver/Src/stm32f7xx_hal_i2c.c ****   * @brief  Receive in slave mode an amount of data in blocking mode
1013:Drivers/STM32F7xx_HAL_Driver/Src/stm32f7xx_hal_i2c.c ****   * @param  hi2c Pointer to a I2C_HandleTypeDef structure that contains
1014:Drivers/STM32F7xx_HAL_Driver/Src/stm32f7xx_hal_i2c.c ****   *                the configuration information for the specified I2C.
1015:Drivers/STM32F7xx_HAL_Driver/Src/stm32f7xx_hal_i2c.c ****   * @param  pData Pointer to data buffer
1016:Drivers/STM32F7xx_HAL_Driver/Src/stm32f7xx_hal_i2c.c ****   * @param  Size Amount of data to be sent
1017:Drivers/STM32F7xx_HAL_Driver/Src/stm32f7xx_hal_i2c.c ****   * @param  Timeout Timeout duration
1018:Drivers/STM32F7xx_HAL_Driver/Src/stm32f7xx_hal_i2c.c ****   * @retval HAL status
1019:Drivers/STM32F7xx_HAL_Driver/Src/stm32f7xx_hal_i2c.c ****   */
1020:Drivers/STM32F7xx_HAL_Driver/Src/stm32f7xx_hal_i2c.c **** HAL_StatusTypeDef HAL_I2C_Slave_Receive(I2C_HandleTypeDef *hi2c, uint8_t *pData, uint16_t Size, uin
1021:Drivers/STM32F7xx_HAL_Driver/Src/stm32f7xx_hal_i2c.c **** {
 1381              		.loc 1 1021 0
 1382              		.cfi_startproc
 1383              		@ args = 0, pretend = 0, frame = 24
 1384              		@ frame_needed = 1, uses_anonymous_args = 0
 1385 0000 80B5     		push	{r7, lr}
ARM GAS  /var/folders/n8/cvzdcwlj0vl4g_wtyz1ffy300000gn/T//ccBPNZvy.s 			page 43


 1386              	.LCFI37:
 1387              		.cfi_def_cfa_offset 8
 1388              		.cfi_offset 7, -8
 1389              		.cfi_offset 14, -4
 1390 0002 88B0     		sub	sp, sp, #32
 1391              	.LCFI38:
 1392              		.cfi_def_cfa_offset 40
 1393 0004 02AF     		add	r7, sp, #8
 1394              	.LCFI39:
 1395              		.cfi_def_cfa 7, 32
 1396 0006 F860     		str	r0, [r7, #12]
 1397 0008 B960     		str	r1, [r7, #8]
 1398 000a 3B60     		str	r3, [r7]
 1399 000c 1346     		mov	r3, r2	@ movhi
 1400 000e FB80     		strh	r3, [r7, #6]	@ movhi
1022:Drivers/STM32F7xx_HAL_Driver/Src/stm32f7xx_hal_i2c.c ****   uint32_t tickstart = 0U;
 1401              		.loc 1 1022 0
 1402 0010 0023     		movs	r3, #0
 1403 0012 7B61     		str	r3, [r7, #20]
1023:Drivers/STM32F7xx_HAL_Driver/Src/stm32f7xx_hal_i2c.c **** 
1024:Drivers/STM32F7xx_HAL_Driver/Src/stm32f7xx_hal_i2c.c ****   if (hi2c->State == HAL_I2C_STATE_READY)
 1404              		.loc 1 1024 0
 1405 0014 FB68     		ldr	r3, [r7, #12]
 1406 0016 93F84130 		ldrb	r3, [r3, #65]
 1407 001a DBB2     		uxtb	r3, r3
 1408 001c 202B     		cmp	r3, #32
 1409 001e 40F0EF80 		bne	.L67
1025:Drivers/STM32F7xx_HAL_Driver/Src/stm32f7xx_hal_i2c.c ****   {
1026:Drivers/STM32F7xx_HAL_Driver/Src/stm32f7xx_hal_i2c.c ****     if ((pData == NULL) || (Size == 0U))
 1410              		.loc 1 1026 0
 1411 0022 BB68     		ldr	r3, [r7, #8]
 1412 0024 002B     		cmp	r3, #0
 1413 0026 02D0     		beq	.L68
 1414              		.loc 1 1026 0 is_stmt 0 discriminator 1
 1415 0028 FB88     		ldrh	r3, [r7, #6]
 1416 002a 002B     		cmp	r3, #0
 1417 002c 01D1     		bne	.L69
 1418              	.L68:
1027:Drivers/STM32F7xx_HAL_Driver/Src/stm32f7xx_hal_i2c.c ****     {
1028:Drivers/STM32F7xx_HAL_Driver/Src/stm32f7xx_hal_i2c.c ****       return  HAL_ERROR;
 1419              		.loc 1 1028 0 is_stmt 1
 1420 002e 0123     		movs	r3, #1
 1421 0030 E7E0     		b	.L70
 1422              	.L69:
1029:Drivers/STM32F7xx_HAL_Driver/Src/stm32f7xx_hal_i2c.c ****     }
1030:Drivers/STM32F7xx_HAL_Driver/Src/stm32f7xx_hal_i2c.c ****     /* Process Locked */
1031:Drivers/STM32F7xx_HAL_Driver/Src/stm32f7xx_hal_i2c.c ****     __HAL_LOCK(hi2c);
 1423              		.loc 1 1031 0
 1424 0032 FB68     		ldr	r3, [r7, #12]
 1425 0034 93F84030 		ldrb	r3, [r3, #64]	@ zero_extendqisi2
 1426 0038 012B     		cmp	r3, #1
 1427 003a 01D1     		bne	.L71
 1428              		.loc 1 1031 0 is_stmt 0 discriminator 1
 1429 003c 0223     		movs	r3, #2
 1430 003e E0E0     		b	.L70
 1431              	.L71:
 1432              		.loc 1 1031 0 discriminator 2
ARM GAS  /var/folders/n8/cvzdcwlj0vl4g_wtyz1ffy300000gn/T//ccBPNZvy.s 			page 44


 1433 0040 FB68     		ldr	r3, [r7, #12]
 1434 0042 0122     		movs	r2, #1
 1435 0044 83F84020 		strb	r2, [r3, #64]
1032:Drivers/STM32F7xx_HAL_Driver/Src/stm32f7xx_hal_i2c.c **** 
1033:Drivers/STM32F7xx_HAL_Driver/Src/stm32f7xx_hal_i2c.c ****     /* Init tickstart for timeout management*/
1034:Drivers/STM32F7xx_HAL_Driver/Src/stm32f7xx_hal_i2c.c ****     tickstart = HAL_GetTick();
 1436              		.loc 1 1034 0 is_stmt 1 discriminator 2
 1437 0048 FFF7FEFF 		bl	HAL_GetTick
 1438 004c 7861     		str	r0, [r7, #20]
1035:Drivers/STM32F7xx_HAL_Driver/Src/stm32f7xx_hal_i2c.c **** 
1036:Drivers/STM32F7xx_HAL_Driver/Src/stm32f7xx_hal_i2c.c ****     hi2c->State     = HAL_I2C_STATE_BUSY_RX;
 1439              		.loc 1 1036 0 discriminator 2
 1440 004e FB68     		ldr	r3, [r7, #12]
 1441 0050 2222     		movs	r2, #34
 1442 0052 83F84120 		strb	r2, [r3, #65]
1037:Drivers/STM32F7xx_HAL_Driver/Src/stm32f7xx_hal_i2c.c ****     hi2c->Mode      = HAL_I2C_MODE_SLAVE;
 1443              		.loc 1 1037 0 discriminator 2
 1444 0056 FB68     		ldr	r3, [r7, #12]
 1445 0058 2022     		movs	r2, #32
 1446 005a 83F84220 		strb	r2, [r3, #66]
1038:Drivers/STM32F7xx_HAL_Driver/Src/stm32f7xx_hal_i2c.c ****     hi2c->ErrorCode = HAL_I2C_ERROR_NONE;
 1447              		.loc 1 1038 0 discriminator 2
 1448 005e FB68     		ldr	r3, [r7, #12]
 1449 0060 0022     		movs	r2, #0
 1450 0062 5A64     		str	r2, [r3, #68]
1039:Drivers/STM32F7xx_HAL_Driver/Src/stm32f7xx_hal_i2c.c **** 
1040:Drivers/STM32F7xx_HAL_Driver/Src/stm32f7xx_hal_i2c.c ****     /* Prepare transfer parameters */
1041:Drivers/STM32F7xx_HAL_Driver/Src/stm32f7xx_hal_i2c.c ****     hi2c->pBuffPtr  = pData;
 1451              		.loc 1 1041 0 discriminator 2
 1452 0064 FB68     		ldr	r3, [r7, #12]
 1453 0066 BA68     		ldr	r2, [r7, #8]
 1454 0068 5A62     		str	r2, [r3, #36]
1042:Drivers/STM32F7xx_HAL_Driver/Src/stm32f7xx_hal_i2c.c ****     hi2c->XferCount = Size;
 1455              		.loc 1 1042 0 discriminator 2
 1456 006a FB68     		ldr	r3, [r7, #12]
 1457 006c FA88     		ldrh	r2, [r7, #6]	@ movhi
 1458 006e 5A85     		strh	r2, [r3, #42]	@ movhi
1043:Drivers/STM32F7xx_HAL_Driver/Src/stm32f7xx_hal_i2c.c ****     hi2c->XferISR   = NULL;
 1459              		.loc 1 1043 0 discriminator 2
 1460 0070 FB68     		ldr	r3, [r7, #12]
 1461 0072 0022     		movs	r2, #0
 1462 0074 5A63     		str	r2, [r3, #52]
1044:Drivers/STM32F7xx_HAL_Driver/Src/stm32f7xx_hal_i2c.c **** 
1045:Drivers/STM32F7xx_HAL_Driver/Src/stm32f7xx_hal_i2c.c ****     /* Enable Address Acknowledge */
1046:Drivers/STM32F7xx_HAL_Driver/Src/stm32f7xx_hal_i2c.c ****     hi2c->Instance->CR2 &= ~I2C_CR2_NACK;
 1463              		.loc 1 1046 0 discriminator 2
 1464 0076 FB68     		ldr	r3, [r7, #12]
 1465 0078 1B68     		ldr	r3, [r3]
 1466 007a 5A68     		ldr	r2, [r3, #4]
 1467 007c FB68     		ldr	r3, [r7, #12]
 1468 007e 1B68     		ldr	r3, [r3]
 1469 0080 22F40042 		bic	r2, r2, #32768
 1470 0084 5A60     		str	r2, [r3, #4]
1047:Drivers/STM32F7xx_HAL_Driver/Src/stm32f7xx_hal_i2c.c **** 
1048:Drivers/STM32F7xx_HAL_Driver/Src/stm32f7xx_hal_i2c.c ****     /* Wait until ADDR flag is set */
1049:Drivers/STM32F7xx_HAL_Driver/Src/stm32f7xx_hal_i2c.c ****     if (I2C_WaitOnFlagUntilTimeout(hi2c, I2C_FLAG_ADDR, RESET, Timeout, tickstart) != HAL_OK)
 1471              		.loc 1 1049 0 discriminator 2
ARM GAS  /var/folders/n8/cvzdcwlj0vl4g_wtyz1ffy300000gn/T//ccBPNZvy.s 			page 45


 1472 0086 7B69     		ldr	r3, [r7, #20]
 1473 0088 0093     		str	r3, [sp]
 1474 008a 3B68     		ldr	r3, [r7]
 1475 008c 0022     		movs	r2, #0
 1476 008e 0821     		movs	r1, #8
 1477 0090 F868     		ldr	r0, [r7, #12]
 1478 0092 FFF7FEFF 		bl	I2C_WaitOnFlagUntilTimeout
 1479 0096 0346     		mov	r3, r0
 1480 0098 002B     		cmp	r3, #0
 1481 009a 09D0     		beq	.L72
1050:Drivers/STM32F7xx_HAL_Driver/Src/stm32f7xx_hal_i2c.c ****     {
1051:Drivers/STM32F7xx_HAL_Driver/Src/stm32f7xx_hal_i2c.c ****       /* Disable Address Acknowledge */
1052:Drivers/STM32F7xx_HAL_Driver/Src/stm32f7xx_hal_i2c.c ****       hi2c->Instance->CR2 |= I2C_CR2_NACK;
 1482              		.loc 1 1052 0
 1483 009c FB68     		ldr	r3, [r7, #12]
 1484 009e 1B68     		ldr	r3, [r3]
 1485 00a0 5A68     		ldr	r2, [r3, #4]
 1486 00a2 FB68     		ldr	r3, [r7, #12]
 1487 00a4 1B68     		ldr	r3, [r3]
 1488 00a6 42F40042 		orr	r2, r2, #32768
 1489 00aa 5A60     		str	r2, [r3, #4]
1053:Drivers/STM32F7xx_HAL_Driver/Src/stm32f7xx_hal_i2c.c ****       return HAL_TIMEOUT;
 1490              		.loc 1 1053 0
 1491 00ac 0323     		movs	r3, #3
 1492 00ae A8E0     		b	.L70
 1493              	.L72:
1054:Drivers/STM32F7xx_HAL_Driver/Src/stm32f7xx_hal_i2c.c ****     }
1055:Drivers/STM32F7xx_HAL_Driver/Src/stm32f7xx_hal_i2c.c **** 
1056:Drivers/STM32F7xx_HAL_Driver/Src/stm32f7xx_hal_i2c.c ****     /* Clear ADDR flag */
1057:Drivers/STM32F7xx_HAL_Driver/Src/stm32f7xx_hal_i2c.c ****     __HAL_I2C_CLEAR_FLAG(hi2c, I2C_FLAG_ADDR);
 1494              		.loc 1 1057 0
 1495 00b0 FB68     		ldr	r3, [r7, #12]
 1496 00b2 1B68     		ldr	r3, [r3]
 1497 00b4 0822     		movs	r2, #8
 1498 00b6 DA61     		str	r2, [r3, #28]
1058:Drivers/STM32F7xx_HAL_Driver/Src/stm32f7xx_hal_i2c.c **** 
1059:Drivers/STM32F7xx_HAL_Driver/Src/stm32f7xx_hal_i2c.c ****     /* Wait until DIR flag is reset Receiver mode */
1060:Drivers/STM32F7xx_HAL_Driver/Src/stm32f7xx_hal_i2c.c ****     if (I2C_WaitOnFlagUntilTimeout(hi2c, I2C_FLAG_DIR, SET, Timeout, tickstart) != HAL_OK)
 1499              		.loc 1 1060 0
 1500 00b8 7B69     		ldr	r3, [r7, #20]
 1501 00ba 0093     		str	r3, [sp]
 1502 00bc 3B68     		ldr	r3, [r7]
 1503 00be 0122     		movs	r2, #1
 1504 00c0 4FF48031 		mov	r1, #65536
 1505 00c4 F868     		ldr	r0, [r7, #12]
 1506 00c6 FFF7FEFF 		bl	I2C_WaitOnFlagUntilTimeout
 1507 00ca 0346     		mov	r3, r0
 1508 00cc 002B     		cmp	r3, #0
 1509 00ce 4AD0     		beq	.L74
1061:Drivers/STM32F7xx_HAL_Driver/Src/stm32f7xx_hal_i2c.c ****     {
1062:Drivers/STM32F7xx_HAL_Driver/Src/stm32f7xx_hal_i2c.c ****       /* Disable Address Acknowledge */
1063:Drivers/STM32F7xx_HAL_Driver/Src/stm32f7xx_hal_i2c.c ****       hi2c->Instance->CR2 |= I2C_CR2_NACK;
 1510              		.loc 1 1063 0
 1511 00d0 FB68     		ldr	r3, [r7, #12]
 1512 00d2 1B68     		ldr	r3, [r3]
 1513 00d4 5A68     		ldr	r2, [r3, #4]
 1514 00d6 FB68     		ldr	r3, [r7, #12]
ARM GAS  /var/folders/n8/cvzdcwlj0vl4g_wtyz1ffy300000gn/T//ccBPNZvy.s 			page 46


 1515 00d8 1B68     		ldr	r3, [r3]
 1516 00da 42F40042 		orr	r2, r2, #32768
 1517 00de 5A60     		str	r2, [r3, #4]
1064:Drivers/STM32F7xx_HAL_Driver/Src/stm32f7xx_hal_i2c.c ****       return HAL_TIMEOUT;
 1518              		.loc 1 1064 0
 1519 00e0 0323     		movs	r3, #3
 1520 00e2 8EE0     		b	.L70
 1521              	.L78:
1065:Drivers/STM32F7xx_HAL_Driver/Src/stm32f7xx_hal_i2c.c ****     }
1066:Drivers/STM32F7xx_HAL_Driver/Src/stm32f7xx_hal_i2c.c **** 
1067:Drivers/STM32F7xx_HAL_Driver/Src/stm32f7xx_hal_i2c.c ****     while (hi2c->XferCount > 0U)
1068:Drivers/STM32F7xx_HAL_Driver/Src/stm32f7xx_hal_i2c.c ****     {
1069:Drivers/STM32F7xx_HAL_Driver/Src/stm32f7xx_hal_i2c.c ****       /* Wait until RXNE flag is set */
1070:Drivers/STM32F7xx_HAL_Driver/Src/stm32f7xx_hal_i2c.c ****       if (I2C_WaitOnRXNEFlagUntilTimeout(hi2c, Timeout, tickstart) != HAL_OK)
 1522              		.loc 1 1070 0
 1523 00e4 7A69     		ldr	r2, [r7, #20]
 1524 00e6 3968     		ldr	r1, [r7]
 1525 00e8 F868     		ldr	r0, [r7, #12]
 1526 00ea FFF7FEFF 		bl	I2C_WaitOnRXNEFlagUntilTimeout
 1527 00ee 0346     		mov	r3, r0
 1528 00f0 002B     		cmp	r3, #0
 1529 00f2 27D0     		beq	.L75
1071:Drivers/STM32F7xx_HAL_Driver/Src/stm32f7xx_hal_i2c.c ****       {
1072:Drivers/STM32F7xx_HAL_Driver/Src/stm32f7xx_hal_i2c.c ****         /* Disable Address Acknowledge */
1073:Drivers/STM32F7xx_HAL_Driver/Src/stm32f7xx_hal_i2c.c ****         hi2c->Instance->CR2 |= I2C_CR2_NACK;
 1530              		.loc 1 1073 0
 1531 00f4 FB68     		ldr	r3, [r7, #12]
 1532 00f6 1B68     		ldr	r3, [r3]
 1533 00f8 5A68     		ldr	r2, [r3, #4]
 1534 00fa FB68     		ldr	r3, [r7, #12]
 1535 00fc 1B68     		ldr	r3, [r3]
 1536 00fe 42F40042 		orr	r2, r2, #32768
 1537 0102 5A60     		str	r2, [r3, #4]
1074:Drivers/STM32F7xx_HAL_Driver/Src/stm32f7xx_hal_i2c.c **** 
1075:Drivers/STM32F7xx_HAL_Driver/Src/stm32f7xx_hal_i2c.c ****         /* Store Last receive data if any */
1076:Drivers/STM32F7xx_HAL_Driver/Src/stm32f7xx_hal_i2c.c ****         if (__HAL_I2C_GET_FLAG(hi2c, I2C_FLAG_RXNE) == SET)
 1538              		.loc 1 1076 0
 1539 0104 FB68     		ldr	r3, [r7, #12]
 1540 0106 1B68     		ldr	r3, [r3]
 1541 0108 9B69     		ldr	r3, [r3, #24]
 1542 010a 03F00403 		and	r3, r3, #4
 1543 010e 042B     		cmp	r3, #4
 1544 0110 10D1     		bne	.L76
1077:Drivers/STM32F7xx_HAL_Driver/Src/stm32f7xx_hal_i2c.c ****         {
1078:Drivers/STM32F7xx_HAL_Driver/Src/stm32f7xx_hal_i2c.c ****           /* Read data from RXDR */
1079:Drivers/STM32F7xx_HAL_Driver/Src/stm32f7xx_hal_i2c.c ****           (*hi2c->pBuffPtr++) = hi2c->Instance->RXDR;
 1545              		.loc 1 1079 0
 1546 0112 FB68     		ldr	r3, [r7, #12]
 1547 0114 1B68     		ldr	r3, [r3]
 1548 0116 586A     		ldr	r0, [r3, #36]
 1549 0118 FB68     		ldr	r3, [r7, #12]
 1550 011a 5B6A     		ldr	r3, [r3, #36]
 1551 011c 591C     		adds	r1, r3, #1
 1552 011e FA68     		ldr	r2, [r7, #12]
 1553 0120 5162     		str	r1, [r2, #36]
 1554 0122 C2B2     		uxtb	r2, r0
 1555 0124 1A70     		strb	r2, [r3]
ARM GAS  /var/folders/n8/cvzdcwlj0vl4g_wtyz1ffy300000gn/T//ccBPNZvy.s 			page 47


1080:Drivers/STM32F7xx_HAL_Driver/Src/stm32f7xx_hal_i2c.c ****           hi2c->XferCount--;
 1556              		.loc 1 1080 0
 1557 0126 FB68     		ldr	r3, [r7, #12]
 1558 0128 5B8D     		ldrh	r3, [r3, #42]	@ movhi
 1559 012a 9BB2     		uxth	r3, r3
 1560 012c 013B     		subs	r3, r3, #1
 1561 012e 9AB2     		uxth	r2, r3
 1562 0130 FB68     		ldr	r3, [r7, #12]
 1563 0132 5A85     		strh	r2, [r3, #42]	@ movhi
 1564              	.L76:
1081:Drivers/STM32F7xx_HAL_Driver/Src/stm32f7xx_hal_i2c.c ****         }
1082:Drivers/STM32F7xx_HAL_Driver/Src/stm32f7xx_hal_i2c.c **** 
1083:Drivers/STM32F7xx_HAL_Driver/Src/stm32f7xx_hal_i2c.c ****         if (hi2c->ErrorCode == HAL_I2C_ERROR_TIMEOUT)
 1565              		.loc 1 1083 0
 1566 0134 FB68     		ldr	r3, [r7, #12]
 1567 0136 5B6C     		ldr	r3, [r3, #68]
 1568 0138 202B     		cmp	r3, #32
 1569 013a 01D1     		bne	.L77
1084:Drivers/STM32F7xx_HAL_Driver/Src/stm32f7xx_hal_i2c.c ****         {
1085:Drivers/STM32F7xx_HAL_Driver/Src/stm32f7xx_hal_i2c.c ****           return HAL_TIMEOUT;
 1570              		.loc 1 1085 0
 1571 013c 0323     		movs	r3, #3
 1572 013e 60E0     		b	.L70
 1573              	.L77:
1086:Drivers/STM32F7xx_HAL_Driver/Src/stm32f7xx_hal_i2c.c ****         }
1087:Drivers/STM32F7xx_HAL_Driver/Src/stm32f7xx_hal_i2c.c ****         else
1088:Drivers/STM32F7xx_HAL_Driver/Src/stm32f7xx_hal_i2c.c ****         {
1089:Drivers/STM32F7xx_HAL_Driver/Src/stm32f7xx_hal_i2c.c ****           return HAL_ERROR;
 1574              		.loc 1 1089 0
 1575 0140 0123     		movs	r3, #1
 1576 0142 5EE0     		b	.L70
 1577              	.L75:
1090:Drivers/STM32F7xx_HAL_Driver/Src/stm32f7xx_hal_i2c.c ****         }
1091:Drivers/STM32F7xx_HAL_Driver/Src/stm32f7xx_hal_i2c.c ****       }
1092:Drivers/STM32F7xx_HAL_Driver/Src/stm32f7xx_hal_i2c.c **** 
1093:Drivers/STM32F7xx_HAL_Driver/Src/stm32f7xx_hal_i2c.c ****       /* Read data from RXDR */
1094:Drivers/STM32F7xx_HAL_Driver/Src/stm32f7xx_hal_i2c.c ****       (*hi2c->pBuffPtr++) = hi2c->Instance->RXDR;
 1578              		.loc 1 1094 0
 1579 0144 FB68     		ldr	r3, [r7, #12]
 1580 0146 1B68     		ldr	r3, [r3]
 1581 0148 586A     		ldr	r0, [r3, #36]
 1582 014a FB68     		ldr	r3, [r7, #12]
 1583 014c 5B6A     		ldr	r3, [r3, #36]
 1584 014e 591C     		adds	r1, r3, #1
 1585 0150 FA68     		ldr	r2, [r7, #12]
 1586 0152 5162     		str	r1, [r2, #36]
 1587 0154 C2B2     		uxtb	r2, r0
 1588 0156 1A70     		strb	r2, [r3]
1095:Drivers/STM32F7xx_HAL_Driver/Src/stm32f7xx_hal_i2c.c ****       hi2c->XferCount--;
 1589              		.loc 1 1095 0
 1590 0158 FB68     		ldr	r3, [r7, #12]
 1591 015a 5B8D     		ldrh	r3, [r3, #42]	@ movhi
 1592 015c 9BB2     		uxth	r3, r3
 1593 015e 013B     		subs	r3, r3, #1
 1594 0160 9AB2     		uxth	r2, r3
 1595 0162 FB68     		ldr	r3, [r7, #12]
 1596 0164 5A85     		strh	r2, [r3, #42]	@ movhi
ARM GAS  /var/folders/n8/cvzdcwlj0vl4g_wtyz1ffy300000gn/T//ccBPNZvy.s 			page 48


 1597              	.L74:
1067:Drivers/STM32F7xx_HAL_Driver/Src/stm32f7xx_hal_i2c.c ****     {
 1598              		.loc 1 1067 0
 1599 0166 FB68     		ldr	r3, [r7, #12]
 1600 0168 5B8D     		ldrh	r3, [r3, #42]	@ movhi
 1601 016a 9BB2     		uxth	r3, r3
 1602 016c 002B     		cmp	r3, #0
 1603 016e B9D1     		bne	.L78
1096:Drivers/STM32F7xx_HAL_Driver/Src/stm32f7xx_hal_i2c.c ****     }
1097:Drivers/STM32F7xx_HAL_Driver/Src/stm32f7xx_hal_i2c.c **** 
1098:Drivers/STM32F7xx_HAL_Driver/Src/stm32f7xx_hal_i2c.c ****     /* Wait until STOP flag is set */
1099:Drivers/STM32F7xx_HAL_Driver/Src/stm32f7xx_hal_i2c.c ****     if (I2C_WaitOnSTOPFlagUntilTimeout(hi2c, Timeout, tickstart) != HAL_OK)
 1604              		.loc 1 1099 0
 1605 0170 7A69     		ldr	r2, [r7, #20]
 1606 0172 3968     		ldr	r1, [r7]
 1607 0174 F868     		ldr	r0, [r7, #12]
 1608 0176 FFF7FEFF 		bl	I2C_WaitOnSTOPFlagUntilTimeout
 1609 017a 0346     		mov	r3, r0
 1610 017c 002B     		cmp	r3, #0
 1611 017e 0FD0     		beq	.L79
1100:Drivers/STM32F7xx_HAL_Driver/Src/stm32f7xx_hal_i2c.c ****     {
1101:Drivers/STM32F7xx_HAL_Driver/Src/stm32f7xx_hal_i2c.c ****       /* Disable Address Acknowledge */
1102:Drivers/STM32F7xx_HAL_Driver/Src/stm32f7xx_hal_i2c.c ****       hi2c->Instance->CR2 |= I2C_CR2_NACK;
 1612              		.loc 1 1102 0
 1613 0180 FB68     		ldr	r3, [r7, #12]
 1614 0182 1B68     		ldr	r3, [r3]
 1615 0184 5A68     		ldr	r2, [r3, #4]
 1616 0186 FB68     		ldr	r3, [r7, #12]
 1617 0188 1B68     		ldr	r3, [r3]
 1618 018a 42F40042 		orr	r2, r2, #32768
 1619 018e 5A60     		str	r2, [r3, #4]
1103:Drivers/STM32F7xx_HAL_Driver/Src/stm32f7xx_hal_i2c.c **** 
1104:Drivers/STM32F7xx_HAL_Driver/Src/stm32f7xx_hal_i2c.c ****       if (hi2c->ErrorCode == HAL_I2C_ERROR_AF)
 1620              		.loc 1 1104 0
 1621 0190 FB68     		ldr	r3, [r7, #12]
 1622 0192 5B6C     		ldr	r3, [r3, #68]
 1623 0194 042B     		cmp	r3, #4
 1624 0196 01D1     		bne	.L80
1105:Drivers/STM32F7xx_HAL_Driver/Src/stm32f7xx_hal_i2c.c ****       {
1106:Drivers/STM32F7xx_HAL_Driver/Src/stm32f7xx_hal_i2c.c ****         return HAL_ERROR;
 1625              		.loc 1 1106 0
 1626 0198 0123     		movs	r3, #1
 1627 019a 32E0     		b	.L70
 1628              	.L80:
1107:Drivers/STM32F7xx_HAL_Driver/Src/stm32f7xx_hal_i2c.c ****       }
1108:Drivers/STM32F7xx_HAL_Driver/Src/stm32f7xx_hal_i2c.c ****       else
1109:Drivers/STM32F7xx_HAL_Driver/Src/stm32f7xx_hal_i2c.c ****       {
1110:Drivers/STM32F7xx_HAL_Driver/Src/stm32f7xx_hal_i2c.c ****         return HAL_TIMEOUT;
 1629              		.loc 1 1110 0
 1630 019c 0323     		movs	r3, #3
 1631 019e 30E0     		b	.L70
 1632              	.L79:
1111:Drivers/STM32F7xx_HAL_Driver/Src/stm32f7xx_hal_i2c.c ****       }
1112:Drivers/STM32F7xx_HAL_Driver/Src/stm32f7xx_hal_i2c.c ****     }
1113:Drivers/STM32F7xx_HAL_Driver/Src/stm32f7xx_hal_i2c.c **** 
1114:Drivers/STM32F7xx_HAL_Driver/Src/stm32f7xx_hal_i2c.c ****     /* Clear STOP flag */
1115:Drivers/STM32F7xx_HAL_Driver/Src/stm32f7xx_hal_i2c.c ****     __HAL_I2C_CLEAR_FLAG(hi2c, I2C_FLAG_STOPF);
ARM GAS  /var/folders/n8/cvzdcwlj0vl4g_wtyz1ffy300000gn/T//ccBPNZvy.s 			page 49


 1633              		.loc 1 1115 0
 1634 01a0 FB68     		ldr	r3, [r7, #12]
 1635 01a2 1B68     		ldr	r3, [r3]
 1636 01a4 2022     		movs	r2, #32
 1637 01a6 DA61     		str	r2, [r3, #28]
1116:Drivers/STM32F7xx_HAL_Driver/Src/stm32f7xx_hal_i2c.c **** 
1117:Drivers/STM32F7xx_HAL_Driver/Src/stm32f7xx_hal_i2c.c ****     /* Wait until BUSY flag is reset */
1118:Drivers/STM32F7xx_HAL_Driver/Src/stm32f7xx_hal_i2c.c ****     if (I2C_WaitOnFlagUntilTimeout(hi2c, I2C_FLAG_BUSY, SET, Timeout, tickstart) != HAL_OK)
 1638              		.loc 1 1118 0
 1639 01a8 7B69     		ldr	r3, [r7, #20]
 1640 01aa 0093     		str	r3, [sp]
 1641 01ac 3B68     		ldr	r3, [r7]
 1642 01ae 0122     		movs	r2, #1
 1643 01b0 4FF40041 		mov	r1, #32768
 1644 01b4 F868     		ldr	r0, [r7, #12]
 1645 01b6 FFF7FEFF 		bl	I2C_WaitOnFlagUntilTimeout
 1646 01ba 0346     		mov	r3, r0
 1647 01bc 002B     		cmp	r3, #0
 1648 01be 09D0     		beq	.L81
1119:Drivers/STM32F7xx_HAL_Driver/Src/stm32f7xx_hal_i2c.c ****     {
1120:Drivers/STM32F7xx_HAL_Driver/Src/stm32f7xx_hal_i2c.c ****       /* Disable Address Acknowledge */
1121:Drivers/STM32F7xx_HAL_Driver/Src/stm32f7xx_hal_i2c.c ****       hi2c->Instance->CR2 |= I2C_CR2_NACK;
 1649              		.loc 1 1121 0
 1650 01c0 FB68     		ldr	r3, [r7, #12]
 1651 01c2 1B68     		ldr	r3, [r3]
 1652 01c4 5A68     		ldr	r2, [r3, #4]
 1653 01c6 FB68     		ldr	r3, [r7, #12]
 1654 01c8 1B68     		ldr	r3, [r3]
 1655 01ca 42F40042 		orr	r2, r2, #32768
 1656 01ce 5A60     		str	r2, [r3, #4]
1122:Drivers/STM32F7xx_HAL_Driver/Src/stm32f7xx_hal_i2c.c ****       return HAL_TIMEOUT;
 1657              		.loc 1 1122 0
 1658 01d0 0323     		movs	r3, #3
 1659 01d2 16E0     		b	.L70
 1660              	.L81:
1123:Drivers/STM32F7xx_HAL_Driver/Src/stm32f7xx_hal_i2c.c ****     }
1124:Drivers/STM32F7xx_HAL_Driver/Src/stm32f7xx_hal_i2c.c **** 
1125:Drivers/STM32F7xx_HAL_Driver/Src/stm32f7xx_hal_i2c.c ****     /* Disable Address Acknowledge */
1126:Drivers/STM32F7xx_HAL_Driver/Src/stm32f7xx_hal_i2c.c ****     hi2c->Instance->CR2 |= I2C_CR2_NACK;
 1661              		.loc 1 1126 0
 1662 01d4 FB68     		ldr	r3, [r7, #12]
 1663 01d6 1B68     		ldr	r3, [r3]
 1664 01d8 5A68     		ldr	r2, [r3, #4]
 1665 01da FB68     		ldr	r3, [r7, #12]
 1666 01dc 1B68     		ldr	r3, [r3]
 1667 01de 42F40042 		orr	r2, r2, #32768
 1668 01e2 5A60     		str	r2, [r3, #4]
1127:Drivers/STM32F7xx_HAL_Driver/Src/stm32f7xx_hal_i2c.c **** 
1128:Drivers/STM32F7xx_HAL_Driver/Src/stm32f7xx_hal_i2c.c ****     hi2c->State = HAL_I2C_STATE_READY;
 1669              		.loc 1 1128 0
 1670 01e4 FB68     		ldr	r3, [r7, #12]
 1671 01e6 2022     		movs	r2, #32
 1672 01e8 83F84120 		strb	r2, [r3, #65]
1129:Drivers/STM32F7xx_HAL_Driver/Src/stm32f7xx_hal_i2c.c ****     hi2c->Mode  = HAL_I2C_MODE_NONE;
 1673              		.loc 1 1129 0
 1674 01ec FB68     		ldr	r3, [r7, #12]
 1675 01ee 0022     		movs	r2, #0
ARM GAS  /var/folders/n8/cvzdcwlj0vl4g_wtyz1ffy300000gn/T//ccBPNZvy.s 			page 50


 1676 01f0 83F84220 		strb	r2, [r3, #66]
1130:Drivers/STM32F7xx_HAL_Driver/Src/stm32f7xx_hal_i2c.c **** 
1131:Drivers/STM32F7xx_HAL_Driver/Src/stm32f7xx_hal_i2c.c ****     /* Process Unlocked */
1132:Drivers/STM32F7xx_HAL_Driver/Src/stm32f7xx_hal_i2c.c ****     __HAL_UNLOCK(hi2c);
 1677              		.loc 1 1132 0
 1678 01f4 FB68     		ldr	r3, [r7, #12]
 1679 01f6 0022     		movs	r2, #0
 1680 01f8 83F84020 		strb	r2, [r3, #64]
1133:Drivers/STM32F7xx_HAL_Driver/Src/stm32f7xx_hal_i2c.c **** 
1134:Drivers/STM32F7xx_HAL_Driver/Src/stm32f7xx_hal_i2c.c ****     return HAL_OK;
 1681              		.loc 1 1134 0
 1682 01fc 0023     		movs	r3, #0
 1683 01fe 00E0     		b	.L70
 1684              	.L67:
1135:Drivers/STM32F7xx_HAL_Driver/Src/stm32f7xx_hal_i2c.c ****   }
1136:Drivers/STM32F7xx_HAL_Driver/Src/stm32f7xx_hal_i2c.c ****   else
1137:Drivers/STM32F7xx_HAL_Driver/Src/stm32f7xx_hal_i2c.c ****   {
1138:Drivers/STM32F7xx_HAL_Driver/Src/stm32f7xx_hal_i2c.c ****     return HAL_BUSY;
 1685              		.loc 1 1138 0
 1686 0200 0223     		movs	r3, #2
 1687              	.L70:
1139:Drivers/STM32F7xx_HAL_Driver/Src/stm32f7xx_hal_i2c.c ****   }
1140:Drivers/STM32F7xx_HAL_Driver/Src/stm32f7xx_hal_i2c.c **** }
 1688              		.loc 1 1140 0
 1689 0202 1846     		mov	r0, r3
 1690 0204 1837     		adds	r7, r7, #24
 1691              	.LCFI40:
 1692              		.cfi_def_cfa_offset 8
 1693 0206 BD46     		mov	sp, r7
 1694              	.LCFI41:
 1695              		.cfi_def_cfa_register 13
 1696              		@ sp needed
 1697 0208 80BD     		pop	{r7, pc}
 1698              		.cfi_endproc
 1699              	.LFE145:
 1701              		.section	.text.HAL_I2C_Master_Transmit_IT,"ax",%progbits
 1702              		.align	1
 1703              		.global	HAL_I2C_Master_Transmit_IT
 1704              		.syntax unified
 1705              		.thumb
 1706              		.thumb_func
 1707              		.fpu fpv5-sp-d16
 1709              	HAL_I2C_Master_Transmit_IT:
 1710              	.LFB146:
1141:Drivers/STM32F7xx_HAL_Driver/Src/stm32f7xx_hal_i2c.c **** 
1142:Drivers/STM32F7xx_HAL_Driver/Src/stm32f7xx_hal_i2c.c **** /**
1143:Drivers/STM32F7xx_HAL_Driver/Src/stm32f7xx_hal_i2c.c ****   * @brief  Transmit in master mode an amount of data in non-blocking mode with Interrupt
1144:Drivers/STM32F7xx_HAL_Driver/Src/stm32f7xx_hal_i2c.c ****   * @param  hi2c Pointer to a I2C_HandleTypeDef structure that contains
1145:Drivers/STM32F7xx_HAL_Driver/Src/stm32f7xx_hal_i2c.c ****   *                the configuration information for the specified I2C.
1146:Drivers/STM32F7xx_HAL_Driver/Src/stm32f7xx_hal_i2c.c ****   * @param  DevAddress Target device address which contain device 7 or 10 bits address value
1147:Drivers/STM32F7xx_HAL_Driver/Src/stm32f7xx_hal_i2c.c ****   *         in datasheet must be shifted to the left before calling the interface
1148:Drivers/STM32F7xx_HAL_Driver/Src/stm32f7xx_hal_i2c.c ****   * @param  pData Pointer to data buffer
1149:Drivers/STM32F7xx_HAL_Driver/Src/stm32f7xx_hal_i2c.c ****   * @param  Size Amount of data to be sent
1150:Drivers/STM32F7xx_HAL_Driver/Src/stm32f7xx_hal_i2c.c ****   * @retval HAL status
1151:Drivers/STM32F7xx_HAL_Driver/Src/stm32f7xx_hal_i2c.c ****   */
1152:Drivers/STM32F7xx_HAL_Driver/Src/stm32f7xx_hal_i2c.c **** HAL_StatusTypeDef HAL_I2C_Master_Transmit_IT(I2C_HandleTypeDef *hi2c, uint16_t DevAddress, uint8_t 
1153:Drivers/STM32F7xx_HAL_Driver/Src/stm32f7xx_hal_i2c.c **** {
ARM GAS  /var/folders/n8/cvzdcwlj0vl4g_wtyz1ffy300000gn/T//ccBPNZvy.s 			page 51


 1711              		.loc 1 1153 0
 1712              		.cfi_startproc
 1713              		@ args = 0, pretend = 0, frame = 24
 1714              		@ frame_needed = 1, uses_anonymous_args = 0
 1715 0000 80B5     		push	{r7, lr}
 1716              	.LCFI42:
 1717              		.cfi_def_cfa_offset 8
 1718              		.cfi_offset 7, -8
 1719              		.cfi_offset 14, -4
 1720 0002 88B0     		sub	sp, sp, #32
 1721              	.LCFI43:
 1722              		.cfi_def_cfa_offset 40
 1723 0004 02AF     		add	r7, sp, #8
 1724              	.LCFI44:
 1725              		.cfi_def_cfa 7, 32
 1726 0006 F860     		str	r0, [r7, #12]
 1727 0008 7A60     		str	r2, [r7, #4]
 1728 000a 1A46     		mov	r2, r3
 1729 000c 0B46     		mov	r3, r1	@ movhi
 1730 000e 7B81     		strh	r3, [r7, #10]	@ movhi
 1731 0010 1346     		mov	r3, r2	@ movhi
 1732 0012 3B81     		strh	r3, [r7, #8]	@ movhi
1154:Drivers/STM32F7xx_HAL_Driver/Src/stm32f7xx_hal_i2c.c ****   uint32_t xfermode = 0U;
 1733              		.loc 1 1154 0
 1734 0014 0023     		movs	r3, #0
 1735 0016 7B61     		str	r3, [r7, #20]
1155:Drivers/STM32F7xx_HAL_Driver/Src/stm32f7xx_hal_i2c.c **** 
1156:Drivers/STM32F7xx_HAL_Driver/Src/stm32f7xx_hal_i2c.c ****   if (hi2c->State == HAL_I2C_STATE_READY)
 1736              		.loc 1 1156 0
 1737 0018 FB68     		ldr	r3, [r7, #12]
 1738 001a 93F84130 		ldrb	r3, [r3, #65]
 1739 001e DBB2     		uxtb	r3, r3
 1740 0020 202B     		cmp	r3, #32
 1741 0022 53D1     		bne	.L83
1157:Drivers/STM32F7xx_HAL_Driver/Src/stm32f7xx_hal_i2c.c ****   {
1158:Drivers/STM32F7xx_HAL_Driver/Src/stm32f7xx_hal_i2c.c ****     if (__HAL_I2C_GET_FLAG(hi2c, I2C_FLAG_BUSY) == SET)
 1742              		.loc 1 1158 0
 1743 0024 FB68     		ldr	r3, [r7, #12]
 1744 0026 1B68     		ldr	r3, [r3]
 1745 0028 9B69     		ldr	r3, [r3, #24]
 1746 002a 03F40043 		and	r3, r3, #32768
 1747 002e B3F5004F 		cmp	r3, #32768
 1748 0032 01D1     		bne	.L84
1159:Drivers/STM32F7xx_HAL_Driver/Src/stm32f7xx_hal_i2c.c ****     {
1160:Drivers/STM32F7xx_HAL_Driver/Src/stm32f7xx_hal_i2c.c ****       return HAL_BUSY;
 1749              		.loc 1 1160 0
 1750 0034 0223     		movs	r3, #2
 1751 0036 4AE0     		b	.L85
 1752              	.L84:
1161:Drivers/STM32F7xx_HAL_Driver/Src/stm32f7xx_hal_i2c.c ****     }
1162:Drivers/STM32F7xx_HAL_Driver/Src/stm32f7xx_hal_i2c.c **** 
1163:Drivers/STM32F7xx_HAL_Driver/Src/stm32f7xx_hal_i2c.c ****     /* Process Locked */
1164:Drivers/STM32F7xx_HAL_Driver/Src/stm32f7xx_hal_i2c.c ****     __HAL_LOCK(hi2c);
 1753              		.loc 1 1164 0
 1754 0038 FB68     		ldr	r3, [r7, #12]
 1755 003a 93F84030 		ldrb	r3, [r3, #64]	@ zero_extendqisi2
 1756 003e 012B     		cmp	r3, #1
ARM GAS  /var/folders/n8/cvzdcwlj0vl4g_wtyz1ffy300000gn/T//ccBPNZvy.s 			page 52


 1757 0040 01D1     		bne	.L86
 1758              		.loc 1 1164 0 is_stmt 0 discriminator 1
 1759 0042 0223     		movs	r3, #2
 1760 0044 43E0     		b	.L85
 1761              	.L86:
 1762              		.loc 1 1164 0 discriminator 2
 1763 0046 FB68     		ldr	r3, [r7, #12]
 1764 0048 0122     		movs	r2, #1
 1765 004a 83F84020 		strb	r2, [r3, #64]
1165:Drivers/STM32F7xx_HAL_Driver/Src/stm32f7xx_hal_i2c.c **** 
1166:Drivers/STM32F7xx_HAL_Driver/Src/stm32f7xx_hal_i2c.c ****     hi2c->State       = HAL_I2C_STATE_BUSY_TX;
 1766              		.loc 1 1166 0 is_stmt 1 discriminator 2
 1767 004e FB68     		ldr	r3, [r7, #12]
 1768 0050 2122     		movs	r2, #33
 1769 0052 83F84120 		strb	r2, [r3, #65]
1167:Drivers/STM32F7xx_HAL_Driver/Src/stm32f7xx_hal_i2c.c ****     hi2c->Mode        = HAL_I2C_MODE_MASTER;
 1770              		.loc 1 1167 0 discriminator 2
 1771 0056 FB68     		ldr	r3, [r7, #12]
 1772 0058 1022     		movs	r2, #16
 1773 005a 83F84220 		strb	r2, [r3, #66]
1168:Drivers/STM32F7xx_HAL_Driver/Src/stm32f7xx_hal_i2c.c ****     hi2c->ErrorCode   = HAL_I2C_ERROR_NONE;
 1774              		.loc 1 1168 0 discriminator 2
 1775 005e FB68     		ldr	r3, [r7, #12]
 1776 0060 0022     		movs	r2, #0
 1777 0062 5A64     		str	r2, [r3, #68]
1169:Drivers/STM32F7xx_HAL_Driver/Src/stm32f7xx_hal_i2c.c **** 
1170:Drivers/STM32F7xx_HAL_Driver/Src/stm32f7xx_hal_i2c.c ****     /* Prepare transfer parameters */
1171:Drivers/STM32F7xx_HAL_Driver/Src/stm32f7xx_hal_i2c.c ****     hi2c->pBuffPtr    = pData;
 1778              		.loc 1 1171 0 discriminator 2
 1779 0064 FB68     		ldr	r3, [r7, #12]
 1780 0066 7A68     		ldr	r2, [r7, #4]
 1781 0068 5A62     		str	r2, [r3, #36]
1172:Drivers/STM32F7xx_HAL_Driver/Src/stm32f7xx_hal_i2c.c ****     hi2c->XferCount   = Size;
 1782              		.loc 1 1172 0 discriminator 2
 1783 006a FB68     		ldr	r3, [r7, #12]
 1784 006c 3A89     		ldrh	r2, [r7, #8]	@ movhi
 1785 006e 5A85     		strh	r2, [r3, #42]	@ movhi
1173:Drivers/STM32F7xx_HAL_Driver/Src/stm32f7xx_hal_i2c.c ****     hi2c->XferOptions = I2C_NO_OPTION_FRAME;
 1786              		.loc 1 1173 0 discriminator 2
 1787 0070 FB68     		ldr	r3, [r7, #12]
 1788 0072 194A     		ldr	r2, .L89
 1789 0074 DA62     		str	r2, [r3, #44]
1174:Drivers/STM32F7xx_HAL_Driver/Src/stm32f7xx_hal_i2c.c ****     hi2c->XferISR     = I2C_Master_ISR_IT;
 1790              		.loc 1 1174 0 discriminator 2
 1791 0076 FB68     		ldr	r3, [r7, #12]
 1792 0078 184A     		ldr	r2, .L89+4
 1793 007a 5A63     		str	r2, [r3, #52]
1175:Drivers/STM32F7xx_HAL_Driver/Src/stm32f7xx_hal_i2c.c **** 
1176:Drivers/STM32F7xx_HAL_Driver/Src/stm32f7xx_hal_i2c.c ****     if (hi2c->XferCount > MAX_NBYTE_SIZE)
 1794              		.loc 1 1176 0 discriminator 2
 1795 007c FB68     		ldr	r3, [r7, #12]
 1796 007e 5B8D     		ldrh	r3, [r3, #42]	@ movhi
 1797 0080 9BB2     		uxth	r3, r3
 1798 0082 FF2B     		cmp	r3, #255
 1799 0084 06D9     		bls	.L87
1177:Drivers/STM32F7xx_HAL_Driver/Src/stm32f7xx_hal_i2c.c ****     {
1178:Drivers/STM32F7xx_HAL_Driver/Src/stm32f7xx_hal_i2c.c ****       hi2c->XferSize = MAX_NBYTE_SIZE;
ARM GAS  /var/folders/n8/cvzdcwlj0vl4g_wtyz1ffy300000gn/T//ccBPNZvy.s 			page 53


 1800              		.loc 1 1178 0
 1801 0086 FB68     		ldr	r3, [r7, #12]
 1802 0088 FF22     		movs	r2, #255
 1803 008a 1A85     		strh	r2, [r3, #40]	@ movhi
1179:Drivers/STM32F7xx_HAL_Driver/Src/stm32f7xx_hal_i2c.c ****       xfermode = I2C_RELOAD_MODE;
 1804              		.loc 1 1179 0
 1805 008c 4FF08073 		mov	r3, #16777216
 1806 0090 7B61     		str	r3, [r7, #20]
 1807 0092 07E0     		b	.L88
 1808              	.L87:
1180:Drivers/STM32F7xx_HAL_Driver/Src/stm32f7xx_hal_i2c.c ****     }
1181:Drivers/STM32F7xx_HAL_Driver/Src/stm32f7xx_hal_i2c.c ****     else
1182:Drivers/STM32F7xx_HAL_Driver/Src/stm32f7xx_hal_i2c.c ****     {
1183:Drivers/STM32F7xx_HAL_Driver/Src/stm32f7xx_hal_i2c.c ****       hi2c->XferSize = hi2c->XferCount;
 1809              		.loc 1 1183 0
 1810 0094 FB68     		ldr	r3, [r7, #12]
 1811 0096 5B8D     		ldrh	r3, [r3, #42]	@ movhi
 1812 0098 9AB2     		uxth	r2, r3
 1813 009a FB68     		ldr	r3, [r7, #12]
 1814 009c 1A85     		strh	r2, [r3, #40]	@ movhi
1184:Drivers/STM32F7xx_HAL_Driver/Src/stm32f7xx_hal_i2c.c ****       xfermode = I2C_AUTOEND_MODE;
 1815              		.loc 1 1184 0
 1816 009e 4FF00073 		mov	r3, #33554432
 1817 00a2 7B61     		str	r3, [r7, #20]
 1818              	.L88:
1185:Drivers/STM32F7xx_HAL_Driver/Src/stm32f7xx_hal_i2c.c ****     }
1186:Drivers/STM32F7xx_HAL_Driver/Src/stm32f7xx_hal_i2c.c **** 
1187:Drivers/STM32F7xx_HAL_Driver/Src/stm32f7xx_hal_i2c.c ****     /* Send Slave Address */
1188:Drivers/STM32F7xx_HAL_Driver/Src/stm32f7xx_hal_i2c.c ****     /* Set NBYTES to write and reload if hi2c->XferCount > MAX_NBYTE_SIZE */
1189:Drivers/STM32F7xx_HAL_Driver/Src/stm32f7xx_hal_i2c.c ****     I2C_TransferConfig(hi2c, DevAddress, hi2c->XferSize, xfermode, I2C_GENERATE_START_WRITE);
 1819              		.loc 1 1189 0
 1820 00a4 FB68     		ldr	r3, [r7, #12]
 1821 00a6 1B8D     		ldrh	r3, [r3, #40]
 1822 00a8 DAB2     		uxtb	r2, r3
 1823 00aa 7989     		ldrh	r1, [r7, #10]
 1824 00ac 0C4B     		ldr	r3, .L89+8
 1825 00ae 0093     		str	r3, [sp]
 1826 00b0 7B69     		ldr	r3, [r7, #20]
 1827 00b2 F868     		ldr	r0, [r7, #12]
 1828 00b4 FFF7FEFF 		bl	I2C_TransferConfig
1190:Drivers/STM32F7xx_HAL_Driver/Src/stm32f7xx_hal_i2c.c **** 
1191:Drivers/STM32F7xx_HAL_Driver/Src/stm32f7xx_hal_i2c.c ****     /* Process Unlocked */
1192:Drivers/STM32F7xx_HAL_Driver/Src/stm32f7xx_hal_i2c.c ****     __HAL_UNLOCK(hi2c);
 1829              		.loc 1 1192 0
 1830 00b8 FB68     		ldr	r3, [r7, #12]
 1831 00ba 0022     		movs	r2, #0
 1832 00bc 83F84020 		strb	r2, [r3, #64]
1193:Drivers/STM32F7xx_HAL_Driver/Src/stm32f7xx_hal_i2c.c **** 
1194:Drivers/STM32F7xx_HAL_Driver/Src/stm32f7xx_hal_i2c.c ****     /* Note : The I2C interrupts must be enabled after unlocking current process
1195:Drivers/STM32F7xx_HAL_Driver/Src/stm32f7xx_hal_i2c.c ****               to avoid the risk of I2C interrupt handle execution before current
1196:Drivers/STM32F7xx_HAL_Driver/Src/stm32f7xx_hal_i2c.c ****               process unlock */
1197:Drivers/STM32F7xx_HAL_Driver/Src/stm32f7xx_hal_i2c.c **** 
1198:Drivers/STM32F7xx_HAL_Driver/Src/stm32f7xx_hal_i2c.c ****     /* Enable ERR, TC, STOP, NACK, TXI interrupt */
1199:Drivers/STM32F7xx_HAL_Driver/Src/stm32f7xx_hal_i2c.c ****     /* possible to enable all of these */
1200:Drivers/STM32F7xx_HAL_Driver/Src/stm32f7xx_hal_i2c.c ****     /* I2C_IT_ERRI | I2C_IT_TCI| I2C_IT_STOPI| I2C_IT_NACKI | I2C_IT_ADDRI | I2C_IT_RXI | I2C_IT_TX
1201:Drivers/STM32F7xx_HAL_Driver/Src/stm32f7xx_hal_i2c.c ****     I2C_Enable_IRQ(hi2c, I2C_XFER_TX_IT);
 1833              		.loc 1 1201 0
ARM GAS  /var/folders/n8/cvzdcwlj0vl4g_wtyz1ffy300000gn/T//ccBPNZvy.s 			page 54


 1834 00c0 0121     		movs	r1, #1
 1835 00c2 F868     		ldr	r0, [r7, #12]
 1836 00c4 FFF7FEFF 		bl	I2C_Enable_IRQ
1202:Drivers/STM32F7xx_HAL_Driver/Src/stm32f7xx_hal_i2c.c **** 
1203:Drivers/STM32F7xx_HAL_Driver/Src/stm32f7xx_hal_i2c.c ****     return HAL_OK;
 1837              		.loc 1 1203 0
 1838 00c8 0023     		movs	r3, #0
 1839 00ca 00E0     		b	.L85
 1840              	.L83:
1204:Drivers/STM32F7xx_HAL_Driver/Src/stm32f7xx_hal_i2c.c ****   }
1205:Drivers/STM32F7xx_HAL_Driver/Src/stm32f7xx_hal_i2c.c ****   else
1206:Drivers/STM32F7xx_HAL_Driver/Src/stm32f7xx_hal_i2c.c ****   {
1207:Drivers/STM32F7xx_HAL_Driver/Src/stm32f7xx_hal_i2c.c ****     return HAL_BUSY;
 1841              		.loc 1 1207 0
 1842 00cc 0223     		movs	r3, #2
 1843              	.L85:
1208:Drivers/STM32F7xx_HAL_Driver/Src/stm32f7xx_hal_i2c.c ****   }
1209:Drivers/STM32F7xx_HAL_Driver/Src/stm32f7xx_hal_i2c.c **** }
 1844              		.loc 1 1209 0
 1845 00ce 1846     		mov	r0, r3
 1846 00d0 1837     		adds	r7, r7, #24
 1847              	.LCFI45:
 1848              		.cfi_def_cfa_offset 8
 1849 00d2 BD46     		mov	sp, r7
 1850              	.LCFI46:
 1851              		.cfi_def_cfa_register 13
 1852              		@ sp needed
 1853 00d4 80BD     		pop	{r7, pc}
 1854              	.L90:
 1855 00d6 00BF     		.align	2
 1856              	.L89:
 1857 00d8 0000FFFF 		.word	-65536
 1858 00dc 00000000 		.word	I2C_Master_ISR_IT
 1859 00e0 00200080 		.word	-2147475456
 1860              		.cfi_endproc
 1861              	.LFE146:
 1863              		.section	.text.HAL_I2C_Master_Receive_IT,"ax",%progbits
 1864              		.align	1
 1865              		.global	HAL_I2C_Master_Receive_IT
 1866              		.syntax unified
 1867              		.thumb
 1868              		.thumb_func
 1869              		.fpu fpv5-sp-d16
 1871              	HAL_I2C_Master_Receive_IT:
 1872              	.LFB147:
1210:Drivers/STM32F7xx_HAL_Driver/Src/stm32f7xx_hal_i2c.c **** 
1211:Drivers/STM32F7xx_HAL_Driver/Src/stm32f7xx_hal_i2c.c **** /**
1212:Drivers/STM32F7xx_HAL_Driver/Src/stm32f7xx_hal_i2c.c ****   * @brief  Receive in master mode an amount of data in non-blocking mode with Interrupt
1213:Drivers/STM32F7xx_HAL_Driver/Src/stm32f7xx_hal_i2c.c ****   * @param  hi2c Pointer to a I2C_HandleTypeDef structure that contains
1214:Drivers/STM32F7xx_HAL_Driver/Src/stm32f7xx_hal_i2c.c ****   *                the configuration information for the specified I2C.
1215:Drivers/STM32F7xx_HAL_Driver/Src/stm32f7xx_hal_i2c.c ****   * @param  DevAddress Target device address which contain device 7 or 10 bits address value
1216:Drivers/STM32F7xx_HAL_Driver/Src/stm32f7xx_hal_i2c.c ****   *         in datasheet must be shifted to the left before calling the interface
1217:Drivers/STM32F7xx_HAL_Driver/Src/stm32f7xx_hal_i2c.c ****   * @param  pData Pointer to data buffer
1218:Drivers/STM32F7xx_HAL_Driver/Src/stm32f7xx_hal_i2c.c ****   * @param  Size Amount of data to be sent
1219:Drivers/STM32F7xx_HAL_Driver/Src/stm32f7xx_hal_i2c.c ****   * @retval HAL status
1220:Drivers/STM32F7xx_HAL_Driver/Src/stm32f7xx_hal_i2c.c ****   */
1221:Drivers/STM32F7xx_HAL_Driver/Src/stm32f7xx_hal_i2c.c **** HAL_StatusTypeDef HAL_I2C_Master_Receive_IT(I2C_HandleTypeDef *hi2c, uint16_t DevAddress, uint8_t *
ARM GAS  /var/folders/n8/cvzdcwlj0vl4g_wtyz1ffy300000gn/T//ccBPNZvy.s 			page 55


1222:Drivers/STM32F7xx_HAL_Driver/Src/stm32f7xx_hal_i2c.c **** {
 1873              		.loc 1 1222 0
 1874              		.cfi_startproc
 1875              		@ args = 0, pretend = 0, frame = 24
 1876              		@ frame_needed = 1, uses_anonymous_args = 0
 1877 0000 80B5     		push	{r7, lr}
 1878              	.LCFI47:
 1879              		.cfi_def_cfa_offset 8
 1880              		.cfi_offset 7, -8
 1881              		.cfi_offset 14, -4
 1882 0002 88B0     		sub	sp, sp, #32
 1883              	.LCFI48:
 1884              		.cfi_def_cfa_offset 40
 1885 0004 02AF     		add	r7, sp, #8
 1886              	.LCFI49:
 1887              		.cfi_def_cfa 7, 32
 1888 0006 F860     		str	r0, [r7, #12]
 1889 0008 7A60     		str	r2, [r7, #4]
 1890 000a 1A46     		mov	r2, r3
 1891 000c 0B46     		mov	r3, r1	@ movhi
 1892 000e 7B81     		strh	r3, [r7, #10]	@ movhi
 1893 0010 1346     		mov	r3, r2	@ movhi
 1894 0012 3B81     		strh	r3, [r7, #8]	@ movhi
1223:Drivers/STM32F7xx_HAL_Driver/Src/stm32f7xx_hal_i2c.c ****   uint32_t xfermode = 0U;
 1895              		.loc 1 1223 0
 1896 0014 0023     		movs	r3, #0
 1897 0016 7B61     		str	r3, [r7, #20]
1224:Drivers/STM32F7xx_HAL_Driver/Src/stm32f7xx_hal_i2c.c **** 
1225:Drivers/STM32F7xx_HAL_Driver/Src/stm32f7xx_hal_i2c.c ****   if (hi2c->State == HAL_I2C_STATE_READY)
 1898              		.loc 1 1225 0
 1899 0018 FB68     		ldr	r3, [r7, #12]
 1900 001a 93F84130 		ldrb	r3, [r3, #65]
 1901 001e DBB2     		uxtb	r3, r3
 1902 0020 202B     		cmp	r3, #32
 1903 0022 53D1     		bne	.L92
1226:Drivers/STM32F7xx_HAL_Driver/Src/stm32f7xx_hal_i2c.c ****   {
1227:Drivers/STM32F7xx_HAL_Driver/Src/stm32f7xx_hal_i2c.c ****     if (__HAL_I2C_GET_FLAG(hi2c, I2C_FLAG_BUSY) == SET)
 1904              		.loc 1 1227 0
 1905 0024 FB68     		ldr	r3, [r7, #12]
 1906 0026 1B68     		ldr	r3, [r3]
 1907 0028 9B69     		ldr	r3, [r3, #24]
 1908 002a 03F40043 		and	r3, r3, #32768
 1909 002e B3F5004F 		cmp	r3, #32768
 1910 0032 01D1     		bne	.L93
1228:Drivers/STM32F7xx_HAL_Driver/Src/stm32f7xx_hal_i2c.c ****     {
1229:Drivers/STM32F7xx_HAL_Driver/Src/stm32f7xx_hal_i2c.c ****       return HAL_BUSY;
 1911              		.loc 1 1229 0
 1912 0034 0223     		movs	r3, #2
 1913 0036 4AE0     		b	.L94
 1914              	.L93:
1230:Drivers/STM32F7xx_HAL_Driver/Src/stm32f7xx_hal_i2c.c ****     }
1231:Drivers/STM32F7xx_HAL_Driver/Src/stm32f7xx_hal_i2c.c **** 
1232:Drivers/STM32F7xx_HAL_Driver/Src/stm32f7xx_hal_i2c.c ****     /* Process Locked */
1233:Drivers/STM32F7xx_HAL_Driver/Src/stm32f7xx_hal_i2c.c ****     __HAL_LOCK(hi2c);
 1915              		.loc 1 1233 0
 1916 0038 FB68     		ldr	r3, [r7, #12]
 1917 003a 93F84030 		ldrb	r3, [r3, #64]	@ zero_extendqisi2
ARM GAS  /var/folders/n8/cvzdcwlj0vl4g_wtyz1ffy300000gn/T//ccBPNZvy.s 			page 56


 1918 003e 012B     		cmp	r3, #1
 1919 0040 01D1     		bne	.L95
 1920              		.loc 1 1233 0 is_stmt 0 discriminator 1
 1921 0042 0223     		movs	r3, #2
 1922 0044 43E0     		b	.L94
 1923              	.L95:
 1924              		.loc 1 1233 0 discriminator 2
 1925 0046 FB68     		ldr	r3, [r7, #12]
 1926 0048 0122     		movs	r2, #1
 1927 004a 83F84020 		strb	r2, [r3, #64]
1234:Drivers/STM32F7xx_HAL_Driver/Src/stm32f7xx_hal_i2c.c **** 
1235:Drivers/STM32F7xx_HAL_Driver/Src/stm32f7xx_hal_i2c.c ****     hi2c->State       = HAL_I2C_STATE_BUSY_RX;
 1928              		.loc 1 1235 0 is_stmt 1 discriminator 2
 1929 004e FB68     		ldr	r3, [r7, #12]
 1930 0050 2222     		movs	r2, #34
 1931 0052 83F84120 		strb	r2, [r3, #65]
1236:Drivers/STM32F7xx_HAL_Driver/Src/stm32f7xx_hal_i2c.c ****     hi2c->Mode        = HAL_I2C_MODE_MASTER;
 1932              		.loc 1 1236 0 discriminator 2
 1933 0056 FB68     		ldr	r3, [r7, #12]
 1934 0058 1022     		movs	r2, #16
 1935 005a 83F84220 		strb	r2, [r3, #66]
1237:Drivers/STM32F7xx_HAL_Driver/Src/stm32f7xx_hal_i2c.c ****     hi2c->ErrorCode   = HAL_I2C_ERROR_NONE;
 1936              		.loc 1 1237 0 discriminator 2
 1937 005e FB68     		ldr	r3, [r7, #12]
 1938 0060 0022     		movs	r2, #0
 1939 0062 5A64     		str	r2, [r3, #68]
1238:Drivers/STM32F7xx_HAL_Driver/Src/stm32f7xx_hal_i2c.c **** 
1239:Drivers/STM32F7xx_HAL_Driver/Src/stm32f7xx_hal_i2c.c ****     /* Prepare transfer parameters */
1240:Drivers/STM32F7xx_HAL_Driver/Src/stm32f7xx_hal_i2c.c ****     hi2c->pBuffPtr    = pData;
 1940              		.loc 1 1240 0 discriminator 2
 1941 0064 FB68     		ldr	r3, [r7, #12]
 1942 0066 7A68     		ldr	r2, [r7, #4]
 1943 0068 5A62     		str	r2, [r3, #36]
1241:Drivers/STM32F7xx_HAL_Driver/Src/stm32f7xx_hal_i2c.c ****     hi2c->XferCount   = Size;
 1944              		.loc 1 1241 0 discriminator 2
 1945 006a FB68     		ldr	r3, [r7, #12]
 1946 006c 3A89     		ldrh	r2, [r7, #8]	@ movhi
 1947 006e 5A85     		strh	r2, [r3, #42]	@ movhi
1242:Drivers/STM32F7xx_HAL_Driver/Src/stm32f7xx_hal_i2c.c ****     hi2c->XferOptions = I2C_NO_OPTION_FRAME;
 1948              		.loc 1 1242 0 discriminator 2
 1949 0070 FB68     		ldr	r3, [r7, #12]
 1950 0072 194A     		ldr	r2, .L98
 1951 0074 DA62     		str	r2, [r3, #44]
1243:Drivers/STM32F7xx_HAL_Driver/Src/stm32f7xx_hal_i2c.c ****     hi2c->XferISR     = I2C_Master_ISR_IT;
 1952              		.loc 1 1243 0 discriminator 2
 1953 0076 FB68     		ldr	r3, [r7, #12]
 1954 0078 184A     		ldr	r2, .L98+4
 1955 007a 5A63     		str	r2, [r3, #52]
1244:Drivers/STM32F7xx_HAL_Driver/Src/stm32f7xx_hal_i2c.c **** 
1245:Drivers/STM32F7xx_HAL_Driver/Src/stm32f7xx_hal_i2c.c ****     if (hi2c->XferCount > MAX_NBYTE_SIZE)
 1956              		.loc 1 1245 0 discriminator 2
 1957 007c FB68     		ldr	r3, [r7, #12]
 1958 007e 5B8D     		ldrh	r3, [r3, #42]	@ movhi
 1959 0080 9BB2     		uxth	r3, r3
 1960 0082 FF2B     		cmp	r3, #255
 1961 0084 06D9     		bls	.L96
1246:Drivers/STM32F7xx_HAL_Driver/Src/stm32f7xx_hal_i2c.c ****     {
ARM GAS  /var/folders/n8/cvzdcwlj0vl4g_wtyz1ffy300000gn/T//ccBPNZvy.s 			page 57


1247:Drivers/STM32F7xx_HAL_Driver/Src/stm32f7xx_hal_i2c.c ****       hi2c->XferSize = MAX_NBYTE_SIZE;
 1962              		.loc 1 1247 0
 1963 0086 FB68     		ldr	r3, [r7, #12]
 1964 0088 FF22     		movs	r2, #255
 1965 008a 1A85     		strh	r2, [r3, #40]	@ movhi
1248:Drivers/STM32F7xx_HAL_Driver/Src/stm32f7xx_hal_i2c.c ****       xfermode = I2C_RELOAD_MODE;
 1966              		.loc 1 1248 0
 1967 008c 4FF08073 		mov	r3, #16777216
 1968 0090 7B61     		str	r3, [r7, #20]
 1969 0092 07E0     		b	.L97
 1970              	.L96:
1249:Drivers/STM32F7xx_HAL_Driver/Src/stm32f7xx_hal_i2c.c ****     }
1250:Drivers/STM32F7xx_HAL_Driver/Src/stm32f7xx_hal_i2c.c ****     else
1251:Drivers/STM32F7xx_HAL_Driver/Src/stm32f7xx_hal_i2c.c ****     {
1252:Drivers/STM32F7xx_HAL_Driver/Src/stm32f7xx_hal_i2c.c ****       hi2c->XferSize = hi2c->XferCount;
 1971              		.loc 1 1252 0
 1972 0094 FB68     		ldr	r3, [r7, #12]
 1973 0096 5B8D     		ldrh	r3, [r3, #42]	@ movhi
 1974 0098 9AB2     		uxth	r2, r3
 1975 009a FB68     		ldr	r3, [r7, #12]
 1976 009c 1A85     		strh	r2, [r3, #40]	@ movhi
1253:Drivers/STM32F7xx_HAL_Driver/Src/stm32f7xx_hal_i2c.c ****       xfermode = I2C_AUTOEND_MODE;
 1977              		.loc 1 1253 0
 1978 009e 4FF00073 		mov	r3, #33554432
 1979 00a2 7B61     		str	r3, [r7, #20]
 1980              	.L97:
1254:Drivers/STM32F7xx_HAL_Driver/Src/stm32f7xx_hal_i2c.c ****     }
1255:Drivers/STM32F7xx_HAL_Driver/Src/stm32f7xx_hal_i2c.c **** 
1256:Drivers/STM32F7xx_HAL_Driver/Src/stm32f7xx_hal_i2c.c ****     /* Send Slave Address */
1257:Drivers/STM32F7xx_HAL_Driver/Src/stm32f7xx_hal_i2c.c ****     /* Set NBYTES to write and reload if hi2c->XferCount > MAX_NBYTE_SIZE */
1258:Drivers/STM32F7xx_HAL_Driver/Src/stm32f7xx_hal_i2c.c ****     I2C_TransferConfig(hi2c, DevAddress, hi2c->XferSize, xfermode, I2C_GENERATE_START_READ);
 1981              		.loc 1 1258 0
 1982 00a4 FB68     		ldr	r3, [r7, #12]
 1983 00a6 1B8D     		ldrh	r3, [r3, #40]
 1984 00a8 DAB2     		uxtb	r2, r3
 1985 00aa 7989     		ldrh	r1, [r7, #10]
 1986 00ac 0C4B     		ldr	r3, .L98+8
 1987 00ae 0093     		str	r3, [sp]
 1988 00b0 7B69     		ldr	r3, [r7, #20]
 1989 00b2 F868     		ldr	r0, [r7, #12]
 1990 00b4 FFF7FEFF 		bl	I2C_TransferConfig
1259:Drivers/STM32F7xx_HAL_Driver/Src/stm32f7xx_hal_i2c.c **** 
1260:Drivers/STM32F7xx_HAL_Driver/Src/stm32f7xx_hal_i2c.c ****     /* Process Unlocked */
1261:Drivers/STM32F7xx_HAL_Driver/Src/stm32f7xx_hal_i2c.c ****     __HAL_UNLOCK(hi2c);
 1991              		.loc 1 1261 0
 1992 00b8 FB68     		ldr	r3, [r7, #12]
 1993 00ba 0022     		movs	r2, #0
 1994 00bc 83F84020 		strb	r2, [r3, #64]
1262:Drivers/STM32F7xx_HAL_Driver/Src/stm32f7xx_hal_i2c.c **** 
1263:Drivers/STM32F7xx_HAL_Driver/Src/stm32f7xx_hal_i2c.c ****     /* Note : The I2C interrupts must be enabled after unlocking current process
1264:Drivers/STM32F7xx_HAL_Driver/Src/stm32f7xx_hal_i2c.c ****               to avoid the risk of I2C interrupt handle execution before current
1265:Drivers/STM32F7xx_HAL_Driver/Src/stm32f7xx_hal_i2c.c ****               process unlock */
1266:Drivers/STM32F7xx_HAL_Driver/Src/stm32f7xx_hal_i2c.c **** 
1267:Drivers/STM32F7xx_HAL_Driver/Src/stm32f7xx_hal_i2c.c ****     /* Enable ERR, TC, STOP, NACK, RXI interrupt */
1268:Drivers/STM32F7xx_HAL_Driver/Src/stm32f7xx_hal_i2c.c ****     /* possible to enable all of these */
1269:Drivers/STM32F7xx_HAL_Driver/Src/stm32f7xx_hal_i2c.c ****     /* I2C_IT_ERRI | I2C_IT_TCI| I2C_IT_STOPI| I2C_IT_NACKI | I2C_IT_ADDRI | I2C_IT_RXI | I2C_IT_TX
1270:Drivers/STM32F7xx_HAL_Driver/Src/stm32f7xx_hal_i2c.c ****     I2C_Enable_IRQ(hi2c, I2C_XFER_RX_IT);
ARM GAS  /var/folders/n8/cvzdcwlj0vl4g_wtyz1ffy300000gn/T//ccBPNZvy.s 			page 58


 1995              		.loc 1 1270 0
 1996 00c0 0221     		movs	r1, #2
 1997 00c2 F868     		ldr	r0, [r7, #12]
 1998 00c4 FFF7FEFF 		bl	I2C_Enable_IRQ
1271:Drivers/STM32F7xx_HAL_Driver/Src/stm32f7xx_hal_i2c.c **** 
1272:Drivers/STM32F7xx_HAL_Driver/Src/stm32f7xx_hal_i2c.c ****     return HAL_OK;
 1999              		.loc 1 1272 0
 2000 00c8 0023     		movs	r3, #0
 2001 00ca 00E0     		b	.L94
 2002              	.L92:
1273:Drivers/STM32F7xx_HAL_Driver/Src/stm32f7xx_hal_i2c.c ****   }
1274:Drivers/STM32F7xx_HAL_Driver/Src/stm32f7xx_hal_i2c.c ****   else
1275:Drivers/STM32F7xx_HAL_Driver/Src/stm32f7xx_hal_i2c.c ****   {
1276:Drivers/STM32F7xx_HAL_Driver/Src/stm32f7xx_hal_i2c.c ****     return HAL_BUSY;
 2003              		.loc 1 1276 0
 2004 00cc 0223     		movs	r3, #2
 2005              	.L94:
1277:Drivers/STM32F7xx_HAL_Driver/Src/stm32f7xx_hal_i2c.c ****   }
1278:Drivers/STM32F7xx_HAL_Driver/Src/stm32f7xx_hal_i2c.c **** }
 2006              		.loc 1 1278 0
 2007 00ce 1846     		mov	r0, r3
 2008 00d0 1837     		adds	r7, r7, #24
 2009              	.LCFI50:
 2010              		.cfi_def_cfa_offset 8
 2011 00d2 BD46     		mov	sp, r7
 2012              	.LCFI51:
 2013              		.cfi_def_cfa_register 13
 2014              		@ sp needed
 2015 00d4 80BD     		pop	{r7, pc}
 2016              	.L99:
 2017 00d6 00BF     		.align	2
 2018              	.L98:
 2019 00d8 0000FFFF 		.word	-65536
 2020 00dc 00000000 		.word	I2C_Master_ISR_IT
 2021 00e0 00240080 		.word	-2147474432
 2022              		.cfi_endproc
 2023              	.LFE147:
 2025              		.section	.text.HAL_I2C_Slave_Transmit_IT,"ax",%progbits
 2026              		.align	1
 2027              		.global	HAL_I2C_Slave_Transmit_IT
 2028              		.syntax unified
 2029              		.thumb
 2030              		.thumb_func
 2031              		.fpu fpv5-sp-d16
 2033              	HAL_I2C_Slave_Transmit_IT:
 2034              	.LFB148:
1279:Drivers/STM32F7xx_HAL_Driver/Src/stm32f7xx_hal_i2c.c **** 
1280:Drivers/STM32F7xx_HAL_Driver/Src/stm32f7xx_hal_i2c.c **** /**
1281:Drivers/STM32F7xx_HAL_Driver/Src/stm32f7xx_hal_i2c.c ****   * @brief  Transmit in slave mode an amount of data in non-blocking mode with Interrupt
1282:Drivers/STM32F7xx_HAL_Driver/Src/stm32f7xx_hal_i2c.c ****   * @param  hi2c Pointer to a I2C_HandleTypeDef structure that contains
1283:Drivers/STM32F7xx_HAL_Driver/Src/stm32f7xx_hal_i2c.c ****   *                the configuration information for the specified I2C.
1284:Drivers/STM32F7xx_HAL_Driver/Src/stm32f7xx_hal_i2c.c ****   * @param  pData Pointer to data buffer
1285:Drivers/STM32F7xx_HAL_Driver/Src/stm32f7xx_hal_i2c.c ****   * @param  Size Amount of data to be sent
1286:Drivers/STM32F7xx_HAL_Driver/Src/stm32f7xx_hal_i2c.c ****   * @retval HAL status
1287:Drivers/STM32F7xx_HAL_Driver/Src/stm32f7xx_hal_i2c.c ****   */
1288:Drivers/STM32F7xx_HAL_Driver/Src/stm32f7xx_hal_i2c.c **** HAL_StatusTypeDef HAL_I2C_Slave_Transmit_IT(I2C_HandleTypeDef *hi2c, uint8_t *pData, uint16_t Size)
1289:Drivers/STM32F7xx_HAL_Driver/Src/stm32f7xx_hal_i2c.c **** {
ARM GAS  /var/folders/n8/cvzdcwlj0vl4g_wtyz1ffy300000gn/T//ccBPNZvy.s 			page 59


 2035              		.loc 1 1289 0
 2036              		.cfi_startproc
 2037              		@ args = 0, pretend = 0, frame = 16
 2038              		@ frame_needed = 1, uses_anonymous_args = 0
 2039 0000 80B5     		push	{r7, lr}
 2040              	.LCFI52:
 2041              		.cfi_def_cfa_offset 8
 2042              		.cfi_offset 7, -8
 2043              		.cfi_offset 14, -4
 2044 0002 84B0     		sub	sp, sp, #16
 2045              	.LCFI53:
 2046              		.cfi_def_cfa_offset 24
 2047 0004 00AF     		add	r7, sp, #0
 2048              	.LCFI54:
 2049              		.cfi_def_cfa_register 7
 2050 0006 F860     		str	r0, [r7, #12]
 2051 0008 B960     		str	r1, [r7, #8]
 2052 000a 1346     		mov	r3, r2
 2053 000c FB80     		strh	r3, [r7, #6]	@ movhi
1290:Drivers/STM32F7xx_HAL_Driver/Src/stm32f7xx_hal_i2c.c ****   if (hi2c->State == HAL_I2C_STATE_READY)
 2054              		.loc 1 1290 0
 2055 000e FB68     		ldr	r3, [r7, #12]
 2056 0010 93F84130 		ldrb	r3, [r3, #65]
 2057 0014 DBB2     		uxtb	r3, r3
 2058 0016 202B     		cmp	r3, #32
 2059 0018 38D1     		bne	.L101
1291:Drivers/STM32F7xx_HAL_Driver/Src/stm32f7xx_hal_i2c.c ****   {
1292:Drivers/STM32F7xx_HAL_Driver/Src/stm32f7xx_hal_i2c.c ****     /* Process Locked */
1293:Drivers/STM32F7xx_HAL_Driver/Src/stm32f7xx_hal_i2c.c ****     __HAL_LOCK(hi2c);
 2060              		.loc 1 1293 0
 2061 001a FB68     		ldr	r3, [r7, #12]
 2062 001c 93F84030 		ldrb	r3, [r3, #64]	@ zero_extendqisi2
 2063 0020 012B     		cmp	r3, #1
 2064 0022 01D1     		bne	.L102
 2065              		.loc 1 1293 0 is_stmt 0 discriminator 1
 2066 0024 0223     		movs	r3, #2
 2067 0026 32E0     		b	.L103
 2068              	.L102:
 2069              		.loc 1 1293 0 discriminator 2
 2070 0028 FB68     		ldr	r3, [r7, #12]
 2071 002a 0122     		movs	r2, #1
 2072 002c 83F84020 		strb	r2, [r3, #64]
1294:Drivers/STM32F7xx_HAL_Driver/Src/stm32f7xx_hal_i2c.c **** 
1295:Drivers/STM32F7xx_HAL_Driver/Src/stm32f7xx_hal_i2c.c ****     hi2c->State       = HAL_I2C_STATE_BUSY_TX;
 2073              		.loc 1 1295 0 is_stmt 1 discriminator 2
 2074 0030 FB68     		ldr	r3, [r7, #12]
 2075 0032 2122     		movs	r2, #33
 2076 0034 83F84120 		strb	r2, [r3, #65]
1296:Drivers/STM32F7xx_HAL_Driver/Src/stm32f7xx_hal_i2c.c ****     hi2c->Mode        = HAL_I2C_MODE_SLAVE;
 2077              		.loc 1 1296 0 discriminator 2
 2078 0038 FB68     		ldr	r3, [r7, #12]
 2079 003a 2022     		movs	r2, #32
 2080 003c 83F84220 		strb	r2, [r3, #66]
1297:Drivers/STM32F7xx_HAL_Driver/Src/stm32f7xx_hal_i2c.c ****     hi2c->ErrorCode   = HAL_I2C_ERROR_NONE;
 2081              		.loc 1 1297 0 discriminator 2
 2082 0040 FB68     		ldr	r3, [r7, #12]
 2083 0042 0022     		movs	r2, #0
ARM GAS  /var/folders/n8/cvzdcwlj0vl4g_wtyz1ffy300000gn/T//ccBPNZvy.s 			page 60


 2084 0044 5A64     		str	r2, [r3, #68]
1298:Drivers/STM32F7xx_HAL_Driver/Src/stm32f7xx_hal_i2c.c **** 
1299:Drivers/STM32F7xx_HAL_Driver/Src/stm32f7xx_hal_i2c.c ****     /* Enable Address Acknowledge */
1300:Drivers/STM32F7xx_HAL_Driver/Src/stm32f7xx_hal_i2c.c ****     hi2c->Instance->CR2 &= ~I2C_CR2_NACK;
 2085              		.loc 1 1300 0 discriminator 2
 2086 0046 FB68     		ldr	r3, [r7, #12]
 2087 0048 1B68     		ldr	r3, [r3]
 2088 004a 5A68     		ldr	r2, [r3, #4]
 2089 004c FB68     		ldr	r3, [r7, #12]
 2090 004e 1B68     		ldr	r3, [r3]
 2091 0050 22F40042 		bic	r2, r2, #32768
 2092 0054 5A60     		str	r2, [r3, #4]
1301:Drivers/STM32F7xx_HAL_Driver/Src/stm32f7xx_hal_i2c.c **** 
1302:Drivers/STM32F7xx_HAL_Driver/Src/stm32f7xx_hal_i2c.c ****     /* Prepare transfer parameters */
1303:Drivers/STM32F7xx_HAL_Driver/Src/stm32f7xx_hal_i2c.c ****     hi2c->pBuffPtr    = pData;
 2093              		.loc 1 1303 0 discriminator 2
 2094 0056 FB68     		ldr	r3, [r7, #12]
 2095 0058 BA68     		ldr	r2, [r7, #8]
 2096 005a 5A62     		str	r2, [r3, #36]
1304:Drivers/STM32F7xx_HAL_Driver/Src/stm32f7xx_hal_i2c.c ****     hi2c->XferCount   = Size;
 2097              		.loc 1 1304 0 discriminator 2
 2098 005c FB68     		ldr	r3, [r7, #12]
 2099 005e FA88     		ldrh	r2, [r7, #6]	@ movhi
 2100 0060 5A85     		strh	r2, [r3, #42]	@ movhi
1305:Drivers/STM32F7xx_HAL_Driver/Src/stm32f7xx_hal_i2c.c ****     hi2c->XferSize    = hi2c->XferCount;
 2101              		.loc 1 1305 0 discriminator 2
 2102 0062 FB68     		ldr	r3, [r7, #12]
 2103 0064 5B8D     		ldrh	r3, [r3, #42]	@ movhi
 2104 0066 9AB2     		uxth	r2, r3
 2105 0068 FB68     		ldr	r3, [r7, #12]
 2106 006a 1A85     		strh	r2, [r3, #40]	@ movhi
1306:Drivers/STM32F7xx_HAL_Driver/Src/stm32f7xx_hal_i2c.c ****     hi2c->XferOptions = I2C_NO_OPTION_FRAME;
 2107              		.loc 1 1306 0 discriminator 2
 2108 006c FB68     		ldr	r3, [r7, #12]
 2109 006e 0A4A     		ldr	r2, .L104
 2110 0070 DA62     		str	r2, [r3, #44]
1307:Drivers/STM32F7xx_HAL_Driver/Src/stm32f7xx_hal_i2c.c ****     hi2c->XferISR     = I2C_Slave_ISR_IT;
 2111              		.loc 1 1307 0 discriminator 2
 2112 0072 FB68     		ldr	r3, [r7, #12]
 2113 0074 094A     		ldr	r2, .L104+4
 2114 0076 5A63     		str	r2, [r3, #52]
1308:Drivers/STM32F7xx_HAL_Driver/Src/stm32f7xx_hal_i2c.c **** 
1309:Drivers/STM32F7xx_HAL_Driver/Src/stm32f7xx_hal_i2c.c ****     /* Process Unlocked */
1310:Drivers/STM32F7xx_HAL_Driver/Src/stm32f7xx_hal_i2c.c ****     __HAL_UNLOCK(hi2c);
 2115              		.loc 1 1310 0 discriminator 2
 2116 0078 FB68     		ldr	r3, [r7, #12]
 2117 007a 0022     		movs	r2, #0
 2118 007c 83F84020 		strb	r2, [r3, #64]
1311:Drivers/STM32F7xx_HAL_Driver/Src/stm32f7xx_hal_i2c.c **** 
1312:Drivers/STM32F7xx_HAL_Driver/Src/stm32f7xx_hal_i2c.c ****     /* Note : The I2C interrupts must be enabled after unlocking current process
1313:Drivers/STM32F7xx_HAL_Driver/Src/stm32f7xx_hal_i2c.c ****               to avoid the risk of I2C interrupt handle execution before current
1314:Drivers/STM32F7xx_HAL_Driver/Src/stm32f7xx_hal_i2c.c ****               process unlock */
1315:Drivers/STM32F7xx_HAL_Driver/Src/stm32f7xx_hal_i2c.c **** 
1316:Drivers/STM32F7xx_HAL_Driver/Src/stm32f7xx_hal_i2c.c ****     /* Enable ERR, TC, STOP, NACK, TXI interrupt */
1317:Drivers/STM32F7xx_HAL_Driver/Src/stm32f7xx_hal_i2c.c ****     /* possible to enable all of these */
1318:Drivers/STM32F7xx_HAL_Driver/Src/stm32f7xx_hal_i2c.c ****     /* I2C_IT_ERRI | I2C_IT_TCI| I2C_IT_STOPI| I2C_IT_NACKI | I2C_IT_ADDRI | I2C_IT_RXI | I2C_IT_TX
1319:Drivers/STM32F7xx_HAL_Driver/Src/stm32f7xx_hal_i2c.c ****     I2C_Enable_IRQ(hi2c, I2C_XFER_TX_IT | I2C_XFER_LISTEN_IT);
ARM GAS  /var/folders/n8/cvzdcwlj0vl4g_wtyz1ffy300000gn/T//ccBPNZvy.s 			page 61


 2119              		.loc 1 1319 0 discriminator 2
 2120 0080 0521     		movs	r1, #5
 2121 0082 F868     		ldr	r0, [r7, #12]
 2122 0084 FFF7FEFF 		bl	I2C_Enable_IRQ
1320:Drivers/STM32F7xx_HAL_Driver/Src/stm32f7xx_hal_i2c.c **** 
1321:Drivers/STM32F7xx_HAL_Driver/Src/stm32f7xx_hal_i2c.c ****     return HAL_OK;
 2123              		.loc 1 1321 0 discriminator 2
 2124 0088 0023     		movs	r3, #0
 2125 008a 00E0     		b	.L103
 2126              	.L101:
1322:Drivers/STM32F7xx_HAL_Driver/Src/stm32f7xx_hal_i2c.c ****   }
1323:Drivers/STM32F7xx_HAL_Driver/Src/stm32f7xx_hal_i2c.c ****   else
1324:Drivers/STM32F7xx_HAL_Driver/Src/stm32f7xx_hal_i2c.c ****   {
1325:Drivers/STM32F7xx_HAL_Driver/Src/stm32f7xx_hal_i2c.c ****     return HAL_BUSY;
 2127              		.loc 1 1325 0
 2128 008c 0223     		movs	r3, #2
 2129              	.L103:
1326:Drivers/STM32F7xx_HAL_Driver/Src/stm32f7xx_hal_i2c.c ****   }
1327:Drivers/STM32F7xx_HAL_Driver/Src/stm32f7xx_hal_i2c.c **** }
 2130              		.loc 1 1327 0
 2131 008e 1846     		mov	r0, r3
 2132 0090 1037     		adds	r7, r7, #16
 2133              	.LCFI55:
 2134              		.cfi_def_cfa_offset 8
 2135 0092 BD46     		mov	sp, r7
 2136              	.LCFI56:
 2137              		.cfi_def_cfa_register 13
 2138              		@ sp needed
 2139 0094 80BD     		pop	{r7, pc}
 2140              	.L105:
 2141 0096 00BF     		.align	2
 2142              	.L104:
 2143 0098 0000FFFF 		.word	-65536
 2144 009c 00000000 		.word	I2C_Slave_ISR_IT
 2145              		.cfi_endproc
 2146              	.LFE148:
 2148              		.section	.text.HAL_I2C_Slave_Receive_IT,"ax",%progbits
 2149              		.align	1
 2150              		.global	HAL_I2C_Slave_Receive_IT
 2151              		.syntax unified
 2152              		.thumb
 2153              		.thumb_func
 2154              		.fpu fpv5-sp-d16
 2156              	HAL_I2C_Slave_Receive_IT:
 2157              	.LFB149:
1328:Drivers/STM32F7xx_HAL_Driver/Src/stm32f7xx_hal_i2c.c **** 
1329:Drivers/STM32F7xx_HAL_Driver/Src/stm32f7xx_hal_i2c.c **** /**
1330:Drivers/STM32F7xx_HAL_Driver/Src/stm32f7xx_hal_i2c.c ****   * @brief  Receive in slave mode an amount of data in non-blocking mode with Interrupt
1331:Drivers/STM32F7xx_HAL_Driver/Src/stm32f7xx_hal_i2c.c ****   * @param  hi2c Pointer to a I2C_HandleTypeDef structure that contains
1332:Drivers/STM32F7xx_HAL_Driver/Src/stm32f7xx_hal_i2c.c ****   *                the configuration information for the specified I2C.
1333:Drivers/STM32F7xx_HAL_Driver/Src/stm32f7xx_hal_i2c.c ****   * @param  pData Pointer to data buffer
1334:Drivers/STM32F7xx_HAL_Driver/Src/stm32f7xx_hal_i2c.c ****   * @param  Size Amount of data to be sent
1335:Drivers/STM32F7xx_HAL_Driver/Src/stm32f7xx_hal_i2c.c ****   * @retval HAL status
1336:Drivers/STM32F7xx_HAL_Driver/Src/stm32f7xx_hal_i2c.c ****   */
1337:Drivers/STM32F7xx_HAL_Driver/Src/stm32f7xx_hal_i2c.c **** HAL_StatusTypeDef HAL_I2C_Slave_Receive_IT(I2C_HandleTypeDef *hi2c, uint8_t *pData, uint16_t Size)
1338:Drivers/STM32F7xx_HAL_Driver/Src/stm32f7xx_hal_i2c.c **** {
 2158              		.loc 1 1338 0
ARM GAS  /var/folders/n8/cvzdcwlj0vl4g_wtyz1ffy300000gn/T//ccBPNZvy.s 			page 62


 2159              		.cfi_startproc
 2160              		@ args = 0, pretend = 0, frame = 16
 2161              		@ frame_needed = 1, uses_anonymous_args = 0
 2162 0000 80B5     		push	{r7, lr}
 2163              	.LCFI57:
 2164              		.cfi_def_cfa_offset 8
 2165              		.cfi_offset 7, -8
 2166              		.cfi_offset 14, -4
 2167 0002 84B0     		sub	sp, sp, #16
 2168              	.LCFI58:
 2169              		.cfi_def_cfa_offset 24
 2170 0004 00AF     		add	r7, sp, #0
 2171              	.LCFI59:
 2172              		.cfi_def_cfa_register 7
 2173 0006 F860     		str	r0, [r7, #12]
 2174 0008 B960     		str	r1, [r7, #8]
 2175 000a 1346     		mov	r3, r2
 2176 000c FB80     		strh	r3, [r7, #6]	@ movhi
1339:Drivers/STM32F7xx_HAL_Driver/Src/stm32f7xx_hal_i2c.c ****   if (hi2c->State == HAL_I2C_STATE_READY)
 2177              		.loc 1 1339 0
 2178 000e FB68     		ldr	r3, [r7, #12]
 2179 0010 93F84130 		ldrb	r3, [r3, #65]
 2180 0014 DBB2     		uxtb	r3, r3
 2181 0016 202B     		cmp	r3, #32
 2182 0018 38D1     		bne	.L107
1340:Drivers/STM32F7xx_HAL_Driver/Src/stm32f7xx_hal_i2c.c ****   {
1341:Drivers/STM32F7xx_HAL_Driver/Src/stm32f7xx_hal_i2c.c ****     /* Process Locked */
1342:Drivers/STM32F7xx_HAL_Driver/Src/stm32f7xx_hal_i2c.c ****     __HAL_LOCK(hi2c);
 2183              		.loc 1 1342 0
 2184 001a FB68     		ldr	r3, [r7, #12]
 2185 001c 93F84030 		ldrb	r3, [r3, #64]	@ zero_extendqisi2
 2186 0020 012B     		cmp	r3, #1
 2187 0022 01D1     		bne	.L108
 2188              		.loc 1 1342 0 is_stmt 0 discriminator 1
 2189 0024 0223     		movs	r3, #2
 2190 0026 32E0     		b	.L109
 2191              	.L108:
 2192              		.loc 1 1342 0 discriminator 2
 2193 0028 FB68     		ldr	r3, [r7, #12]
 2194 002a 0122     		movs	r2, #1
 2195 002c 83F84020 		strb	r2, [r3, #64]
1343:Drivers/STM32F7xx_HAL_Driver/Src/stm32f7xx_hal_i2c.c **** 
1344:Drivers/STM32F7xx_HAL_Driver/Src/stm32f7xx_hal_i2c.c ****     hi2c->State       = HAL_I2C_STATE_BUSY_RX;
 2196              		.loc 1 1344 0 is_stmt 1 discriminator 2
 2197 0030 FB68     		ldr	r3, [r7, #12]
 2198 0032 2222     		movs	r2, #34
 2199 0034 83F84120 		strb	r2, [r3, #65]
1345:Drivers/STM32F7xx_HAL_Driver/Src/stm32f7xx_hal_i2c.c ****     hi2c->Mode        = HAL_I2C_MODE_SLAVE;
 2200              		.loc 1 1345 0 discriminator 2
 2201 0038 FB68     		ldr	r3, [r7, #12]
 2202 003a 2022     		movs	r2, #32
 2203 003c 83F84220 		strb	r2, [r3, #66]
1346:Drivers/STM32F7xx_HAL_Driver/Src/stm32f7xx_hal_i2c.c ****     hi2c->ErrorCode   = HAL_I2C_ERROR_NONE;
 2204              		.loc 1 1346 0 discriminator 2
 2205 0040 FB68     		ldr	r3, [r7, #12]
 2206 0042 0022     		movs	r2, #0
 2207 0044 5A64     		str	r2, [r3, #68]
ARM GAS  /var/folders/n8/cvzdcwlj0vl4g_wtyz1ffy300000gn/T//ccBPNZvy.s 			page 63


1347:Drivers/STM32F7xx_HAL_Driver/Src/stm32f7xx_hal_i2c.c **** 
1348:Drivers/STM32F7xx_HAL_Driver/Src/stm32f7xx_hal_i2c.c ****     /* Enable Address Acknowledge */
1349:Drivers/STM32F7xx_HAL_Driver/Src/stm32f7xx_hal_i2c.c ****     hi2c->Instance->CR2 &= ~I2C_CR2_NACK;
 2208              		.loc 1 1349 0 discriminator 2
 2209 0046 FB68     		ldr	r3, [r7, #12]
 2210 0048 1B68     		ldr	r3, [r3]
 2211 004a 5A68     		ldr	r2, [r3, #4]
 2212 004c FB68     		ldr	r3, [r7, #12]
 2213 004e 1B68     		ldr	r3, [r3]
 2214 0050 22F40042 		bic	r2, r2, #32768
 2215 0054 5A60     		str	r2, [r3, #4]
1350:Drivers/STM32F7xx_HAL_Driver/Src/stm32f7xx_hal_i2c.c **** 
1351:Drivers/STM32F7xx_HAL_Driver/Src/stm32f7xx_hal_i2c.c ****     /* Prepare transfer parameters */
1352:Drivers/STM32F7xx_HAL_Driver/Src/stm32f7xx_hal_i2c.c ****     hi2c->pBuffPtr    = pData;
 2216              		.loc 1 1352 0 discriminator 2
 2217 0056 FB68     		ldr	r3, [r7, #12]
 2218 0058 BA68     		ldr	r2, [r7, #8]
 2219 005a 5A62     		str	r2, [r3, #36]
1353:Drivers/STM32F7xx_HAL_Driver/Src/stm32f7xx_hal_i2c.c ****     hi2c->XferCount   = Size;
 2220              		.loc 1 1353 0 discriminator 2
 2221 005c FB68     		ldr	r3, [r7, #12]
 2222 005e FA88     		ldrh	r2, [r7, #6]	@ movhi
 2223 0060 5A85     		strh	r2, [r3, #42]	@ movhi
1354:Drivers/STM32F7xx_HAL_Driver/Src/stm32f7xx_hal_i2c.c ****     hi2c->XferSize    = hi2c->XferCount;
 2224              		.loc 1 1354 0 discriminator 2
 2225 0062 FB68     		ldr	r3, [r7, #12]
 2226 0064 5B8D     		ldrh	r3, [r3, #42]	@ movhi
 2227 0066 9AB2     		uxth	r2, r3
 2228 0068 FB68     		ldr	r3, [r7, #12]
 2229 006a 1A85     		strh	r2, [r3, #40]	@ movhi
1355:Drivers/STM32F7xx_HAL_Driver/Src/stm32f7xx_hal_i2c.c ****     hi2c->XferOptions = I2C_NO_OPTION_FRAME;
 2230              		.loc 1 1355 0 discriminator 2
 2231 006c FB68     		ldr	r3, [r7, #12]
 2232 006e 0A4A     		ldr	r2, .L110
 2233 0070 DA62     		str	r2, [r3, #44]
1356:Drivers/STM32F7xx_HAL_Driver/Src/stm32f7xx_hal_i2c.c ****     hi2c->XferISR     = I2C_Slave_ISR_IT;
 2234              		.loc 1 1356 0 discriminator 2
 2235 0072 FB68     		ldr	r3, [r7, #12]
 2236 0074 094A     		ldr	r2, .L110+4
 2237 0076 5A63     		str	r2, [r3, #52]
1357:Drivers/STM32F7xx_HAL_Driver/Src/stm32f7xx_hal_i2c.c **** 
1358:Drivers/STM32F7xx_HAL_Driver/Src/stm32f7xx_hal_i2c.c ****     /* Process Unlocked */
1359:Drivers/STM32F7xx_HAL_Driver/Src/stm32f7xx_hal_i2c.c ****     __HAL_UNLOCK(hi2c);
 2238              		.loc 1 1359 0 discriminator 2
 2239 0078 FB68     		ldr	r3, [r7, #12]
 2240 007a 0022     		movs	r2, #0
 2241 007c 83F84020 		strb	r2, [r3, #64]
1360:Drivers/STM32F7xx_HAL_Driver/Src/stm32f7xx_hal_i2c.c **** 
1361:Drivers/STM32F7xx_HAL_Driver/Src/stm32f7xx_hal_i2c.c ****     /* Note : The I2C interrupts must be enabled after unlocking current process
1362:Drivers/STM32F7xx_HAL_Driver/Src/stm32f7xx_hal_i2c.c ****               to avoid the risk of I2C interrupt handle execution before current
1363:Drivers/STM32F7xx_HAL_Driver/Src/stm32f7xx_hal_i2c.c ****               process unlock */
1364:Drivers/STM32F7xx_HAL_Driver/Src/stm32f7xx_hal_i2c.c **** 
1365:Drivers/STM32F7xx_HAL_Driver/Src/stm32f7xx_hal_i2c.c ****     /* Enable ERR, TC, STOP, NACK, RXI interrupt */
1366:Drivers/STM32F7xx_HAL_Driver/Src/stm32f7xx_hal_i2c.c ****     /* possible to enable all of these */
1367:Drivers/STM32F7xx_HAL_Driver/Src/stm32f7xx_hal_i2c.c ****     /* I2C_IT_ERRI | I2C_IT_TCI| I2C_IT_STOPI| I2C_IT_NACKI | I2C_IT_ADDRI | I2C_IT_RXI | I2C_IT_TX
1368:Drivers/STM32F7xx_HAL_Driver/Src/stm32f7xx_hal_i2c.c ****     I2C_Enable_IRQ(hi2c, I2C_XFER_RX_IT | I2C_XFER_LISTEN_IT);
 2242              		.loc 1 1368 0 discriminator 2
ARM GAS  /var/folders/n8/cvzdcwlj0vl4g_wtyz1ffy300000gn/T//ccBPNZvy.s 			page 64


 2243 0080 0621     		movs	r1, #6
 2244 0082 F868     		ldr	r0, [r7, #12]
 2245 0084 FFF7FEFF 		bl	I2C_Enable_IRQ
1369:Drivers/STM32F7xx_HAL_Driver/Src/stm32f7xx_hal_i2c.c **** 
1370:Drivers/STM32F7xx_HAL_Driver/Src/stm32f7xx_hal_i2c.c ****     return HAL_OK;
 2246              		.loc 1 1370 0 discriminator 2
 2247 0088 0023     		movs	r3, #0
 2248 008a 00E0     		b	.L109
 2249              	.L107:
1371:Drivers/STM32F7xx_HAL_Driver/Src/stm32f7xx_hal_i2c.c ****   }
1372:Drivers/STM32F7xx_HAL_Driver/Src/stm32f7xx_hal_i2c.c ****   else
1373:Drivers/STM32F7xx_HAL_Driver/Src/stm32f7xx_hal_i2c.c ****   {
1374:Drivers/STM32F7xx_HAL_Driver/Src/stm32f7xx_hal_i2c.c ****     return HAL_BUSY;
 2250              		.loc 1 1374 0
 2251 008c 0223     		movs	r3, #2
 2252              	.L109:
1375:Drivers/STM32F7xx_HAL_Driver/Src/stm32f7xx_hal_i2c.c ****   }
1376:Drivers/STM32F7xx_HAL_Driver/Src/stm32f7xx_hal_i2c.c **** }
 2253              		.loc 1 1376 0
 2254 008e 1846     		mov	r0, r3
 2255 0090 1037     		adds	r7, r7, #16
 2256              	.LCFI60:
 2257              		.cfi_def_cfa_offset 8
 2258 0092 BD46     		mov	sp, r7
 2259              	.LCFI61:
 2260              		.cfi_def_cfa_register 13
 2261              		@ sp needed
 2262 0094 80BD     		pop	{r7, pc}
 2263              	.L111:
 2264 0096 00BF     		.align	2
 2265              	.L110:
 2266 0098 0000FFFF 		.word	-65536
 2267 009c 00000000 		.word	I2C_Slave_ISR_IT
 2268              		.cfi_endproc
 2269              	.LFE149:
 2271              		.section	.text.HAL_I2C_Master_Transmit_DMA,"ax",%progbits
 2272              		.align	1
 2273              		.global	HAL_I2C_Master_Transmit_DMA
 2274              		.syntax unified
 2275              		.thumb
 2276              		.thumb_func
 2277              		.fpu fpv5-sp-d16
 2279              	HAL_I2C_Master_Transmit_DMA:
 2280              	.LFB150:
1377:Drivers/STM32F7xx_HAL_Driver/Src/stm32f7xx_hal_i2c.c **** 
1378:Drivers/STM32F7xx_HAL_Driver/Src/stm32f7xx_hal_i2c.c **** /**
1379:Drivers/STM32F7xx_HAL_Driver/Src/stm32f7xx_hal_i2c.c ****   * @brief  Transmit in master mode an amount of data in non-blocking mode with DMA
1380:Drivers/STM32F7xx_HAL_Driver/Src/stm32f7xx_hal_i2c.c ****   * @param  hi2c Pointer to a I2C_HandleTypeDef structure that contains
1381:Drivers/STM32F7xx_HAL_Driver/Src/stm32f7xx_hal_i2c.c ****   *                the configuration information for the specified I2C.
1382:Drivers/STM32F7xx_HAL_Driver/Src/stm32f7xx_hal_i2c.c ****   * @param  DevAddress Target device address which contain device 7 or 10 bits address value
1383:Drivers/STM32F7xx_HAL_Driver/Src/stm32f7xx_hal_i2c.c ****   *         in datasheet must be shifted to the left before calling the interface
1384:Drivers/STM32F7xx_HAL_Driver/Src/stm32f7xx_hal_i2c.c ****   * @param  pData Pointer to data buffer
1385:Drivers/STM32F7xx_HAL_Driver/Src/stm32f7xx_hal_i2c.c ****   * @param  Size Amount of data to be sent
1386:Drivers/STM32F7xx_HAL_Driver/Src/stm32f7xx_hal_i2c.c ****   * @retval HAL status
1387:Drivers/STM32F7xx_HAL_Driver/Src/stm32f7xx_hal_i2c.c ****   */
1388:Drivers/STM32F7xx_HAL_Driver/Src/stm32f7xx_hal_i2c.c **** HAL_StatusTypeDef HAL_I2C_Master_Transmit_DMA(I2C_HandleTypeDef *hi2c, uint16_t DevAddress, uint8_t
1389:Drivers/STM32F7xx_HAL_Driver/Src/stm32f7xx_hal_i2c.c **** {
ARM GAS  /var/folders/n8/cvzdcwlj0vl4g_wtyz1ffy300000gn/T//ccBPNZvy.s 			page 65


 2281              		.loc 1 1389 0
 2282              		.cfi_startproc
 2283              		@ args = 0, pretend = 0, frame = 24
 2284              		@ frame_needed = 1, uses_anonymous_args = 0
 2285 0000 80B5     		push	{r7, lr}
 2286              	.LCFI62:
 2287              		.cfi_def_cfa_offset 8
 2288              		.cfi_offset 7, -8
 2289              		.cfi_offset 14, -4
 2290 0002 88B0     		sub	sp, sp, #32
 2291              	.LCFI63:
 2292              		.cfi_def_cfa_offset 40
 2293 0004 02AF     		add	r7, sp, #8
 2294              	.LCFI64:
 2295              		.cfi_def_cfa 7, 32
 2296 0006 F860     		str	r0, [r7, #12]
 2297 0008 7A60     		str	r2, [r7, #4]
 2298 000a 1A46     		mov	r2, r3
 2299 000c 0B46     		mov	r3, r1	@ movhi
 2300 000e 7B81     		strh	r3, [r7, #10]	@ movhi
 2301 0010 1346     		mov	r3, r2	@ movhi
 2302 0012 3B81     		strh	r3, [r7, #8]	@ movhi
1390:Drivers/STM32F7xx_HAL_Driver/Src/stm32f7xx_hal_i2c.c ****   uint32_t xfermode = 0U;
 2303              		.loc 1 1390 0
 2304 0014 0023     		movs	r3, #0
 2305 0016 7B61     		str	r3, [r7, #20]
1391:Drivers/STM32F7xx_HAL_Driver/Src/stm32f7xx_hal_i2c.c **** 
1392:Drivers/STM32F7xx_HAL_Driver/Src/stm32f7xx_hal_i2c.c ****   if (hi2c->State == HAL_I2C_STATE_READY)
 2306              		.loc 1 1392 0
 2307 0018 FB68     		ldr	r3, [r7, #12]
 2308 001a 93F84130 		ldrb	r3, [r3, #65]
 2309 001e DBB2     		uxtb	r3, r3
 2310 0020 202B     		cmp	r3, #32
 2311 0022 40F09B80 		bne	.L113
1393:Drivers/STM32F7xx_HAL_Driver/Src/stm32f7xx_hal_i2c.c ****   {
1394:Drivers/STM32F7xx_HAL_Driver/Src/stm32f7xx_hal_i2c.c ****     if (__HAL_I2C_GET_FLAG(hi2c, I2C_FLAG_BUSY) == SET)
 2312              		.loc 1 1394 0
 2313 0026 FB68     		ldr	r3, [r7, #12]
 2314 0028 1B68     		ldr	r3, [r3]
 2315 002a 9B69     		ldr	r3, [r3, #24]
 2316 002c 03F40043 		and	r3, r3, #32768
 2317 0030 B3F5004F 		cmp	r3, #32768
 2318 0034 01D1     		bne	.L114
1395:Drivers/STM32F7xx_HAL_Driver/Src/stm32f7xx_hal_i2c.c ****     {
1396:Drivers/STM32F7xx_HAL_Driver/Src/stm32f7xx_hal_i2c.c ****       return HAL_BUSY;
 2319              		.loc 1 1396 0
 2320 0036 0223     		movs	r3, #2
 2321 0038 91E0     		b	.L115
 2322              	.L114:
1397:Drivers/STM32F7xx_HAL_Driver/Src/stm32f7xx_hal_i2c.c ****     }
1398:Drivers/STM32F7xx_HAL_Driver/Src/stm32f7xx_hal_i2c.c **** 
1399:Drivers/STM32F7xx_HAL_Driver/Src/stm32f7xx_hal_i2c.c ****     /* Process Locked */
1400:Drivers/STM32F7xx_HAL_Driver/Src/stm32f7xx_hal_i2c.c ****     __HAL_LOCK(hi2c);
 2323              		.loc 1 1400 0
 2324 003a FB68     		ldr	r3, [r7, #12]
 2325 003c 93F84030 		ldrb	r3, [r3, #64]	@ zero_extendqisi2
 2326 0040 012B     		cmp	r3, #1
ARM GAS  /var/folders/n8/cvzdcwlj0vl4g_wtyz1ffy300000gn/T//ccBPNZvy.s 			page 66


 2327 0042 01D1     		bne	.L116
 2328              		.loc 1 1400 0 is_stmt 0 discriminator 1
 2329 0044 0223     		movs	r3, #2
 2330 0046 8AE0     		b	.L115
 2331              	.L116:
 2332              		.loc 1 1400 0 discriminator 2
 2333 0048 FB68     		ldr	r3, [r7, #12]
 2334 004a 0122     		movs	r2, #1
 2335 004c 83F84020 		strb	r2, [r3, #64]
1401:Drivers/STM32F7xx_HAL_Driver/Src/stm32f7xx_hal_i2c.c **** 
1402:Drivers/STM32F7xx_HAL_Driver/Src/stm32f7xx_hal_i2c.c ****     hi2c->State       = HAL_I2C_STATE_BUSY_TX;
 2336              		.loc 1 1402 0 is_stmt 1 discriminator 2
 2337 0050 FB68     		ldr	r3, [r7, #12]
 2338 0052 2122     		movs	r2, #33
 2339 0054 83F84120 		strb	r2, [r3, #65]
1403:Drivers/STM32F7xx_HAL_Driver/Src/stm32f7xx_hal_i2c.c ****     hi2c->Mode        = HAL_I2C_MODE_MASTER;
 2340              		.loc 1 1403 0 discriminator 2
 2341 0058 FB68     		ldr	r3, [r7, #12]
 2342 005a 1022     		movs	r2, #16
 2343 005c 83F84220 		strb	r2, [r3, #66]
1404:Drivers/STM32F7xx_HAL_Driver/Src/stm32f7xx_hal_i2c.c ****     hi2c->ErrorCode   = HAL_I2C_ERROR_NONE;
 2344              		.loc 1 1404 0 discriminator 2
 2345 0060 FB68     		ldr	r3, [r7, #12]
 2346 0062 0022     		movs	r2, #0
 2347 0064 5A64     		str	r2, [r3, #68]
1405:Drivers/STM32F7xx_HAL_Driver/Src/stm32f7xx_hal_i2c.c **** 
1406:Drivers/STM32F7xx_HAL_Driver/Src/stm32f7xx_hal_i2c.c ****     /* Prepare transfer parameters */
1407:Drivers/STM32F7xx_HAL_Driver/Src/stm32f7xx_hal_i2c.c ****     hi2c->pBuffPtr    = pData;
 2348              		.loc 1 1407 0 discriminator 2
 2349 0066 FB68     		ldr	r3, [r7, #12]
 2350 0068 7A68     		ldr	r2, [r7, #4]
 2351 006a 5A62     		str	r2, [r3, #36]
1408:Drivers/STM32F7xx_HAL_Driver/Src/stm32f7xx_hal_i2c.c ****     hi2c->XferCount   = Size;
 2352              		.loc 1 1408 0 discriminator 2
 2353 006c FB68     		ldr	r3, [r7, #12]
 2354 006e 3A89     		ldrh	r2, [r7, #8]	@ movhi
 2355 0070 5A85     		strh	r2, [r3, #42]	@ movhi
1409:Drivers/STM32F7xx_HAL_Driver/Src/stm32f7xx_hal_i2c.c ****     hi2c->XferOptions = I2C_NO_OPTION_FRAME;
 2356              		.loc 1 1409 0 discriminator 2
 2357 0072 FB68     		ldr	r3, [r7, #12]
 2358 0074 3C4A     		ldr	r2, .L121
 2359 0076 DA62     		str	r2, [r3, #44]
1410:Drivers/STM32F7xx_HAL_Driver/Src/stm32f7xx_hal_i2c.c ****     hi2c->XferISR     = I2C_Master_ISR_DMA;
 2360              		.loc 1 1410 0 discriminator 2
 2361 0078 FB68     		ldr	r3, [r7, #12]
 2362 007a 3C4A     		ldr	r2, .L121+4
 2363 007c 5A63     		str	r2, [r3, #52]
1411:Drivers/STM32F7xx_HAL_Driver/Src/stm32f7xx_hal_i2c.c **** 
1412:Drivers/STM32F7xx_HAL_Driver/Src/stm32f7xx_hal_i2c.c ****     if (hi2c->XferCount > MAX_NBYTE_SIZE)
 2364              		.loc 1 1412 0 discriminator 2
 2365 007e FB68     		ldr	r3, [r7, #12]
 2366 0080 5B8D     		ldrh	r3, [r3, #42]	@ movhi
 2367 0082 9BB2     		uxth	r3, r3
 2368 0084 FF2B     		cmp	r3, #255
 2369 0086 06D9     		bls	.L117
1413:Drivers/STM32F7xx_HAL_Driver/Src/stm32f7xx_hal_i2c.c ****     {
1414:Drivers/STM32F7xx_HAL_Driver/Src/stm32f7xx_hal_i2c.c ****       hi2c->XferSize = MAX_NBYTE_SIZE;
ARM GAS  /var/folders/n8/cvzdcwlj0vl4g_wtyz1ffy300000gn/T//ccBPNZvy.s 			page 67


 2370              		.loc 1 1414 0
 2371 0088 FB68     		ldr	r3, [r7, #12]
 2372 008a FF22     		movs	r2, #255
 2373 008c 1A85     		strh	r2, [r3, #40]	@ movhi
1415:Drivers/STM32F7xx_HAL_Driver/Src/stm32f7xx_hal_i2c.c ****       xfermode = I2C_RELOAD_MODE;
 2374              		.loc 1 1415 0
 2375 008e 4FF08073 		mov	r3, #16777216
 2376 0092 7B61     		str	r3, [r7, #20]
 2377 0094 07E0     		b	.L118
 2378              	.L117:
1416:Drivers/STM32F7xx_HAL_Driver/Src/stm32f7xx_hal_i2c.c ****     }
1417:Drivers/STM32F7xx_HAL_Driver/Src/stm32f7xx_hal_i2c.c ****     else
1418:Drivers/STM32F7xx_HAL_Driver/Src/stm32f7xx_hal_i2c.c ****     {
1419:Drivers/STM32F7xx_HAL_Driver/Src/stm32f7xx_hal_i2c.c ****       hi2c->XferSize = hi2c->XferCount;
 2379              		.loc 1 1419 0
 2380 0096 FB68     		ldr	r3, [r7, #12]
 2381 0098 5B8D     		ldrh	r3, [r3, #42]	@ movhi
 2382 009a 9AB2     		uxth	r2, r3
 2383 009c FB68     		ldr	r3, [r7, #12]
 2384 009e 1A85     		strh	r2, [r3, #40]	@ movhi
1420:Drivers/STM32F7xx_HAL_Driver/Src/stm32f7xx_hal_i2c.c ****       xfermode = I2C_AUTOEND_MODE;
 2385              		.loc 1 1420 0
 2386 00a0 4FF00073 		mov	r3, #33554432
 2387 00a4 7B61     		str	r3, [r7, #20]
 2388              	.L118:
1421:Drivers/STM32F7xx_HAL_Driver/Src/stm32f7xx_hal_i2c.c ****     }
1422:Drivers/STM32F7xx_HAL_Driver/Src/stm32f7xx_hal_i2c.c **** 
1423:Drivers/STM32F7xx_HAL_Driver/Src/stm32f7xx_hal_i2c.c ****     if (hi2c->XferSize > 0U)
 2389              		.loc 1 1423 0
 2390 00a6 FB68     		ldr	r3, [r7, #12]
 2391 00a8 1B8D     		ldrh	r3, [r3, #40]
 2392 00aa 002B     		cmp	r3, #0
 2393 00ac 3ED0     		beq	.L119
1424:Drivers/STM32F7xx_HAL_Driver/Src/stm32f7xx_hal_i2c.c ****     {
1425:Drivers/STM32F7xx_HAL_Driver/Src/stm32f7xx_hal_i2c.c ****       /* Set the I2C DMA transfer complete callback */
1426:Drivers/STM32F7xx_HAL_Driver/Src/stm32f7xx_hal_i2c.c ****       hi2c->hdmatx->XferCpltCallback = I2C_DMAMasterTransmitCplt;
 2394              		.loc 1 1426 0
 2395 00ae FB68     		ldr	r3, [r7, #12]
 2396 00b0 9B6B     		ldr	r3, [r3, #56]
 2397 00b2 2F4A     		ldr	r2, .L121+8
 2398 00b4 DA63     		str	r2, [r3, #60]
1427:Drivers/STM32F7xx_HAL_Driver/Src/stm32f7xx_hal_i2c.c **** 
1428:Drivers/STM32F7xx_HAL_Driver/Src/stm32f7xx_hal_i2c.c ****       /* Set the DMA error callback */
1429:Drivers/STM32F7xx_HAL_Driver/Src/stm32f7xx_hal_i2c.c ****       hi2c->hdmatx->XferErrorCallback = I2C_DMAError;
 2399              		.loc 1 1429 0
 2400 00b6 FB68     		ldr	r3, [r7, #12]
 2401 00b8 9B6B     		ldr	r3, [r3, #56]
 2402 00ba 2E4A     		ldr	r2, .L121+12
 2403 00bc DA64     		str	r2, [r3, #76]
1430:Drivers/STM32F7xx_HAL_Driver/Src/stm32f7xx_hal_i2c.c **** 
1431:Drivers/STM32F7xx_HAL_Driver/Src/stm32f7xx_hal_i2c.c ****       /* Set the unused DMA callbacks to NULL */
1432:Drivers/STM32F7xx_HAL_Driver/Src/stm32f7xx_hal_i2c.c ****       hi2c->hdmatx->XferHalfCpltCallback = NULL;
 2404              		.loc 1 1432 0
 2405 00be FB68     		ldr	r3, [r7, #12]
 2406 00c0 9B6B     		ldr	r3, [r3, #56]
 2407 00c2 0022     		movs	r2, #0
 2408 00c4 1A64     		str	r2, [r3, #64]
ARM GAS  /var/folders/n8/cvzdcwlj0vl4g_wtyz1ffy300000gn/T//ccBPNZvy.s 			page 68


1433:Drivers/STM32F7xx_HAL_Driver/Src/stm32f7xx_hal_i2c.c ****       hi2c->hdmatx->XferAbortCallback = NULL;
 2409              		.loc 1 1433 0
 2410 00c6 FB68     		ldr	r3, [r7, #12]
 2411 00c8 9B6B     		ldr	r3, [r3, #56]
 2412 00ca 0022     		movs	r2, #0
 2413 00cc 1A65     		str	r2, [r3, #80]
1434:Drivers/STM32F7xx_HAL_Driver/Src/stm32f7xx_hal_i2c.c **** 
1435:Drivers/STM32F7xx_HAL_Driver/Src/stm32f7xx_hal_i2c.c ****       /* Enable the DMA stream */
1436:Drivers/STM32F7xx_HAL_Driver/Src/stm32f7xx_hal_i2c.c ****       HAL_DMA_Start_IT(hi2c->hdmatx, (uint32_t)pData, (uint32_t)&hi2c->Instance->TXDR, hi2c->XferSi
 2414              		.loc 1 1436 0
 2415 00ce FB68     		ldr	r3, [r7, #12]
 2416 00d0 986B     		ldr	r0, [r3, #56]
 2417 00d2 7968     		ldr	r1, [r7, #4]
 2418 00d4 FB68     		ldr	r3, [r7, #12]
 2419 00d6 1B68     		ldr	r3, [r3]
 2420 00d8 2833     		adds	r3, r3, #40
 2421 00da 1A46     		mov	r2, r3
 2422 00dc FB68     		ldr	r3, [r7, #12]
 2423 00de 1B8D     		ldrh	r3, [r3, #40]
 2424 00e0 FFF7FEFF 		bl	HAL_DMA_Start_IT
1437:Drivers/STM32F7xx_HAL_Driver/Src/stm32f7xx_hal_i2c.c **** 
1438:Drivers/STM32F7xx_HAL_Driver/Src/stm32f7xx_hal_i2c.c ****       /* Send Slave Address */
1439:Drivers/STM32F7xx_HAL_Driver/Src/stm32f7xx_hal_i2c.c ****       /* Set NBYTES to write and reload if hi2c->XferCount > MAX_NBYTE_SIZE and generate RESTART */
1440:Drivers/STM32F7xx_HAL_Driver/Src/stm32f7xx_hal_i2c.c ****       I2C_TransferConfig(hi2c, DevAddress, hi2c->XferSize, xfermode, I2C_GENERATE_START_WRITE);
 2425              		.loc 1 1440 0
 2426 00e4 FB68     		ldr	r3, [r7, #12]
 2427 00e6 1B8D     		ldrh	r3, [r3, #40]
 2428 00e8 DAB2     		uxtb	r2, r3
 2429 00ea 7989     		ldrh	r1, [r7, #10]
 2430 00ec 224B     		ldr	r3, .L121+16
 2431 00ee 0093     		str	r3, [sp]
 2432 00f0 7B69     		ldr	r3, [r7, #20]
 2433 00f2 F868     		ldr	r0, [r7, #12]
 2434 00f4 FFF7FEFF 		bl	I2C_TransferConfig
1441:Drivers/STM32F7xx_HAL_Driver/Src/stm32f7xx_hal_i2c.c **** 
1442:Drivers/STM32F7xx_HAL_Driver/Src/stm32f7xx_hal_i2c.c ****       /* Update XferCount value */
1443:Drivers/STM32F7xx_HAL_Driver/Src/stm32f7xx_hal_i2c.c ****       hi2c->XferCount -= hi2c->XferSize;
 2435              		.loc 1 1443 0
 2436 00f8 FB68     		ldr	r3, [r7, #12]
 2437 00fa 5B8D     		ldrh	r3, [r3, #42]	@ movhi
 2438 00fc 9AB2     		uxth	r2, r3
 2439 00fe FB68     		ldr	r3, [r7, #12]
 2440 0100 1B8D     		ldrh	r3, [r3, #40]
 2441 0102 D31A     		subs	r3, r2, r3
 2442 0104 9AB2     		uxth	r2, r3
 2443 0106 FB68     		ldr	r3, [r7, #12]
 2444 0108 5A85     		strh	r2, [r3, #42]	@ movhi
1444:Drivers/STM32F7xx_HAL_Driver/Src/stm32f7xx_hal_i2c.c **** 
1445:Drivers/STM32F7xx_HAL_Driver/Src/stm32f7xx_hal_i2c.c ****       /* Process Unlocked */
1446:Drivers/STM32F7xx_HAL_Driver/Src/stm32f7xx_hal_i2c.c ****       __HAL_UNLOCK(hi2c);
 2445              		.loc 1 1446 0
 2446 010a FB68     		ldr	r3, [r7, #12]
 2447 010c 0022     		movs	r2, #0
 2448 010e 83F84020 		strb	r2, [r3, #64]
1447:Drivers/STM32F7xx_HAL_Driver/Src/stm32f7xx_hal_i2c.c **** 
1448:Drivers/STM32F7xx_HAL_Driver/Src/stm32f7xx_hal_i2c.c ****       /* Note : The I2C interrupts must be enabled after unlocking current process
1449:Drivers/STM32F7xx_HAL_Driver/Src/stm32f7xx_hal_i2c.c ****                 to avoid the risk of I2C interrupt handle execution before current
ARM GAS  /var/folders/n8/cvzdcwlj0vl4g_wtyz1ffy300000gn/T//ccBPNZvy.s 			page 69


1450:Drivers/STM32F7xx_HAL_Driver/Src/stm32f7xx_hal_i2c.c ****                 process unlock */
1451:Drivers/STM32F7xx_HAL_Driver/Src/stm32f7xx_hal_i2c.c ****       /* Enable ERR and NACK interrupts */
1452:Drivers/STM32F7xx_HAL_Driver/Src/stm32f7xx_hal_i2c.c ****       I2C_Enable_IRQ(hi2c, I2C_XFER_ERROR_IT);
 2449              		.loc 1 1452 0
 2450 0112 1121     		movs	r1, #17
 2451 0114 F868     		ldr	r0, [r7, #12]
 2452 0116 FFF7FEFF 		bl	I2C_Enable_IRQ
1453:Drivers/STM32F7xx_HAL_Driver/Src/stm32f7xx_hal_i2c.c **** 
1454:Drivers/STM32F7xx_HAL_Driver/Src/stm32f7xx_hal_i2c.c ****       /* Enable DMA Request */
1455:Drivers/STM32F7xx_HAL_Driver/Src/stm32f7xx_hal_i2c.c ****       hi2c->Instance->CR1 |= I2C_CR1_TXDMAEN;
 2453              		.loc 1 1455 0
 2454 011a FB68     		ldr	r3, [r7, #12]
 2455 011c 1B68     		ldr	r3, [r3]
 2456 011e 1A68     		ldr	r2, [r3]
 2457 0120 FB68     		ldr	r3, [r7, #12]
 2458 0122 1B68     		ldr	r3, [r3]
 2459 0124 42F48042 		orr	r2, r2, #16384
 2460 0128 1A60     		str	r2, [r3]
 2461 012a 15E0     		b	.L120
 2462              	.L119:
1456:Drivers/STM32F7xx_HAL_Driver/Src/stm32f7xx_hal_i2c.c ****     }
1457:Drivers/STM32F7xx_HAL_Driver/Src/stm32f7xx_hal_i2c.c ****     else
1458:Drivers/STM32F7xx_HAL_Driver/Src/stm32f7xx_hal_i2c.c ****     {
1459:Drivers/STM32F7xx_HAL_Driver/Src/stm32f7xx_hal_i2c.c ****       /* Update Transfer ISR function pointer */
1460:Drivers/STM32F7xx_HAL_Driver/Src/stm32f7xx_hal_i2c.c ****       hi2c->XferISR = I2C_Master_ISR_IT;
 2463              		.loc 1 1460 0
 2464 012c FB68     		ldr	r3, [r7, #12]
 2465 012e 134A     		ldr	r2, .L121+20
 2466 0130 5A63     		str	r2, [r3, #52]
1461:Drivers/STM32F7xx_HAL_Driver/Src/stm32f7xx_hal_i2c.c **** 
1462:Drivers/STM32F7xx_HAL_Driver/Src/stm32f7xx_hal_i2c.c ****       /* Send Slave Address */
1463:Drivers/STM32F7xx_HAL_Driver/Src/stm32f7xx_hal_i2c.c ****       /* Set NBYTES to write and generate START condition */
1464:Drivers/STM32F7xx_HAL_Driver/Src/stm32f7xx_hal_i2c.c ****       I2C_TransferConfig(hi2c, DevAddress, hi2c->XferSize, I2C_AUTOEND_MODE, I2C_GENERATE_START_WRI
 2467              		.loc 1 1464 0
 2468 0132 FB68     		ldr	r3, [r7, #12]
 2469 0134 1B8D     		ldrh	r3, [r3, #40]
 2470 0136 DAB2     		uxtb	r2, r3
 2471 0138 7989     		ldrh	r1, [r7, #10]
 2472 013a 0F4B     		ldr	r3, .L121+16
 2473 013c 0093     		str	r3, [sp]
 2474 013e 4FF00073 		mov	r3, #33554432
 2475 0142 F868     		ldr	r0, [r7, #12]
 2476 0144 FFF7FEFF 		bl	I2C_TransferConfig
1465:Drivers/STM32F7xx_HAL_Driver/Src/stm32f7xx_hal_i2c.c **** 
1466:Drivers/STM32F7xx_HAL_Driver/Src/stm32f7xx_hal_i2c.c ****       /* Process Unlocked */
1467:Drivers/STM32F7xx_HAL_Driver/Src/stm32f7xx_hal_i2c.c ****       __HAL_UNLOCK(hi2c);
 2477              		.loc 1 1467 0
 2478 0148 FB68     		ldr	r3, [r7, #12]
 2479 014a 0022     		movs	r2, #0
 2480 014c 83F84020 		strb	r2, [r3, #64]
1468:Drivers/STM32F7xx_HAL_Driver/Src/stm32f7xx_hal_i2c.c **** 
1469:Drivers/STM32F7xx_HAL_Driver/Src/stm32f7xx_hal_i2c.c ****       /* Note : The I2C interrupts must be enabled after unlocking current process
1470:Drivers/STM32F7xx_HAL_Driver/Src/stm32f7xx_hal_i2c.c ****                 to avoid the risk of I2C interrupt handle execution before current
1471:Drivers/STM32F7xx_HAL_Driver/Src/stm32f7xx_hal_i2c.c ****                 process unlock */
1472:Drivers/STM32F7xx_HAL_Driver/Src/stm32f7xx_hal_i2c.c ****       /* Enable ERR, TC, STOP, NACK, TXI interrupt */
1473:Drivers/STM32F7xx_HAL_Driver/Src/stm32f7xx_hal_i2c.c ****       /* possible to enable all of these */
1474:Drivers/STM32F7xx_HAL_Driver/Src/stm32f7xx_hal_i2c.c ****       /* I2C_IT_ERRI | I2C_IT_TCI| I2C_IT_STOPI| I2C_IT_NACKI | I2C_IT_ADDRI | I2C_IT_RXI | I2C_IT_
ARM GAS  /var/folders/n8/cvzdcwlj0vl4g_wtyz1ffy300000gn/T//ccBPNZvy.s 			page 70


1475:Drivers/STM32F7xx_HAL_Driver/Src/stm32f7xx_hal_i2c.c ****       I2C_Enable_IRQ(hi2c, I2C_XFER_TX_IT);
 2481              		.loc 1 1475 0
 2482 0150 0121     		movs	r1, #1
 2483 0152 F868     		ldr	r0, [r7, #12]
 2484 0154 FFF7FEFF 		bl	I2C_Enable_IRQ
 2485              	.L120:
1476:Drivers/STM32F7xx_HAL_Driver/Src/stm32f7xx_hal_i2c.c ****     }
1477:Drivers/STM32F7xx_HAL_Driver/Src/stm32f7xx_hal_i2c.c **** 
1478:Drivers/STM32F7xx_HAL_Driver/Src/stm32f7xx_hal_i2c.c ****     return HAL_OK;
 2486              		.loc 1 1478 0
 2487 0158 0023     		movs	r3, #0
 2488 015a 00E0     		b	.L115
 2489              	.L113:
1479:Drivers/STM32F7xx_HAL_Driver/Src/stm32f7xx_hal_i2c.c ****   }
1480:Drivers/STM32F7xx_HAL_Driver/Src/stm32f7xx_hal_i2c.c ****   else
1481:Drivers/STM32F7xx_HAL_Driver/Src/stm32f7xx_hal_i2c.c ****   {
1482:Drivers/STM32F7xx_HAL_Driver/Src/stm32f7xx_hal_i2c.c ****     return HAL_BUSY;
 2490              		.loc 1 1482 0
 2491 015c 0223     		movs	r3, #2
 2492              	.L115:
1483:Drivers/STM32F7xx_HAL_Driver/Src/stm32f7xx_hal_i2c.c ****   }
1484:Drivers/STM32F7xx_HAL_Driver/Src/stm32f7xx_hal_i2c.c **** }
 2493              		.loc 1 1484 0
 2494 015e 1846     		mov	r0, r3
 2495 0160 1837     		adds	r7, r7, #24
 2496              	.LCFI65:
 2497              		.cfi_def_cfa_offset 8
 2498 0162 BD46     		mov	sp, r7
 2499              	.LCFI66:
 2500              		.cfi_def_cfa_register 13
 2501              		@ sp needed
 2502 0164 80BD     		pop	{r7, pc}
 2503              	.L122:
 2504 0166 00BF     		.align	2
 2505              	.L121:
 2506 0168 0000FFFF 		.word	-65536
 2507 016c 00000000 		.word	I2C_Master_ISR_DMA
 2508 0170 00000000 		.word	I2C_DMAMasterTransmitCplt
 2509 0174 00000000 		.word	I2C_DMAError
 2510 0178 00200080 		.word	-2147475456
 2511 017c 00000000 		.word	I2C_Master_ISR_IT
 2512              		.cfi_endproc
 2513              	.LFE150:
 2515              		.section	.text.HAL_I2C_Master_Receive_DMA,"ax",%progbits
 2516              		.align	1
 2517              		.global	HAL_I2C_Master_Receive_DMA
 2518              		.syntax unified
 2519              		.thumb
 2520              		.thumb_func
 2521              		.fpu fpv5-sp-d16
 2523              	HAL_I2C_Master_Receive_DMA:
 2524              	.LFB151:
1485:Drivers/STM32F7xx_HAL_Driver/Src/stm32f7xx_hal_i2c.c **** 
1486:Drivers/STM32F7xx_HAL_Driver/Src/stm32f7xx_hal_i2c.c **** /**
1487:Drivers/STM32F7xx_HAL_Driver/Src/stm32f7xx_hal_i2c.c ****   * @brief  Receive in master mode an amount of data in non-blocking mode with DMA
1488:Drivers/STM32F7xx_HAL_Driver/Src/stm32f7xx_hal_i2c.c ****   * @param  hi2c Pointer to a I2C_HandleTypeDef structure that contains
1489:Drivers/STM32F7xx_HAL_Driver/Src/stm32f7xx_hal_i2c.c ****   *                the configuration information for the specified I2C.
