ARM GAS  /var/folders/n8/cvzdcwlj0vl4g_wtyz1ffy300000gn/T//ccZxLSjg.s 			page 1


   1              		.cpu cortex-m7
   2              		.eabi_attribute 27, 1
   3              		.eabi_attribute 28, 1
   4              		.eabi_attribute 20, 1
   5              		.eabi_attribute 21, 1
   6              		.eabi_attribute 23, 3
   7              		.eabi_attribute 24, 1
   8              		.eabi_attribute 25, 1
   9              		.eabi_attribute 26, 1
  10              		.eabi_attribute 30, 6
  11              		.eabi_attribute 34, 1
  12              		.eabi_attribute 18, 4
  13              		.file	"stm32f7xx_hal_dma.c"
  14              		.text
  15              	.Ltext0:
  16              		.cfi_sections	.debug_frame
  17              		.section	.text.HAL_DMA_Init,"ax",%progbits
  18              		.align	1
  19              		.global	HAL_DMA_Init
  20              		.syntax unified
  21              		.thumb
  22              		.thumb_func
  23              		.fpu fpv5-sp-d16
  25              	HAL_DMA_Init:
  26              	.LFB138:
  27              		.file 1 "Drivers/STM32F7xx_HAL_Driver/Src/stm32f7xx_hal_dma.c"
   1:Drivers/STM32F7xx_HAL_Driver/Src/stm32f7xx_hal_dma.c **** /**
   2:Drivers/STM32F7xx_HAL_Driver/Src/stm32f7xx_hal_dma.c ****   ******************************************************************************
   3:Drivers/STM32F7xx_HAL_Driver/Src/stm32f7xx_hal_dma.c ****   * @file    stm32f7xx_hal_dma.c
   4:Drivers/STM32F7xx_HAL_Driver/Src/stm32f7xx_hal_dma.c ****   * @author  MCD Application Team
   5:Drivers/STM32F7xx_HAL_Driver/Src/stm32f7xx_hal_dma.c ****   * @brief   DMA HAL module driver.
   6:Drivers/STM32F7xx_HAL_Driver/Src/stm32f7xx_hal_dma.c ****   *    
   7:Drivers/STM32F7xx_HAL_Driver/Src/stm32f7xx_hal_dma.c ****   *          This file provides firmware functions to manage the following 
   8:Drivers/STM32F7xx_HAL_Driver/Src/stm32f7xx_hal_dma.c ****   *          functionalities of the Direct Memory Access (DMA) peripheral:
   9:Drivers/STM32F7xx_HAL_Driver/Src/stm32f7xx_hal_dma.c ****   *           + Initialization and de-initialization functions
  10:Drivers/STM32F7xx_HAL_Driver/Src/stm32f7xx_hal_dma.c ****   *           + IO operation functions
  11:Drivers/STM32F7xx_HAL_Driver/Src/stm32f7xx_hal_dma.c ****   *           + Peripheral State and errors functions
  12:Drivers/STM32F7xx_HAL_Driver/Src/stm32f7xx_hal_dma.c ****   @verbatim     
  13:Drivers/STM32F7xx_HAL_Driver/Src/stm32f7xx_hal_dma.c ****   ==============================================================================
  14:Drivers/STM32F7xx_HAL_Driver/Src/stm32f7xx_hal_dma.c ****                         ##### How to use this driver #####
  15:Drivers/STM32F7xx_HAL_Driver/Src/stm32f7xx_hal_dma.c ****   ==============================================================================
  16:Drivers/STM32F7xx_HAL_Driver/Src/stm32f7xx_hal_dma.c ****   [..]
  17:Drivers/STM32F7xx_HAL_Driver/Src/stm32f7xx_hal_dma.c ****    (#) Enable and configure the peripheral to be connected to the DMA Stream
  18:Drivers/STM32F7xx_HAL_Driver/Src/stm32f7xx_hal_dma.c ****        (except for internal SRAM/FLASH memories: no initialization is 
  19:Drivers/STM32F7xx_HAL_Driver/Src/stm32f7xx_hal_dma.c ****        necessary) please refer to Reference manual for connection between peripherals
  20:Drivers/STM32F7xx_HAL_Driver/Src/stm32f7xx_hal_dma.c ****        and DMA requests.
  21:Drivers/STM32F7xx_HAL_Driver/Src/stm32f7xx_hal_dma.c **** 
  22:Drivers/STM32F7xx_HAL_Driver/Src/stm32f7xx_hal_dma.c ****    (#) For a given Stream, program the required configuration through the following parameters:
  23:Drivers/STM32F7xx_HAL_Driver/Src/stm32f7xx_hal_dma.c ****        Transfer Direction, Source and Destination data formats, 
  24:Drivers/STM32F7xx_HAL_Driver/Src/stm32f7xx_hal_dma.c ****        Circular, Normal or peripheral flow control mode, Stream Priority level, 
  25:Drivers/STM32F7xx_HAL_Driver/Src/stm32f7xx_hal_dma.c ****        Source and Destination Increment mode, FIFO mode and its Threshold (if needed), 
  26:Drivers/STM32F7xx_HAL_Driver/Src/stm32f7xx_hal_dma.c ****        Burst mode for Source and/or Destination (if needed) using HAL_DMA_Init() function.
  27:Drivers/STM32F7xx_HAL_Driver/Src/stm32f7xx_hal_dma.c **** 
  28:Drivers/STM32F7xx_HAL_Driver/Src/stm32f7xx_hal_dma.c ****    -@-   Prior to HAL_DMA_Init() the clock must be enabled for DMA through the following macros:
  29:Drivers/STM32F7xx_HAL_Driver/Src/stm32f7xx_hal_dma.c ****          __HAL_RCC_DMA1_CLK_ENABLE() or __HAL_RCC_DMA2_CLK_ENABLE().
  30:Drivers/STM32F7xx_HAL_Driver/Src/stm32f7xx_hal_dma.c **** 
  31:Drivers/STM32F7xx_HAL_Driver/Src/stm32f7xx_hal_dma.c ****      *** Polling mode IO operation ***
ARM GAS  /var/folders/n8/cvzdcwlj0vl4g_wtyz1ffy300000gn/T//ccZxLSjg.s 			page 2


  32:Drivers/STM32F7xx_HAL_Driver/Src/stm32f7xx_hal_dma.c ****      =================================
  33:Drivers/STM32F7xx_HAL_Driver/Src/stm32f7xx_hal_dma.c ****     [..]
  34:Drivers/STM32F7xx_HAL_Driver/Src/stm32f7xx_hal_dma.c ****           (+) Use HAL_DMA_Start() to start DMA transfer after the configuration of Source 
  35:Drivers/STM32F7xx_HAL_Driver/Src/stm32f7xx_hal_dma.c ****               address and destination address and the Length of data to be transferred.
  36:Drivers/STM32F7xx_HAL_Driver/Src/stm32f7xx_hal_dma.c ****           (+) Use HAL_DMA_PollForTransfer() to poll for the end of current transfer, in this  
  37:Drivers/STM32F7xx_HAL_Driver/Src/stm32f7xx_hal_dma.c ****               case a fixed Timeout can be configured by User depending from his application.
  38:Drivers/STM32F7xx_HAL_Driver/Src/stm32f7xx_hal_dma.c ****           (+) Use HAL_DMA_Abort() function to abort the current transfer.
  39:Drivers/STM32F7xx_HAL_Driver/Src/stm32f7xx_hal_dma.c **** 
  40:Drivers/STM32F7xx_HAL_Driver/Src/stm32f7xx_hal_dma.c ****      *** Interrupt mode IO operation ***
  41:Drivers/STM32F7xx_HAL_Driver/Src/stm32f7xx_hal_dma.c ****      ===================================
  42:Drivers/STM32F7xx_HAL_Driver/Src/stm32f7xx_hal_dma.c ****     [..]
  43:Drivers/STM32F7xx_HAL_Driver/Src/stm32f7xx_hal_dma.c ****           (+) Configure the DMA interrupt priority using HAL_NVIC_SetPriority()
  44:Drivers/STM32F7xx_HAL_Driver/Src/stm32f7xx_hal_dma.c ****           (+) Enable the DMA IRQ handler using HAL_NVIC_EnableIRQ()
  45:Drivers/STM32F7xx_HAL_Driver/Src/stm32f7xx_hal_dma.c ****           (+) Select Callbacks functions using HAL_DMA_RegisterCallback()
  46:Drivers/STM32F7xx_HAL_Driver/Src/stm32f7xx_hal_dma.c ****           (+) Use HAL_DMA_Start_IT() to start DMA transfer after the configuration of  
  47:Drivers/STM32F7xx_HAL_Driver/Src/stm32f7xx_hal_dma.c ****               Source address and destination address and the Length of data to be transferred. In t
  48:Drivers/STM32F7xx_HAL_Driver/Src/stm32f7xx_hal_dma.c ****               case the DMA interrupt is configured 
  49:Drivers/STM32F7xx_HAL_Driver/Src/stm32f7xx_hal_dma.c ****           (+) Use HAL_DMA_IRQHandler() called under DMA_IRQHandler() Interrupt subroutine
  50:Drivers/STM32F7xx_HAL_Driver/Src/stm32f7xx_hal_dma.c ****           (+) At the end of data transfer HAL_DMA_IRQHandler() function is executed and user can 
  51:Drivers/STM32F7xx_HAL_Driver/Src/stm32f7xx_hal_dma.c ****               add his own function by customization of function pointer XferCpltCallback and 
  52:Drivers/STM32F7xx_HAL_Driver/Src/stm32f7xx_hal_dma.c ****               XferErrorCallback (i.e a member of DMA handle structure).
  53:Drivers/STM32F7xx_HAL_Driver/Src/stm32f7xx_hal_dma.c ****     [..]
  54:Drivers/STM32F7xx_HAL_Driver/Src/stm32f7xx_hal_dma.c ****      (#) Use HAL_DMA_GetState() function to return the DMA state and HAL_DMA_GetError() in case of 
  55:Drivers/STM32F7xx_HAL_Driver/Src/stm32f7xx_hal_dma.c ****          detection.
  56:Drivers/STM32F7xx_HAL_Driver/Src/stm32f7xx_hal_dma.c **** 
  57:Drivers/STM32F7xx_HAL_Driver/Src/stm32f7xx_hal_dma.c ****      (#) Use HAL_DMA_Abort_IT() function to abort the current transfer
  58:Drivers/STM32F7xx_HAL_Driver/Src/stm32f7xx_hal_dma.c **** 
  59:Drivers/STM32F7xx_HAL_Driver/Src/stm32f7xx_hal_dma.c ****      -@-   In Memory-to-Memory transfer mode, Circular mode is not allowed.
  60:Drivers/STM32F7xx_HAL_Driver/Src/stm32f7xx_hal_dma.c **** 
  61:Drivers/STM32F7xx_HAL_Driver/Src/stm32f7xx_hal_dma.c ****      -@-   The FIFO is used mainly to reduce bus usage and to allow data packing/unpacking: it is
  62:Drivers/STM32F7xx_HAL_Driver/Src/stm32f7xx_hal_dma.c ****            possible to set different Data Sizes for the Peripheral and the Memory (ie. you can set
  63:Drivers/STM32F7xx_HAL_Driver/Src/stm32f7xx_hal_dma.c ****            Half-Word data size for the peripheral to access its data register and set Word data siz
  64:Drivers/STM32F7xx_HAL_Driver/Src/stm32f7xx_hal_dma.c ****            for the Memory to gain in access time. Each two half words will be packed and written in
  65:Drivers/STM32F7xx_HAL_Driver/Src/stm32f7xx_hal_dma.c ****            a single access to a Word in the Memory).
  66:Drivers/STM32F7xx_HAL_Driver/Src/stm32f7xx_hal_dma.c **** 
  67:Drivers/STM32F7xx_HAL_Driver/Src/stm32f7xx_hal_dma.c ****      -@-   When FIFO is disabled, it is not allowed to configure different Data Sizes for Source
  68:Drivers/STM32F7xx_HAL_Driver/Src/stm32f7xx_hal_dma.c ****            and Destination. In this case the Peripheral Data Size will be applied to both Source
  69:Drivers/STM32F7xx_HAL_Driver/Src/stm32f7xx_hal_dma.c ****            and Destination.
  70:Drivers/STM32F7xx_HAL_Driver/Src/stm32f7xx_hal_dma.c **** 
  71:Drivers/STM32F7xx_HAL_Driver/Src/stm32f7xx_hal_dma.c ****      *** DMA HAL driver macros list ***
  72:Drivers/STM32F7xx_HAL_Driver/Src/stm32f7xx_hal_dma.c ****      =============================================
  73:Drivers/STM32F7xx_HAL_Driver/Src/stm32f7xx_hal_dma.c ****      [..]
  74:Drivers/STM32F7xx_HAL_Driver/Src/stm32f7xx_hal_dma.c ****        Below the list of most used macros in DMA HAL driver.
  75:Drivers/STM32F7xx_HAL_Driver/Src/stm32f7xx_hal_dma.c ****        
  76:Drivers/STM32F7xx_HAL_Driver/Src/stm32f7xx_hal_dma.c ****       (+) __HAL_DMA_ENABLE: Enable the specified DMA Stream.
  77:Drivers/STM32F7xx_HAL_Driver/Src/stm32f7xx_hal_dma.c ****       (+) __HAL_DMA_DISABLE: Disable the specified DMA Stream.
  78:Drivers/STM32F7xx_HAL_Driver/Src/stm32f7xx_hal_dma.c ****       (+) __HAL_DMA_GET_IT_SOURCE: Check whether the specified DMA Stream interrupt has occurred or
  79:Drivers/STM32F7xx_HAL_Driver/Src/stm32f7xx_hal_dma.c **** 
  80:Drivers/STM32F7xx_HAL_Driver/Src/stm32f7xx_hal_dma.c ****      [..]
  81:Drivers/STM32F7xx_HAL_Driver/Src/stm32f7xx_hal_dma.c ****       (@) You can refer to the DMA HAL driver header file for more useful macros
  82:Drivers/STM32F7xx_HAL_Driver/Src/stm32f7xx_hal_dma.c **** 
  83:Drivers/STM32F7xx_HAL_Driver/Src/stm32f7xx_hal_dma.c ****   @endverbatim
  84:Drivers/STM32F7xx_HAL_Driver/Src/stm32f7xx_hal_dma.c ****   ******************************************************************************
  85:Drivers/STM32F7xx_HAL_Driver/Src/stm32f7xx_hal_dma.c ****   * @attention
  86:Drivers/STM32F7xx_HAL_Driver/Src/stm32f7xx_hal_dma.c ****   *
  87:Drivers/STM32F7xx_HAL_Driver/Src/stm32f7xx_hal_dma.c ****   * <h2><center>&copy; COPYRIGHT(c) 2017 STMicroelectronics</center></h2>
  88:Drivers/STM32F7xx_HAL_Driver/Src/stm32f7xx_hal_dma.c ****   *
ARM GAS  /var/folders/n8/cvzdcwlj0vl4g_wtyz1ffy300000gn/T//ccZxLSjg.s 			page 3


  89:Drivers/STM32F7xx_HAL_Driver/Src/stm32f7xx_hal_dma.c ****   * Redistribution and use in source and binary forms, with or without modification,
  90:Drivers/STM32F7xx_HAL_Driver/Src/stm32f7xx_hal_dma.c ****   * are permitted provided that the following conditions are met:
  91:Drivers/STM32F7xx_HAL_Driver/Src/stm32f7xx_hal_dma.c ****   *   1. Redistributions of source code must retain the above copyright notice,
  92:Drivers/STM32F7xx_HAL_Driver/Src/stm32f7xx_hal_dma.c ****   *      this list of conditions and the following disclaimer.
  93:Drivers/STM32F7xx_HAL_Driver/Src/stm32f7xx_hal_dma.c ****   *   2. Redistributions in binary form must reproduce the above copyright notice,
  94:Drivers/STM32F7xx_HAL_Driver/Src/stm32f7xx_hal_dma.c ****   *      this list of conditions and the following disclaimer in the documentation
  95:Drivers/STM32F7xx_HAL_Driver/Src/stm32f7xx_hal_dma.c ****   *      and/or other materials provided with the distribution.
  96:Drivers/STM32F7xx_HAL_Driver/Src/stm32f7xx_hal_dma.c ****   *   3. Neither the name of STMicroelectronics nor the names of its contributors
  97:Drivers/STM32F7xx_HAL_Driver/Src/stm32f7xx_hal_dma.c ****   *      may be used to endorse or promote products derived from this software
  98:Drivers/STM32F7xx_HAL_Driver/Src/stm32f7xx_hal_dma.c ****   *      without specific prior written permission.
  99:Drivers/STM32F7xx_HAL_Driver/Src/stm32f7xx_hal_dma.c ****   *
 100:Drivers/STM32F7xx_HAL_Driver/Src/stm32f7xx_hal_dma.c ****   * THIS SOFTWARE IS PROVIDED BY THE COPYRIGHT HOLDERS AND CONTRIBUTORS "AS IS"
 101:Drivers/STM32F7xx_HAL_Driver/Src/stm32f7xx_hal_dma.c ****   * AND ANY EXPRESS OR IMPLIED WARRANTIES, INCLUDING, BUT NOT LIMITED TO, THE
 102:Drivers/STM32F7xx_HAL_Driver/Src/stm32f7xx_hal_dma.c ****   * IMPLIED WARRANTIES OF MERCHANTABILITY AND FITNESS FOR A PARTICULAR PURPOSE ARE
 103:Drivers/STM32F7xx_HAL_Driver/Src/stm32f7xx_hal_dma.c ****   * DISCLAIMED. IN NO EVENT SHALL THE COPYRIGHT HOLDER OR CONTRIBUTORS BE LIABLE
 104:Drivers/STM32F7xx_HAL_Driver/Src/stm32f7xx_hal_dma.c ****   * FOR ANY DIRECT, INDIRECT, INCIDENTAL, SPECIAL, EXEMPLARY, OR CONSEQUENTIAL
 105:Drivers/STM32F7xx_HAL_Driver/Src/stm32f7xx_hal_dma.c ****   * DAMAGES (INCLUDING, BUT NOT LIMITED TO, PROCUREMENT OF SUBSTITUTE GOODS OR
 106:Drivers/STM32F7xx_HAL_Driver/Src/stm32f7xx_hal_dma.c ****   * SERVICES; LOSS OF USE, DATA, OR PROFITS; OR BUSINESS INTERRUPTION) HOWEVER
 107:Drivers/STM32F7xx_HAL_Driver/Src/stm32f7xx_hal_dma.c ****   * CAUSED AND ON ANY THEORY OF LIABILITY, WHETHER IN CONTRACT, STRICT LIABILITY,
 108:Drivers/STM32F7xx_HAL_Driver/Src/stm32f7xx_hal_dma.c ****   * OR TORT (INCLUDING NEGLIGENCE OR OTHERWISE) ARISING IN ANY WAY OUT OF THE USE
 109:Drivers/STM32F7xx_HAL_Driver/Src/stm32f7xx_hal_dma.c ****   * OF THIS SOFTWARE, EVEN IF ADVISED OF THE POSSIBILITY OF SUCH DAMAGE.
 110:Drivers/STM32F7xx_HAL_Driver/Src/stm32f7xx_hal_dma.c ****   *
 111:Drivers/STM32F7xx_HAL_Driver/Src/stm32f7xx_hal_dma.c ****   ******************************************************************************
 112:Drivers/STM32F7xx_HAL_Driver/Src/stm32f7xx_hal_dma.c ****   */ 
 113:Drivers/STM32F7xx_HAL_Driver/Src/stm32f7xx_hal_dma.c **** 
 114:Drivers/STM32F7xx_HAL_Driver/Src/stm32f7xx_hal_dma.c **** /* Includes ------------------------------------------------------------------*/
 115:Drivers/STM32F7xx_HAL_Driver/Src/stm32f7xx_hal_dma.c **** #include "stm32f7xx_hal.h"
 116:Drivers/STM32F7xx_HAL_Driver/Src/stm32f7xx_hal_dma.c **** 
 117:Drivers/STM32F7xx_HAL_Driver/Src/stm32f7xx_hal_dma.c **** /** @addtogroup STM32F7xx_HAL_Driver
 118:Drivers/STM32F7xx_HAL_Driver/Src/stm32f7xx_hal_dma.c ****   * @{
 119:Drivers/STM32F7xx_HAL_Driver/Src/stm32f7xx_hal_dma.c ****   */
 120:Drivers/STM32F7xx_HAL_Driver/Src/stm32f7xx_hal_dma.c **** 
 121:Drivers/STM32F7xx_HAL_Driver/Src/stm32f7xx_hal_dma.c **** /** @defgroup DMA DMA
 122:Drivers/STM32F7xx_HAL_Driver/Src/stm32f7xx_hal_dma.c ****   * @brief DMA HAL module driver
 123:Drivers/STM32F7xx_HAL_Driver/Src/stm32f7xx_hal_dma.c ****   * @{
 124:Drivers/STM32F7xx_HAL_Driver/Src/stm32f7xx_hal_dma.c ****   */
 125:Drivers/STM32F7xx_HAL_Driver/Src/stm32f7xx_hal_dma.c **** 
 126:Drivers/STM32F7xx_HAL_Driver/Src/stm32f7xx_hal_dma.c **** #ifdef HAL_DMA_MODULE_ENABLED
 127:Drivers/STM32F7xx_HAL_Driver/Src/stm32f7xx_hal_dma.c **** 
 128:Drivers/STM32F7xx_HAL_Driver/Src/stm32f7xx_hal_dma.c **** /* Private types -------------------------------------------------------------*/
 129:Drivers/STM32F7xx_HAL_Driver/Src/stm32f7xx_hal_dma.c **** typedef struct
 130:Drivers/STM32F7xx_HAL_Driver/Src/stm32f7xx_hal_dma.c **** {
 131:Drivers/STM32F7xx_HAL_Driver/Src/stm32f7xx_hal_dma.c ****   __IO uint32_t ISR;   /*!< DMA interrupt status register */
 132:Drivers/STM32F7xx_HAL_Driver/Src/stm32f7xx_hal_dma.c ****   __IO uint32_t Reserved0;
 133:Drivers/STM32F7xx_HAL_Driver/Src/stm32f7xx_hal_dma.c ****   __IO uint32_t IFCR;  /*!< DMA interrupt flag clear register */
 134:Drivers/STM32F7xx_HAL_Driver/Src/stm32f7xx_hal_dma.c **** } DMA_Base_Registers;
 135:Drivers/STM32F7xx_HAL_Driver/Src/stm32f7xx_hal_dma.c **** 
 136:Drivers/STM32F7xx_HAL_Driver/Src/stm32f7xx_hal_dma.c **** /* Private variables ---------------------------------------------------------*/
 137:Drivers/STM32F7xx_HAL_Driver/Src/stm32f7xx_hal_dma.c **** /* Private constants ---------------------------------------------------------*/
 138:Drivers/STM32F7xx_HAL_Driver/Src/stm32f7xx_hal_dma.c **** /** @addtogroup DMA_Private_Constants
 139:Drivers/STM32F7xx_HAL_Driver/Src/stm32f7xx_hal_dma.c ****  * @{
 140:Drivers/STM32F7xx_HAL_Driver/Src/stm32f7xx_hal_dma.c ****  */
 141:Drivers/STM32F7xx_HAL_Driver/Src/stm32f7xx_hal_dma.c ****  #define HAL_TIMEOUT_DMA_ABORT    ((uint32_t)5)  /* 5 ms */
 142:Drivers/STM32F7xx_HAL_Driver/Src/stm32f7xx_hal_dma.c **** /**
 143:Drivers/STM32F7xx_HAL_Driver/Src/stm32f7xx_hal_dma.c ****   * @}
 144:Drivers/STM32F7xx_HAL_Driver/Src/stm32f7xx_hal_dma.c ****   */
 145:Drivers/STM32F7xx_HAL_Driver/Src/stm32f7xx_hal_dma.c **** /* Private macros ------------------------------------------------------------*/
ARM GAS  /var/folders/n8/cvzdcwlj0vl4g_wtyz1ffy300000gn/T//ccZxLSjg.s 			page 4


 146:Drivers/STM32F7xx_HAL_Driver/Src/stm32f7xx_hal_dma.c **** /* Private functions ---------------------------------------------------------*/
 147:Drivers/STM32F7xx_HAL_Driver/Src/stm32f7xx_hal_dma.c **** /** @addtogroup DMA_Private_Functions
 148:Drivers/STM32F7xx_HAL_Driver/Src/stm32f7xx_hal_dma.c ****   * @{
 149:Drivers/STM32F7xx_HAL_Driver/Src/stm32f7xx_hal_dma.c ****   */
 150:Drivers/STM32F7xx_HAL_Driver/Src/stm32f7xx_hal_dma.c **** static void DMA_SetConfig(DMA_HandleTypeDef *hdma, uint32_t SrcAddress, uint32_t DstAddress, uint32
 151:Drivers/STM32F7xx_HAL_Driver/Src/stm32f7xx_hal_dma.c **** static uint32_t DMA_CalcBaseAndBitshift(DMA_HandleTypeDef *hdma);
 152:Drivers/STM32F7xx_HAL_Driver/Src/stm32f7xx_hal_dma.c **** static HAL_StatusTypeDef DMA_CheckFifoParam(DMA_HandleTypeDef *hdma);
 153:Drivers/STM32F7xx_HAL_Driver/Src/stm32f7xx_hal_dma.c **** 
 154:Drivers/STM32F7xx_HAL_Driver/Src/stm32f7xx_hal_dma.c **** /**
 155:Drivers/STM32F7xx_HAL_Driver/Src/stm32f7xx_hal_dma.c ****   * @}
 156:Drivers/STM32F7xx_HAL_Driver/Src/stm32f7xx_hal_dma.c ****   */  
 157:Drivers/STM32F7xx_HAL_Driver/Src/stm32f7xx_hal_dma.c **** 
 158:Drivers/STM32F7xx_HAL_Driver/Src/stm32f7xx_hal_dma.c **** /* Exported functions ---------------------------------------------------------*/
 159:Drivers/STM32F7xx_HAL_Driver/Src/stm32f7xx_hal_dma.c **** /** @addtogroup DMA_Exported_Functions
 160:Drivers/STM32F7xx_HAL_Driver/Src/stm32f7xx_hal_dma.c ****   * @{
 161:Drivers/STM32F7xx_HAL_Driver/Src/stm32f7xx_hal_dma.c ****   */
 162:Drivers/STM32F7xx_HAL_Driver/Src/stm32f7xx_hal_dma.c **** 
 163:Drivers/STM32F7xx_HAL_Driver/Src/stm32f7xx_hal_dma.c **** /** @addtogroup DMA_Exported_Functions_Group1
 164:Drivers/STM32F7xx_HAL_Driver/Src/stm32f7xx_hal_dma.c ****   *
 165:Drivers/STM32F7xx_HAL_Driver/Src/stm32f7xx_hal_dma.c **** @verbatim
 166:Drivers/STM32F7xx_HAL_Driver/Src/stm32f7xx_hal_dma.c ****  ===============================================================================
 167:Drivers/STM32F7xx_HAL_Driver/Src/stm32f7xx_hal_dma.c ****              ##### Initialization and de-initialization functions  #####
 168:Drivers/STM32F7xx_HAL_Driver/Src/stm32f7xx_hal_dma.c ****  ===============================================================================
 169:Drivers/STM32F7xx_HAL_Driver/Src/stm32f7xx_hal_dma.c ****     [..]
 170:Drivers/STM32F7xx_HAL_Driver/Src/stm32f7xx_hal_dma.c ****     This section provides functions allowing to initialize the DMA Stream source
 171:Drivers/STM32F7xx_HAL_Driver/Src/stm32f7xx_hal_dma.c ****     and destination addresses, incrementation and data sizes, transfer direction, 
 172:Drivers/STM32F7xx_HAL_Driver/Src/stm32f7xx_hal_dma.c ****     circular/normal mode selection, memory-to-memory mode selection and Stream priority value.
 173:Drivers/STM32F7xx_HAL_Driver/Src/stm32f7xx_hal_dma.c ****     [..]
 174:Drivers/STM32F7xx_HAL_Driver/Src/stm32f7xx_hal_dma.c ****     The HAL_DMA_Init() function follows the DMA configuration procedures as described in
 175:Drivers/STM32F7xx_HAL_Driver/Src/stm32f7xx_hal_dma.c ****     reference manual.
 176:Drivers/STM32F7xx_HAL_Driver/Src/stm32f7xx_hal_dma.c **** 
 177:Drivers/STM32F7xx_HAL_Driver/Src/stm32f7xx_hal_dma.c **** @endverbatim
 178:Drivers/STM32F7xx_HAL_Driver/Src/stm32f7xx_hal_dma.c ****   * @{
 179:Drivers/STM32F7xx_HAL_Driver/Src/stm32f7xx_hal_dma.c ****   */
 180:Drivers/STM32F7xx_HAL_Driver/Src/stm32f7xx_hal_dma.c ****   
 181:Drivers/STM32F7xx_HAL_Driver/Src/stm32f7xx_hal_dma.c **** /**
 182:Drivers/STM32F7xx_HAL_Driver/Src/stm32f7xx_hal_dma.c ****   * @brief  Initialize the DMA according to the specified
 183:Drivers/STM32F7xx_HAL_Driver/Src/stm32f7xx_hal_dma.c ****   *         parameters in the DMA_InitTypeDef and create the associated handle.
 184:Drivers/STM32F7xx_HAL_Driver/Src/stm32f7xx_hal_dma.c ****   * @param  hdma Pointer to a DMA_HandleTypeDef structure that contains
 185:Drivers/STM32F7xx_HAL_Driver/Src/stm32f7xx_hal_dma.c ****   *               the configuration information for the specified DMA Stream.  
 186:Drivers/STM32F7xx_HAL_Driver/Src/stm32f7xx_hal_dma.c ****   * @retval HAL status
 187:Drivers/STM32F7xx_HAL_Driver/Src/stm32f7xx_hal_dma.c ****   */
 188:Drivers/STM32F7xx_HAL_Driver/Src/stm32f7xx_hal_dma.c **** HAL_StatusTypeDef HAL_DMA_Init(DMA_HandleTypeDef *hdma)
 189:Drivers/STM32F7xx_HAL_Driver/Src/stm32f7xx_hal_dma.c **** {
  28              		.loc 1 189 0
  29              		.cfi_startproc
  30              		@ args = 0, pretend = 0, frame = 24
  31              		@ frame_needed = 1, uses_anonymous_args = 0
  32 0000 80B5     		push	{r7, lr}
  33              	.LCFI0:
  34              		.cfi_def_cfa_offset 8
  35              		.cfi_offset 7, -8
  36              		.cfi_offset 14, -4
  37 0002 86B0     		sub	sp, sp, #24
  38              	.LCFI1:
  39              		.cfi_def_cfa_offset 32
  40 0004 00AF     		add	r7, sp, #0
ARM GAS  /var/folders/n8/cvzdcwlj0vl4g_wtyz1ffy300000gn/T//ccZxLSjg.s 			page 5


  41              	.LCFI2:
  42              		.cfi_def_cfa_register 7
  43 0006 7860     		str	r0, [r7, #4]
 190:Drivers/STM32F7xx_HAL_Driver/Src/stm32f7xx_hal_dma.c ****   uint32_t tmp = 0U;
  44              		.loc 1 190 0
  45 0008 0023     		movs	r3, #0
  46 000a 7B61     		str	r3, [r7, #20]
 191:Drivers/STM32F7xx_HAL_Driver/Src/stm32f7xx_hal_dma.c ****   uint32_t tickstart = HAL_GetTick();
  47              		.loc 1 191 0
  48 000c FFF7FEFF 		bl	HAL_GetTick
  49 0010 3861     		str	r0, [r7, #16]
 192:Drivers/STM32F7xx_HAL_Driver/Src/stm32f7xx_hal_dma.c ****   DMA_Base_Registers *regs;
 193:Drivers/STM32F7xx_HAL_Driver/Src/stm32f7xx_hal_dma.c **** 
 194:Drivers/STM32F7xx_HAL_Driver/Src/stm32f7xx_hal_dma.c ****   /* Check the DMA peripheral state */
 195:Drivers/STM32F7xx_HAL_Driver/Src/stm32f7xx_hal_dma.c ****   if(hdma == NULL)
  50              		.loc 1 195 0
  51 0012 7B68     		ldr	r3, [r7, #4]
  52 0014 002B     		cmp	r3, #0
  53 0016 01D1     		bne	.L2
 196:Drivers/STM32F7xx_HAL_Driver/Src/stm32f7xx_hal_dma.c ****   {
 197:Drivers/STM32F7xx_HAL_Driver/Src/stm32f7xx_hal_dma.c ****     return HAL_ERROR;
  54              		.loc 1 197 0
  55 0018 0123     		movs	r3, #1
  56 001a 99E0     		b	.L3
  57              	.L2:
 198:Drivers/STM32F7xx_HAL_Driver/Src/stm32f7xx_hal_dma.c ****   }
 199:Drivers/STM32F7xx_HAL_Driver/Src/stm32f7xx_hal_dma.c **** 
 200:Drivers/STM32F7xx_HAL_Driver/Src/stm32f7xx_hal_dma.c ****   /* Check the parameters */
 201:Drivers/STM32F7xx_HAL_Driver/Src/stm32f7xx_hal_dma.c ****   assert_param(IS_DMA_STREAM_ALL_INSTANCE(hdma->Instance));
 202:Drivers/STM32F7xx_HAL_Driver/Src/stm32f7xx_hal_dma.c ****   assert_param(IS_DMA_CHANNEL(hdma->Init.Channel));
 203:Drivers/STM32F7xx_HAL_Driver/Src/stm32f7xx_hal_dma.c ****   assert_param(IS_DMA_DIRECTION(hdma->Init.Direction));
 204:Drivers/STM32F7xx_HAL_Driver/Src/stm32f7xx_hal_dma.c ****   assert_param(IS_DMA_PERIPHERAL_INC_STATE(hdma->Init.PeriphInc));
 205:Drivers/STM32F7xx_HAL_Driver/Src/stm32f7xx_hal_dma.c ****   assert_param(IS_DMA_MEMORY_INC_STATE(hdma->Init.MemInc));
 206:Drivers/STM32F7xx_HAL_Driver/Src/stm32f7xx_hal_dma.c ****   assert_param(IS_DMA_PERIPHERAL_DATA_SIZE(hdma->Init.PeriphDataAlignment));
 207:Drivers/STM32F7xx_HAL_Driver/Src/stm32f7xx_hal_dma.c ****   assert_param(IS_DMA_MEMORY_DATA_SIZE(hdma->Init.MemDataAlignment));
 208:Drivers/STM32F7xx_HAL_Driver/Src/stm32f7xx_hal_dma.c ****   assert_param(IS_DMA_MODE(hdma->Init.Mode));
 209:Drivers/STM32F7xx_HAL_Driver/Src/stm32f7xx_hal_dma.c ****   assert_param(IS_DMA_PRIORITY(hdma->Init.Priority));
 210:Drivers/STM32F7xx_HAL_Driver/Src/stm32f7xx_hal_dma.c ****   assert_param(IS_DMA_FIFO_MODE_STATE(hdma->Init.FIFOMode));
 211:Drivers/STM32F7xx_HAL_Driver/Src/stm32f7xx_hal_dma.c ****   /* Check the memory burst, peripheral burst and FIFO threshold parameters only
 212:Drivers/STM32F7xx_HAL_Driver/Src/stm32f7xx_hal_dma.c ****      when FIFO mode is enabled */
 213:Drivers/STM32F7xx_HAL_Driver/Src/stm32f7xx_hal_dma.c ****   if(hdma->Init.FIFOMode != DMA_FIFOMODE_DISABLE)
 214:Drivers/STM32F7xx_HAL_Driver/Src/stm32f7xx_hal_dma.c ****   {
 215:Drivers/STM32F7xx_HAL_Driver/Src/stm32f7xx_hal_dma.c ****     assert_param(IS_DMA_FIFO_THRESHOLD(hdma->Init.FIFOThreshold));
 216:Drivers/STM32F7xx_HAL_Driver/Src/stm32f7xx_hal_dma.c ****     assert_param(IS_DMA_MEMORY_BURST(hdma->Init.MemBurst));
 217:Drivers/STM32F7xx_HAL_Driver/Src/stm32f7xx_hal_dma.c ****     assert_param(IS_DMA_PERIPHERAL_BURST(hdma->Init.PeriphBurst));
 218:Drivers/STM32F7xx_HAL_Driver/Src/stm32f7xx_hal_dma.c ****   }
 219:Drivers/STM32F7xx_HAL_Driver/Src/stm32f7xx_hal_dma.c ****   
 220:Drivers/STM32F7xx_HAL_Driver/Src/stm32f7xx_hal_dma.c ****   /* Allocate lock resource */
 221:Drivers/STM32F7xx_HAL_Driver/Src/stm32f7xx_hal_dma.c ****   __HAL_UNLOCK(hdma);
  58              		.loc 1 221 0
  59 001c 7B68     		ldr	r3, [r7, #4]
  60 001e 0022     		movs	r2, #0
  61 0020 83F83420 		strb	r2, [r3, #52]
 222:Drivers/STM32F7xx_HAL_Driver/Src/stm32f7xx_hal_dma.c **** 
 223:Drivers/STM32F7xx_HAL_Driver/Src/stm32f7xx_hal_dma.c ****   /* Change DMA peripheral state */
 224:Drivers/STM32F7xx_HAL_Driver/Src/stm32f7xx_hal_dma.c ****   hdma->State = HAL_DMA_STATE_BUSY;
  62              		.loc 1 224 0
ARM GAS  /var/folders/n8/cvzdcwlj0vl4g_wtyz1ffy300000gn/T//ccZxLSjg.s 			page 6


  63 0024 7B68     		ldr	r3, [r7, #4]
  64 0026 0222     		movs	r2, #2
  65 0028 83F83520 		strb	r2, [r3, #53]
 225:Drivers/STM32F7xx_HAL_Driver/Src/stm32f7xx_hal_dma.c ****   
 226:Drivers/STM32F7xx_HAL_Driver/Src/stm32f7xx_hal_dma.c ****   /* Disable the peripheral */
 227:Drivers/STM32F7xx_HAL_Driver/Src/stm32f7xx_hal_dma.c ****   __HAL_DMA_DISABLE(hdma);
  66              		.loc 1 227 0
  67 002c 7B68     		ldr	r3, [r7, #4]
  68 002e 1B68     		ldr	r3, [r3]
  69 0030 1A68     		ldr	r2, [r3]
  70 0032 7B68     		ldr	r3, [r7, #4]
  71 0034 1B68     		ldr	r3, [r3]
  72 0036 22F00102 		bic	r2, r2, #1
  73 003a 1A60     		str	r2, [r3]
 228:Drivers/STM32F7xx_HAL_Driver/Src/stm32f7xx_hal_dma.c ****   
 229:Drivers/STM32F7xx_HAL_Driver/Src/stm32f7xx_hal_dma.c ****   /* Check if the DMA Stream is effectively disabled */
 230:Drivers/STM32F7xx_HAL_Driver/Src/stm32f7xx_hal_dma.c ****   while((hdma->Instance->CR & DMA_SxCR_EN) != RESET)
  74              		.loc 1 230 0
  75 003c 0FE0     		b	.L4
  76              	.L5:
 231:Drivers/STM32F7xx_HAL_Driver/Src/stm32f7xx_hal_dma.c ****   {
 232:Drivers/STM32F7xx_HAL_Driver/Src/stm32f7xx_hal_dma.c ****     /* Check for the Timeout */
 233:Drivers/STM32F7xx_HAL_Driver/Src/stm32f7xx_hal_dma.c ****     if((HAL_GetTick() - tickstart ) > HAL_TIMEOUT_DMA_ABORT)
  77              		.loc 1 233 0
  78 003e FFF7FEFF 		bl	HAL_GetTick
  79 0042 0246     		mov	r2, r0
  80 0044 3B69     		ldr	r3, [r7, #16]
  81 0046 D31A     		subs	r3, r2, r3
  82 0048 052B     		cmp	r3, #5
  83 004a 08D9     		bls	.L4
 234:Drivers/STM32F7xx_HAL_Driver/Src/stm32f7xx_hal_dma.c ****     {
 235:Drivers/STM32F7xx_HAL_Driver/Src/stm32f7xx_hal_dma.c ****       /* Update error code */
 236:Drivers/STM32F7xx_HAL_Driver/Src/stm32f7xx_hal_dma.c ****       hdma->ErrorCode = HAL_DMA_ERROR_TIMEOUT;
  84              		.loc 1 236 0
  85 004c 7B68     		ldr	r3, [r7, #4]
  86 004e 2022     		movs	r2, #32
  87 0050 5A65     		str	r2, [r3, #84]
 237:Drivers/STM32F7xx_HAL_Driver/Src/stm32f7xx_hal_dma.c ****       
 238:Drivers/STM32F7xx_HAL_Driver/Src/stm32f7xx_hal_dma.c ****       /* Change the DMA state */
 239:Drivers/STM32F7xx_HAL_Driver/Src/stm32f7xx_hal_dma.c ****       hdma->State = HAL_DMA_STATE_TIMEOUT;
  88              		.loc 1 239 0
  89 0052 7B68     		ldr	r3, [r7, #4]
  90 0054 0322     		movs	r2, #3
  91 0056 83F83520 		strb	r2, [r3, #53]
 240:Drivers/STM32F7xx_HAL_Driver/Src/stm32f7xx_hal_dma.c ****       
 241:Drivers/STM32F7xx_HAL_Driver/Src/stm32f7xx_hal_dma.c ****       return HAL_TIMEOUT;
  92              		.loc 1 241 0
  93 005a 0323     		movs	r3, #3
  94 005c 78E0     		b	.L3
  95              	.L4:
 230:Drivers/STM32F7xx_HAL_Driver/Src/stm32f7xx_hal_dma.c ****   {
  96              		.loc 1 230 0
  97 005e 7B68     		ldr	r3, [r7, #4]
  98 0060 1B68     		ldr	r3, [r3]
  99 0062 1B68     		ldr	r3, [r3]
 100 0064 03F00103 		and	r3, r3, #1
 101 0068 002B     		cmp	r3, #0
ARM GAS  /var/folders/n8/cvzdcwlj0vl4g_wtyz1ffy300000gn/T//ccZxLSjg.s 			page 7


 102 006a E8D1     		bne	.L5
 242:Drivers/STM32F7xx_HAL_Driver/Src/stm32f7xx_hal_dma.c ****     }
 243:Drivers/STM32F7xx_HAL_Driver/Src/stm32f7xx_hal_dma.c ****   }
 244:Drivers/STM32F7xx_HAL_Driver/Src/stm32f7xx_hal_dma.c ****   
 245:Drivers/STM32F7xx_HAL_Driver/Src/stm32f7xx_hal_dma.c ****   /* Get the CR register value */
 246:Drivers/STM32F7xx_HAL_Driver/Src/stm32f7xx_hal_dma.c ****   tmp = hdma->Instance->CR;
 103              		.loc 1 246 0
 104 006c 7B68     		ldr	r3, [r7, #4]
 105 006e 1B68     		ldr	r3, [r3]
 106 0070 1B68     		ldr	r3, [r3]
 107 0072 7B61     		str	r3, [r7, #20]
 247:Drivers/STM32F7xx_HAL_Driver/Src/stm32f7xx_hal_dma.c **** 
 248:Drivers/STM32F7xx_HAL_Driver/Src/stm32f7xx_hal_dma.c ****   /* Clear CHSEL, MBURST, PBURST, PL, MSIZE, PSIZE, MINC, PINC, CIRC, DIR, CT and DBM bits */
 249:Drivers/STM32F7xx_HAL_Driver/Src/stm32f7xx_hal_dma.c ****   tmp &= ((uint32_t)~(DMA_SxCR_CHSEL | DMA_SxCR_MBURST | DMA_SxCR_PBURST | \
 108              		.loc 1 249 0
 109 0074 7A69     		ldr	r2, [r7, #20]
 110 0076 384B     		ldr	r3, .L8
 111 0078 1340     		ands	r3, r3, r2
 112 007a 7B61     		str	r3, [r7, #20]
 250:Drivers/STM32F7xx_HAL_Driver/Src/stm32f7xx_hal_dma.c ****                       DMA_SxCR_PL    | DMA_SxCR_MSIZE  | DMA_SxCR_PSIZE  | \
 251:Drivers/STM32F7xx_HAL_Driver/Src/stm32f7xx_hal_dma.c ****                       DMA_SxCR_MINC  | DMA_SxCR_PINC   | DMA_SxCR_CIRC   | \
 252:Drivers/STM32F7xx_HAL_Driver/Src/stm32f7xx_hal_dma.c ****                       DMA_SxCR_DIR   | DMA_SxCR_CT     | DMA_SxCR_DBM));
 253:Drivers/STM32F7xx_HAL_Driver/Src/stm32f7xx_hal_dma.c **** 
 254:Drivers/STM32F7xx_HAL_Driver/Src/stm32f7xx_hal_dma.c ****   /* Prepare the DMA Stream configuration */
 255:Drivers/STM32F7xx_HAL_Driver/Src/stm32f7xx_hal_dma.c ****   tmp |=  hdma->Init.Channel             | hdma->Init.Direction        |
 113              		.loc 1 255 0
 114 007c 7B68     		ldr	r3, [r7, #4]
 115 007e 5A68     		ldr	r2, [r3, #4]
 116 0080 7B68     		ldr	r3, [r7, #4]
 117 0082 9B68     		ldr	r3, [r3, #8]
 118 0084 1A43     		orrs	r2, r2, r3
 256:Drivers/STM32F7xx_HAL_Driver/Src/stm32f7xx_hal_dma.c ****           hdma->Init.PeriphInc           | hdma->Init.MemInc           |
 119              		.loc 1 256 0
 120 0086 7B68     		ldr	r3, [r7, #4]
 121 0088 DB68     		ldr	r3, [r3, #12]
 255:Drivers/STM32F7xx_HAL_Driver/Src/stm32f7xx_hal_dma.c ****           hdma->Init.PeriphInc           | hdma->Init.MemInc           |
 122              		.loc 1 255 0
 123 008a 1A43     		orrs	r2, r2, r3
 124              		.loc 1 256 0
 125 008c 7B68     		ldr	r3, [r7, #4]
 126 008e 1B69     		ldr	r3, [r3, #16]
 127 0090 1A43     		orrs	r2, r2, r3
 257:Drivers/STM32F7xx_HAL_Driver/Src/stm32f7xx_hal_dma.c ****           hdma->Init.PeriphDataAlignment | hdma->Init.MemDataAlignment |
 128              		.loc 1 257 0
 129 0092 7B68     		ldr	r3, [r7, #4]
 130 0094 5B69     		ldr	r3, [r3, #20]
 256:Drivers/STM32F7xx_HAL_Driver/Src/stm32f7xx_hal_dma.c ****           hdma->Init.PeriphInc           | hdma->Init.MemInc           |
 131              		.loc 1 256 0
 132 0096 1A43     		orrs	r2, r2, r3
 133              		.loc 1 257 0
 134 0098 7B68     		ldr	r3, [r7, #4]
 135 009a 9B69     		ldr	r3, [r3, #24]
 136 009c 1A43     		orrs	r2, r2, r3
 258:Drivers/STM32F7xx_HAL_Driver/Src/stm32f7xx_hal_dma.c ****           hdma->Init.Mode                | hdma->Init.Priority;
 137              		.loc 1 258 0
 138 009e 7B68     		ldr	r3, [r7, #4]
 139 00a0 DB69     		ldr	r3, [r3, #28]
ARM GAS  /var/folders/n8/cvzdcwlj0vl4g_wtyz1ffy300000gn/T//ccZxLSjg.s 			page 8


 257:Drivers/STM32F7xx_HAL_Driver/Src/stm32f7xx_hal_dma.c ****           hdma->Init.PeriphDataAlignment | hdma->Init.MemDataAlignment |
 140              		.loc 1 257 0
 141 00a2 1A43     		orrs	r2, r2, r3
 142              		.loc 1 258 0
 143 00a4 7B68     		ldr	r3, [r7, #4]
 144 00a6 1B6A     		ldr	r3, [r3, #32]
 145 00a8 1343     		orrs	r3, r3, r2
 255:Drivers/STM32F7xx_HAL_Driver/Src/stm32f7xx_hal_dma.c ****           hdma->Init.PeriphInc           | hdma->Init.MemInc           |
 146              		.loc 1 255 0
 147 00aa 7A69     		ldr	r2, [r7, #20]
 148 00ac 1343     		orrs	r3, r3, r2
 149 00ae 7B61     		str	r3, [r7, #20]
 259:Drivers/STM32F7xx_HAL_Driver/Src/stm32f7xx_hal_dma.c **** 
 260:Drivers/STM32F7xx_HAL_Driver/Src/stm32f7xx_hal_dma.c ****   /* the Memory burst and peripheral burst are not used when the FIFO is disabled */
 261:Drivers/STM32F7xx_HAL_Driver/Src/stm32f7xx_hal_dma.c ****   if(hdma->Init.FIFOMode == DMA_FIFOMODE_ENABLE)
 150              		.loc 1 261 0
 151 00b0 7B68     		ldr	r3, [r7, #4]
 152 00b2 5B6A     		ldr	r3, [r3, #36]
 153 00b4 042B     		cmp	r3, #4
 154 00b6 07D1     		bne	.L6
 262:Drivers/STM32F7xx_HAL_Driver/Src/stm32f7xx_hal_dma.c ****   {
 263:Drivers/STM32F7xx_HAL_Driver/Src/stm32f7xx_hal_dma.c ****     /* Get memory burst and peripheral burst */
 264:Drivers/STM32F7xx_HAL_Driver/Src/stm32f7xx_hal_dma.c ****     tmp |=  hdma->Init.MemBurst | hdma->Init.PeriphBurst;
 155              		.loc 1 264 0
 156 00b8 7B68     		ldr	r3, [r7, #4]
 157 00ba DA6A     		ldr	r2, [r3, #44]
 158 00bc 7B68     		ldr	r3, [r7, #4]
 159 00be 1B6B     		ldr	r3, [r3, #48]
 160 00c0 1343     		orrs	r3, r3, r2
 161 00c2 7A69     		ldr	r2, [r7, #20]
 162 00c4 1343     		orrs	r3, r3, r2
 163 00c6 7B61     		str	r3, [r7, #20]
 164              	.L6:
 265:Drivers/STM32F7xx_HAL_Driver/Src/stm32f7xx_hal_dma.c ****   }
 266:Drivers/STM32F7xx_HAL_Driver/Src/stm32f7xx_hal_dma.c ****   
 267:Drivers/STM32F7xx_HAL_Driver/Src/stm32f7xx_hal_dma.c ****   /* Write to DMA Stream CR register */
 268:Drivers/STM32F7xx_HAL_Driver/Src/stm32f7xx_hal_dma.c ****   hdma->Instance->CR = tmp;  
 165              		.loc 1 268 0
 166 00c8 7B68     		ldr	r3, [r7, #4]
 167 00ca 1B68     		ldr	r3, [r3]
 168 00cc 7A69     		ldr	r2, [r7, #20]
 169 00ce 1A60     		str	r2, [r3]
 269:Drivers/STM32F7xx_HAL_Driver/Src/stm32f7xx_hal_dma.c **** 
 270:Drivers/STM32F7xx_HAL_Driver/Src/stm32f7xx_hal_dma.c ****   /* Get the FCR register value */
 271:Drivers/STM32F7xx_HAL_Driver/Src/stm32f7xx_hal_dma.c ****   tmp = hdma->Instance->FCR;
 170              		.loc 1 271 0
 171 00d0 7B68     		ldr	r3, [r7, #4]
 172 00d2 1B68     		ldr	r3, [r3]
 173 00d4 5B69     		ldr	r3, [r3, #20]
 174 00d6 7B61     		str	r3, [r7, #20]
 272:Drivers/STM32F7xx_HAL_Driver/Src/stm32f7xx_hal_dma.c **** 
 273:Drivers/STM32F7xx_HAL_Driver/Src/stm32f7xx_hal_dma.c ****   /* Clear Direct mode and FIFO threshold bits */
 274:Drivers/STM32F7xx_HAL_Driver/Src/stm32f7xx_hal_dma.c ****   tmp &= (uint32_t)~(DMA_SxFCR_DMDIS | DMA_SxFCR_FTH);
 175              		.loc 1 274 0
 176 00d8 7B69     		ldr	r3, [r7, #20]
 177 00da 23F00703 		bic	r3, r3, #7
 178 00de 7B61     		str	r3, [r7, #20]
ARM GAS  /var/folders/n8/cvzdcwlj0vl4g_wtyz1ffy300000gn/T//ccZxLSjg.s 			page 9


 275:Drivers/STM32F7xx_HAL_Driver/Src/stm32f7xx_hal_dma.c **** 
 276:Drivers/STM32F7xx_HAL_Driver/Src/stm32f7xx_hal_dma.c ****   /* Prepare the DMA Stream FIFO configuration */
 277:Drivers/STM32F7xx_HAL_Driver/Src/stm32f7xx_hal_dma.c ****   tmp |= hdma->Init.FIFOMode;
 179              		.loc 1 277 0
 180 00e0 7B68     		ldr	r3, [r7, #4]
 181 00e2 5B6A     		ldr	r3, [r3, #36]
 182 00e4 7A69     		ldr	r2, [r7, #20]
 183 00e6 1343     		orrs	r3, r3, r2
 184 00e8 7B61     		str	r3, [r7, #20]
 278:Drivers/STM32F7xx_HAL_Driver/Src/stm32f7xx_hal_dma.c **** 
 279:Drivers/STM32F7xx_HAL_Driver/Src/stm32f7xx_hal_dma.c ****   /* The FIFO threshold is not used when the FIFO mode is disabled */
 280:Drivers/STM32F7xx_HAL_Driver/Src/stm32f7xx_hal_dma.c ****   if(hdma->Init.FIFOMode == DMA_FIFOMODE_ENABLE)
 185              		.loc 1 280 0
 186 00ea 7B68     		ldr	r3, [r7, #4]
 187 00ec 5B6A     		ldr	r3, [r3, #36]
 188 00ee 042B     		cmp	r3, #4
 189 00f0 17D1     		bne	.L7
 281:Drivers/STM32F7xx_HAL_Driver/Src/stm32f7xx_hal_dma.c ****   {
 282:Drivers/STM32F7xx_HAL_Driver/Src/stm32f7xx_hal_dma.c ****     /* Get the FIFO threshold */
 283:Drivers/STM32F7xx_HAL_Driver/Src/stm32f7xx_hal_dma.c ****     tmp |= hdma->Init.FIFOThreshold;
 190              		.loc 1 283 0
 191 00f2 7B68     		ldr	r3, [r7, #4]
 192 00f4 9B6A     		ldr	r3, [r3, #40]
 193 00f6 7A69     		ldr	r2, [r7, #20]
 194 00f8 1343     		orrs	r3, r3, r2
 195 00fa 7B61     		str	r3, [r7, #20]
 284:Drivers/STM32F7xx_HAL_Driver/Src/stm32f7xx_hal_dma.c ****     
 285:Drivers/STM32F7xx_HAL_Driver/Src/stm32f7xx_hal_dma.c ****     /* Check compatibility between FIFO threshold level and size of the memory burst */
 286:Drivers/STM32F7xx_HAL_Driver/Src/stm32f7xx_hal_dma.c ****     /* for INCR4, INCR8, INCR16 bursts */
 287:Drivers/STM32F7xx_HAL_Driver/Src/stm32f7xx_hal_dma.c ****     if (hdma->Init.MemBurst != DMA_MBURST_SINGLE)
 196              		.loc 1 287 0
 197 00fc 7B68     		ldr	r3, [r7, #4]
 198 00fe DB6A     		ldr	r3, [r3, #44]
 199 0100 002B     		cmp	r3, #0
 200 0102 0ED0     		beq	.L7
 288:Drivers/STM32F7xx_HAL_Driver/Src/stm32f7xx_hal_dma.c ****     {
 289:Drivers/STM32F7xx_HAL_Driver/Src/stm32f7xx_hal_dma.c ****       if (DMA_CheckFifoParam(hdma) != HAL_OK)
 201              		.loc 1 289 0
 202 0104 7868     		ldr	r0, [r7, #4]
 203 0106 FFF7FEFF 		bl	DMA_CheckFifoParam
 204 010a 0346     		mov	r3, r0
 205 010c 002B     		cmp	r3, #0
 206 010e 08D0     		beq	.L7
 290:Drivers/STM32F7xx_HAL_Driver/Src/stm32f7xx_hal_dma.c ****       {
 291:Drivers/STM32F7xx_HAL_Driver/Src/stm32f7xx_hal_dma.c ****         /* Update error code */
 292:Drivers/STM32F7xx_HAL_Driver/Src/stm32f7xx_hal_dma.c ****         hdma->ErrorCode = HAL_DMA_ERROR_PARAM;
 207              		.loc 1 292 0
 208 0110 7B68     		ldr	r3, [r7, #4]
 209 0112 4022     		movs	r2, #64
 210 0114 5A65     		str	r2, [r3, #84]
 293:Drivers/STM32F7xx_HAL_Driver/Src/stm32f7xx_hal_dma.c ****         
 294:Drivers/STM32F7xx_HAL_Driver/Src/stm32f7xx_hal_dma.c ****         /* Change the DMA state */
 295:Drivers/STM32F7xx_HAL_Driver/Src/stm32f7xx_hal_dma.c ****         hdma->State = HAL_DMA_STATE_READY;
 211              		.loc 1 295 0
 212 0116 7B68     		ldr	r3, [r7, #4]
 213 0118 0122     		movs	r2, #1
 214 011a 83F83520 		strb	r2, [r3, #53]
ARM GAS  /var/folders/n8/cvzdcwlj0vl4g_wtyz1ffy300000gn/T//ccZxLSjg.s 			page 10


 296:Drivers/STM32F7xx_HAL_Driver/Src/stm32f7xx_hal_dma.c ****         
 297:Drivers/STM32F7xx_HAL_Driver/Src/stm32f7xx_hal_dma.c ****         return HAL_ERROR; 
 215              		.loc 1 297 0
 216 011e 0123     		movs	r3, #1
 217 0120 16E0     		b	.L3
 218              	.L7:
 298:Drivers/STM32F7xx_HAL_Driver/Src/stm32f7xx_hal_dma.c ****       }
 299:Drivers/STM32F7xx_HAL_Driver/Src/stm32f7xx_hal_dma.c ****     }
 300:Drivers/STM32F7xx_HAL_Driver/Src/stm32f7xx_hal_dma.c ****   }
 301:Drivers/STM32F7xx_HAL_Driver/Src/stm32f7xx_hal_dma.c ****   
 302:Drivers/STM32F7xx_HAL_Driver/Src/stm32f7xx_hal_dma.c ****   /* Write to DMA Stream FCR */
 303:Drivers/STM32F7xx_HAL_Driver/Src/stm32f7xx_hal_dma.c ****   hdma->Instance->FCR = tmp;
 219              		.loc 1 303 0
 220 0122 7B68     		ldr	r3, [r7, #4]
 221 0124 1B68     		ldr	r3, [r3]
 222 0126 7A69     		ldr	r2, [r7, #20]
 223 0128 5A61     		str	r2, [r3, #20]
 304:Drivers/STM32F7xx_HAL_Driver/Src/stm32f7xx_hal_dma.c **** 
 305:Drivers/STM32F7xx_HAL_Driver/Src/stm32f7xx_hal_dma.c ****   /* Initialize StreamBaseAddress and StreamIndex parameters to be used to calculate
 306:Drivers/STM32F7xx_HAL_Driver/Src/stm32f7xx_hal_dma.c ****      DMA steam Base Address needed by HAL_DMA_IRQHandler() and HAL_DMA_PollForTransfer() */
 307:Drivers/STM32F7xx_HAL_Driver/Src/stm32f7xx_hal_dma.c ****   regs = (DMA_Base_Registers *)DMA_CalcBaseAndBitshift(hdma);
 224              		.loc 1 307 0
 225 012a 7868     		ldr	r0, [r7, #4]
 226 012c FFF7FEFF 		bl	DMA_CalcBaseAndBitshift
 227 0130 0346     		mov	r3, r0
 228 0132 FB60     		str	r3, [r7, #12]
 308:Drivers/STM32F7xx_HAL_Driver/Src/stm32f7xx_hal_dma.c ****   
 309:Drivers/STM32F7xx_HAL_Driver/Src/stm32f7xx_hal_dma.c ****   /* Clear all interrupt flags */
 310:Drivers/STM32F7xx_HAL_Driver/Src/stm32f7xx_hal_dma.c ****   regs->IFCR = 0x3FU << hdma->StreamIndex;
 229              		.loc 1 310 0
 230 0134 7B68     		ldr	r3, [r7, #4]
 231 0136 DB6D     		ldr	r3, [r3, #92]
 232 0138 3F22     		movs	r2, #63
 233 013a 9A40     		lsls	r2, r2, r3
 234 013c FB68     		ldr	r3, [r7, #12]
 235 013e 9A60     		str	r2, [r3, #8]
 311:Drivers/STM32F7xx_HAL_Driver/Src/stm32f7xx_hal_dma.c **** 
 312:Drivers/STM32F7xx_HAL_Driver/Src/stm32f7xx_hal_dma.c ****   /* Initialize the error code */
 313:Drivers/STM32F7xx_HAL_Driver/Src/stm32f7xx_hal_dma.c ****   hdma->ErrorCode = HAL_DMA_ERROR_NONE;
 236              		.loc 1 313 0
 237 0140 7B68     		ldr	r3, [r7, #4]
 238 0142 0022     		movs	r2, #0
 239 0144 5A65     		str	r2, [r3, #84]
 314:Drivers/STM32F7xx_HAL_Driver/Src/stm32f7xx_hal_dma.c ****                                                                                      
 315:Drivers/STM32F7xx_HAL_Driver/Src/stm32f7xx_hal_dma.c ****   /* Initialize the DMA state */
 316:Drivers/STM32F7xx_HAL_Driver/Src/stm32f7xx_hal_dma.c ****   hdma->State = HAL_DMA_STATE_READY;
 240              		.loc 1 316 0
 241 0146 7B68     		ldr	r3, [r7, #4]
 242 0148 0122     		movs	r2, #1
 243 014a 83F83520 		strb	r2, [r3, #53]
 317:Drivers/STM32F7xx_HAL_Driver/Src/stm32f7xx_hal_dma.c **** 
 318:Drivers/STM32F7xx_HAL_Driver/Src/stm32f7xx_hal_dma.c ****   return HAL_OK;
 244              		.loc 1 318 0
 245 014e 0023     		movs	r3, #0
 246              	.L3:
 319:Drivers/STM32F7xx_HAL_Driver/Src/stm32f7xx_hal_dma.c **** }
 247              		.loc 1 319 0
ARM GAS  /var/folders/n8/cvzdcwlj0vl4g_wtyz1ffy300000gn/T//ccZxLSjg.s 			page 11


 248 0150 1846     		mov	r0, r3
 249 0152 1837     		adds	r7, r7, #24
 250              	.LCFI3:
 251              		.cfi_def_cfa_offset 8
 252 0154 BD46     		mov	sp, r7
 253              	.LCFI4:
 254              		.cfi_def_cfa_register 13
 255              		@ sp needed
 256 0156 80BD     		pop	{r7, pc}
 257              	.L9:
 258              		.align	2
 259              	.L8:
 260 0158 3F8010F0 		.word	-267354049
 261              		.cfi_endproc
 262              	.LFE138:
 264              		.section	.text.HAL_DMA_DeInit,"ax",%progbits
 265              		.align	1
 266              		.global	HAL_DMA_DeInit
 267              		.syntax unified
 268              		.thumb
 269              		.thumb_func
 270              		.fpu fpv5-sp-d16
 272              	HAL_DMA_DeInit:
 273              	.LFB139:
 320:Drivers/STM32F7xx_HAL_Driver/Src/stm32f7xx_hal_dma.c **** 
 321:Drivers/STM32F7xx_HAL_Driver/Src/stm32f7xx_hal_dma.c **** /**
 322:Drivers/STM32F7xx_HAL_Driver/Src/stm32f7xx_hal_dma.c ****   * @brief  DeInitializes the DMA peripheral 
 323:Drivers/STM32F7xx_HAL_Driver/Src/stm32f7xx_hal_dma.c ****   * @param  hdma pointer to a DMA_HandleTypeDef structure that contains
 324:Drivers/STM32F7xx_HAL_Driver/Src/stm32f7xx_hal_dma.c ****   *               the configuration information for the specified DMA Stream.  
 325:Drivers/STM32F7xx_HAL_Driver/Src/stm32f7xx_hal_dma.c ****   * @retval HAL status
 326:Drivers/STM32F7xx_HAL_Driver/Src/stm32f7xx_hal_dma.c ****   */
 327:Drivers/STM32F7xx_HAL_Driver/Src/stm32f7xx_hal_dma.c **** HAL_StatusTypeDef HAL_DMA_DeInit(DMA_HandleTypeDef *hdma)
 328:Drivers/STM32F7xx_HAL_Driver/Src/stm32f7xx_hal_dma.c **** {
 274              		.loc 1 328 0
 275              		.cfi_startproc
 276              		@ args = 0, pretend = 0, frame = 16
 277              		@ frame_needed = 1, uses_anonymous_args = 0
 278 0000 80B5     		push	{r7, lr}
 279              	.LCFI5:
 280              		.cfi_def_cfa_offset 8
 281              		.cfi_offset 7, -8
 282              		.cfi_offset 14, -4
 283 0002 84B0     		sub	sp, sp, #16
 284              	.LCFI6:
 285              		.cfi_def_cfa_offset 24
 286 0004 00AF     		add	r7, sp, #0
 287              	.LCFI7:
 288              		.cfi_def_cfa_register 7
 289 0006 7860     		str	r0, [r7, #4]
 329:Drivers/STM32F7xx_HAL_Driver/Src/stm32f7xx_hal_dma.c ****   DMA_Base_Registers *regs;
 330:Drivers/STM32F7xx_HAL_Driver/Src/stm32f7xx_hal_dma.c **** 
 331:Drivers/STM32F7xx_HAL_Driver/Src/stm32f7xx_hal_dma.c ****   /* Check the DMA peripheral state */
 332:Drivers/STM32F7xx_HAL_Driver/Src/stm32f7xx_hal_dma.c ****   if(hdma == NULL)
 290              		.loc 1 332 0
 291 0008 7B68     		ldr	r3, [r7, #4]
 292 000a 002B     		cmp	r3, #0
 293 000c 01D1     		bne	.L11
ARM GAS  /var/folders/n8/cvzdcwlj0vl4g_wtyz1ffy300000gn/T//ccZxLSjg.s 			page 12


 333:Drivers/STM32F7xx_HAL_Driver/Src/stm32f7xx_hal_dma.c ****   {
 334:Drivers/STM32F7xx_HAL_Driver/Src/stm32f7xx_hal_dma.c ****     return HAL_ERROR;
 294              		.loc 1 334 0
 295 000e 0123     		movs	r3, #1
 296 0010 50E0     		b	.L12
 297              	.L11:
 335:Drivers/STM32F7xx_HAL_Driver/Src/stm32f7xx_hal_dma.c ****   }
 336:Drivers/STM32F7xx_HAL_Driver/Src/stm32f7xx_hal_dma.c ****   
 337:Drivers/STM32F7xx_HAL_Driver/Src/stm32f7xx_hal_dma.c ****   /* Check the DMA peripheral state */
 338:Drivers/STM32F7xx_HAL_Driver/Src/stm32f7xx_hal_dma.c ****   if(hdma->State == HAL_DMA_STATE_BUSY)
 298              		.loc 1 338 0
 299 0012 7B68     		ldr	r3, [r7, #4]
 300 0014 93F83530 		ldrb	r3, [r3, #53]
 301 0018 DBB2     		uxtb	r3, r3
 302 001a 022B     		cmp	r3, #2
 303 001c 01D1     		bne	.L13
 339:Drivers/STM32F7xx_HAL_Driver/Src/stm32f7xx_hal_dma.c ****   {
 340:Drivers/STM32F7xx_HAL_Driver/Src/stm32f7xx_hal_dma.c ****     /* Return error status */
 341:Drivers/STM32F7xx_HAL_Driver/Src/stm32f7xx_hal_dma.c ****     return HAL_BUSY;
 304              		.loc 1 341 0
 305 001e 0223     		movs	r3, #2
 306 0020 48E0     		b	.L12
 307              	.L13:
 342:Drivers/STM32F7xx_HAL_Driver/Src/stm32f7xx_hal_dma.c ****   }
 343:Drivers/STM32F7xx_HAL_Driver/Src/stm32f7xx_hal_dma.c **** 
 344:Drivers/STM32F7xx_HAL_Driver/Src/stm32f7xx_hal_dma.c ****   /* Check the parameters */
 345:Drivers/STM32F7xx_HAL_Driver/Src/stm32f7xx_hal_dma.c ****   assert_param(IS_DMA_STREAM_ALL_INSTANCE(hdma->Instance));
 346:Drivers/STM32F7xx_HAL_Driver/Src/stm32f7xx_hal_dma.c **** 
 347:Drivers/STM32F7xx_HAL_Driver/Src/stm32f7xx_hal_dma.c ****   /* Disable the selected DMA Streamx */
 348:Drivers/STM32F7xx_HAL_Driver/Src/stm32f7xx_hal_dma.c ****   __HAL_DMA_DISABLE(hdma);
 308              		.loc 1 348 0
 309 0022 7B68     		ldr	r3, [r7, #4]
 310 0024 1B68     		ldr	r3, [r3]
 311 0026 1A68     		ldr	r2, [r3]
 312 0028 7B68     		ldr	r3, [r7, #4]
 313 002a 1B68     		ldr	r3, [r3]
 314 002c 22F00102 		bic	r2, r2, #1
 315 0030 1A60     		str	r2, [r3]
 349:Drivers/STM32F7xx_HAL_Driver/Src/stm32f7xx_hal_dma.c **** 
 350:Drivers/STM32F7xx_HAL_Driver/Src/stm32f7xx_hal_dma.c ****   /* Reset DMA Streamx control register */
 351:Drivers/STM32F7xx_HAL_Driver/Src/stm32f7xx_hal_dma.c ****   hdma->Instance->CR   = 0U;
 316              		.loc 1 351 0
 317 0032 7B68     		ldr	r3, [r7, #4]
 318 0034 1B68     		ldr	r3, [r3]
 319 0036 0022     		movs	r2, #0
 320 0038 1A60     		str	r2, [r3]
 352:Drivers/STM32F7xx_HAL_Driver/Src/stm32f7xx_hal_dma.c **** 
 353:Drivers/STM32F7xx_HAL_Driver/Src/stm32f7xx_hal_dma.c ****   /* Reset DMA Streamx number of data to transfer register */
 354:Drivers/STM32F7xx_HAL_Driver/Src/stm32f7xx_hal_dma.c ****   hdma->Instance->NDTR = 0U;
 321              		.loc 1 354 0
 322 003a 7B68     		ldr	r3, [r7, #4]
 323 003c 1B68     		ldr	r3, [r3]
 324 003e 0022     		movs	r2, #0
 325 0040 5A60     		str	r2, [r3, #4]
 355:Drivers/STM32F7xx_HAL_Driver/Src/stm32f7xx_hal_dma.c **** 
 356:Drivers/STM32F7xx_HAL_Driver/Src/stm32f7xx_hal_dma.c ****   /* Reset DMA Streamx peripheral address register */
 357:Drivers/STM32F7xx_HAL_Driver/Src/stm32f7xx_hal_dma.c ****   hdma->Instance->PAR  = 0U;
ARM GAS  /var/folders/n8/cvzdcwlj0vl4g_wtyz1ffy300000gn/T//ccZxLSjg.s 			page 13


 326              		.loc 1 357 0
 327 0042 7B68     		ldr	r3, [r7, #4]
 328 0044 1B68     		ldr	r3, [r3]
 329 0046 0022     		movs	r2, #0
 330 0048 9A60     		str	r2, [r3, #8]
 358:Drivers/STM32F7xx_HAL_Driver/Src/stm32f7xx_hal_dma.c **** 
 359:Drivers/STM32F7xx_HAL_Driver/Src/stm32f7xx_hal_dma.c ****   /* Reset DMA Streamx memory 0 address register */
 360:Drivers/STM32F7xx_HAL_Driver/Src/stm32f7xx_hal_dma.c ****   hdma->Instance->M0AR = 0U;
 331              		.loc 1 360 0
 332 004a 7B68     		ldr	r3, [r7, #4]
 333 004c 1B68     		ldr	r3, [r3]
 334 004e 0022     		movs	r2, #0
 335 0050 DA60     		str	r2, [r3, #12]
 361:Drivers/STM32F7xx_HAL_Driver/Src/stm32f7xx_hal_dma.c ****   
 362:Drivers/STM32F7xx_HAL_Driver/Src/stm32f7xx_hal_dma.c ****   /* Reset DMA Streamx memory 1 address register */
 363:Drivers/STM32F7xx_HAL_Driver/Src/stm32f7xx_hal_dma.c ****   hdma->Instance->M1AR = 0U;
 336              		.loc 1 363 0
 337 0052 7B68     		ldr	r3, [r7, #4]
 338 0054 1B68     		ldr	r3, [r3]
 339 0056 0022     		movs	r2, #0
 340 0058 1A61     		str	r2, [r3, #16]
 364:Drivers/STM32F7xx_HAL_Driver/Src/stm32f7xx_hal_dma.c ****   
 365:Drivers/STM32F7xx_HAL_Driver/Src/stm32f7xx_hal_dma.c ****   /* Reset DMA Streamx FIFO control register */
 366:Drivers/STM32F7xx_HAL_Driver/Src/stm32f7xx_hal_dma.c ****   hdma->Instance->FCR  = (uint32_t)0x00000021U;
 341              		.loc 1 366 0
 342 005a 7B68     		ldr	r3, [r7, #4]
 343 005c 1B68     		ldr	r3, [r3]
 344 005e 2122     		movs	r2, #33
 345 0060 5A61     		str	r2, [r3, #20]
 367:Drivers/STM32F7xx_HAL_Driver/Src/stm32f7xx_hal_dma.c ****   
 368:Drivers/STM32F7xx_HAL_Driver/Src/stm32f7xx_hal_dma.c ****   /* Get DMA steam Base Address */  
 369:Drivers/STM32F7xx_HAL_Driver/Src/stm32f7xx_hal_dma.c ****   regs = (DMA_Base_Registers *)DMA_CalcBaseAndBitshift(hdma);
 346              		.loc 1 369 0
 347 0062 7868     		ldr	r0, [r7, #4]
 348 0064 FFF7FEFF 		bl	DMA_CalcBaseAndBitshift
 349 0068 0346     		mov	r3, r0
 350 006a FB60     		str	r3, [r7, #12]
 370:Drivers/STM32F7xx_HAL_Driver/Src/stm32f7xx_hal_dma.c ****   
 371:Drivers/STM32F7xx_HAL_Driver/Src/stm32f7xx_hal_dma.c ****   /* Clear all interrupt flags at correct offset within the register */
 372:Drivers/STM32F7xx_HAL_Driver/Src/stm32f7xx_hal_dma.c ****   regs->IFCR = 0x3FU << hdma->StreamIndex;
 351              		.loc 1 372 0
 352 006c 7B68     		ldr	r3, [r7, #4]
 353 006e DB6D     		ldr	r3, [r3, #92]
 354 0070 3F22     		movs	r2, #63
 355 0072 9A40     		lsls	r2, r2, r3
 356 0074 FB68     		ldr	r3, [r7, #12]
 357 0076 9A60     		str	r2, [r3, #8]
 373:Drivers/STM32F7xx_HAL_Driver/Src/stm32f7xx_hal_dma.c ****   
 374:Drivers/STM32F7xx_HAL_Driver/Src/stm32f7xx_hal_dma.c ****   /* Clean all callbacks */
 375:Drivers/STM32F7xx_HAL_Driver/Src/stm32f7xx_hal_dma.c ****   hdma->XferCpltCallback = NULL;
 358              		.loc 1 375 0
 359 0078 7B68     		ldr	r3, [r7, #4]
 360 007a 0022     		movs	r2, #0
 361 007c DA63     		str	r2, [r3, #60]
 376:Drivers/STM32F7xx_HAL_Driver/Src/stm32f7xx_hal_dma.c ****   hdma->XferHalfCpltCallback = NULL;
 362              		.loc 1 376 0
 363 007e 7B68     		ldr	r3, [r7, #4]
ARM GAS  /var/folders/n8/cvzdcwlj0vl4g_wtyz1ffy300000gn/T//ccZxLSjg.s 			page 14


 364 0080 0022     		movs	r2, #0
 365 0082 1A64     		str	r2, [r3, #64]
 377:Drivers/STM32F7xx_HAL_Driver/Src/stm32f7xx_hal_dma.c ****   hdma->XferM1CpltCallback = NULL;
 366              		.loc 1 377 0
 367 0084 7B68     		ldr	r3, [r7, #4]
 368 0086 0022     		movs	r2, #0
 369 0088 5A64     		str	r2, [r3, #68]
 378:Drivers/STM32F7xx_HAL_Driver/Src/stm32f7xx_hal_dma.c ****   hdma->XferM1HalfCpltCallback = NULL;
 370              		.loc 1 378 0
 371 008a 7B68     		ldr	r3, [r7, #4]
 372 008c 0022     		movs	r2, #0
 373 008e 9A64     		str	r2, [r3, #72]
 379:Drivers/STM32F7xx_HAL_Driver/Src/stm32f7xx_hal_dma.c ****   hdma->XferErrorCallback = NULL;
 374              		.loc 1 379 0
 375 0090 7B68     		ldr	r3, [r7, #4]
 376 0092 0022     		movs	r2, #0
 377 0094 DA64     		str	r2, [r3, #76]
 380:Drivers/STM32F7xx_HAL_Driver/Src/stm32f7xx_hal_dma.c ****   hdma->XferAbortCallback = NULL;  
 378              		.loc 1 380 0
 379 0096 7B68     		ldr	r3, [r7, #4]
 380 0098 0022     		movs	r2, #0
 381 009a 1A65     		str	r2, [r3, #80]
 381:Drivers/STM32F7xx_HAL_Driver/Src/stm32f7xx_hal_dma.c **** 
 382:Drivers/STM32F7xx_HAL_Driver/Src/stm32f7xx_hal_dma.c ****   /* Reset the error code */
 383:Drivers/STM32F7xx_HAL_Driver/Src/stm32f7xx_hal_dma.c ****   hdma->ErrorCode = HAL_DMA_ERROR_NONE;
 382              		.loc 1 383 0
 383 009c 7B68     		ldr	r3, [r7, #4]
 384 009e 0022     		movs	r2, #0
 385 00a0 5A65     		str	r2, [r3, #84]
 384:Drivers/STM32F7xx_HAL_Driver/Src/stm32f7xx_hal_dma.c **** 
 385:Drivers/STM32F7xx_HAL_Driver/Src/stm32f7xx_hal_dma.c ****   /* Reset the DMA state */
 386:Drivers/STM32F7xx_HAL_Driver/Src/stm32f7xx_hal_dma.c ****   hdma->State = HAL_DMA_STATE_RESET;
 386              		.loc 1 386 0
 387 00a2 7B68     		ldr	r3, [r7, #4]
 388 00a4 0022     		movs	r2, #0
 389 00a6 83F83520 		strb	r2, [r3, #53]
 387:Drivers/STM32F7xx_HAL_Driver/Src/stm32f7xx_hal_dma.c **** 
 388:Drivers/STM32F7xx_HAL_Driver/Src/stm32f7xx_hal_dma.c ****   /* Release Lock */
 389:Drivers/STM32F7xx_HAL_Driver/Src/stm32f7xx_hal_dma.c ****   __HAL_UNLOCK(hdma);
 390              		.loc 1 389 0
 391 00aa 7B68     		ldr	r3, [r7, #4]
 392 00ac 0022     		movs	r2, #0
 393 00ae 83F83420 		strb	r2, [r3, #52]
 390:Drivers/STM32F7xx_HAL_Driver/Src/stm32f7xx_hal_dma.c **** 
 391:Drivers/STM32F7xx_HAL_Driver/Src/stm32f7xx_hal_dma.c ****   return HAL_OK;
 394              		.loc 1 391 0
 395 00b2 0023     		movs	r3, #0
 396              	.L12:
 392:Drivers/STM32F7xx_HAL_Driver/Src/stm32f7xx_hal_dma.c **** }
 397              		.loc 1 392 0
 398 00b4 1846     		mov	r0, r3
 399 00b6 1037     		adds	r7, r7, #16
 400              	.LCFI8:
 401              		.cfi_def_cfa_offset 8
 402 00b8 BD46     		mov	sp, r7
 403              	.LCFI9:
 404              		.cfi_def_cfa_register 13
ARM GAS  /var/folders/n8/cvzdcwlj0vl4g_wtyz1ffy300000gn/T//ccZxLSjg.s 			page 15


 405              		@ sp needed
 406 00ba 80BD     		pop	{r7, pc}
 407              		.cfi_endproc
 408              	.LFE139:
 410              		.section	.text.HAL_DMA_Start,"ax",%progbits
 411              		.align	1
 412              		.global	HAL_DMA_Start
 413              		.syntax unified
 414              		.thumb
 415              		.thumb_func
 416              		.fpu fpv5-sp-d16
 418              	HAL_DMA_Start:
 419              	.LFB140:
 393:Drivers/STM32F7xx_HAL_Driver/Src/stm32f7xx_hal_dma.c **** 
 394:Drivers/STM32F7xx_HAL_Driver/Src/stm32f7xx_hal_dma.c **** /**
 395:Drivers/STM32F7xx_HAL_Driver/Src/stm32f7xx_hal_dma.c ****   * @}
 396:Drivers/STM32F7xx_HAL_Driver/Src/stm32f7xx_hal_dma.c ****   */
 397:Drivers/STM32F7xx_HAL_Driver/Src/stm32f7xx_hal_dma.c **** 
 398:Drivers/STM32F7xx_HAL_Driver/Src/stm32f7xx_hal_dma.c **** /** @addtogroup DMA_Exported_Functions_Group2
 399:Drivers/STM32F7xx_HAL_Driver/Src/stm32f7xx_hal_dma.c ****   *
 400:Drivers/STM32F7xx_HAL_Driver/Src/stm32f7xx_hal_dma.c **** @verbatim   
 401:Drivers/STM32F7xx_HAL_Driver/Src/stm32f7xx_hal_dma.c ****  ===============================================================================
 402:Drivers/STM32F7xx_HAL_Driver/Src/stm32f7xx_hal_dma.c ****                       #####  IO operation functions  #####
 403:Drivers/STM32F7xx_HAL_Driver/Src/stm32f7xx_hal_dma.c ****  ===============================================================================
 404:Drivers/STM32F7xx_HAL_Driver/Src/stm32f7xx_hal_dma.c ****     [..]  This section provides functions allowing to:
 405:Drivers/STM32F7xx_HAL_Driver/Src/stm32f7xx_hal_dma.c ****       (+) Configure the source, destination address and data length and Start DMA transfer
 406:Drivers/STM32F7xx_HAL_Driver/Src/stm32f7xx_hal_dma.c ****       (+) Configure the source, destination address and data length and 
 407:Drivers/STM32F7xx_HAL_Driver/Src/stm32f7xx_hal_dma.c ****           Start DMA transfer with interrupt
 408:Drivers/STM32F7xx_HAL_Driver/Src/stm32f7xx_hal_dma.c ****       (+) Abort DMA transfer
 409:Drivers/STM32F7xx_HAL_Driver/Src/stm32f7xx_hal_dma.c ****       (+) Poll for transfer complete
 410:Drivers/STM32F7xx_HAL_Driver/Src/stm32f7xx_hal_dma.c ****       (+) Handle DMA interrupt request  
 411:Drivers/STM32F7xx_HAL_Driver/Src/stm32f7xx_hal_dma.c **** 
 412:Drivers/STM32F7xx_HAL_Driver/Src/stm32f7xx_hal_dma.c **** @endverbatim
 413:Drivers/STM32F7xx_HAL_Driver/Src/stm32f7xx_hal_dma.c ****   * @{
 414:Drivers/STM32F7xx_HAL_Driver/Src/stm32f7xx_hal_dma.c ****   */
 415:Drivers/STM32F7xx_HAL_Driver/Src/stm32f7xx_hal_dma.c **** 
 416:Drivers/STM32F7xx_HAL_Driver/Src/stm32f7xx_hal_dma.c **** /**
 417:Drivers/STM32F7xx_HAL_Driver/Src/stm32f7xx_hal_dma.c ****   * @brief  Starts the DMA Transfer.
 418:Drivers/STM32F7xx_HAL_Driver/Src/stm32f7xx_hal_dma.c ****   * @param  hdma       pointer to a DMA_HandleTypeDef structure that contains
 419:Drivers/STM32F7xx_HAL_Driver/Src/stm32f7xx_hal_dma.c ****   *                     the configuration information for the specified DMA Stream.
 420:Drivers/STM32F7xx_HAL_Driver/Src/stm32f7xx_hal_dma.c ****   * @param  SrcAddress The source memory Buffer address
 421:Drivers/STM32F7xx_HAL_Driver/Src/stm32f7xx_hal_dma.c ****   * @param  DstAddress The destination memory Buffer address
 422:Drivers/STM32F7xx_HAL_Driver/Src/stm32f7xx_hal_dma.c ****   * @param  DataLength The length of data to be transferred from source to destination
 423:Drivers/STM32F7xx_HAL_Driver/Src/stm32f7xx_hal_dma.c ****   * @retval HAL status
 424:Drivers/STM32F7xx_HAL_Driver/Src/stm32f7xx_hal_dma.c ****   */
 425:Drivers/STM32F7xx_HAL_Driver/Src/stm32f7xx_hal_dma.c **** HAL_StatusTypeDef HAL_DMA_Start(DMA_HandleTypeDef *hdma, uint32_t SrcAddress, uint32_t DstAddress, 
 426:Drivers/STM32F7xx_HAL_Driver/Src/stm32f7xx_hal_dma.c **** {
 420              		.loc 1 426 0
 421              		.cfi_startproc
 422              		@ args = 0, pretend = 0, frame = 24
 423              		@ frame_needed = 1, uses_anonymous_args = 0
 424 0000 80B5     		push	{r7, lr}
 425              	.LCFI10:
 426              		.cfi_def_cfa_offset 8
 427              		.cfi_offset 7, -8
 428              		.cfi_offset 14, -4
 429 0002 86B0     		sub	sp, sp, #24
ARM GAS  /var/folders/n8/cvzdcwlj0vl4g_wtyz1ffy300000gn/T//ccZxLSjg.s 			page 16


 430              	.LCFI11:
 431              		.cfi_def_cfa_offset 32
 432 0004 00AF     		add	r7, sp, #0
 433              	.LCFI12:
 434              		.cfi_def_cfa_register 7
 435 0006 F860     		str	r0, [r7, #12]
 436 0008 B960     		str	r1, [r7, #8]
 437 000a 7A60     		str	r2, [r7, #4]
 438 000c 3B60     		str	r3, [r7]
 427:Drivers/STM32F7xx_HAL_Driver/Src/stm32f7xx_hal_dma.c ****   HAL_StatusTypeDef status = HAL_OK;
 439              		.loc 1 427 0
 440 000e 0023     		movs	r3, #0
 441 0010 FB75     		strb	r3, [r7, #23]
 428:Drivers/STM32F7xx_HAL_Driver/Src/stm32f7xx_hal_dma.c ****   
 429:Drivers/STM32F7xx_HAL_Driver/Src/stm32f7xx_hal_dma.c ****   /* Check the parameters */
 430:Drivers/STM32F7xx_HAL_Driver/Src/stm32f7xx_hal_dma.c ****   assert_param(IS_DMA_BUFFER_SIZE(DataLength));
 431:Drivers/STM32F7xx_HAL_Driver/Src/stm32f7xx_hal_dma.c **** 
 432:Drivers/STM32F7xx_HAL_Driver/Src/stm32f7xx_hal_dma.c ****   /* Process locked */
 433:Drivers/STM32F7xx_HAL_Driver/Src/stm32f7xx_hal_dma.c ****   __HAL_LOCK(hdma);
 442              		.loc 1 433 0
 443 0012 FB68     		ldr	r3, [r7, #12]
 444 0014 93F83430 		ldrb	r3, [r3, #52]	@ zero_extendqisi2
 445 0018 012B     		cmp	r3, #1
 446 001a 01D1     		bne	.L15
 447              		.loc 1 433 0 is_stmt 0 discriminator 1
 448 001c 0223     		movs	r3, #2
 449 001e 26E0     		b	.L16
 450              	.L15:
 451              		.loc 1 433 0 discriminator 2
 452 0020 FB68     		ldr	r3, [r7, #12]
 453 0022 0122     		movs	r2, #1
 454 0024 83F83420 		strb	r2, [r3, #52]
 434:Drivers/STM32F7xx_HAL_Driver/Src/stm32f7xx_hal_dma.c **** 
 435:Drivers/STM32F7xx_HAL_Driver/Src/stm32f7xx_hal_dma.c ****   if(HAL_DMA_STATE_READY == hdma->State)
 455              		.loc 1 435 0 is_stmt 1 discriminator 2
 456 0028 FB68     		ldr	r3, [r7, #12]
 457 002a 93F83530 		ldrb	r3, [r3, #53]
 458 002e DBB2     		uxtb	r3, r3
 459 0030 012B     		cmp	r3, #1
 460 0032 15D1     		bne	.L17
 436:Drivers/STM32F7xx_HAL_Driver/Src/stm32f7xx_hal_dma.c ****   {
 437:Drivers/STM32F7xx_HAL_Driver/Src/stm32f7xx_hal_dma.c ****     /* Change DMA peripheral state */
 438:Drivers/STM32F7xx_HAL_Driver/Src/stm32f7xx_hal_dma.c ****     hdma->State = HAL_DMA_STATE_BUSY;
 461              		.loc 1 438 0
 462 0034 FB68     		ldr	r3, [r7, #12]
 463 0036 0222     		movs	r2, #2
 464 0038 83F83520 		strb	r2, [r3, #53]
 439:Drivers/STM32F7xx_HAL_Driver/Src/stm32f7xx_hal_dma.c ****     
 440:Drivers/STM32F7xx_HAL_Driver/Src/stm32f7xx_hal_dma.c ****     /* Initialize the error code */
 441:Drivers/STM32F7xx_HAL_Driver/Src/stm32f7xx_hal_dma.c ****     hdma->ErrorCode = HAL_DMA_ERROR_NONE;
 465              		.loc 1 441 0
 466 003c FB68     		ldr	r3, [r7, #12]
 467 003e 0022     		movs	r2, #0
 468 0040 5A65     		str	r2, [r3, #84]
 442:Drivers/STM32F7xx_HAL_Driver/Src/stm32f7xx_hal_dma.c ****     
 443:Drivers/STM32F7xx_HAL_Driver/Src/stm32f7xx_hal_dma.c ****     /* Configure the source, destination address and the data length */
 444:Drivers/STM32F7xx_HAL_Driver/Src/stm32f7xx_hal_dma.c ****     DMA_SetConfig(hdma, SrcAddress, DstAddress, DataLength);
ARM GAS  /var/folders/n8/cvzdcwlj0vl4g_wtyz1ffy300000gn/T//ccZxLSjg.s 			page 17


 469              		.loc 1 444 0
 470 0042 3B68     		ldr	r3, [r7]
 471 0044 7A68     		ldr	r2, [r7, #4]
 472 0046 B968     		ldr	r1, [r7, #8]
 473 0048 F868     		ldr	r0, [r7, #12]
 474 004a FFF7FEFF 		bl	DMA_SetConfig
 445:Drivers/STM32F7xx_HAL_Driver/Src/stm32f7xx_hal_dma.c **** 
 446:Drivers/STM32F7xx_HAL_Driver/Src/stm32f7xx_hal_dma.c ****     /* Enable the Peripheral */
 447:Drivers/STM32F7xx_HAL_Driver/Src/stm32f7xx_hal_dma.c ****     __HAL_DMA_ENABLE(hdma);
 475              		.loc 1 447 0
 476 004e FB68     		ldr	r3, [r7, #12]
 477 0050 1B68     		ldr	r3, [r3]
 478 0052 1A68     		ldr	r2, [r3]
 479 0054 FB68     		ldr	r3, [r7, #12]
 480 0056 1B68     		ldr	r3, [r3]
 481 0058 42F00102 		orr	r2, r2, #1
 482 005c 1A60     		str	r2, [r3]
 483 005e 05E0     		b	.L18
 484              	.L17:
 448:Drivers/STM32F7xx_HAL_Driver/Src/stm32f7xx_hal_dma.c ****   }
 449:Drivers/STM32F7xx_HAL_Driver/Src/stm32f7xx_hal_dma.c ****   else
 450:Drivers/STM32F7xx_HAL_Driver/Src/stm32f7xx_hal_dma.c ****   {
 451:Drivers/STM32F7xx_HAL_Driver/Src/stm32f7xx_hal_dma.c ****     /* Process unlocked */
 452:Drivers/STM32F7xx_HAL_Driver/Src/stm32f7xx_hal_dma.c ****     __HAL_UNLOCK(hdma);
 485              		.loc 1 452 0
 486 0060 FB68     		ldr	r3, [r7, #12]
 487 0062 0022     		movs	r2, #0
 488 0064 83F83420 		strb	r2, [r3, #52]
 453:Drivers/STM32F7xx_HAL_Driver/Src/stm32f7xx_hal_dma.c ****     
 454:Drivers/STM32F7xx_HAL_Driver/Src/stm32f7xx_hal_dma.c ****     /* Return error status */
 455:Drivers/STM32F7xx_HAL_Driver/Src/stm32f7xx_hal_dma.c ****     status = HAL_BUSY;
 489              		.loc 1 455 0
 490 0068 0223     		movs	r3, #2
 491 006a FB75     		strb	r3, [r7, #23]
 492              	.L18:
 456:Drivers/STM32F7xx_HAL_Driver/Src/stm32f7xx_hal_dma.c ****   } 
 457:Drivers/STM32F7xx_HAL_Driver/Src/stm32f7xx_hal_dma.c ****   return status; 
 493              		.loc 1 457 0
 494 006c FB7D     		ldrb	r3, [r7, #23]	@ zero_extendqisi2
 495              	.L16:
 458:Drivers/STM32F7xx_HAL_Driver/Src/stm32f7xx_hal_dma.c **** }
 496              		.loc 1 458 0
 497 006e 1846     		mov	r0, r3
 498 0070 1837     		adds	r7, r7, #24
 499              	.LCFI13:
 500              		.cfi_def_cfa_offset 8
 501 0072 BD46     		mov	sp, r7
 502              	.LCFI14:
 503              		.cfi_def_cfa_register 13
 504              		@ sp needed
 505 0074 80BD     		pop	{r7, pc}
 506              		.cfi_endproc
 507              	.LFE140:
 509              		.section	.text.HAL_DMA_Start_IT,"ax",%progbits
 510              		.align	1
 511              		.global	HAL_DMA_Start_IT
 512              		.syntax unified
ARM GAS  /var/folders/n8/cvzdcwlj0vl4g_wtyz1ffy300000gn/T//ccZxLSjg.s 			page 18


 513              		.thumb
 514              		.thumb_func
 515              		.fpu fpv5-sp-d16
 517              	HAL_DMA_Start_IT:
 518              	.LFB141:
 459:Drivers/STM32F7xx_HAL_Driver/Src/stm32f7xx_hal_dma.c **** 
 460:Drivers/STM32F7xx_HAL_Driver/Src/stm32f7xx_hal_dma.c **** /**
 461:Drivers/STM32F7xx_HAL_Driver/Src/stm32f7xx_hal_dma.c ****   * @brief  Start the DMA Transfer with interrupt enabled.
 462:Drivers/STM32F7xx_HAL_Driver/Src/stm32f7xx_hal_dma.c ****   * @param  hdma       pointer to a DMA_HandleTypeDef structure that contains
 463:Drivers/STM32F7xx_HAL_Driver/Src/stm32f7xx_hal_dma.c ****   *                     the configuration information for the specified DMA Stream.  
 464:Drivers/STM32F7xx_HAL_Driver/Src/stm32f7xx_hal_dma.c ****   * @param  SrcAddress The source memory Buffer address
 465:Drivers/STM32F7xx_HAL_Driver/Src/stm32f7xx_hal_dma.c ****   * @param  DstAddress The destination memory Buffer address
 466:Drivers/STM32F7xx_HAL_Driver/Src/stm32f7xx_hal_dma.c ****   * @param  DataLength The length of data to be transferred from source to destination
 467:Drivers/STM32F7xx_HAL_Driver/Src/stm32f7xx_hal_dma.c ****   * @retval HAL status
 468:Drivers/STM32F7xx_HAL_Driver/Src/stm32f7xx_hal_dma.c ****   */
 469:Drivers/STM32F7xx_HAL_Driver/Src/stm32f7xx_hal_dma.c **** HAL_StatusTypeDef HAL_DMA_Start_IT(DMA_HandleTypeDef *hdma, uint32_t SrcAddress, uint32_t DstAddres
 470:Drivers/STM32F7xx_HAL_Driver/Src/stm32f7xx_hal_dma.c **** {
 519              		.loc 1 470 0
 520              		.cfi_startproc
 521              		@ args = 0, pretend = 0, frame = 24
 522              		@ frame_needed = 1, uses_anonymous_args = 0
 523 0000 80B5     		push	{r7, lr}
 524              	.LCFI15:
 525              		.cfi_def_cfa_offset 8
 526              		.cfi_offset 7, -8
 527              		.cfi_offset 14, -4
 528 0002 86B0     		sub	sp, sp, #24
 529              	.LCFI16:
 530              		.cfi_def_cfa_offset 32
 531 0004 00AF     		add	r7, sp, #0
 532              	.LCFI17:
 533              		.cfi_def_cfa_register 7
 534 0006 F860     		str	r0, [r7, #12]
 535 0008 B960     		str	r1, [r7, #8]
 536 000a 7A60     		str	r2, [r7, #4]
 537 000c 3B60     		str	r3, [r7]
 471:Drivers/STM32F7xx_HAL_Driver/Src/stm32f7xx_hal_dma.c ****   HAL_StatusTypeDef status = HAL_OK;
 538              		.loc 1 471 0
 539 000e 0023     		movs	r3, #0
 540 0010 FB75     		strb	r3, [r7, #23]
 472:Drivers/STM32F7xx_HAL_Driver/Src/stm32f7xx_hal_dma.c **** 
 473:Drivers/STM32F7xx_HAL_Driver/Src/stm32f7xx_hal_dma.c ****   /* calculate DMA base and stream number */
 474:Drivers/STM32F7xx_HAL_Driver/Src/stm32f7xx_hal_dma.c ****   DMA_Base_Registers *regs = (DMA_Base_Registers *)hdma->StreamBaseAddress;
 541              		.loc 1 474 0
 542 0012 FB68     		ldr	r3, [r7, #12]
 543 0014 9B6D     		ldr	r3, [r3, #88]
 544 0016 3B61     		str	r3, [r7, #16]
 475:Drivers/STM32F7xx_HAL_Driver/Src/stm32f7xx_hal_dma.c ****   
 476:Drivers/STM32F7xx_HAL_Driver/Src/stm32f7xx_hal_dma.c ****   /* Check the parameters */
 477:Drivers/STM32F7xx_HAL_Driver/Src/stm32f7xx_hal_dma.c ****   assert_param(IS_DMA_BUFFER_SIZE(DataLength));
 478:Drivers/STM32F7xx_HAL_Driver/Src/stm32f7xx_hal_dma.c ****  
 479:Drivers/STM32F7xx_HAL_Driver/Src/stm32f7xx_hal_dma.c ****   /* Process locked */
 480:Drivers/STM32F7xx_HAL_Driver/Src/stm32f7xx_hal_dma.c ****   __HAL_LOCK(hdma);
 545              		.loc 1 480 0
 546 0018 FB68     		ldr	r3, [r7, #12]
 547 001a 93F83430 		ldrb	r3, [r3, #52]	@ zero_extendqisi2
 548 001e 012B     		cmp	r3, #1
ARM GAS  /var/folders/n8/cvzdcwlj0vl4g_wtyz1ffy300000gn/T//ccZxLSjg.s 			page 19


 549 0020 01D1     		bne	.L20
 550              		.loc 1 480 0 is_stmt 0 discriminator 1
 551 0022 0223     		movs	r3, #2
 552 0024 48E0     		b	.L21
 553              	.L20:
 554              		.loc 1 480 0 discriminator 2
 555 0026 FB68     		ldr	r3, [r7, #12]
 556 0028 0122     		movs	r2, #1
 557 002a 83F83420 		strb	r2, [r3, #52]
 481:Drivers/STM32F7xx_HAL_Driver/Src/stm32f7xx_hal_dma.c ****   
 482:Drivers/STM32F7xx_HAL_Driver/Src/stm32f7xx_hal_dma.c ****   if(HAL_DMA_STATE_READY == hdma->State)
 558              		.loc 1 482 0 is_stmt 1 discriminator 2
 559 002e FB68     		ldr	r3, [r7, #12]
 560 0030 93F83530 		ldrb	r3, [r3, #53]
 561 0034 DBB2     		uxtb	r3, r3
 562 0036 012B     		cmp	r3, #1
 563 0038 37D1     		bne	.L22
 483:Drivers/STM32F7xx_HAL_Driver/Src/stm32f7xx_hal_dma.c ****   {
 484:Drivers/STM32F7xx_HAL_Driver/Src/stm32f7xx_hal_dma.c ****     /* Change DMA peripheral state */
 485:Drivers/STM32F7xx_HAL_Driver/Src/stm32f7xx_hal_dma.c ****     hdma->State = HAL_DMA_STATE_BUSY;
 564              		.loc 1 485 0
 565 003a FB68     		ldr	r3, [r7, #12]
 566 003c 0222     		movs	r2, #2
 567 003e 83F83520 		strb	r2, [r3, #53]
 486:Drivers/STM32F7xx_HAL_Driver/Src/stm32f7xx_hal_dma.c ****     
 487:Drivers/STM32F7xx_HAL_Driver/Src/stm32f7xx_hal_dma.c ****     /* Initialize the error code */
 488:Drivers/STM32F7xx_HAL_Driver/Src/stm32f7xx_hal_dma.c ****     hdma->ErrorCode = HAL_DMA_ERROR_NONE;
 568              		.loc 1 488 0
 569 0042 FB68     		ldr	r3, [r7, #12]
 570 0044 0022     		movs	r2, #0
 571 0046 5A65     		str	r2, [r3, #84]
 489:Drivers/STM32F7xx_HAL_Driver/Src/stm32f7xx_hal_dma.c ****     
 490:Drivers/STM32F7xx_HAL_Driver/Src/stm32f7xx_hal_dma.c ****     /* Configure the source, destination address and the data length */
 491:Drivers/STM32F7xx_HAL_Driver/Src/stm32f7xx_hal_dma.c ****     DMA_SetConfig(hdma, SrcAddress, DstAddress, DataLength);
 572              		.loc 1 491 0
 573 0048 3B68     		ldr	r3, [r7]
 574 004a 7A68     		ldr	r2, [r7, #4]
 575 004c B968     		ldr	r1, [r7, #8]
 576 004e F868     		ldr	r0, [r7, #12]
 577 0050 FFF7FEFF 		bl	DMA_SetConfig
 492:Drivers/STM32F7xx_HAL_Driver/Src/stm32f7xx_hal_dma.c ****     
 493:Drivers/STM32F7xx_HAL_Driver/Src/stm32f7xx_hal_dma.c ****     /* Clear all interrupt flags at correct offset within the register */
 494:Drivers/STM32F7xx_HAL_Driver/Src/stm32f7xx_hal_dma.c ****     regs->IFCR = 0x3FU << hdma->StreamIndex;
 578              		.loc 1 494 0
 579 0054 FB68     		ldr	r3, [r7, #12]
 580 0056 DB6D     		ldr	r3, [r3, #92]
 581 0058 3F22     		movs	r2, #63
 582 005a 9A40     		lsls	r2, r2, r3
 583 005c 3B69     		ldr	r3, [r7, #16]
 584 005e 9A60     		str	r2, [r3, #8]
 495:Drivers/STM32F7xx_HAL_Driver/Src/stm32f7xx_hal_dma.c ****     
 496:Drivers/STM32F7xx_HAL_Driver/Src/stm32f7xx_hal_dma.c ****     /* Enable Common interrupts*/
 497:Drivers/STM32F7xx_HAL_Driver/Src/stm32f7xx_hal_dma.c ****     hdma->Instance->CR  |= DMA_IT_TC | DMA_IT_TE | DMA_IT_DME;
 585              		.loc 1 497 0
 586 0060 FB68     		ldr	r3, [r7, #12]
 587 0062 1B68     		ldr	r3, [r3]
 588 0064 1A68     		ldr	r2, [r3]
ARM GAS  /var/folders/n8/cvzdcwlj0vl4g_wtyz1ffy300000gn/T//ccZxLSjg.s 			page 20


 589 0066 FB68     		ldr	r3, [r7, #12]
 590 0068 1B68     		ldr	r3, [r3]
 591 006a 42F01602 		orr	r2, r2, #22
 592 006e 1A60     		str	r2, [r3]
 498:Drivers/STM32F7xx_HAL_Driver/Src/stm32f7xx_hal_dma.c ****     hdma->Instance->FCR |= DMA_IT_FE;
 593              		.loc 1 498 0
 594 0070 FB68     		ldr	r3, [r7, #12]
 595 0072 1B68     		ldr	r3, [r3]
 596 0074 5A69     		ldr	r2, [r3, #20]
 597 0076 FB68     		ldr	r3, [r7, #12]
 598 0078 1B68     		ldr	r3, [r3]
 599 007a 42F08002 		orr	r2, r2, #128
 600 007e 5A61     		str	r2, [r3, #20]
 499:Drivers/STM32F7xx_HAL_Driver/Src/stm32f7xx_hal_dma.c ****     
 500:Drivers/STM32F7xx_HAL_Driver/Src/stm32f7xx_hal_dma.c ****     if(hdma->XferHalfCpltCallback != NULL)
 601              		.loc 1 500 0
 602 0080 FB68     		ldr	r3, [r7, #12]
 603 0082 1B6C     		ldr	r3, [r3, #64]
 604 0084 002B     		cmp	r3, #0
 605 0086 07D0     		beq	.L23
 501:Drivers/STM32F7xx_HAL_Driver/Src/stm32f7xx_hal_dma.c ****     {
 502:Drivers/STM32F7xx_HAL_Driver/Src/stm32f7xx_hal_dma.c ****       hdma->Instance->CR  |= DMA_IT_HT;
 606              		.loc 1 502 0
 607 0088 FB68     		ldr	r3, [r7, #12]
 608 008a 1B68     		ldr	r3, [r3]
 609 008c 1A68     		ldr	r2, [r3]
 610 008e FB68     		ldr	r3, [r7, #12]
 611 0090 1B68     		ldr	r3, [r3]
 612 0092 42F00802 		orr	r2, r2, #8
 613 0096 1A60     		str	r2, [r3]
 614              	.L23:
 503:Drivers/STM32F7xx_HAL_Driver/Src/stm32f7xx_hal_dma.c ****     }
 504:Drivers/STM32F7xx_HAL_Driver/Src/stm32f7xx_hal_dma.c ****     
 505:Drivers/STM32F7xx_HAL_Driver/Src/stm32f7xx_hal_dma.c ****     /* Enable the Peripheral */
 506:Drivers/STM32F7xx_HAL_Driver/Src/stm32f7xx_hal_dma.c ****     __HAL_DMA_ENABLE(hdma);
 615              		.loc 1 506 0
 616 0098 FB68     		ldr	r3, [r7, #12]
 617 009a 1B68     		ldr	r3, [r3]
 618 009c 1A68     		ldr	r2, [r3]
 619 009e FB68     		ldr	r3, [r7, #12]
 620 00a0 1B68     		ldr	r3, [r3]
 621 00a2 42F00102 		orr	r2, r2, #1
 622 00a6 1A60     		str	r2, [r3]
 623 00a8 05E0     		b	.L24
 624              	.L22:
 507:Drivers/STM32F7xx_HAL_Driver/Src/stm32f7xx_hal_dma.c ****   }
 508:Drivers/STM32F7xx_HAL_Driver/Src/stm32f7xx_hal_dma.c ****   else
 509:Drivers/STM32F7xx_HAL_Driver/Src/stm32f7xx_hal_dma.c ****   {
 510:Drivers/STM32F7xx_HAL_Driver/Src/stm32f7xx_hal_dma.c ****     /* Process unlocked */
 511:Drivers/STM32F7xx_HAL_Driver/Src/stm32f7xx_hal_dma.c ****     __HAL_UNLOCK(hdma);	  
 625              		.loc 1 511 0
 626 00aa FB68     		ldr	r3, [r7, #12]
 627 00ac 0022     		movs	r2, #0
 628 00ae 83F83420 		strb	r2, [r3, #52]
 512:Drivers/STM32F7xx_HAL_Driver/Src/stm32f7xx_hal_dma.c ****     
 513:Drivers/STM32F7xx_HAL_Driver/Src/stm32f7xx_hal_dma.c ****     /* Return error status */
 514:Drivers/STM32F7xx_HAL_Driver/Src/stm32f7xx_hal_dma.c ****     status = HAL_BUSY;
ARM GAS  /var/folders/n8/cvzdcwlj0vl4g_wtyz1ffy300000gn/T//ccZxLSjg.s 			page 21


 629              		.loc 1 514 0
 630 00b2 0223     		movs	r3, #2
 631 00b4 FB75     		strb	r3, [r7, #23]
 632              	.L24:
 515:Drivers/STM32F7xx_HAL_Driver/Src/stm32f7xx_hal_dma.c ****   }
 516:Drivers/STM32F7xx_HAL_Driver/Src/stm32f7xx_hal_dma.c ****   
 517:Drivers/STM32F7xx_HAL_Driver/Src/stm32f7xx_hal_dma.c ****   return status;
 633              		.loc 1 517 0
 634 00b6 FB7D     		ldrb	r3, [r7, #23]	@ zero_extendqisi2
 635              	.L21:
 518:Drivers/STM32F7xx_HAL_Driver/Src/stm32f7xx_hal_dma.c **** }
 636              		.loc 1 518 0
 637 00b8 1846     		mov	r0, r3
 638 00ba 1837     		adds	r7, r7, #24
 639              	.LCFI18:
 640              		.cfi_def_cfa_offset 8
 641 00bc BD46     		mov	sp, r7
 642              	.LCFI19:
 643              		.cfi_def_cfa_register 13
 644              		@ sp needed
 645 00be 80BD     		pop	{r7, pc}
 646              		.cfi_endproc
 647              	.LFE141:
 649              		.section	.text.HAL_DMA_Abort,"ax",%progbits
 650              		.align	1
 651              		.global	HAL_DMA_Abort
 652              		.syntax unified
 653              		.thumb
 654              		.thumb_func
 655              		.fpu fpv5-sp-d16
 657              	HAL_DMA_Abort:
 658              	.LFB142:
 519:Drivers/STM32F7xx_HAL_Driver/Src/stm32f7xx_hal_dma.c **** 
 520:Drivers/STM32F7xx_HAL_Driver/Src/stm32f7xx_hal_dma.c **** /**
 521:Drivers/STM32F7xx_HAL_Driver/Src/stm32f7xx_hal_dma.c ****   * @brief  Aborts the DMA Transfer.
 522:Drivers/STM32F7xx_HAL_Driver/Src/stm32f7xx_hal_dma.c ****   * @param  hdma   pointer to a DMA_HandleTypeDef structure that contains
 523:Drivers/STM32F7xx_HAL_Driver/Src/stm32f7xx_hal_dma.c ****   *                 the configuration information for the specified DMA Stream.
 524:Drivers/STM32F7xx_HAL_Driver/Src/stm32f7xx_hal_dma.c ****   *                   
 525:Drivers/STM32F7xx_HAL_Driver/Src/stm32f7xx_hal_dma.c ****   * @note  After disabling a DMA Stream, a check for wait until the DMA Stream is 
 526:Drivers/STM32F7xx_HAL_Driver/Src/stm32f7xx_hal_dma.c ****   *        effectively disabled is added. If a Stream is disabled 
 527:Drivers/STM32F7xx_HAL_Driver/Src/stm32f7xx_hal_dma.c ****   *        while a data transfer is ongoing, the current data will be transferred
 528:Drivers/STM32F7xx_HAL_Driver/Src/stm32f7xx_hal_dma.c ****   *        and the Stream will be effectively disabled only after the transfer of
 529:Drivers/STM32F7xx_HAL_Driver/Src/stm32f7xx_hal_dma.c ****   *        this single data is finished.  
 530:Drivers/STM32F7xx_HAL_Driver/Src/stm32f7xx_hal_dma.c ****   * @retval HAL status
 531:Drivers/STM32F7xx_HAL_Driver/Src/stm32f7xx_hal_dma.c ****   */
 532:Drivers/STM32F7xx_HAL_Driver/Src/stm32f7xx_hal_dma.c **** HAL_StatusTypeDef HAL_DMA_Abort(DMA_HandleTypeDef *hdma)
 533:Drivers/STM32F7xx_HAL_Driver/Src/stm32f7xx_hal_dma.c **** {
 659              		.loc 1 533 0
 660              		.cfi_startproc
 661              		@ args = 0, pretend = 0, frame = 16
 662              		@ frame_needed = 1, uses_anonymous_args = 0
 663 0000 80B5     		push	{r7, lr}
 664              	.LCFI20:
 665              		.cfi_def_cfa_offset 8
 666              		.cfi_offset 7, -8
 667              		.cfi_offset 14, -4
 668 0002 84B0     		sub	sp, sp, #16
ARM GAS  /var/folders/n8/cvzdcwlj0vl4g_wtyz1ffy300000gn/T//ccZxLSjg.s 			page 22


 669              	.LCFI21:
 670              		.cfi_def_cfa_offset 24
 671 0004 00AF     		add	r7, sp, #0
 672              	.LCFI22:
 673              		.cfi_def_cfa_register 7
 674 0006 7860     		str	r0, [r7, #4]
 534:Drivers/STM32F7xx_HAL_Driver/Src/stm32f7xx_hal_dma.c ****   /* calculate DMA base and stream number */
 535:Drivers/STM32F7xx_HAL_Driver/Src/stm32f7xx_hal_dma.c ****   DMA_Base_Registers *regs = (DMA_Base_Registers *)hdma->StreamBaseAddress;
 675              		.loc 1 535 0
 676 0008 7B68     		ldr	r3, [r7, #4]
 677 000a 9B6D     		ldr	r3, [r3, #88]
 678 000c FB60     		str	r3, [r7, #12]
 536:Drivers/STM32F7xx_HAL_Driver/Src/stm32f7xx_hal_dma.c ****   
 537:Drivers/STM32F7xx_HAL_Driver/Src/stm32f7xx_hal_dma.c ****   uint32_t tickstart = HAL_GetTick();
 679              		.loc 1 537 0
 680 000e FFF7FEFF 		bl	HAL_GetTick
 681 0012 B860     		str	r0, [r7, #8]
 538:Drivers/STM32F7xx_HAL_Driver/Src/stm32f7xx_hal_dma.c ****   
 539:Drivers/STM32F7xx_HAL_Driver/Src/stm32f7xx_hal_dma.c ****   if(hdma->State != HAL_DMA_STATE_BUSY)
 682              		.loc 1 539 0
 683 0014 7B68     		ldr	r3, [r7, #4]
 684 0016 93F83530 		ldrb	r3, [r3, #53]
 685 001a DBB2     		uxtb	r3, r3
 686 001c 022B     		cmp	r3, #2
 687 001e 08D0     		beq	.L26
 540:Drivers/STM32F7xx_HAL_Driver/Src/stm32f7xx_hal_dma.c ****   {
 541:Drivers/STM32F7xx_HAL_Driver/Src/stm32f7xx_hal_dma.c ****     hdma->ErrorCode = HAL_DMA_ERROR_NO_XFER;
 688              		.loc 1 541 0
 689 0020 7B68     		ldr	r3, [r7, #4]
 690 0022 8022     		movs	r2, #128
 691 0024 5A65     		str	r2, [r3, #84]
 542:Drivers/STM32F7xx_HAL_Driver/Src/stm32f7xx_hal_dma.c ****     
 543:Drivers/STM32F7xx_HAL_Driver/Src/stm32f7xx_hal_dma.c ****     /* Process Unlocked */
 544:Drivers/STM32F7xx_HAL_Driver/Src/stm32f7xx_hal_dma.c ****     __HAL_UNLOCK(hdma);
 692              		.loc 1 544 0
 693 0026 7B68     		ldr	r3, [r7, #4]
 694 0028 0022     		movs	r2, #0
 695 002a 83F83420 		strb	r2, [r3, #52]
 545:Drivers/STM32F7xx_HAL_Driver/Src/stm32f7xx_hal_dma.c ****     
 546:Drivers/STM32F7xx_HAL_Driver/Src/stm32f7xx_hal_dma.c ****     return HAL_ERROR;
 696              		.loc 1 546 0
 697 002e 0123     		movs	r3, #1
 698 0030 52E0     		b	.L27
 699              	.L26:
 547:Drivers/STM32F7xx_HAL_Driver/Src/stm32f7xx_hal_dma.c ****   }
 548:Drivers/STM32F7xx_HAL_Driver/Src/stm32f7xx_hal_dma.c ****   else
 549:Drivers/STM32F7xx_HAL_Driver/Src/stm32f7xx_hal_dma.c ****   {
 550:Drivers/STM32F7xx_HAL_Driver/Src/stm32f7xx_hal_dma.c ****     /* Disable all the transfer interrupts */
 551:Drivers/STM32F7xx_HAL_Driver/Src/stm32f7xx_hal_dma.c ****     hdma->Instance->CR  &= ~(DMA_IT_TC | DMA_IT_TE | DMA_IT_DME);
 700              		.loc 1 551 0
 701 0032 7B68     		ldr	r3, [r7, #4]
 702 0034 1B68     		ldr	r3, [r3]
 703 0036 1A68     		ldr	r2, [r3]
 704 0038 7B68     		ldr	r3, [r7, #4]
 705 003a 1B68     		ldr	r3, [r3]
 706 003c 22F01602 		bic	r2, r2, #22
 707 0040 1A60     		str	r2, [r3]
ARM GAS  /var/folders/n8/cvzdcwlj0vl4g_wtyz1ffy300000gn/T//ccZxLSjg.s 			page 23


 552:Drivers/STM32F7xx_HAL_Driver/Src/stm32f7xx_hal_dma.c ****     hdma->Instance->FCR &= ~(DMA_IT_FE);
 708              		.loc 1 552 0
 709 0042 7B68     		ldr	r3, [r7, #4]
 710 0044 1B68     		ldr	r3, [r3]
 711 0046 5A69     		ldr	r2, [r3, #20]
 712 0048 7B68     		ldr	r3, [r7, #4]
 713 004a 1B68     		ldr	r3, [r3]
 714 004c 22F08002 		bic	r2, r2, #128
 715 0050 5A61     		str	r2, [r3, #20]
 553:Drivers/STM32F7xx_HAL_Driver/Src/stm32f7xx_hal_dma.c ****     
 554:Drivers/STM32F7xx_HAL_Driver/Src/stm32f7xx_hal_dma.c ****     if((hdma->XferHalfCpltCallback != NULL) || (hdma->XferM1HalfCpltCallback != NULL))
 716              		.loc 1 554 0
 717 0052 7B68     		ldr	r3, [r7, #4]
 718 0054 1B6C     		ldr	r3, [r3, #64]
 719 0056 002B     		cmp	r3, #0
 720 0058 03D1     		bne	.L28
 721              		.loc 1 554 0 is_stmt 0 discriminator 1
 722 005a 7B68     		ldr	r3, [r7, #4]
 723 005c 9B6C     		ldr	r3, [r3, #72]
 724 005e 002B     		cmp	r3, #0
 725 0060 07D0     		beq	.L29
 726              	.L28:
 555:Drivers/STM32F7xx_HAL_Driver/Src/stm32f7xx_hal_dma.c ****     {
 556:Drivers/STM32F7xx_HAL_Driver/Src/stm32f7xx_hal_dma.c ****       hdma->Instance->CR  &= ~(DMA_IT_HT);
 727              		.loc 1 556 0 is_stmt 1
 728 0062 7B68     		ldr	r3, [r7, #4]
 729 0064 1B68     		ldr	r3, [r3]
 730 0066 1A68     		ldr	r2, [r3]
 731 0068 7B68     		ldr	r3, [r7, #4]
 732 006a 1B68     		ldr	r3, [r3]
 733 006c 22F00802 		bic	r2, r2, #8
 734 0070 1A60     		str	r2, [r3]
 735              	.L29:
 557:Drivers/STM32F7xx_HAL_Driver/Src/stm32f7xx_hal_dma.c ****     }
 558:Drivers/STM32F7xx_HAL_Driver/Src/stm32f7xx_hal_dma.c ****     
 559:Drivers/STM32F7xx_HAL_Driver/Src/stm32f7xx_hal_dma.c ****     /* Disable the stream */
 560:Drivers/STM32F7xx_HAL_Driver/Src/stm32f7xx_hal_dma.c ****     __HAL_DMA_DISABLE(hdma);
 736              		.loc 1 560 0
 737 0072 7B68     		ldr	r3, [r7, #4]
 738 0074 1B68     		ldr	r3, [r3]
 739 0076 1A68     		ldr	r2, [r3]
 740 0078 7B68     		ldr	r3, [r7, #4]
 741 007a 1B68     		ldr	r3, [r3]
 742 007c 22F00102 		bic	r2, r2, #1
 743 0080 1A60     		str	r2, [r3]
 561:Drivers/STM32F7xx_HAL_Driver/Src/stm32f7xx_hal_dma.c ****     
 562:Drivers/STM32F7xx_HAL_Driver/Src/stm32f7xx_hal_dma.c ****     /* Check if the DMA Stream is effectively disabled */
 563:Drivers/STM32F7xx_HAL_Driver/Src/stm32f7xx_hal_dma.c ****     while((hdma->Instance->CR & DMA_SxCR_EN) != RESET)
 744              		.loc 1 563 0
 745 0082 13E0     		b	.L30
 746              	.L31:
 564:Drivers/STM32F7xx_HAL_Driver/Src/stm32f7xx_hal_dma.c ****     {
 565:Drivers/STM32F7xx_HAL_Driver/Src/stm32f7xx_hal_dma.c ****       /* Check for the Timeout */
 566:Drivers/STM32F7xx_HAL_Driver/Src/stm32f7xx_hal_dma.c ****       if((HAL_GetTick() - tickstart ) > HAL_TIMEOUT_DMA_ABORT)
 747              		.loc 1 566 0
 748 0084 FFF7FEFF 		bl	HAL_GetTick
 749 0088 0246     		mov	r2, r0
ARM GAS  /var/folders/n8/cvzdcwlj0vl4g_wtyz1ffy300000gn/T//ccZxLSjg.s 			page 24


 750 008a BB68     		ldr	r3, [r7, #8]
 751 008c D31A     		subs	r3, r2, r3
 752 008e 052B     		cmp	r3, #5
 753 0090 0CD9     		bls	.L30
 567:Drivers/STM32F7xx_HAL_Driver/Src/stm32f7xx_hal_dma.c ****       {
 568:Drivers/STM32F7xx_HAL_Driver/Src/stm32f7xx_hal_dma.c ****         /* Update error code */
 569:Drivers/STM32F7xx_HAL_Driver/Src/stm32f7xx_hal_dma.c ****         hdma->ErrorCode = HAL_DMA_ERROR_TIMEOUT;
 754              		.loc 1 569 0
 755 0092 7B68     		ldr	r3, [r7, #4]
 756 0094 2022     		movs	r2, #32
 757 0096 5A65     		str	r2, [r3, #84]
 570:Drivers/STM32F7xx_HAL_Driver/Src/stm32f7xx_hal_dma.c ****         
 571:Drivers/STM32F7xx_HAL_Driver/Src/stm32f7xx_hal_dma.c ****         /* Process Unlocked */
 572:Drivers/STM32F7xx_HAL_Driver/Src/stm32f7xx_hal_dma.c ****         __HAL_UNLOCK(hdma);
 758              		.loc 1 572 0
 759 0098 7B68     		ldr	r3, [r7, #4]
 760 009a 0022     		movs	r2, #0
 761 009c 83F83420 		strb	r2, [r3, #52]
 573:Drivers/STM32F7xx_HAL_Driver/Src/stm32f7xx_hal_dma.c ****         
 574:Drivers/STM32F7xx_HAL_Driver/Src/stm32f7xx_hal_dma.c ****         /* Change the DMA state */
 575:Drivers/STM32F7xx_HAL_Driver/Src/stm32f7xx_hal_dma.c ****         hdma->State = HAL_DMA_STATE_TIMEOUT;
 762              		.loc 1 575 0
 763 00a0 7B68     		ldr	r3, [r7, #4]
 764 00a2 0322     		movs	r2, #3
 765 00a4 83F83520 		strb	r2, [r3, #53]
 576:Drivers/STM32F7xx_HAL_Driver/Src/stm32f7xx_hal_dma.c ****         
 577:Drivers/STM32F7xx_HAL_Driver/Src/stm32f7xx_hal_dma.c ****         return HAL_TIMEOUT;
 766              		.loc 1 577 0
 767 00a8 0323     		movs	r3, #3
 768 00aa 15E0     		b	.L27
 769              	.L30:
 563:Drivers/STM32F7xx_HAL_Driver/Src/stm32f7xx_hal_dma.c ****     {
 770              		.loc 1 563 0
 771 00ac 7B68     		ldr	r3, [r7, #4]
 772 00ae 1B68     		ldr	r3, [r3]
 773 00b0 1B68     		ldr	r3, [r3]
 774 00b2 03F00103 		and	r3, r3, #1
 775 00b6 002B     		cmp	r3, #0
 776 00b8 E4D1     		bne	.L31
 578:Drivers/STM32F7xx_HAL_Driver/Src/stm32f7xx_hal_dma.c ****       }
 579:Drivers/STM32F7xx_HAL_Driver/Src/stm32f7xx_hal_dma.c ****     }
 580:Drivers/STM32F7xx_HAL_Driver/Src/stm32f7xx_hal_dma.c ****     
 581:Drivers/STM32F7xx_HAL_Driver/Src/stm32f7xx_hal_dma.c ****     /* Clear all interrupt flags at correct offset within the register */
 582:Drivers/STM32F7xx_HAL_Driver/Src/stm32f7xx_hal_dma.c ****     regs->IFCR = 0x3FU << hdma->StreamIndex;
 777              		.loc 1 582 0
 778 00ba 7B68     		ldr	r3, [r7, #4]
 779 00bc DB6D     		ldr	r3, [r3, #92]
 780 00be 3F22     		movs	r2, #63
 781 00c0 9A40     		lsls	r2, r2, r3
 782 00c2 FB68     		ldr	r3, [r7, #12]
 783 00c4 9A60     		str	r2, [r3, #8]
 583:Drivers/STM32F7xx_HAL_Driver/Src/stm32f7xx_hal_dma.c ****     
 584:Drivers/STM32F7xx_HAL_Driver/Src/stm32f7xx_hal_dma.c ****     /* Process Unlocked */
 585:Drivers/STM32F7xx_HAL_Driver/Src/stm32f7xx_hal_dma.c ****     __HAL_UNLOCK(hdma);
 784              		.loc 1 585 0
 785 00c6 7B68     		ldr	r3, [r7, #4]
 786 00c8 0022     		movs	r2, #0
ARM GAS  /var/folders/n8/cvzdcwlj0vl4g_wtyz1ffy300000gn/T//ccZxLSjg.s 			page 25


 787 00ca 83F83420 		strb	r2, [r3, #52]
 586:Drivers/STM32F7xx_HAL_Driver/Src/stm32f7xx_hal_dma.c ****     
 587:Drivers/STM32F7xx_HAL_Driver/Src/stm32f7xx_hal_dma.c ****     /* Change the DMA state*/
 588:Drivers/STM32F7xx_HAL_Driver/Src/stm32f7xx_hal_dma.c ****     hdma->State = HAL_DMA_STATE_READY;
 788              		.loc 1 588 0
 789 00ce 7B68     		ldr	r3, [r7, #4]
 790 00d0 0122     		movs	r2, #1
 791 00d2 83F83520 		strb	r2, [r3, #53]
 589:Drivers/STM32F7xx_HAL_Driver/Src/stm32f7xx_hal_dma.c ****   }
 590:Drivers/STM32F7xx_HAL_Driver/Src/stm32f7xx_hal_dma.c ****   return HAL_OK;
 792              		.loc 1 590 0
 793 00d6 0023     		movs	r3, #0
 794              	.L27:
 591:Drivers/STM32F7xx_HAL_Driver/Src/stm32f7xx_hal_dma.c **** }
 795              		.loc 1 591 0
 796 00d8 1846     		mov	r0, r3
 797 00da 1037     		adds	r7, r7, #16
 798              	.LCFI23:
 799              		.cfi_def_cfa_offset 8
 800 00dc BD46     		mov	sp, r7
 801              	.LCFI24:
 802              		.cfi_def_cfa_register 13
 803              		@ sp needed
 804 00de 80BD     		pop	{r7, pc}
 805              		.cfi_endproc
 806              	.LFE142:
 808              		.section	.text.HAL_DMA_Abort_IT,"ax",%progbits
 809              		.align	1
 810              		.global	HAL_DMA_Abort_IT
 811              		.syntax unified
 812              		.thumb
 813              		.thumb_func
 814              		.fpu fpv5-sp-d16
 816              	HAL_DMA_Abort_IT:
 817              	.LFB143:
 592:Drivers/STM32F7xx_HAL_Driver/Src/stm32f7xx_hal_dma.c **** 
 593:Drivers/STM32F7xx_HAL_Driver/Src/stm32f7xx_hal_dma.c **** /**
 594:Drivers/STM32F7xx_HAL_Driver/Src/stm32f7xx_hal_dma.c ****   * @brief  Aborts the DMA Transfer in Interrupt mode.
 595:Drivers/STM32F7xx_HAL_Driver/Src/stm32f7xx_hal_dma.c ****   * @param  hdma   pointer to a DMA_HandleTypeDef structure that contains
 596:Drivers/STM32F7xx_HAL_Driver/Src/stm32f7xx_hal_dma.c ****   *                 the configuration information for the specified DMA Stream.
 597:Drivers/STM32F7xx_HAL_Driver/Src/stm32f7xx_hal_dma.c ****   * @retval HAL status
 598:Drivers/STM32F7xx_HAL_Driver/Src/stm32f7xx_hal_dma.c ****   */
 599:Drivers/STM32F7xx_HAL_Driver/Src/stm32f7xx_hal_dma.c **** HAL_StatusTypeDef HAL_DMA_Abort_IT(DMA_HandleTypeDef *hdma)
 600:Drivers/STM32F7xx_HAL_Driver/Src/stm32f7xx_hal_dma.c **** {
 818              		.loc 1 600 0
 819              		.cfi_startproc
 820              		@ args = 0, pretend = 0, frame = 8
 821              		@ frame_needed = 1, uses_anonymous_args = 0
 822              		@ link register save eliminated.
 823 0000 80B4     		push	{r7}
 824              	.LCFI25:
 825              		.cfi_def_cfa_offset 4
 826              		.cfi_offset 7, -4
 827 0002 83B0     		sub	sp, sp, #12
 828              	.LCFI26:
 829              		.cfi_def_cfa_offset 16
 830 0004 00AF     		add	r7, sp, #0
ARM GAS  /var/folders/n8/cvzdcwlj0vl4g_wtyz1ffy300000gn/T//ccZxLSjg.s 			page 26


 831              	.LCFI27:
 832              		.cfi_def_cfa_register 7
 833 0006 7860     		str	r0, [r7, #4]
 601:Drivers/STM32F7xx_HAL_Driver/Src/stm32f7xx_hal_dma.c ****   if(hdma->State != HAL_DMA_STATE_BUSY)
 834              		.loc 1 601 0
 835 0008 7B68     		ldr	r3, [r7, #4]
 836 000a 93F83530 		ldrb	r3, [r3, #53]
 837 000e DBB2     		uxtb	r3, r3
 838 0010 022B     		cmp	r3, #2
 839 0012 04D0     		beq	.L33
 602:Drivers/STM32F7xx_HAL_Driver/Src/stm32f7xx_hal_dma.c ****   {
 603:Drivers/STM32F7xx_HAL_Driver/Src/stm32f7xx_hal_dma.c ****     hdma->ErrorCode = HAL_DMA_ERROR_NO_XFER;
 840              		.loc 1 603 0
 841 0014 7B68     		ldr	r3, [r7, #4]
 842 0016 8022     		movs	r2, #128
 843 0018 5A65     		str	r2, [r3, #84]
 604:Drivers/STM32F7xx_HAL_Driver/Src/stm32f7xx_hal_dma.c ****     return HAL_ERROR;
 844              		.loc 1 604 0
 845 001a 0123     		movs	r3, #1
 846 001c 0CE0     		b	.L34
 847              	.L33:
 605:Drivers/STM32F7xx_HAL_Driver/Src/stm32f7xx_hal_dma.c ****   }
 606:Drivers/STM32F7xx_HAL_Driver/Src/stm32f7xx_hal_dma.c ****   else
 607:Drivers/STM32F7xx_HAL_Driver/Src/stm32f7xx_hal_dma.c ****   {
 608:Drivers/STM32F7xx_HAL_Driver/Src/stm32f7xx_hal_dma.c ****     /* Set Abort State  */
 609:Drivers/STM32F7xx_HAL_Driver/Src/stm32f7xx_hal_dma.c ****     hdma->State = HAL_DMA_STATE_ABORT;
 848              		.loc 1 609 0
 849 001e 7B68     		ldr	r3, [r7, #4]
 850 0020 0522     		movs	r2, #5
 851 0022 83F83520 		strb	r2, [r3, #53]
 610:Drivers/STM32F7xx_HAL_Driver/Src/stm32f7xx_hal_dma.c ****     
 611:Drivers/STM32F7xx_HAL_Driver/Src/stm32f7xx_hal_dma.c ****     /* Disable the stream */
 612:Drivers/STM32F7xx_HAL_Driver/Src/stm32f7xx_hal_dma.c ****     __HAL_DMA_DISABLE(hdma);
 852              		.loc 1 612 0
 853 0026 7B68     		ldr	r3, [r7, #4]
 854 0028 1B68     		ldr	r3, [r3]
 855 002a 1A68     		ldr	r2, [r3]
 856 002c 7B68     		ldr	r3, [r7, #4]
 857 002e 1B68     		ldr	r3, [r3]
 858 0030 22F00102 		bic	r2, r2, #1
 859 0034 1A60     		str	r2, [r3]
 613:Drivers/STM32F7xx_HAL_Driver/Src/stm32f7xx_hal_dma.c ****   }
 614:Drivers/STM32F7xx_HAL_Driver/Src/stm32f7xx_hal_dma.c **** 
 615:Drivers/STM32F7xx_HAL_Driver/Src/stm32f7xx_hal_dma.c ****   return HAL_OK;
 860              		.loc 1 615 0
 861 0036 0023     		movs	r3, #0
 862              	.L34:
 616:Drivers/STM32F7xx_HAL_Driver/Src/stm32f7xx_hal_dma.c **** }
 863              		.loc 1 616 0
 864 0038 1846     		mov	r0, r3
 865 003a 0C37     		adds	r7, r7, #12
 866              	.LCFI28:
 867              		.cfi_def_cfa_offset 4
 868 003c BD46     		mov	sp, r7
 869              	.LCFI29:
 870              		.cfi_def_cfa_register 13
 871              		@ sp needed
ARM GAS  /var/folders/n8/cvzdcwlj0vl4g_wtyz1ffy300000gn/T//ccZxLSjg.s 			page 27


 872 003e 5DF8047B 		ldr	r7, [sp], #4
 873              	.LCFI30:
 874              		.cfi_restore 7
 875              		.cfi_def_cfa_offset 0
 876 0042 7047     		bx	lr
 877              		.cfi_endproc
 878              	.LFE143:
 880              		.section	.text.HAL_DMA_PollForTransfer,"ax",%progbits
 881              		.align	1
 882              		.global	HAL_DMA_PollForTransfer
 883              		.syntax unified
 884              		.thumb
 885              		.thumb_func
 886              		.fpu fpv5-sp-d16
 888              	HAL_DMA_PollForTransfer:
 889              	.LFB144:
 617:Drivers/STM32F7xx_HAL_Driver/Src/stm32f7xx_hal_dma.c **** 
 618:Drivers/STM32F7xx_HAL_Driver/Src/stm32f7xx_hal_dma.c **** /**
 619:Drivers/STM32F7xx_HAL_Driver/Src/stm32f7xx_hal_dma.c ****   * @brief  Polling for transfer complete.
 620:Drivers/STM32F7xx_HAL_Driver/Src/stm32f7xx_hal_dma.c ****   * @param  hdma          pointer to a DMA_HandleTypeDef structure that contains
 621:Drivers/STM32F7xx_HAL_Driver/Src/stm32f7xx_hal_dma.c ****   *                        the configuration information for the specified DMA Stream.
 622:Drivers/STM32F7xx_HAL_Driver/Src/stm32f7xx_hal_dma.c ****   * @param  CompleteLevel Specifies the DMA level complete.
 623:Drivers/STM32F7xx_HAL_Driver/Src/stm32f7xx_hal_dma.c ****   * @note   The polling mode is kept in this version for legacy. it is recommanded to use the IT mo
 624:Drivers/STM32F7xx_HAL_Driver/Src/stm32f7xx_hal_dma.c ****   *         This model could be used for debug purpose.
 625:Drivers/STM32F7xx_HAL_Driver/Src/stm32f7xx_hal_dma.c ****   * @note   The HAL_DMA_PollForTransfer API cannot be used in circular and double buffering mode (a
 626:Drivers/STM32F7xx_HAL_Driver/Src/stm32f7xx_hal_dma.c ****   * @param  Timeout       Timeout duration.
 627:Drivers/STM32F7xx_HAL_Driver/Src/stm32f7xx_hal_dma.c ****   * @retval HAL status
 628:Drivers/STM32F7xx_HAL_Driver/Src/stm32f7xx_hal_dma.c ****   */
 629:Drivers/STM32F7xx_HAL_Driver/Src/stm32f7xx_hal_dma.c **** HAL_StatusTypeDef HAL_DMA_PollForTransfer(DMA_HandleTypeDef *hdma, HAL_DMA_LevelCompleteTypeDef Com
 630:Drivers/STM32F7xx_HAL_Driver/Src/stm32f7xx_hal_dma.c **** {
 890              		.loc 1 630 0
 891              		.cfi_startproc
 892              		@ args = 0, pretend = 0, frame = 40
 893              		@ frame_needed = 1, uses_anonymous_args = 0
 894 0000 80B5     		push	{r7, lr}
 895              	.LCFI31:
 896              		.cfi_def_cfa_offset 8
 897              		.cfi_offset 7, -8
 898              		.cfi_offset 14, -4
 899 0002 8AB0     		sub	sp, sp, #40
 900              	.LCFI32:
 901              		.cfi_def_cfa_offset 48
 902 0004 00AF     		add	r7, sp, #0
 903              	.LCFI33:
 904              		.cfi_def_cfa_register 7
 905 0006 F860     		str	r0, [r7, #12]
 906 0008 0B46     		mov	r3, r1
 907 000a 7A60     		str	r2, [r7, #4]
 908 000c FB72     		strb	r3, [r7, #11]
 631:Drivers/STM32F7xx_HAL_Driver/Src/stm32f7xx_hal_dma.c ****   HAL_StatusTypeDef status = HAL_OK; 
 909              		.loc 1 631 0
 910 000e 0023     		movs	r3, #0
 911 0010 FB77     		strb	r3, [r7, #31]
 632:Drivers/STM32F7xx_HAL_Driver/Src/stm32f7xx_hal_dma.c ****   uint32_t mask_cpltlevel;
 633:Drivers/STM32F7xx_HAL_Driver/Src/stm32f7xx_hal_dma.c ****   uint32_t tickstart = HAL_GetTick(); 
 912              		.loc 1 633 0
 913 0012 FFF7FEFF 		bl	HAL_GetTick
ARM GAS  /var/folders/n8/cvzdcwlj0vl4g_wtyz1ffy300000gn/T//ccZxLSjg.s 			page 28


 914 0016 B861     		str	r0, [r7, #24]
 634:Drivers/STM32F7xx_HAL_Driver/Src/stm32f7xx_hal_dma.c ****   uint32_t tmpisr;
 635:Drivers/STM32F7xx_HAL_Driver/Src/stm32f7xx_hal_dma.c ****   
 636:Drivers/STM32F7xx_HAL_Driver/Src/stm32f7xx_hal_dma.c ****   /* calculate DMA base and stream number */
 637:Drivers/STM32F7xx_HAL_Driver/Src/stm32f7xx_hal_dma.c ****   DMA_Base_Registers *regs;
 638:Drivers/STM32F7xx_HAL_Driver/Src/stm32f7xx_hal_dma.c **** 
 639:Drivers/STM32F7xx_HAL_Driver/Src/stm32f7xx_hal_dma.c ****   if(HAL_DMA_STATE_BUSY != hdma->State)
 915              		.loc 1 639 0
 916 0018 FB68     		ldr	r3, [r7, #12]
 917 001a 93F83530 		ldrb	r3, [r3, #53]
 918 001e DBB2     		uxtb	r3, r3
 919 0020 022B     		cmp	r3, #2
 920 0022 08D0     		beq	.L36
 640:Drivers/STM32F7xx_HAL_Driver/Src/stm32f7xx_hal_dma.c ****   {
 641:Drivers/STM32F7xx_HAL_Driver/Src/stm32f7xx_hal_dma.c ****     /* No transfer ongoing */
 642:Drivers/STM32F7xx_HAL_Driver/Src/stm32f7xx_hal_dma.c ****     hdma->ErrorCode = HAL_DMA_ERROR_NO_XFER;
 921              		.loc 1 642 0
 922 0024 FB68     		ldr	r3, [r7, #12]
 923 0026 8022     		movs	r2, #128
 924 0028 5A65     		str	r2, [r3, #84]
 643:Drivers/STM32F7xx_HAL_Driver/Src/stm32f7xx_hal_dma.c ****     __HAL_UNLOCK(hdma);
 925              		.loc 1 643 0
 926 002a FB68     		ldr	r3, [r7, #12]
 927 002c 0022     		movs	r2, #0
 928 002e 83F83420 		strb	r2, [r3, #52]
 644:Drivers/STM32F7xx_HAL_Driver/Src/stm32f7xx_hal_dma.c ****     return HAL_ERROR;
 929              		.loc 1 644 0
 930 0032 0123     		movs	r3, #1
 931 0034 BFE0     		b	.L37
 932              	.L36:
 645:Drivers/STM32F7xx_HAL_Driver/Src/stm32f7xx_hal_dma.c ****   }
 646:Drivers/STM32F7xx_HAL_Driver/Src/stm32f7xx_hal_dma.c **** 
 647:Drivers/STM32F7xx_HAL_Driver/Src/stm32f7xx_hal_dma.c ****   /* Polling mode not supported in circular mode and double buffering mode */
 648:Drivers/STM32F7xx_HAL_Driver/Src/stm32f7xx_hal_dma.c ****   if ((hdma->Instance->CR & DMA_SxCR_CIRC) != RESET)
 933              		.loc 1 648 0
 934 0036 FB68     		ldr	r3, [r7, #12]
 935 0038 1B68     		ldr	r3, [r3]
 936 003a 1B68     		ldr	r3, [r3]
 937 003c 03F48073 		and	r3, r3, #256
 938 0040 002B     		cmp	r3, #0
 939 0042 05D0     		beq	.L38
 649:Drivers/STM32F7xx_HAL_Driver/Src/stm32f7xx_hal_dma.c ****   {
 650:Drivers/STM32F7xx_HAL_Driver/Src/stm32f7xx_hal_dma.c ****     hdma->ErrorCode = HAL_DMA_ERROR_NOT_SUPPORTED;
 940              		.loc 1 650 0
 941 0044 FB68     		ldr	r3, [r7, #12]
 942 0046 4FF48072 		mov	r2, #256
 943 004a 5A65     		str	r2, [r3, #84]
 651:Drivers/STM32F7xx_HAL_Driver/Src/stm32f7xx_hal_dma.c ****     return HAL_ERROR;
 944              		.loc 1 651 0
 945 004c 0123     		movs	r3, #1
 946 004e B2E0     		b	.L37
 947              	.L38:
 652:Drivers/STM32F7xx_HAL_Driver/Src/stm32f7xx_hal_dma.c ****   }
 653:Drivers/STM32F7xx_HAL_Driver/Src/stm32f7xx_hal_dma.c ****   
 654:Drivers/STM32F7xx_HAL_Driver/Src/stm32f7xx_hal_dma.c ****   /* Get the level transfer complete flag */
 655:Drivers/STM32F7xx_HAL_Driver/Src/stm32f7xx_hal_dma.c ****   if(CompleteLevel == HAL_DMA_FULL_TRANSFER)
 948              		.loc 1 655 0
ARM GAS  /var/folders/n8/cvzdcwlj0vl4g_wtyz1ffy300000gn/T//ccZxLSjg.s 			page 29


 949 0050 FB7A     		ldrb	r3, [r7, #11]	@ zero_extendqisi2
 950 0052 002B     		cmp	r3, #0
 951 0054 06D1     		bne	.L39
 656:Drivers/STM32F7xx_HAL_Driver/Src/stm32f7xx_hal_dma.c ****   {
 657:Drivers/STM32F7xx_HAL_Driver/Src/stm32f7xx_hal_dma.c ****     /* Transfer Complete flag */
 658:Drivers/STM32F7xx_HAL_Driver/Src/stm32f7xx_hal_dma.c ****     mask_cpltlevel = DMA_FLAG_TCIF0_4 << hdma->StreamIndex;
 952              		.loc 1 658 0
 953 0056 FB68     		ldr	r3, [r7, #12]
 954 0058 DB6D     		ldr	r3, [r3, #92]
 955 005a 2022     		movs	r2, #32
 956 005c 02FA03F3 		lsl	r3, r2, r3
 957 0060 7B62     		str	r3, [r7, #36]
 958 0062 05E0     		b	.L40
 959              	.L39:
 659:Drivers/STM32F7xx_HAL_Driver/Src/stm32f7xx_hal_dma.c ****   }
 660:Drivers/STM32F7xx_HAL_Driver/Src/stm32f7xx_hal_dma.c ****   else
 661:Drivers/STM32F7xx_HAL_Driver/Src/stm32f7xx_hal_dma.c ****   {
 662:Drivers/STM32F7xx_HAL_Driver/Src/stm32f7xx_hal_dma.c ****     /* Half Transfer Complete flag */
 663:Drivers/STM32F7xx_HAL_Driver/Src/stm32f7xx_hal_dma.c ****     mask_cpltlevel = DMA_FLAG_HTIF0_4 << hdma->StreamIndex;
 960              		.loc 1 663 0
 961 0064 FB68     		ldr	r3, [r7, #12]
 962 0066 DB6D     		ldr	r3, [r3, #92]
 963 0068 1022     		movs	r2, #16
 964 006a 02FA03F3 		lsl	r3, r2, r3
 965 006e 7B62     		str	r3, [r7, #36]
 966              	.L40:
 664:Drivers/STM32F7xx_HAL_Driver/Src/stm32f7xx_hal_dma.c ****   }
 665:Drivers/STM32F7xx_HAL_Driver/Src/stm32f7xx_hal_dma.c ****   
 666:Drivers/STM32F7xx_HAL_Driver/Src/stm32f7xx_hal_dma.c ****   regs = (DMA_Base_Registers *)hdma->StreamBaseAddress;
 967              		.loc 1 666 0
 968 0070 FB68     		ldr	r3, [r7, #12]
 969 0072 9B6D     		ldr	r3, [r3, #88]
 970 0074 7B61     		str	r3, [r7, #20]
 667:Drivers/STM32F7xx_HAL_Driver/Src/stm32f7xx_hal_dma.c ****   tmpisr = regs->ISR;
 971              		.loc 1 667 0
 972 0076 7B69     		ldr	r3, [r7, #20]
 973 0078 1B68     		ldr	r3, [r3]
 974 007a 3B62     		str	r3, [r7, #32]
 668:Drivers/STM32F7xx_HAL_Driver/Src/stm32f7xx_hal_dma.c ****   
 669:Drivers/STM32F7xx_HAL_Driver/Src/stm32f7xx_hal_dma.c ****   while(((tmpisr & mask_cpltlevel) == RESET) && ((hdma->ErrorCode & HAL_DMA_ERROR_TE) == RESET))
 975              		.loc 1 669 0
 976 007c 5AE0     		b	.L41
 977              	.L47:
 670:Drivers/STM32F7xx_HAL_Driver/Src/stm32f7xx_hal_dma.c ****   {
 671:Drivers/STM32F7xx_HAL_Driver/Src/stm32f7xx_hal_dma.c ****     /* Check for the Timeout (Not applicable in circular mode)*/
 672:Drivers/STM32F7xx_HAL_Driver/Src/stm32f7xx_hal_dma.c ****     if(Timeout != HAL_MAX_DELAY)
 978              		.loc 1 672 0
 979 007e 7B68     		ldr	r3, [r7, #4]
 980 0080 B3F1FF3F 		cmp	r3, #-1
 981 0084 17D0     		beq	.L42
 673:Drivers/STM32F7xx_HAL_Driver/Src/stm32f7xx_hal_dma.c ****     {
 674:Drivers/STM32F7xx_HAL_Driver/Src/stm32f7xx_hal_dma.c ****       if((Timeout == 0)||((HAL_GetTick() - tickstart ) > Timeout))
 982              		.loc 1 674 0
 983 0086 7B68     		ldr	r3, [r7, #4]
 984 0088 002B     		cmp	r3, #0
 985 008a 07D0     		beq	.L43
 986              		.loc 1 674 0 is_stmt 0 discriminator 1
ARM GAS  /var/folders/n8/cvzdcwlj0vl4g_wtyz1ffy300000gn/T//ccZxLSjg.s 			page 30


 987 008c FFF7FEFF 		bl	HAL_GetTick
 988 0090 0246     		mov	r2, r0
 989 0092 BB69     		ldr	r3, [r7, #24]
 990 0094 D31A     		subs	r3, r2, r3
 991 0096 7A68     		ldr	r2, [r7, #4]
 992 0098 9A42     		cmp	r2, r3
 993 009a 0CD2     		bcs	.L42
 994              	.L43:
 675:Drivers/STM32F7xx_HAL_Driver/Src/stm32f7xx_hal_dma.c ****       {
 676:Drivers/STM32F7xx_HAL_Driver/Src/stm32f7xx_hal_dma.c ****         /* Update error code */
 677:Drivers/STM32F7xx_HAL_Driver/Src/stm32f7xx_hal_dma.c ****         hdma->ErrorCode = HAL_DMA_ERROR_TIMEOUT;
 995              		.loc 1 677 0 is_stmt 1
 996 009c FB68     		ldr	r3, [r7, #12]
 997 009e 2022     		movs	r2, #32
 998 00a0 5A65     		str	r2, [r3, #84]
 678:Drivers/STM32F7xx_HAL_Driver/Src/stm32f7xx_hal_dma.c **** 
 679:Drivers/STM32F7xx_HAL_Driver/Src/stm32f7xx_hal_dma.c ****         /* Process Unlocked */
 680:Drivers/STM32F7xx_HAL_Driver/Src/stm32f7xx_hal_dma.c ****         __HAL_UNLOCK(hdma);
 999              		.loc 1 680 0
 1000 00a2 FB68     		ldr	r3, [r7, #12]
 1001 00a4 0022     		movs	r2, #0
 1002 00a6 83F83420 		strb	r2, [r3, #52]
 681:Drivers/STM32F7xx_HAL_Driver/Src/stm32f7xx_hal_dma.c ****         
 682:Drivers/STM32F7xx_HAL_Driver/Src/stm32f7xx_hal_dma.c ****         /* Change the DMA state */
 683:Drivers/STM32F7xx_HAL_Driver/Src/stm32f7xx_hal_dma.c ****         hdma->State = HAL_DMA_STATE_READY;
 1003              		.loc 1 683 0
 1004 00aa FB68     		ldr	r3, [r7, #12]
 1005 00ac 0122     		movs	r2, #1
 1006 00ae 83F83520 		strb	r2, [r3, #53]
 684:Drivers/STM32F7xx_HAL_Driver/Src/stm32f7xx_hal_dma.c ****         
 685:Drivers/STM32F7xx_HAL_Driver/Src/stm32f7xx_hal_dma.c ****         return HAL_TIMEOUT;
 1007              		.loc 1 685 0
 1008 00b2 0323     		movs	r3, #3
 1009 00b4 7FE0     		b	.L37
 1010              	.L42:
 686:Drivers/STM32F7xx_HAL_Driver/Src/stm32f7xx_hal_dma.c ****       }
 687:Drivers/STM32F7xx_HAL_Driver/Src/stm32f7xx_hal_dma.c ****     }
 688:Drivers/STM32F7xx_HAL_Driver/Src/stm32f7xx_hal_dma.c **** 
 689:Drivers/STM32F7xx_HAL_Driver/Src/stm32f7xx_hal_dma.c ****     /* Get the ISR register value */
 690:Drivers/STM32F7xx_HAL_Driver/Src/stm32f7xx_hal_dma.c ****     tmpisr = regs->ISR;
 1011              		.loc 1 690 0
 1012 00b6 7B69     		ldr	r3, [r7, #20]
 1013 00b8 1B68     		ldr	r3, [r3]
 1014 00ba 3B62     		str	r3, [r7, #32]
 691:Drivers/STM32F7xx_HAL_Driver/Src/stm32f7xx_hal_dma.c **** 
 692:Drivers/STM32F7xx_HAL_Driver/Src/stm32f7xx_hal_dma.c ****     if((tmpisr & (DMA_FLAG_TEIF0_4 << hdma->StreamIndex)) != RESET)
 1015              		.loc 1 692 0
 1016 00bc FB68     		ldr	r3, [r7, #12]
 1017 00be DB6D     		ldr	r3, [r3, #92]
 1018 00c0 0822     		movs	r2, #8
 1019 00c2 9A40     		lsls	r2, r2, r3
 1020 00c4 3B6A     		ldr	r3, [r7, #32]
 1021 00c6 1340     		ands	r3, r3, r2
 1022 00c8 002B     		cmp	r3, #0
 1023 00ca 0BD0     		beq	.L44
 693:Drivers/STM32F7xx_HAL_Driver/Src/stm32f7xx_hal_dma.c ****     {
 694:Drivers/STM32F7xx_HAL_Driver/Src/stm32f7xx_hal_dma.c ****       /* Update error code */
ARM GAS  /var/folders/n8/cvzdcwlj0vl4g_wtyz1ffy300000gn/T//ccZxLSjg.s 			page 31


 695:Drivers/STM32F7xx_HAL_Driver/Src/stm32f7xx_hal_dma.c ****       hdma->ErrorCode |= HAL_DMA_ERROR_TE;
 1024              		.loc 1 695 0
 1025 00cc FB68     		ldr	r3, [r7, #12]
 1026 00ce 5B6D     		ldr	r3, [r3, #84]
 1027 00d0 43F00102 		orr	r2, r3, #1
 1028 00d4 FB68     		ldr	r3, [r7, #12]
 1029 00d6 5A65     		str	r2, [r3, #84]
 696:Drivers/STM32F7xx_HAL_Driver/Src/stm32f7xx_hal_dma.c ****       
 697:Drivers/STM32F7xx_HAL_Driver/Src/stm32f7xx_hal_dma.c ****       /* Clear the transfer error flag */
 698:Drivers/STM32F7xx_HAL_Driver/Src/stm32f7xx_hal_dma.c ****       regs->IFCR = DMA_FLAG_TEIF0_4 << hdma->StreamIndex;
 1030              		.loc 1 698 0
 1031 00d8 FB68     		ldr	r3, [r7, #12]
 1032 00da DB6D     		ldr	r3, [r3, #92]
 1033 00dc 0822     		movs	r2, #8
 1034 00de 9A40     		lsls	r2, r2, r3
 1035 00e0 7B69     		ldr	r3, [r7, #20]
 1036 00e2 9A60     		str	r2, [r3, #8]
 1037              	.L44:
 699:Drivers/STM32F7xx_HAL_Driver/Src/stm32f7xx_hal_dma.c ****     }
 700:Drivers/STM32F7xx_HAL_Driver/Src/stm32f7xx_hal_dma.c ****     
 701:Drivers/STM32F7xx_HAL_Driver/Src/stm32f7xx_hal_dma.c ****     if((tmpisr & (DMA_FLAG_FEIF0_4 << hdma->StreamIndex)) != RESET)
 1038              		.loc 1 701 0
 1039 00e4 FB68     		ldr	r3, [r7, #12]
 1040 00e6 DB6D     		ldr	r3, [r3, #92]
 1041 00e8 0122     		movs	r2, #1
 1042 00ea 9A40     		lsls	r2, r2, r3
 1043 00ec 3B6A     		ldr	r3, [r7, #32]
 1044 00ee 1340     		ands	r3, r3, r2
 1045 00f0 002B     		cmp	r3, #0
 1046 00f2 0BD0     		beq	.L45
 702:Drivers/STM32F7xx_HAL_Driver/Src/stm32f7xx_hal_dma.c ****     {
 703:Drivers/STM32F7xx_HAL_Driver/Src/stm32f7xx_hal_dma.c ****       /* Update error code */
 704:Drivers/STM32F7xx_HAL_Driver/Src/stm32f7xx_hal_dma.c ****       hdma->ErrorCode |= HAL_DMA_ERROR_FE;
 1047              		.loc 1 704 0
 1048 00f4 FB68     		ldr	r3, [r7, #12]
 1049 00f6 5B6D     		ldr	r3, [r3, #84]
 1050 00f8 43F00202 		orr	r2, r3, #2
 1051 00fc FB68     		ldr	r3, [r7, #12]
 1052 00fe 5A65     		str	r2, [r3, #84]
 705:Drivers/STM32F7xx_HAL_Driver/Src/stm32f7xx_hal_dma.c ****       
 706:Drivers/STM32F7xx_HAL_Driver/Src/stm32f7xx_hal_dma.c ****       /* Clear the FIFO error flag */
 707:Drivers/STM32F7xx_HAL_Driver/Src/stm32f7xx_hal_dma.c ****       regs->IFCR = DMA_FLAG_FEIF0_4 << hdma->StreamIndex;
 1053              		.loc 1 707 0
 1054 0100 FB68     		ldr	r3, [r7, #12]
 1055 0102 DB6D     		ldr	r3, [r3, #92]
 1056 0104 0122     		movs	r2, #1
 1057 0106 9A40     		lsls	r2, r2, r3
 1058 0108 7B69     		ldr	r3, [r7, #20]
 1059 010a 9A60     		str	r2, [r3, #8]
 1060              	.L45:
 708:Drivers/STM32F7xx_HAL_Driver/Src/stm32f7xx_hal_dma.c ****     }
 709:Drivers/STM32F7xx_HAL_Driver/Src/stm32f7xx_hal_dma.c ****     
 710:Drivers/STM32F7xx_HAL_Driver/Src/stm32f7xx_hal_dma.c ****     if((tmpisr & (DMA_FLAG_DMEIF0_4 << hdma->StreamIndex)) != RESET)
 1061              		.loc 1 710 0
 1062 010c FB68     		ldr	r3, [r7, #12]
 1063 010e DB6D     		ldr	r3, [r3, #92]
 1064 0110 0422     		movs	r2, #4
ARM GAS  /var/folders/n8/cvzdcwlj0vl4g_wtyz1ffy300000gn/T//ccZxLSjg.s 			page 32


 1065 0112 9A40     		lsls	r2, r2, r3
 1066 0114 3B6A     		ldr	r3, [r7, #32]
 1067 0116 1340     		ands	r3, r3, r2
 1068 0118 002B     		cmp	r3, #0
 1069 011a 0BD0     		beq	.L41
 711:Drivers/STM32F7xx_HAL_Driver/Src/stm32f7xx_hal_dma.c ****     {
 712:Drivers/STM32F7xx_HAL_Driver/Src/stm32f7xx_hal_dma.c ****       /* Update error code */
 713:Drivers/STM32F7xx_HAL_Driver/Src/stm32f7xx_hal_dma.c ****       hdma->ErrorCode |= HAL_DMA_ERROR_DME;
 1070              		.loc 1 713 0
 1071 011c FB68     		ldr	r3, [r7, #12]
 1072 011e 5B6D     		ldr	r3, [r3, #84]
 1073 0120 43F00402 		orr	r2, r3, #4
 1074 0124 FB68     		ldr	r3, [r7, #12]
 1075 0126 5A65     		str	r2, [r3, #84]
 714:Drivers/STM32F7xx_HAL_Driver/Src/stm32f7xx_hal_dma.c ****       
 715:Drivers/STM32F7xx_HAL_Driver/Src/stm32f7xx_hal_dma.c ****       /* Clear the Direct Mode error flag */
 716:Drivers/STM32F7xx_HAL_Driver/Src/stm32f7xx_hal_dma.c ****       regs->IFCR = DMA_FLAG_DMEIF0_4 << hdma->StreamIndex;
 1076              		.loc 1 716 0
 1077 0128 FB68     		ldr	r3, [r7, #12]
 1078 012a DB6D     		ldr	r3, [r3, #92]
 1079 012c 0422     		movs	r2, #4
 1080 012e 9A40     		lsls	r2, r2, r3
 1081 0130 7B69     		ldr	r3, [r7, #20]
 1082 0132 9A60     		str	r2, [r3, #8]
 1083              	.L41:
 669:Drivers/STM32F7xx_HAL_Driver/Src/stm32f7xx_hal_dma.c ****   {
 1084              		.loc 1 669 0
 1085 0134 3A6A     		ldr	r2, [r7, #32]
 1086 0136 7B6A     		ldr	r3, [r7, #36]
 1087 0138 1340     		ands	r3, r3, r2
 1088 013a 002B     		cmp	r3, #0
 1089 013c 05D1     		bne	.L46
 669:Drivers/STM32F7xx_HAL_Driver/Src/stm32f7xx_hal_dma.c ****   {
 1090              		.loc 1 669 0 is_stmt 0 discriminator 1
 1091 013e FB68     		ldr	r3, [r7, #12]
 1092 0140 5B6D     		ldr	r3, [r3, #84]
 1093 0142 03F00103 		and	r3, r3, #1
 1094 0146 002B     		cmp	r3, #0
 1095 0148 99D0     		beq	.L47
 1096              	.L46:
 717:Drivers/STM32F7xx_HAL_Driver/Src/stm32f7xx_hal_dma.c ****     }
 718:Drivers/STM32F7xx_HAL_Driver/Src/stm32f7xx_hal_dma.c ****   }
 719:Drivers/STM32F7xx_HAL_Driver/Src/stm32f7xx_hal_dma.c ****   
 720:Drivers/STM32F7xx_HAL_Driver/Src/stm32f7xx_hal_dma.c ****   if(hdma->ErrorCode != HAL_DMA_ERROR_NONE)
 1097              		.loc 1 720 0 is_stmt 1
 1098 014a FB68     		ldr	r3, [r7, #12]
 1099 014c 5B6D     		ldr	r3, [r3, #84]
 1100 014e 002B     		cmp	r3, #0
 1101 0150 18D0     		beq	.L48
 721:Drivers/STM32F7xx_HAL_Driver/Src/stm32f7xx_hal_dma.c ****   {
 722:Drivers/STM32F7xx_HAL_Driver/Src/stm32f7xx_hal_dma.c ****     if((hdma->ErrorCode & HAL_DMA_ERROR_TE) != RESET)
 1102              		.loc 1 722 0
 1103 0152 FB68     		ldr	r3, [r7, #12]
 1104 0154 5B6D     		ldr	r3, [r3, #84]
 1105 0156 03F00103 		and	r3, r3, #1
 1106 015a 002B     		cmp	r3, #0
 1107 015c 12D0     		beq	.L48
ARM GAS  /var/folders/n8/cvzdcwlj0vl4g_wtyz1ffy300000gn/T//ccZxLSjg.s 			page 33


 723:Drivers/STM32F7xx_HAL_Driver/Src/stm32f7xx_hal_dma.c ****     {
 724:Drivers/STM32F7xx_HAL_Driver/Src/stm32f7xx_hal_dma.c ****       HAL_DMA_Abort(hdma);
 1108              		.loc 1 724 0
 1109 015e F868     		ldr	r0, [r7, #12]
 1110 0160 FFF7FEFF 		bl	HAL_DMA_Abort
 725:Drivers/STM32F7xx_HAL_Driver/Src/stm32f7xx_hal_dma.c ****     
 726:Drivers/STM32F7xx_HAL_Driver/Src/stm32f7xx_hal_dma.c ****       /* Clear the half transfer and transfer complete flags */
 727:Drivers/STM32F7xx_HAL_Driver/Src/stm32f7xx_hal_dma.c ****       regs->IFCR = (DMA_FLAG_HTIF0_4 | DMA_FLAG_TCIF0_4) << hdma->StreamIndex;
 1111              		.loc 1 727 0
 1112 0164 FB68     		ldr	r3, [r7, #12]
 1113 0166 DB6D     		ldr	r3, [r3, #92]
 1114 0168 3022     		movs	r2, #48
 1115 016a 9A40     		lsls	r2, r2, r3
 1116 016c 7B69     		ldr	r3, [r7, #20]
 1117 016e 9A60     		str	r2, [r3, #8]
 728:Drivers/STM32F7xx_HAL_Driver/Src/stm32f7xx_hal_dma.c ****     
 729:Drivers/STM32F7xx_HAL_Driver/Src/stm32f7xx_hal_dma.c ****       /* Process Unlocked */
 730:Drivers/STM32F7xx_HAL_Driver/Src/stm32f7xx_hal_dma.c ****       __HAL_UNLOCK(hdma);
 1118              		.loc 1 730 0
 1119 0170 FB68     		ldr	r3, [r7, #12]
 1120 0172 0022     		movs	r2, #0
 1121 0174 83F83420 		strb	r2, [r3, #52]
 731:Drivers/STM32F7xx_HAL_Driver/Src/stm32f7xx_hal_dma.c **** 
 732:Drivers/STM32F7xx_HAL_Driver/Src/stm32f7xx_hal_dma.c ****       /* Change the DMA state */
 733:Drivers/STM32F7xx_HAL_Driver/Src/stm32f7xx_hal_dma.c ****       hdma->State= HAL_DMA_STATE_READY;
 1122              		.loc 1 733 0
 1123 0178 FB68     		ldr	r3, [r7, #12]
 1124 017a 0122     		movs	r2, #1
 1125 017c 83F83520 		strb	r2, [r3, #53]
 734:Drivers/STM32F7xx_HAL_Driver/Src/stm32f7xx_hal_dma.c **** 
 735:Drivers/STM32F7xx_HAL_Driver/Src/stm32f7xx_hal_dma.c ****       return HAL_ERROR;
 1126              		.loc 1 735 0
 1127 0180 0123     		movs	r3, #1
 1128 0182 18E0     		b	.L37
 1129              	.L48:
 736:Drivers/STM32F7xx_HAL_Driver/Src/stm32f7xx_hal_dma.c ****    }
 737:Drivers/STM32F7xx_HAL_Driver/Src/stm32f7xx_hal_dma.c ****   }
 738:Drivers/STM32F7xx_HAL_Driver/Src/stm32f7xx_hal_dma.c ****   
 739:Drivers/STM32F7xx_HAL_Driver/Src/stm32f7xx_hal_dma.c ****   /* Get the level transfer complete flag */
 740:Drivers/STM32F7xx_HAL_Driver/Src/stm32f7xx_hal_dma.c ****   if(CompleteLevel == HAL_DMA_FULL_TRANSFER)
 1130              		.loc 1 740 0
 1131 0184 FB7A     		ldrb	r3, [r7, #11]	@ zero_extendqisi2
 1132 0186 002B     		cmp	r3, #0
 1133 0188 0ED1     		bne	.L49
 741:Drivers/STM32F7xx_HAL_Driver/Src/stm32f7xx_hal_dma.c ****   {
 742:Drivers/STM32F7xx_HAL_Driver/Src/stm32f7xx_hal_dma.c ****     /* Clear the half transfer and transfer complete flags */
 743:Drivers/STM32F7xx_HAL_Driver/Src/stm32f7xx_hal_dma.c ****     regs->IFCR = (DMA_FLAG_HTIF0_4 | DMA_FLAG_TCIF0_4) << hdma->StreamIndex;
 1134              		.loc 1 743 0
 1135 018a FB68     		ldr	r3, [r7, #12]
 1136 018c DB6D     		ldr	r3, [r3, #92]
 1137 018e 3022     		movs	r2, #48
 1138 0190 9A40     		lsls	r2, r2, r3
 1139 0192 7B69     		ldr	r3, [r7, #20]
 1140 0194 9A60     		str	r2, [r3, #8]
 744:Drivers/STM32F7xx_HAL_Driver/Src/stm32f7xx_hal_dma.c ****     
 745:Drivers/STM32F7xx_HAL_Driver/Src/stm32f7xx_hal_dma.c ****     /* Process Unlocked */
 746:Drivers/STM32F7xx_HAL_Driver/Src/stm32f7xx_hal_dma.c ****     __HAL_UNLOCK(hdma);
ARM GAS  /var/folders/n8/cvzdcwlj0vl4g_wtyz1ffy300000gn/T//ccZxLSjg.s 			page 34


 1141              		.loc 1 746 0
 1142 0196 FB68     		ldr	r3, [r7, #12]
 1143 0198 0022     		movs	r2, #0
 1144 019a 83F83420 		strb	r2, [r3, #52]
 747:Drivers/STM32F7xx_HAL_Driver/Src/stm32f7xx_hal_dma.c **** 
 748:Drivers/STM32F7xx_HAL_Driver/Src/stm32f7xx_hal_dma.c ****     hdma->State = HAL_DMA_STATE_READY;
 1145              		.loc 1 748 0
 1146 019e FB68     		ldr	r3, [r7, #12]
 1147 01a0 0122     		movs	r2, #1
 1148 01a2 83F83520 		strb	r2, [r3, #53]
 1149 01a6 05E0     		b	.L50
 1150              	.L49:
 749:Drivers/STM32F7xx_HAL_Driver/Src/stm32f7xx_hal_dma.c ****   }
 750:Drivers/STM32F7xx_HAL_Driver/Src/stm32f7xx_hal_dma.c ****   else
 751:Drivers/STM32F7xx_HAL_Driver/Src/stm32f7xx_hal_dma.c ****   {
 752:Drivers/STM32F7xx_HAL_Driver/Src/stm32f7xx_hal_dma.c ****     /* Clear the half transfer flag */
 753:Drivers/STM32F7xx_HAL_Driver/Src/stm32f7xx_hal_dma.c ****     regs->IFCR = (DMA_FLAG_HTIF0_4) << hdma->StreamIndex;
 1151              		.loc 1 753 0
 1152 01a8 FB68     		ldr	r3, [r7, #12]
 1153 01aa DB6D     		ldr	r3, [r3, #92]
 1154 01ac 1022     		movs	r2, #16
 1155 01ae 9A40     		lsls	r2, r2, r3
 1156 01b0 7B69     		ldr	r3, [r7, #20]
 1157 01b2 9A60     		str	r2, [r3, #8]
 1158              	.L50:
 754:Drivers/STM32F7xx_HAL_Driver/Src/stm32f7xx_hal_dma.c ****   }
 755:Drivers/STM32F7xx_HAL_Driver/Src/stm32f7xx_hal_dma.c ****   
 756:Drivers/STM32F7xx_HAL_Driver/Src/stm32f7xx_hal_dma.c ****   return status;
 1159              		.loc 1 756 0
 1160 01b4 FB7F     		ldrb	r3, [r7, #31]	@ zero_extendqisi2
 1161              	.L37:
 757:Drivers/STM32F7xx_HAL_Driver/Src/stm32f7xx_hal_dma.c **** }
 1162              		.loc 1 757 0
 1163 01b6 1846     		mov	r0, r3
 1164 01b8 2837     		adds	r7, r7, #40
 1165              	.LCFI34:
 1166              		.cfi_def_cfa_offset 8
 1167 01ba BD46     		mov	sp, r7
 1168              	.LCFI35:
 1169              		.cfi_def_cfa_register 13
 1170              		@ sp needed
 1171 01bc 80BD     		pop	{r7, pc}
 1172              		.cfi_endproc
 1173              	.LFE144:
 1175              		.section	.text.HAL_DMA_IRQHandler,"ax",%progbits
 1176              		.align	1
 1177              		.global	HAL_DMA_IRQHandler
 1178              		.syntax unified
 1179              		.thumb
 1180              		.thumb_func
 1181              		.fpu fpv5-sp-d16
 1183              	HAL_DMA_IRQHandler:
 1184              	.LFB145:
 758:Drivers/STM32F7xx_HAL_Driver/Src/stm32f7xx_hal_dma.c **** 
 759:Drivers/STM32F7xx_HAL_Driver/Src/stm32f7xx_hal_dma.c **** /**
 760:Drivers/STM32F7xx_HAL_Driver/Src/stm32f7xx_hal_dma.c ****   * @brief  Handles DMA interrupt request.
 761:Drivers/STM32F7xx_HAL_Driver/Src/stm32f7xx_hal_dma.c ****   * @param  hdma pointer to a DMA_HandleTypeDef structure that contains
ARM GAS  /var/folders/n8/cvzdcwlj0vl4g_wtyz1ffy300000gn/T//ccZxLSjg.s 			page 35


 762:Drivers/STM32F7xx_HAL_Driver/Src/stm32f7xx_hal_dma.c ****   *               the configuration information for the specified DMA Stream.  
 763:Drivers/STM32F7xx_HAL_Driver/Src/stm32f7xx_hal_dma.c ****   * @retval None
 764:Drivers/STM32F7xx_HAL_Driver/Src/stm32f7xx_hal_dma.c ****   */
 765:Drivers/STM32F7xx_HAL_Driver/Src/stm32f7xx_hal_dma.c **** void HAL_DMA_IRQHandler(DMA_HandleTypeDef *hdma)
 766:Drivers/STM32F7xx_HAL_Driver/Src/stm32f7xx_hal_dma.c **** {
 1185              		.loc 1 766 0
 1186              		.cfi_startproc
 1187              		@ args = 0, pretend = 0, frame = 24
 1188              		@ frame_needed = 1, uses_anonymous_args = 0
 1189 0000 80B5     		push	{r7, lr}
 1190              	.LCFI36:
 1191              		.cfi_def_cfa_offset 8
 1192              		.cfi_offset 7, -8
 1193              		.cfi_offset 14, -4
 1194 0002 86B0     		sub	sp, sp, #24
 1195              	.LCFI37:
 1196              		.cfi_def_cfa_offset 32
 1197 0004 00AF     		add	r7, sp, #0
 1198              	.LCFI38:
 1199              		.cfi_def_cfa_register 7
 1200 0006 7860     		str	r0, [r7, #4]
 767:Drivers/STM32F7xx_HAL_Driver/Src/stm32f7xx_hal_dma.c ****   uint32_t tmpisr;
 768:Drivers/STM32F7xx_HAL_Driver/Src/stm32f7xx_hal_dma.c ****   __IO uint32_t count = 0;
 1201              		.loc 1 768 0
 1202 0008 0023     		movs	r3, #0
 1203 000a BB60     		str	r3, [r7, #8]
 769:Drivers/STM32F7xx_HAL_Driver/Src/stm32f7xx_hal_dma.c ****   uint32_t timeout = SystemCoreClock / 9600;
 1204              		.loc 1 769 0
 1205 000c 924B     		ldr	r3, .L78
 1206 000e 1B68     		ldr	r3, [r3]
 1207 0010 924A     		ldr	r2, .L78+4
 1208 0012 A2FB0323 		umull	r2, r3, r2, r3
 1209 0016 9B0A     		lsrs	r3, r3, #10
 1210 0018 7B61     		str	r3, [r7, #20]
 770:Drivers/STM32F7xx_HAL_Driver/Src/stm32f7xx_hal_dma.c **** 
 771:Drivers/STM32F7xx_HAL_Driver/Src/stm32f7xx_hal_dma.c ****   /* calculate DMA base and stream number */
 772:Drivers/STM32F7xx_HAL_Driver/Src/stm32f7xx_hal_dma.c ****   DMA_Base_Registers *regs = (DMA_Base_Registers *)hdma->StreamBaseAddress;
 1211              		.loc 1 772 0
 1212 001a 7B68     		ldr	r3, [r7, #4]
 1213 001c 9B6D     		ldr	r3, [r3, #88]
 1214 001e 3B61     		str	r3, [r7, #16]
 773:Drivers/STM32F7xx_HAL_Driver/Src/stm32f7xx_hal_dma.c **** 
 774:Drivers/STM32F7xx_HAL_Driver/Src/stm32f7xx_hal_dma.c ****   tmpisr = regs->ISR;
 1215              		.loc 1 774 0
 1216 0020 3B69     		ldr	r3, [r7, #16]
 1217 0022 1B68     		ldr	r3, [r3]
 1218 0024 FB60     		str	r3, [r7, #12]
 775:Drivers/STM32F7xx_HAL_Driver/Src/stm32f7xx_hal_dma.c **** 
 776:Drivers/STM32F7xx_HAL_Driver/Src/stm32f7xx_hal_dma.c ****   /* Transfer Error Interrupt management ***************************************/
 777:Drivers/STM32F7xx_HAL_Driver/Src/stm32f7xx_hal_dma.c ****   if ((tmpisr & (DMA_FLAG_TEIF0_4 << hdma->StreamIndex)) != RESET)
 1219              		.loc 1 777 0
 1220 0026 7B68     		ldr	r3, [r7, #4]
 1221 0028 DB6D     		ldr	r3, [r3, #92]
 1222 002a 0822     		movs	r2, #8
 1223 002c 9A40     		lsls	r2, r2, r3
 1224 002e FB68     		ldr	r3, [r7, #12]
 1225 0030 1340     		ands	r3, r3, r2
ARM GAS  /var/folders/n8/cvzdcwlj0vl4g_wtyz1ffy300000gn/T//ccZxLSjg.s 			page 36


 1226 0032 002B     		cmp	r3, #0
 1227 0034 1AD0     		beq	.L52
 778:Drivers/STM32F7xx_HAL_Driver/Src/stm32f7xx_hal_dma.c ****   {
 779:Drivers/STM32F7xx_HAL_Driver/Src/stm32f7xx_hal_dma.c ****     if(__HAL_DMA_GET_IT_SOURCE(hdma, DMA_IT_TE) != RESET)
 1228              		.loc 1 779 0
 1229 0036 7B68     		ldr	r3, [r7, #4]
 1230 0038 1B68     		ldr	r3, [r3]
 1231 003a 1B68     		ldr	r3, [r3]
 1232 003c 03F00403 		and	r3, r3, #4
 1233 0040 002B     		cmp	r3, #0
 1234 0042 13D0     		beq	.L52
 780:Drivers/STM32F7xx_HAL_Driver/Src/stm32f7xx_hal_dma.c ****     {
 781:Drivers/STM32F7xx_HAL_Driver/Src/stm32f7xx_hal_dma.c ****       /* Disable the transfer error interrupt */
 782:Drivers/STM32F7xx_HAL_Driver/Src/stm32f7xx_hal_dma.c ****       hdma->Instance->CR  &= ~(DMA_IT_TE);
 1235              		.loc 1 782 0
 1236 0044 7B68     		ldr	r3, [r7, #4]
 1237 0046 1B68     		ldr	r3, [r3]
 1238 0048 1A68     		ldr	r2, [r3]
 1239 004a 7B68     		ldr	r3, [r7, #4]
 1240 004c 1B68     		ldr	r3, [r3]
 1241 004e 22F00402 		bic	r2, r2, #4
 1242 0052 1A60     		str	r2, [r3]
 783:Drivers/STM32F7xx_HAL_Driver/Src/stm32f7xx_hal_dma.c ****       
 784:Drivers/STM32F7xx_HAL_Driver/Src/stm32f7xx_hal_dma.c ****       /* Clear the transfer error flag */
 785:Drivers/STM32F7xx_HAL_Driver/Src/stm32f7xx_hal_dma.c ****       regs->IFCR = DMA_FLAG_TEIF0_4 << hdma->StreamIndex;
 1243              		.loc 1 785 0
 1244 0054 7B68     		ldr	r3, [r7, #4]
 1245 0056 DB6D     		ldr	r3, [r3, #92]
 1246 0058 0822     		movs	r2, #8
 1247 005a 9A40     		lsls	r2, r2, r3
 1248 005c 3B69     		ldr	r3, [r7, #16]
 1249 005e 9A60     		str	r2, [r3, #8]
 786:Drivers/STM32F7xx_HAL_Driver/Src/stm32f7xx_hal_dma.c ****       
 787:Drivers/STM32F7xx_HAL_Driver/Src/stm32f7xx_hal_dma.c ****       /* Update error code */
 788:Drivers/STM32F7xx_HAL_Driver/Src/stm32f7xx_hal_dma.c ****       hdma->ErrorCode |= HAL_DMA_ERROR_TE;
 1250              		.loc 1 788 0
 1251 0060 7B68     		ldr	r3, [r7, #4]
 1252 0062 5B6D     		ldr	r3, [r3, #84]
 1253 0064 43F00102 		orr	r2, r3, #1
 1254 0068 7B68     		ldr	r3, [r7, #4]
 1255 006a 5A65     		str	r2, [r3, #84]
 1256              	.L52:
 789:Drivers/STM32F7xx_HAL_Driver/Src/stm32f7xx_hal_dma.c ****     }
 790:Drivers/STM32F7xx_HAL_Driver/Src/stm32f7xx_hal_dma.c ****   }
 791:Drivers/STM32F7xx_HAL_Driver/Src/stm32f7xx_hal_dma.c ****   /* FIFO Error Interrupt management ******************************************/
 792:Drivers/STM32F7xx_HAL_Driver/Src/stm32f7xx_hal_dma.c ****   if ((tmpisr & (DMA_FLAG_FEIF0_4 << hdma->StreamIndex)) != RESET)
 1257              		.loc 1 792 0
 1258 006c 7B68     		ldr	r3, [r7, #4]
 1259 006e DB6D     		ldr	r3, [r3, #92]
 1260 0070 0122     		movs	r2, #1
 1261 0072 9A40     		lsls	r2, r2, r3
 1262 0074 FB68     		ldr	r3, [r7, #12]
 1263 0076 1340     		ands	r3, r3, r2
 1264 0078 002B     		cmp	r3, #0
 1265 007a 12D0     		beq	.L53
 793:Drivers/STM32F7xx_HAL_Driver/Src/stm32f7xx_hal_dma.c ****   {
 794:Drivers/STM32F7xx_HAL_Driver/Src/stm32f7xx_hal_dma.c ****     if(__HAL_DMA_GET_IT_SOURCE(hdma, DMA_IT_FE) != RESET)
ARM GAS  /var/folders/n8/cvzdcwlj0vl4g_wtyz1ffy300000gn/T//ccZxLSjg.s 			page 37


 1266              		.loc 1 794 0
 1267 007c 7B68     		ldr	r3, [r7, #4]
 1268 007e 1B68     		ldr	r3, [r3]
 1269 0080 5B69     		ldr	r3, [r3, #20]
 1270 0082 03F08003 		and	r3, r3, #128
 1271 0086 002B     		cmp	r3, #0
 1272 0088 0BD0     		beq	.L53
 795:Drivers/STM32F7xx_HAL_Driver/Src/stm32f7xx_hal_dma.c ****     {
 796:Drivers/STM32F7xx_HAL_Driver/Src/stm32f7xx_hal_dma.c ****       /* Clear the FIFO error flag */
 797:Drivers/STM32F7xx_HAL_Driver/Src/stm32f7xx_hal_dma.c ****       regs->IFCR = DMA_FLAG_FEIF0_4 << hdma->StreamIndex;
 1273              		.loc 1 797 0
 1274 008a 7B68     		ldr	r3, [r7, #4]
 1275 008c DB6D     		ldr	r3, [r3, #92]
 1276 008e 0122     		movs	r2, #1
 1277 0090 9A40     		lsls	r2, r2, r3
 1278 0092 3B69     		ldr	r3, [r7, #16]
 1279 0094 9A60     		str	r2, [r3, #8]
 798:Drivers/STM32F7xx_HAL_Driver/Src/stm32f7xx_hal_dma.c **** 
 799:Drivers/STM32F7xx_HAL_Driver/Src/stm32f7xx_hal_dma.c ****       /* Update error code */
 800:Drivers/STM32F7xx_HAL_Driver/Src/stm32f7xx_hal_dma.c ****       hdma->ErrorCode |= HAL_DMA_ERROR_FE;
 1280              		.loc 1 800 0
 1281 0096 7B68     		ldr	r3, [r7, #4]
 1282 0098 5B6D     		ldr	r3, [r3, #84]
 1283 009a 43F00202 		orr	r2, r3, #2
 1284 009e 7B68     		ldr	r3, [r7, #4]
 1285 00a0 5A65     		str	r2, [r3, #84]
 1286              	.L53:
 801:Drivers/STM32F7xx_HAL_Driver/Src/stm32f7xx_hal_dma.c ****     }
 802:Drivers/STM32F7xx_HAL_Driver/Src/stm32f7xx_hal_dma.c ****   }
 803:Drivers/STM32F7xx_HAL_Driver/Src/stm32f7xx_hal_dma.c ****   /* Direct Mode Error Interrupt management ***********************************/
 804:Drivers/STM32F7xx_HAL_Driver/Src/stm32f7xx_hal_dma.c ****   if ((tmpisr & (DMA_FLAG_DMEIF0_4 << hdma->StreamIndex)) != RESET)
 1287              		.loc 1 804 0
 1288 00a2 7B68     		ldr	r3, [r7, #4]
 1289 00a4 DB6D     		ldr	r3, [r3, #92]
 1290 00a6 0422     		movs	r2, #4
 1291 00a8 9A40     		lsls	r2, r2, r3
 1292 00aa FB68     		ldr	r3, [r7, #12]
 1293 00ac 1340     		ands	r3, r3, r2
 1294 00ae 002B     		cmp	r3, #0
 1295 00b0 12D0     		beq	.L54
 805:Drivers/STM32F7xx_HAL_Driver/Src/stm32f7xx_hal_dma.c ****   {
 806:Drivers/STM32F7xx_HAL_Driver/Src/stm32f7xx_hal_dma.c ****     if(__HAL_DMA_GET_IT_SOURCE(hdma, DMA_IT_DME) != RESET)
 1296              		.loc 1 806 0
 1297 00b2 7B68     		ldr	r3, [r7, #4]
 1298 00b4 1B68     		ldr	r3, [r3]
 1299 00b6 1B68     		ldr	r3, [r3]
 1300 00b8 03F00203 		and	r3, r3, #2
 1301 00bc 002B     		cmp	r3, #0
 1302 00be 0BD0     		beq	.L54
 807:Drivers/STM32F7xx_HAL_Driver/Src/stm32f7xx_hal_dma.c ****     {
 808:Drivers/STM32F7xx_HAL_Driver/Src/stm32f7xx_hal_dma.c ****       /* Clear the direct mode error flag */
 809:Drivers/STM32F7xx_HAL_Driver/Src/stm32f7xx_hal_dma.c ****       regs->IFCR = DMA_FLAG_DMEIF0_4 << hdma->StreamIndex;
 1303              		.loc 1 809 0
 1304 00c0 7B68     		ldr	r3, [r7, #4]
 1305 00c2 DB6D     		ldr	r3, [r3, #92]
 1306 00c4 0422     		movs	r2, #4
 1307 00c6 9A40     		lsls	r2, r2, r3
ARM GAS  /var/folders/n8/cvzdcwlj0vl4g_wtyz1ffy300000gn/T//ccZxLSjg.s 			page 38


 1308 00c8 3B69     		ldr	r3, [r7, #16]
 1309 00ca 9A60     		str	r2, [r3, #8]
 810:Drivers/STM32F7xx_HAL_Driver/Src/stm32f7xx_hal_dma.c **** 
 811:Drivers/STM32F7xx_HAL_Driver/Src/stm32f7xx_hal_dma.c ****       /* Update error code */
 812:Drivers/STM32F7xx_HAL_Driver/Src/stm32f7xx_hal_dma.c ****       hdma->ErrorCode |= HAL_DMA_ERROR_DME;
 1310              		.loc 1 812 0
 1311 00cc 7B68     		ldr	r3, [r7, #4]
 1312 00ce 5B6D     		ldr	r3, [r3, #84]
 1313 00d0 43F00402 		orr	r2, r3, #4
 1314 00d4 7B68     		ldr	r3, [r7, #4]
 1315 00d6 5A65     		str	r2, [r3, #84]
 1316              	.L54:
 813:Drivers/STM32F7xx_HAL_Driver/Src/stm32f7xx_hal_dma.c ****     }
 814:Drivers/STM32F7xx_HAL_Driver/Src/stm32f7xx_hal_dma.c ****   }
 815:Drivers/STM32F7xx_HAL_Driver/Src/stm32f7xx_hal_dma.c ****   /* Half Transfer Complete Interrupt management ******************************/
 816:Drivers/STM32F7xx_HAL_Driver/Src/stm32f7xx_hal_dma.c ****   if ((tmpisr & (DMA_FLAG_HTIF0_4 << hdma->StreamIndex)) != RESET)
 1317              		.loc 1 816 0
 1318 00d8 7B68     		ldr	r3, [r7, #4]
 1319 00da DB6D     		ldr	r3, [r3, #92]
 1320 00dc 1022     		movs	r2, #16
 1321 00de 9A40     		lsls	r2, r2, r3
 1322 00e0 FB68     		ldr	r3, [r7, #12]
 1323 00e2 1340     		ands	r3, r3, r2
 1324 00e4 002B     		cmp	r3, #0
 1325 00e6 43D0     		beq	.L55
 817:Drivers/STM32F7xx_HAL_Driver/Src/stm32f7xx_hal_dma.c ****   {
 818:Drivers/STM32F7xx_HAL_Driver/Src/stm32f7xx_hal_dma.c ****     if(__HAL_DMA_GET_IT_SOURCE(hdma, DMA_IT_HT) != RESET)
 1326              		.loc 1 818 0
 1327 00e8 7B68     		ldr	r3, [r7, #4]
 1328 00ea 1B68     		ldr	r3, [r3]
 1329 00ec 1B68     		ldr	r3, [r3]
 1330 00ee 03F00803 		and	r3, r3, #8
 1331 00f2 002B     		cmp	r3, #0
 1332 00f4 3CD0     		beq	.L55
 819:Drivers/STM32F7xx_HAL_Driver/Src/stm32f7xx_hal_dma.c ****     {
 820:Drivers/STM32F7xx_HAL_Driver/Src/stm32f7xx_hal_dma.c ****       /* Clear the half transfer complete flag */
 821:Drivers/STM32F7xx_HAL_Driver/Src/stm32f7xx_hal_dma.c ****       regs->IFCR = DMA_FLAG_HTIF0_4 << hdma->StreamIndex;
 1333              		.loc 1 821 0
 1334 00f6 7B68     		ldr	r3, [r7, #4]
 1335 00f8 DB6D     		ldr	r3, [r3, #92]
 1336 00fa 1022     		movs	r2, #16
 1337 00fc 9A40     		lsls	r2, r2, r3
 1338 00fe 3B69     		ldr	r3, [r7, #16]
 1339 0100 9A60     		str	r2, [r3, #8]
 822:Drivers/STM32F7xx_HAL_Driver/Src/stm32f7xx_hal_dma.c ****       
 823:Drivers/STM32F7xx_HAL_Driver/Src/stm32f7xx_hal_dma.c ****       /* Multi_Buffering mode enabled */
 824:Drivers/STM32F7xx_HAL_Driver/Src/stm32f7xx_hal_dma.c ****       if(((hdma->Instance->CR) & (uint32_t)(DMA_SxCR_DBM)) != RESET)
 1340              		.loc 1 824 0
 1341 0102 7B68     		ldr	r3, [r7, #4]
 1342 0104 1B68     		ldr	r3, [r3]
 1343 0106 1B68     		ldr	r3, [r3]
 1344 0108 03F48023 		and	r3, r3, #262144
 1345 010c 002B     		cmp	r3, #0
 1346 010e 18D0     		beq	.L56
 825:Drivers/STM32F7xx_HAL_Driver/Src/stm32f7xx_hal_dma.c ****       {
 826:Drivers/STM32F7xx_HAL_Driver/Src/stm32f7xx_hal_dma.c ****         /* Current memory buffer used is Memory 0 */
 827:Drivers/STM32F7xx_HAL_Driver/Src/stm32f7xx_hal_dma.c ****         if((hdma->Instance->CR & DMA_SxCR_CT) == RESET)
ARM GAS  /var/folders/n8/cvzdcwlj0vl4g_wtyz1ffy300000gn/T//ccZxLSjg.s 			page 39


 1347              		.loc 1 827 0
 1348 0110 7B68     		ldr	r3, [r7, #4]
 1349 0112 1B68     		ldr	r3, [r3]
 1350 0114 1B68     		ldr	r3, [r3]
 1351 0116 03F40023 		and	r3, r3, #524288
 1352 011a 002B     		cmp	r3, #0
 1353 011c 08D1     		bne	.L57
 828:Drivers/STM32F7xx_HAL_Driver/Src/stm32f7xx_hal_dma.c ****         {
 829:Drivers/STM32F7xx_HAL_Driver/Src/stm32f7xx_hal_dma.c ****           if(hdma->XferHalfCpltCallback != NULL)
 1354              		.loc 1 829 0
 1355 011e 7B68     		ldr	r3, [r7, #4]
 1356 0120 1B6C     		ldr	r3, [r3, #64]
 1357 0122 002B     		cmp	r3, #0
 1358 0124 24D0     		beq	.L55
 830:Drivers/STM32F7xx_HAL_Driver/Src/stm32f7xx_hal_dma.c ****           {
 831:Drivers/STM32F7xx_HAL_Driver/Src/stm32f7xx_hal_dma.c ****             /* Half transfer callback */
 832:Drivers/STM32F7xx_HAL_Driver/Src/stm32f7xx_hal_dma.c ****             hdma->XferHalfCpltCallback(hdma);
 1359              		.loc 1 832 0
 1360 0126 7B68     		ldr	r3, [r7, #4]
 1361 0128 1B6C     		ldr	r3, [r3, #64]
 1362 012a 7868     		ldr	r0, [r7, #4]
 1363 012c 9847     		blx	r3
 1364              	.LVL0:
 1365 012e 1FE0     		b	.L55
 1366              	.L57:
 833:Drivers/STM32F7xx_HAL_Driver/Src/stm32f7xx_hal_dma.c ****           }
 834:Drivers/STM32F7xx_HAL_Driver/Src/stm32f7xx_hal_dma.c ****         }
 835:Drivers/STM32F7xx_HAL_Driver/Src/stm32f7xx_hal_dma.c ****         /* Current memory buffer used is Memory 1 */
 836:Drivers/STM32F7xx_HAL_Driver/Src/stm32f7xx_hal_dma.c ****         else
 837:Drivers/STM32F7xx_HAL_Driver/Src/stm32f7xx_hal_dma.c ****         {
 838:Drivers/STM32F7xx_HAL_Driver/Src/stm32f7xx_hal_dma.c ****           if(hdma->XferM1HalfCpltCallback != NULL)
 1367              		.loc 1 838 0
 1368 0130 7B68     		ldr	r3, [r7, #4]
 1369 0132 9B6C     		ldr	r3, [r3, #72]
 1370 0134 002B     		cmp	r3, #0
 1371 0136 1BD0     		beq	.L55
 839:Drivers/STM32F7xx_HAL_Driver/Src/stm32f7xx_hal_dma.c ****           {
 840:Drivers/STM32F7xx_HAL_Driver/Src/stm32f7xx_hal_dma.c ****             /* Half transfer callback */
 841:Drivers/STM32F7xx_HAL_Driver/Src/stm32f7xx_hal_dma.c ****             hdma->XferM1HalfCpltCallback(hdma);
 1372              		.loc 1 841 0
 1373 0138 7B68     		ldr	r3, [r7, #4]
 1374 013a 9B6C     		ldr	r3, [r3, #72]
 1375 013c 7868     		ldr	r0, [r7, #4]
 1376 013e 9847     		blx	r3
 1377              	.LVL1:
 1378 0140 16E0     		b	.L55
 1379              	.L56:
 842:Drivers/STM32F7xx_HAL_Driver/Src/stm32f7xx_hal_dma.c ****           }
 843:Drivers/STM32F7xx_HAL_Driver/Src/stm32f7xx_hal_dma.c ****         }
 844:Drivers/STM32F7xx_HAL_Driver/Src/stm32f7xx_hal_dma.c ****       }
 845:Drivers/STM32F7xx_HAL_Driver/Src/stm32f7xx_hal_dma.c ****       else
 846:Drivers/STM32F7xx_HAL_Driver/Src/stm32f7xx_hal_dma.c ****       {
 847:Drivers/STM32F7xx_HAL_Driver/Src/stm32f7xx_hal_dma.c ****         /* Disable the half transfer interrupt if the DMA mode is not CIRCULAR */
 848:Drivers/STM32F7xx_HAL_Driver/Src/stm32f7xx_hal_dma.c ****         if((hdma->Instance->CR & DMA_SxCR_CIRC) == RESET)
 1380              		.loc 1 848 0
 1381 0142 7B68     		ldr	r3, [r7, #4]
 1382 0144 1B68     		ldr	r3, [r3]
ARM GAS  /var/folders/n8/cvzdcwlj0vl4g_wtyz1ffy300000gn/T//ccZxLSjg.s 			page 40


 1383 0146 1B68     		ldr	r3, [r3]
 1384 0148 03F48073 		and	r3, r3, #256
 1385 014c 002B     		cmp	r3, #0
 1386 014e 07D1     		bne	.L60
 849:Drivers/STM32F7xx_HAL_Driver/Src/stm32f7xx_hal_dma.c ****         {
 850:Drivers/STM32F7xx_HAL_Driver/Src/stm32f7xx_hal_dma.c ****           /* Disable the half transfer interrupt */
 851:Drivers/STM32F7xx_HAL_Driver/Src/stm32f7xx_hal_dma.c ****           hdma->Instance->CR  &= ~(DMA_IT_HT);
 1387              		.loc 1 851 0
 1388 0150 7B68     		ldr	r3, [r7, #4]
 1389 0152 1B68     		ldr	r3, [r3]
 1390 0154 1A68     		ldr	r2, [r3]
 1391 0156 7B68     		ldr	r3, [r7, #4]
 1392 0158 1B68     		ldr	r3, [r3]
 1393 015a 22F00802 		bic	r2, r2, #8
 1394 015e 1A60     		str	r2, [r3]
 1395              	.L60:
 852:Drivers/STM32F7xx_HAL_Driver/Src/stm32f7xx_hal_dma.c ****         }
 853:Drivers/STM32F7xx_HAL_Driver/Src/stm32f7xx_hal_dma.c ****         
 854:Drivers/STM32F7xx_HAL_Driver/Src/stm32f7xx_hal_dma.c ****         if(hdma->XferHalfCpltCallback != NULL)
 1396              		.loc 1 854 0
 1397 0160 7B68     		ldr	r3, [r7, #4]
 1398 0162 1B6C     		ldr	r3, [r3, #64]
 1399 0164 002B     		cmp	r3, #0
 1400 0166 03D0     		beq	.L55
 855:Drivers/STM32F7xx_HAL_Driver/Src/stm32f7xx_hal_dma.c ****         {
 856:Drivers/STM32F7xx_HAL_Driver/Src/stm32f7xx_hal_dma.c ****           /* Half transfer callback */
 857:Drivers/STM32F7xx_HAL_Driver/Src/stm32f7xx_hal_dma.c ****           hdma->XferHalfCpltCallback(hdma);
 1401              		.loc 1 857 0
 1402 0168 7B68     		ldr	r3, [r7, #4]
 1403 016a 1B6C     		ldr	r3, [r3, #64]
 1404 016c 7868     		ldr	r0, [r7, #4]
 1405 016e 9847     		blx	r3
 1406              	.LVL2:
 1407              	.L55:
 858:Drivers/STM32F7xx_HAL_Driver/Src/stm32f7xx_hal_dma.c ****         }
 859:Drivers/STM32F7xx_HAL_Driver/Src/stm32f7xx_hal_dma.c ****       }
 860:Drivers/STM32F7xx_HAL_Driver/Src/stm32f7xx_hal_dma.c ****     }
 861:Drivers/STM32F7xx_HAL_Driver/Src/stm32f7xx_hal_dma.c ****   }
 862:Drivers/STM32F7xx_HAL_Driver/Src/stm32f7xx_hal_dma.c ****   /* Transfer Complete Interrupt management ***********************************/
 863:Drivers/STM32F7xx_HAL_Driver/Src/stm32f7xx_hal_dma.c ****   if ((tmpisr & (DMA_FLAG_TCIF0_4 << hdma->StreamIndex)) != RESET)
 1408              		.loc 1 863 0
 1409 0170 7B68     		ldr	r3, [r7, #4]
 1410 0172 DB6D     		ldr	r3, [r3, #92]
 1411 0174 2022     		movs	r2, #32
 1412 0176 9A40     		lsls	r2, r2, r3
 1413 0178 FB68     		ldr	r3, [r7, #12]
 1414 017a 1340     		ands	r3, r3, r2
 1415 017c 002B     		cmp	r3, #0
 1416 017e 00F08E80 		beq	.L61
 864:Drivers/STM32F7xx_HAL_Driver/Src/stm32f7xx_hal_dma.c ****   {
 865:Drivers/STM32F7xx_HAL_Driver/Src/stm32f7xx_hal_dma.c ****     if(__HAL_DMA_GET_IT_SOURCE(hdma, DMA_IT_TC) != RESET)
 1417              		.loc 1 865 0
 1418 0182 7B68     		ldr	r3, [r7, #4]
 1419 0184 1B68     		ldr	r3, [r3]
 1420 0186 1B68     		ldr	r3, [r3]
 1421 0188 03F01003 		and	r3, r3, #16
 1422 018c 002B     		cmp	r3, #0
ARM GAS  /var/folders/n8/cvzdcwlj0vl4g_wtyz1ffy300000gn/T//ccZxLSjg.s 			page 41


 1423 018e 00F08680 		beq	.L61
 866:Drivers/STM32F7xx_HAL_Driver/Src/stm32f7xx_hal_dma.c ****     {
 867:Drivers/STM32F7xx_HAL_Driver/Src/stm32f7xx_hal_dma.c ****       /* Clear the transfer complete flag */
 868:Drivers/STM32F7xx_HAL_Driver/Src/stm32f7xx_hal_dma.c ****       regs->IFCR = DMA_FLAG_TCIF0_4 << hdma->StreamIndex;
 1424              		.loc 1 868 0
 1425 0192 7B68     		ldr	r3, [r7, #4]
 1426 0194 DB6D     		ldr	r3, [r3, #92]
 1427 0196 2022     		movs	r2, #32
 1428 0198 9A40     		lsls	r2, r2, r3
 1429 019a 3B69     		ldr	r3, [r7, #16]
 1430 019c 9A60     		str	r2, [r3, #8]
 869:Drivers/STM32F7xx_HAL_Driver/Src/stm32f7xx_hal_dma.c ****       
 870:Drivers/STM32F7xx_HAL_Driver/Src/stm32f7xx_hal_dma.c ****       if(HAL_DMA_STATE_ABORT == hdma->State)
 1431              		.loc 1 870 0
 1432 019e 7B68     		ldr	r3, [r7, #4]
 1433 01a0 93F83530 		ldrb	r3, [r3, #53]
 1434 01a4 DBB2     		uxtb	r3, r3
 1435 01a6 052B     		cmp	r3, #5
 1436 01a8 36D1     		bne	.L62
 871:Drivers/STM32F7xx_HAL_Driver/Src/stm32f7xx_hal_dma.c ****       {
 872:Drivers/STM32F7xx_HAL_Driver/Src/stm32f7xx_hal_dma.c ****         /* Disable all the transfer interrupts */
 873:Drivers/STM32F7xx_HAL_Driver/Src/stm32f7xx_hal_dma.c ****         hdma->Instance->CR  &= ~(DMA_IT_TC | DMA_IT_TE | DMA_IT_DME);
 1437              		.loc 1 873 0
 1438 01aa 7B68     		ldr	r3, [r7, #4]
 1439 01ac 1B68     		ldr	r3, [r3]
 1440 01ae 1A68     		ldr	r2, [r3]
 1441 01b0 7B68     		ldr	r3, [r7, #4]
 1442 01b2 1B68     		ldr	r3, [r3]
 1443 01b4 22F01602 		bic	r2, r2, #22
 1444 01b8 1A60     		str	r2, [r3]
 874:Drivers/STM32F7xx_HAL_Driver/Src/stm32f7xx_hal_dma.c ****         hdma->Instance->FCR &= ~(DMA_IT_FE);
 1445              		.loc 1 874 0
 1446 01ba 7B68     		ldr	r3, [r7, #4]
 1447 01bc 1B68     		ldr	r3, [r3]
 1448 01be 5A69     		ldr	r2, [r3, #20]
 1449 01c0 7B68     		ldr	r3, [r7, #4]
 1450 01c2 1B68     		ldr	r3, [r3]
 1451 01c4 22F08002 		bic	r2, r2, #128
 1452 01c8 5A61     		str	r2, [r3, #20]
 875:Drivers/STM32F7xx_HAL_Driver/Src/stm32f7xx_hal_dma.c ****         
 876:Drivers/STM32F7xx_HAL_Driver/Src/stm32f7xx_hal_dma.c ****         if((hdma->XferHalfCpltCallback != NULL) || (hdma->XferM1HalfCpltCallback != NULL))
 1453              		.loc 1 876 0
 1454 01ca 7B68     		ldr	r3, [r7, #4]
 1455 01cc 1B6C     		ldr	r3, [r3, #64]
 1456 01ce 002B     		cmp	r3, #0
 1457 01d0 03D1     		bne	.L63
 1458              		.loc 1 876 0 is_stmt 0 discriminator 1
 1459 01d2 7B68     		ldr	r3, [r7, #4]
 1460 01d4 9B6C     		ldr	r3, [r3, #72]
 1461 01d6 002B     		cmp	r3, #0
 1462 01d8 07D0     		beq	.L64
 1463              	.L63:
 877:Drivers/STM32F7xx_HAL_Driver/Src/stm32f7xx_hal_dma.c ****         {
 878:Drivers/STM32F7xx_HAL_Driver/Src/stm32f7xx_hal_dma.c ****           hdma->Instance->CR  &= ~(DMA_IT_HT);
 1464              		.loc 1 878 0 is_stmt 1
 1465 01da 7B68     		ldr	r3, [r7, #4]
 1466 01dc 1B68     		ldr	r3, [r3]
ARM GAS  /var/folders/n8/cvzdcwlj0vl4g_wtyz1ffy300000gn/T//ccZxLSjg.s 			page 42


 1467 01de 1A68     		ldr	r2, [r3]
 1468 01e0 7B68     		ldr	r3, [r7, #4]
 1469 01e2 1B68     		ldr	r3, [r3]
 1470 01e4 22F00802 		bic	r2, r2, #8
 1471 01e8 1A60     		str	r2, [r3]
 1472              	.L64:
 879:Drivers/STM32F7xx_HAL_Driver/Src/stm32f7xx_hal_dma.c ****         }
 880:Drivers/STM32F7xx_HAL_Driver/Src/stm32f7xx_hal_dma.c **** 
 881:Drivers/STM32F7xx_HAL_Driver/Src/stm32f7xx_hal_dma.c ****         /* Clear all interrupt flags at correct offset within the register */
 882:Drivers/STM32F7xx_HAL_Driver/Src/stm32f7xx_hal_dma.c ****         regs->IFCR = 0x3FU << hdma->StreamIndex;
 1473              		.loc 1 882 0
 1474 01ea 7B68     		ldr	r3, [r7, #4]
 1475 01ec DB6D     		ldr	r3, [r3, #92]
 1476 01ee 3F22     		movs	r2, #63
 1477 01f0 9A40     		lsls	r2, r2, r3
 1478 01f2 3B69     		ldr	r3, [r7, #16]
 1479 01f4 9A60     		str	r2, [r3, #8]
 883:Drivers/STM32F7xx_HAL_Driver/Src/stm32f7xx_hal_dma.c **** 
 884:Drivers/STM32F7xx_HAL_Driver/Src/stm32f7xx_hal_dma.c ****         /* Process Unlocked */
 885:Drivers/STM32F7xx_HAL_Driver/Src/stm32f7xx_hal_dma.c ****         __HAL_UNLOCK(hdma);
 1480              		.loc 1 885 0
 1481 01f6 7B68     		ldr	r3, [r7, #4]
 1482 01f8 0022     		movs	r2, #0
 1483 01fa 83F83420 		strb	r2, [r3, #52]
 886:Drivers/STM32F7xx_HAL_Driver/Src/stm32f7xx_hal_dma.c **** 
 887:Drivers/STM32F7xx_HAL_Driver/Src/stm32f7xx_hal_dma.c ****         /* Change the DMA state */
 888:Drivers/STM32F7xx_HAL_Driver/Src/stm32f7xx_hal_dma.c ****         hdma->State = HAL_DMA_STATE_READY;
 1484              		.loc 1 888 0
 1485 01fe 7B68     		ldr	r3, [r7, #4]
 1486 0200 0122     		movs	r2, #1
 1487 0202 83F83520 		strb	r2, [r3, #53]
 889:Drivers/STM32F7xx_HAL_Driver/Src/stm32f7xx_hal_dma.c **** 
 890:Drivers/STM32F7xx_HAL_Driver/Src/stm32f7xx_hal_dma.c ****         if(hdma->XferAbortCallback != NULL)
 1488              		.loc 1 890 0
 1489 0206 7B68     		ldr	r3, [r7, #4]
 1490 0208 1B6D     		ldr	r3, [r3, #80]
 1491 020a 002B     		cmp	r3, #0
 1492 020c 7DD0     		beq	.L76
 891:Drivers/STM32F7xx_HAL_Driver/Src/stm32f7xx_hal_dma.c ****         {
 892:Drivers/STM32F7xx_HAL_Driver/Src/stm32f7xx_hal_dma.c ****           hdma->XferAbortCallback(hdma);
 1493              		.loc 1 892 0
 1494 020e 7B68     		ldr	r3, [r7, #4]
 1495 0210 1B6D     		ldr	r3, [r3, #80]
 1496 0212 7868     		ldr	r0, [r7, #4]
 1497 0214 9847     		blx	r3
 1498              	.LVL3:
 893:Drivers/STM32F7xx_HAL_Driver/Src/stm32f7xx_hal_dma.c ****         }
 894:Drivers/STM32F7xx_HAL_Driver/Src/stm32f7xx_hal_dma.c ****         return;
 1499              		.loc 1 894 0
 1500 0216 78E0     		b	.L76
 1501              	.L62:
 895:Drivers/STM32F7xx_HAL_Driver/Src/stm32f7xx_hal_dma.c ****       }
 896:Drivers/STM32F7xx_HAL_Driver/Src/stm32f7xx_hal_dma.c **** 
 897:Drivers/STM32F7xx_HAL_Driver/Src/stm32f7xx_hal_dma.c ****       if(((hdma->Instance->CR) & (uint32_t)(DMA_SxCR_DBM)) != RESET)
 1502              		.loc 1 897 0
 1503 0218 7B68     		ldr	r3, [r7, #4]
 1504 021a 1B68     		ldr	r3, [r3]
ARM GAS  /var/folders/n8/cvzdcwlj0vl4g_wtyz1ffy300000gn/T//ccZxLSjg.s 			page 43


 1505 021c 1B68     		ldr	r3, [r3]
 1506 021e 03F48023 		and	r3, r3, #262144
 1507 0222 002B     		cmp	r3, #0
 1508 0224 1CD0     		beq	.L67
 898:Drivers/STM32F7xx_HAL_Driver/Src/stm32f7xx_hal_dma.c ****       {
 899:Drivers/STM32F7xx_HAL_Driver/Src/stm32f7xx_hal_dma.c ****         /* Current memory buffer used is Memory 0 */
 900:Drivers/STM32F7xx_HAL_Driver/Src/stm32f7xx_hal_dma.c ****         if((hdma->Instance->CR & DMA_SxCR_CT) == RESET)
 1509              		.loc 1 900 0
 1510 0226 7B68     		ldr	r3, [r7, #4]
 1511 0228 1B68     		ldr	r3, [r3]
 1512 022a 1B68     		ldr	r3, [r3]
 1513 022c 03F40023 		and	r3, r3, #524288
 1514 0230 002B     		cmp	r3, #0
 1515 0232 08D1     		bne	.L68
 901:Drivers/STM32F7xx_HAL_Driver/Src/stm32f7xx_hal_dma.c ****         {
 902:Drivers/STM32F7xx_HAL_Driver/Src/stm32f7xx_hal_dma.c ****           if(hdma->XferM1CpltCallback != NULL)
 1516              		.loc 1 902 0
 1517 0234 7B68     		ldr	r3, [r7, #4]
 1518 0236 5B6C     		ldr	r3, [r3, #68]
 1519 0238 002B     		cmp	r3, #0
 1520 023a 30D0     		beq	.L61
 903:Drivers/STM32F7xx_HAL_Driver/Src/stm32f7xx_hal_dma.c ****           {
 904:Drivers/STM32F7xx_HAL_Driver/Src/stm32f7xx_hal_dma.c ****             /* Transfer complete Callback for memory1 */
 905:Drivers/STM32F7xx_HAL_Driver/Src/stm32f7xx_hal_dma.c ****             hdma->XferM1CpltCallback(hdma);
 1521              		.loc 1 905 0
 1522 023c 7B68     		ldr	r3, [r7, #4]
 1523 023e 5B6C     		ldr	r3, [r3, #68]
 1524 0240 7868     		ldr	r0, [r7, #4]
 1525 0242 9847     		blx	r3
 1526              	.LVL4:
 1527 0244 2BE0     		b	.L61
 1528              	.L68:
 906:Drivers/STM32F7xx_HAL_Driver/Src/stm32f7xx_hal_dma.c ****           }
 907:Drivers/STM32F7xx_HAL_Driver/Src/stm32f7xx_hal_dma.c ****         }
 908:Drivers/STM32F7xx_HAL_Driver/Src/stm32f7xx_hal_dma.c ****         /* Current memory buffer used is Memory 1 */
 909:Drivers/STM32F7xx_HAL_Driver/Src/stm32f7xx_hal_dma.c ****         else
 910:Drivers/STM32F7xx_HAL_Driver/Src/stm32f7xx_hal_dma.c ****         {
 911:Drivers/STM32F7xx_HAL_Driver/Src/stm32f7xx_hal_dma.c ****           if(hdma->XferCpltCallback != NULL)
 1529              		.loc 1 911 0
 1530 0246 7B68     		ldr	r3, [r7, #4]
 1531 0248 DB6B     		ldr	r3, [r3, #60]
 1532 024a 002B     		cmp	r3, #0
 1533 024c 27D0     		beq	.L61
 912:Drivers/STM32F7xx_HAL_Driver/Src/stm32f7xx_hal_dma.c ****           {
 913:Drivers/STM32F7xx_HAL_Driver/Src/stm32f7xx_hal_dma.c ****             /* Transfer complete Callback for memory0 */
 914:Drivers/STM32F7xx_HAL_Driver/Src/stm32f7xx_hal_dma.c ****             hdma->XferCpltCallback(hdma);
 1534              		.loc 1 914 0
 1535 024e 7B68     		ldr	r3, [r7, #4]
 1536 0250 DB6B     		ldr	r3, [r3, #60]
 1537 0252 7868     		ldr	r0, [r7, #4]
 1538 0254 9847     		blx	r3
 1539              	.LVL5:
 1540 0256 22E0     		b	.L61
 1541              	.L79:
 1542              		.align	2
 1543              	.L78:
 1544 0258 00000000 		.word	SystemCoreClock
ARM GAS  /var/folders/n8/cvzdcwlj0vl4g_wtyz1ffy300000gn/T//ccZxLSjg.s 			page 44


 1545 025c B5814E1B 		.word	458129845
 1546              	.L67:
 915:Drivers/STM32F7xx_HAL_Driver/Src/stm32f7xx_hal_dma.c ****           }
 916:Drivers/STM32F7xx_HAL_Driver/Src/stm32f7xx_hal_dma.c ****         }
 917:Drivers/STM32F7xx_HAL_Driver/Src/stm32f7xx_hal_dma.c ****       }
 918:Drivers/STM32F7xx_HAL_Driver/Src/stm32f7xx_hal_dma.c ****       /* Disable the transfer complete interrupt if the DMA mode is not CIRCULAR */
 919:Drivers/STM32F7xx_HAL_Driver/Src/stm32f7xx_hal_dma.c ****       else
 920:Drivers/STM32F7xx_HAL_Driver/Src/stm32f7xx_hal_dma.c ****       {
 921:Drivers/STM32F7xx_HAL_Driver/Src/stm32f7xx_hal_dma.c ****         if((hdma->Instance->CR & DMA_SxCR_CIRC) == RESET)
 1547              		.loc 1 921 0
 1548 0260 7B68     		ldr	r3, [r7, #4]
 1549 0262 1B68     		ldr	r3, [r3]
 1550 0264 1B68     		ldr	r3, [r3]
 1551 0266 03F48073 		and	r3, r3, #256
 1552 026a 002B     		cmp	r3, #0
 1553 026c 0FD1     		bne	.L71
 922:Drivers/STM32F7xx_HAL_Driver/Src/stm32f7xx_hal_dma.c ****         {
 923:Drivers/STM32F7xx_HAL_Driver/Src/stm32f7xx_hal_dma.c ****           /* Disable the transfer complete interrupt */
 924:Drivers/STM32F7xx_HAL_Driver/Src/stm32f7xx_hal_dma.c ****           hdma->Instance->CR  &= ~(DMA_IT_TC);
 1554              		.loc 1 924 0
 1555 026e 7B68     		ldr	r3, [r7, #4]
 1556 0270 1B68     		ldr	r3, [r3]
 1557 0272 1A68     		ldr	r2, [r3]
 1558 0274 7B68     		ldr	r3, [r7, #4]
 1559 0276 1B68     		ldr	r3, [r3]
 1560 0278 22F01002 		bic	r2, r2, #16
 1561 027c 1A60     		str	r2, [r3]
 925:Drivers/STM32F7xx_HAL_Driver/Src/stm32f7xx_hal_dma.c **** 
 926:Drivers/STM32F7xx_HAL_Driver/Src/stm32f7xx_hal_dma.c ****           /* Process Unlocked */
 927:Drivers/STM32F7xx_HAL_Driver/Src/stm32f7xx_hal_dma.c ****           __HAL_UNLOCK(hdma);
 1562              		.loc 1 927 0
 1563 027e 7B68     		ldr	r3, [r7, #4]
 1564 0280 0022     		movs	r2, #0
 1565 0282 83F83420 		strb	r2, [r3, #52]
 928:Drivers/STM32F7xx_HAL_Driver/Src/stm32f7xx_hal_dma.c **** 
 929:Drivers/STM32F7xx_HAL_Driver/Src/stm32f7xx_hal_dma.c ****           /* Change the DMA state */
 930:Drivers/STM32F7xx_HAL_Driver/Src/stm32f7xx_hal_dma.c ****           hdma->State = HAL_DMA_STATE_READY;
 1566              		.loc 1 930 0
 1567 0286 7B68     		ldr	r3, [r7, #4]
 1568 0288 0122     		movs	r2, #1
 1569 028a 83F83520 		strb	r2, [r3, #53]
 1570              	.L71:
 931:Drivers/STM32F7xx_HAL_Driver/Src/stm32f7xx_hal_dma.c ****         }
 932:Drivers/STM32F7xx_HAL_Driver/Src/stm32f7xx_hal_dma.c **** 
 933:Drivers/STM32F7xx_HAL_Driver/Src/stm32f7xx_hal_dma.c ****         if(hdma->XferCpltCallback != NULL)
 1571              		.loc 1 933 0
 1572 028e 7B68     		ldr	r3, [r7, #4]
 1573 0290 DB6B     		ldr	r3, [r3, #60]
 1574 0292 002B     		cmp	r3, #0
 1575 0294 03D0     		beq	.L61
 934:Drivers/STM32F7xx_HAL_Driver/Src/stm32f7xx_hal_dma.c ****         {
 935:Drivers/STM32F7xx_HAL_Driver/Src/stm32f7xx_hal_dma.c ****           /* Transfer complete callback */
 936:Drivers/STM32F7xx_HAL_Driver/Src/stm32f7xx_hal_dma.c ****           hdma->XferCpltCallback(hdma);
 1576              		.loc 1 936 0
 1577 0296 7B68     		ldr	r3, [r7, #4]
 1578 0298 DB6B     		ldr	r3, [r3, #60]
 1579 029a 7868     		ldr	r0, [r7, #4]
ARM GAS  /var/folders/n8/cvzdcwlj0vl4g_wtyz1ffy300000gn/T//ccZxLSjg.s 			page 45


 1580 029c 9847     		blx	r3
 1581              	.LVL6:
 1582              	.L61:
 937:Drivers/STM32F7xx_HAL_Driver/Src/stm32f7xx_hal_dma.c ****         }
 938:Drivers/STM32F7xx_HAL_Driver/Src/stm32f7xx_hal_dma.c ****       }
 939:Drivers/STM32F7xx_HAL_Driver/Src/stm32f7xx_hal_dma.c ****     }
 940:Drivers/STM32F7xx_HAL_Driver/Src/stm32f7xx_hal_dma.c ****   }
 941:Drivers/STM32F7xx_HAL_Driver/Src/stm32f7xx_hal_dma.c ****   
 942:Drivers/STM32F7xx_HAL_Driver/Src/stm32f7xx_hal_dma.c ****   /* manage error case */
 943:Drivers/STM32F7xx_HAL_Driver/Src/stm32f7xx_hal_dma.c ****   if(hdma->ErrorCode != HAL_DMA_ERROR_NONE)
 1583              		.loc 1 943 0
 1584 029e 7B68     		ldr	r3, [r7, #4]
 1585 02a0 5B6D     		ldr	r3, [r3, #84]
 1586 02a2 002B     		cmp	r3, #0
 1587 02a4 32D0     		beq	.L51
 944:Drivers/STM32F7xx_HAL_Driver/Src/stm32f7xx_hal_dma.c ****   {
 945:Drivers/STM32F7xx_HAL_Driver/Src/stm32f7xx_hal_dma.c ****     if((hdma->ErrorCode & HAL_DMA_ERROR_TE) != RESET)
 1588              		.loc 1 945 0
 1589 02a6 7B68     		ldr	r3, [r7, #4]
 1590 02a8 5B6D     		ldr	r3, [r3, #84]
 1591 02aa 03F00103 		and	r3, r3, #1
 1592 02ae 002B     		cmp	r3, #0
 1593 02b0 22D0     		beq	.L72
 946:Drivers/STM32F7xx_HAL_Driver/Src/stm32f7xx_hal_dma.c ****     {
 947:Drivers/STM32F7xx_HAL_Driver/Src/stm32f7xx_hal_dma.c ****       hdma->State = HAL_DMA_STATE_ABORT;
 1594              		.loc 1 947 0
 1595 02b2 7B68     		ldr	r3, [r7, #4]
 1596 02b4 0522     		movs	r2, #5
 1597 02b6 83F83520 		strb	r2, [r3, #53]
 948:Drivers/STM32F7xx_HAL_Driver/Src/stm32f7xx_hal_dma.c **** 
 949:Drivers/STM32F7xx_HAL_Driver/Src/stm32f7xx_hal_dma.c ****       /* Disable the stream */
 950:Drivers/STM32F7xx_HAL_Driver/Src/stm32f7xx_hal_dma.c ****       __HAL_DMA_DISABLE(hdma);
 1598              		.loc 1 950 0
 1599 02ba 7B68     		ldr	r3, [r7, #4]
 1600 02bc 1B68     		ldr	r3, [r3]
 1601 02be 1A68     		ldr	r2, [r3]
 1602 02c0 7B68     		ldr	r3, [r7, #4]
 1603 02c2 1B68     		ldr	r3, [r3]
 1604 02c4 22F00102 		bic	r2, r2, #1
 1605 02c8 1A60     		str	r2, [r3]
 1606              	.L75:
 951:Drivers/STM32F7xx_HAL_Driver/Src/stm32f7xx_hal_dma.c **** 
 952:Drivers/STM32F7xx_HAL_Driver/Src/stm32f7xx_hal_dma.c ****       do
 953:Drivers/STM32F7xx_HAL_Driver/Src/stm32f7xx_hal_dma.c ****       {
 954:Drivers/STM32F7xx_HAL_Driver/Src/stm32f7xx_hal_dma.c ****         if (++count > timeout)
 1607              		.loc 1 954 0
 1608 02ca BB68     		ldr	r3, [r7, #8]
 1609 02cc 0133     		adds	r3, r3, #1
 1610 02ce BB60     		str	r3, [r7, #8]
 1611 02d0 7A69     		ldr	r2, [r7, #20]
 1612 02d2 9A42     		cmp	r2, r3
 1613 02d4 07D3     		bcc	.L77
 955:Drivers/STM32F7xx_HAL_Driver/Src/stm32f7xx_hal_dma.c ****         {
 956:Drivers/STM32F7xx_HAL_Driver/Src/stm32f7xx_hal_dma.c ****           break;
 957:Drivers/STM32F7xx_HAL_Driver/Src/stm32f7xx_hal_dma.c ****         }
 958:Drivers/STM32F7xx_HAL_Driver/Src/stm32f7xx_hal_dma.c ****       }
 959:Drivers/STM32F7xx_HAL_Driver/Src/stm32f7xx_hal_dma.c ****       while((hdma->Instance->CR & DMA_SxCR_EN) != RESET);
ARM GAS  /var/folders/n8/cvzdcwlj0vl4g_wtyz1ffy300000gn/T//ccZxLSjg.s 			page 46


 1614              		.loc 1 959 0
 1615 02d6 7B68     		ldr	r3, [r7, #4]
 1616 02d8 1B68     		ldr	r3, [r3]
 1617 02da 1B68     		ldr	r3, [r3]
 1618 02dc 03F00103 		and	r3, r3, #1
 1619 02e0 002B     		cmp	r3, #0
 1620 02e2 F2D1     		bne	.L75
 1621 02e4 00E0     		b	.L74
 1622              	.L77:
 956:Drivers/STM32F7xx_HAL_Driver/Src/stm32f7xx_hal_dma.c ****         }
 1623              		.loc 1 956 0
 1624 02e6 00BF     		nop
 1625              	.L74:
 960:Drivers/STM32F7xx_HAL_Driver/Src/stm32f7xx_hal_dma.c **** 
 961:Drivers/STM32F7xx_HAL_Driver/Src/stm32f7xx_hal_dma.c ****       /* Process Unlocked */
 962:Drivers/STM32F7xx_HAL_Driver/Src/stm32f7xx_hal_dma.c ****       __HAL_UNLOCK(hdma);
 1626              		.loc 1 962 0
 1627 02e8 7B68     		ldr	r3, [r7, #4]
 1628 02ea 0022     		movs	r2, #0
 1629 02ec 83F83420 		strb	r2, [r3, #52]
 963:Drivers/STM32F7xx_HAL_Driver/Src/stm32f7xx_hal_dma.c **** 
 964:Drivers/STM32F7xx_HAL_Driver/Src/stm32f7xx_hal_dma.c ****       /* Change the DMA state */
 965:Drivers/STM32F7xx_HAL_Driver/Src/stm32f7xx_hal_dma.c ****       hdma->State = HAL_DMA_STATE_READY;
 1630              		.loc 1 965 0
 1631 02f0 7B68     		ldr	r3, [r7, #4]
 1632 02f2 0122     		movs	r2, #1
 1633 02f4 83F83520 		strb	r2, [r3, #53]
 1634              	.L72:
 966:Drivers/STM32F7xx_HAL_Driver/Src/stm32f7xx_hal_dma.c ****     }
 967:Drivers/STM32F7xx_HAL_Driver/Src/stm32f7xx_hal_dma.c **** 
 968:Drivers/STM32F7xx_HAL_Driver/Src/stm32f7xx_hal_dma.c ****     if(hdma->XferErrorCallback != NULL)
 1635              		.loc 1 968 0
 1636 02f8 7B68     		ldr	r3, [r7, #4]
 1637 02fa DB6C     		ldr	r3, [r3, #76]
 1638 02fc 002B     		cmp	r3, #0
 1639 02fe 05D0     		beq	.L51
 969:Drivers/STM32F7xx_HAL_Driver/Src/stm32f7xx_hal_dma.c ****     {
 970:Drivers/STM32F7xx_HAL_Driver/Src/stm32f7xx_hal_dma.c ****       /* Transfer error callback */
 971:Drivers/STM32F7xx_HAL_Driver/Src/stm32f7xx_hal_dma.c ****       hdma->XferErrorCallback(hdma);
 1640              		.loc 1 971 0
 1641 0300 7B68     		ldr	r3, [r7, #4]
 1642 0302 DB6C     		ldr	r3, [r3, #76]
 1643 0304 7868     		ldr	r0, [r7, #4]
 1644 0306 9847     		blx	r3
 1645              	.LVL7:
 1646 0308 00E0     		b	.L51
 1647              	.L76:
 894:Drivers/STM32F7xx_HAL_Driver/Src/stm32f7xx_hal_dma.c ****       }
 1648              		.loc 1 894 0
 1649 030a 00BF     		nop
 1650              	.L51:
 972:Drivers/STM32F7xx_HAL_Driver/Src/stm32f7xx_hal_dma.c ****     }
 973:Drivers/STM32F7xx_HAL_Driver/Src/stm32f7xx_hal_dma.c ****   }
 974:Drivers/STM32F7xx_HAL_Driver/Src/stm32f7xx_hal_dma.c **** }
 1651              		.loc 1 974 0
 1652 030c 1837     		adds	r7, r7, #24
 1653              	.LCFI39:
ARM GAS  /var/folders/n8/cvzdcwlj0vl4g_wtyz1ffy300000gn/T//ccZxLSjg.s 			page 47


 1654              		.cfi_def_cfa_offset 8
 1655 030e BD46     		mov	sp, r7
 1656              	.LCFI40:
 1657              		.cfi_def_cfa_register 13
 1658              		@ sp needed
 1659 0310 80BD     		pop	{r7, pc}
 1660              		.cfi_endproc
 1661              	.LFE145:
 1663 0312 00BF     		.section	.text.HAL_DMA_RegisterCallback,"ax",%progbits
 1664              		.align	1
 1665              		.global	HAL_DMA_RegisterCallback
 1666              		.syntax unified
 1667              		.thumb
 1668              		.thumb_func
 1669              		.fpu fpv5-sp-d16
 1671              	HAL_DMA_RegisterCallback:
 1672              	.LFB146:
 975:Drivers/STM32F7xx_HAL_Driver/Src/stm32f7xx_hal_dma.c **** 
 976:Drivers/STM32F7xx_HAL_Driver/Src/stm32f7xx_hal_dma.c **** /**
 977:Drivers/STM32F7xx_HAL_Driver/Src/stm32f7xx_hal_dma.c ****   * @brief  Register callbacks
 978:Drivers/STM32F7xx_HAL_Driver/Src/stm32f7xx_hal_dma.c ****   * @param  hdma                 pointer to a DMA_HandleTypeDef structure that contains
 979:Drivers/STM32F7xx_HAL_Driver/Src/stm32f7xx_hal_dma.c ****   *                               the configuration information for the specified DMA Stream.
 980:Drivers/STM32F7xx_HAL_Driver/Src/stm32f7xx_hal_dma.c ****   * @param  CallbackID           User Callback identifer
 981:Drivers/STM32F7xx_HAL_Driver/Src/stm32f7xx_hal_dma.c ****   *                               a DMA_HandleTypeDef structure as parameter.
 982:Drivers/STM32F7xx_HAL_Driver/Src/stm32f7xx_hal_dma.c ****   * @param  pCallback            pointer to private callbacsk function which has pointer to 
 983:Drivers/STM32F7xx_HAL_Driver/Src/stm32f7xx_hal_dma.c ****   *                               a DMA_HandleTypeDef structure as parameter.
 984:Drivers/STM32F7xx_HAL_Driver/Src/stm32f7xx_hal_dma.c ****   * @retval HAL status
 985:Drivers/STM32F7xx_HAL_Driver/Src/stm32f7xx_hal_dma.c ****   */                      
 986:Drivers/STM32F7xx_HAL_Driver/Src/stm32f7xx_hal_dma.c **** HAL_StatusTypeDef HAL_DMA_RegisterCallback(DMA_HandleTypeDef *hdma, HAL_DMA_CallbackIDTypeDef Callb
 987:Drivers/STM32F7xx_HAL_Driver/Src/stm32f7xx_hal_dma.c **** {
 1673              		.loc 1 987 0
 1674              		.cfi_startproc
 1675              		@ args = 0, pretend = 0, frame = 24
 1676              		@ frame_needed = 1, uses_anonymous_args = 0
 1677              		@ link register save eliminated.
 1678 0000 80B4     		push	{r7}
 1679              	.LCFI41:
 1680              		.cfi_def_cfa_offset 4
 1681              		.cfi_offset 7, -4
 1682 0002 87B0     		sub	sp, sp, #28
 1683              	.LCFI42:
 1684              		.cfi_def_cfa_offset 32
 1685 0004 00AF     		add	r7, sp, #0
 1686              	.LCFI43:
 1687              		.cfi_def_cfa_register 7
 1688 0006 F860     		str	r0, [r7, #12]
 1689 0008 0B46     		mov	r3, r1
 1690 000a 7A60     		str	r2, [r7, #4]
 1691 000c FB72     		strb	r3, [r7, #11]
 988:Drivers/STM32F7xx_HAL_Driver/Src/stm32f7xx_hal_dma.c **** 
 989:Drivers/STM32F7xx_HAL_Driver/Src/stm32f7xx_hal_dma.c ****   HAL_StatusTypeDef status = HAL_OK;
 1692              		.loc 1 989 0
 1693 000e 0023     		movs	r3, #0
 1694 0010 FB75     		strb	r3, [r7, #23]
 990:Drivers/STM32F7xx_HAL_Driver/Src/stm32f7xx_hal_dma.c **** 
 991:Drivers/STM32F7xx_HAL_Driver/Src/stm32f7xx_hal_dma.c ****   /* Process locked */
 992:Drivers/STM32F7xx_HAL_Driver/Src/stm32f7xx_hal_dma.c ****   __HAL_LOCK(hdma);
ARM GAS  /var/folders/n8/cvzdcwlj0vl4g_wtyz1ffy300000gn/T//ccZxLSjg.s 			page 48


 1695              		.loc 1 992 0
 1696 0012 FB68     		ldr	r3, [r7, #12]
 1697 0014 93F83430 		ldrb	r3, [r3, #52]	@ zero_extendqisi2
 1698 0018 012B     		cmp	r3, #1
 1699 001a 01D1     		bne	.L81
 1700              		.loc 1 992 0 is_stmt 0 discriminator 1
 1701 001c 0223     		movs	r3, #2
 1702 001e 3CE0     		b	.L82
 1703              	.L81:
 1704              		.loc 1 992 0 discriminator 2
 1705 0020 FB68     		ldr	r3, [r7, #12]
 1706 0022 0122     		movs	r2, #1
 1707 0024 83F83420 		strb	r2, [r3, #52]
 993:Drivers/STM32F7xx_HAL_Driver/Src/stm32f7xx_hal_dma.c **** 
 994:Drivers/STM32F7xx_HAL_Driver/Src/stm32f7xx_hal_dma.c ****   if(HAL_DMA_STATE_READY == hdma->State)
 1708              		.loc 1 994 0 is_stmt 1 discriminator 2
 1709 0028 FB68     		ldr	r3, [r7, #12]
 1710 002a 93F83530 		ldrb	r3, [r3, #53]
 1711 002e DBB2     		uxtb	r3, r3
 1712 0030 012B     		cmp	r3, #1
 1713 0032 29D1     		bne	.L83
 995:Drivers/STM32F7xx_HAL_Driver/Src/stm32f7xx_hal_dma.c ****   {
 996:Drivers/STM32F7xx_HAL_Driver/Src/stm32f7xx_hal_dma.c ****     switch (CallbackID)
 1714              		.loc 1 996 0
 1715 0034 FB7A     		ldrb	r3, [r7, #11]	@ zero_extendqisi2
 1716 0036 052B     		cmp	r3, #5
 1717 0038 29D8     		bhi	.L94
 1718 003a 01A2     		adr	r2, .L86
 1719 003c 52F823F0 		ldr	pc, [r2, r3, lsl #2]
 1720              		.p2align 2
 1721              	.L86:
 1722 0040 59000000 		.word	.L85+1
 1723 0044 61000000 		.word	.L87+1
 1724 0048 69000000 		.word	.L88+1
 1725 004c 71000000 		.word	.L89+1
 1726 0050 79000000 		.word	.L90+1
 1727 0054 81000000 		.word	.L91+1
 1728              		.p2align 1
 1729              	.L85:
 997:Drivers/STM32F7xx_HAL_Driver/Src/stm32f7xx_hal_dma.c ****     {
 998:Drivers/STM32F7xx_HAL_Driver/Src/stm32f7xx_hal_dma.c ****     case  HAL_DMA_XFER_CPLT_CB_ID:
 999:Drivers/STM32F7xx_HAL_Driver/Src/stm32f7xx_hal_dma.c ****       hdma->XferCpltCallback = pCallback;
 1730              		.loc 1 999 0
 1731 0058 FB68     		ldr	r3, [r7, #12]
 1732 005a 7A68     		ldr	r2, [r7, #4]
 1733 005c DA63     		str	r2, [r3, #60]
1000:Drivers/STM32F7xx_HAL_Driver/Src/stm32f7xx_hal_dma.c ****       break;
 1734              		.loc 1 1000 0
 1735 005e 17E0     		b	.L93
 1736              	.L87:
1001:Drivers/STM32F7xx_HAL_Driver/Src/stm32f7xx_hal_dma.c **** 
1002:Drivers/STM32F7xx_HAL_Driver/Src/stm32f7xx_hal_dma.c ****     case  HAL_DMA_XFER_HALFCPLT_CB_ID:
1003:Drivers/STM32F7xx_HAL_Driver/Src/stm32f7xx_hal_dma.c ****       hdma->XferHalfCpltCallback = pCallback;
 1737              		.loc 1 1003 0
 1738 0060 FB68     		ldr	r3, [r7, #12]
 1739 0062 7A68     		ldr	r2, [r7, #4]
 1740 0064 1A64     		str	r2, [r3, #64]
ARM GAS  /var/folders/n8/cvzdcwlj0vl4g_wtyz1ffy300000gn/T//ccZxLSjg.s 			page 49


1004:Drivers/STM32F7xx_HAL_Driver/Src/stm32f7xx_hal_dma.c ****       break;
 1741              		.loc 1 1004 0
 1742 0066 13E0     		b	.L93
 1743              	.L88:
1005:Drivers/STM32F7xx_HAL_Driver/Src/stm32f7xx_hal_dma.c **** 
1006:Drivers/STM32F7xx_HAL_Driver/Src/stm32f7xx_hal_dma.c ****     case  HAL_DMA_XFER_M1CPLT_CB_ID:
1007:Drivers/STM32F7xx_HAL_Driver/Src/stm32f7xx_hal_dma.c ****       hdma->XferM1CpltCallback = pCallback;
 1744              		.loc 1 1007 0
 1745 0068 FB68     		ldr	r3, [r7, #12]
 1746 006a 7A68     		ldr	r2, [r7, #4]
 1747 006c 5A64     		str	r2, [r3, #68]
1008:Drivers/STM32F7xx_HAL_Driver/Src/stm32f7xx_hal_dma.c ****       break;
 1748              		.loc 1 1008 0
 1749 006e 0FE0     		b	.L93
 1750              	.L89:
1009:Drivers/STM32F7xx_HAL_Driver/Src/stm32f7xx_hal_dma.c **** 
1010:Drivers/STM32F7xx_HAL_Driver/Src/stm32f7xx_hal_dma.c ****     case  HAL_DMA_XFER_M1HALFCPLT_CB_ID:
1011:Drivers/STM32F7xx_HAL_Driver/Src/stm32f7xx_hal_dma.c ****       hdma->XferM1HalfCpltCallback = pCallback;
 1751              		.loc 1 1011 0
 1752 0070 FB68     		ldr	r3, [r7, #12]
 1753 0072 7A68     		ldr	r2, [r7, #4]
 1754 0074 9A64     		str	r2, [r3, #72]
1012:Drivers/STM32F7xx_HAL_Driver/Src/stm32f7xx_hal_dma.c ****       break;
 1755              		.loc 1 1012 0
 1756 0076 0BE0     		b	.L93
 1757              	.L90:
1013:Drivers/STM32F7xx_HAL_Driver/Src/stm32f7xx_hal_dma.c **** 
1014:Drivers/STM32F7xx_HAL_Driver/Src/stm32f7xx_hal_dma.c ****     case  HAL_DMA_XFER_ERROR_CB_ID:
1015:Drivers/STM32F7xx_HAL_Driver/Src/stm32f7xx_hal_dma.c ****       hdma->XferErrorCallback = pCallback;
 1758              		.loc 1 1015 0
 1759 0078 FB68     		ldr	r3, [r7, #12]
 1760 007a 7A68     		ldr	r2, [r7, #4]
 1761 007c DA64     		str	r2, [r3, #76]
1016:Drivers/STM32F7xx_HAL_Driver/Src/stm32f7xx_hal_dma.c ****       break;
 1762              		.loc 1 1016 0
 1763 007e 07E0     		b	.L93
 1764              	.L91:
1017:Drivers/STM32F7xx_HAL_Driver/Src/stm32f7xx_hal_dma.c **** 
1018:Drivers/STM32F7xx_HAL_Driver/Src/stm32f7xx_hal_dma.c ****     case  HAL_DMA_XFER_ABORT_CB_ID:
1019:Drivers/STM32F7xx_HAL_Driver/Src/stm32f7xx_hal_dma.c ****       hdma->XferAbortCallback = pCallback;
 1765              		.loc 1 1019 0
 1766 0080 FB68     		ldr	r3, [r7, #12]
 1767 0082 7A68     		ldr	r2, [r7, #4]
 1768 0084 1A65     		str	r2, [r3, #80]
1020:Drivers/STM32F7xx_HAL_Driver/Src/stm32f7xx_hal_dma.c ****       break;
 1769              		.loc 1 1020 0
 1770 0086 03E0     		b	.L93
 1771              	.L83:
1021:Drivers/STM32F7xx_HAL_Driver/Src/stm32f7xx_hal_dma.c **** 
1022:Drivers/STM32F7xx_HAL_Driver/Src/stm32f7xx_hal_dma.c ****     default:
1023:Drivers/STM32F7xx_HAL_Driver/Src/stm32f7xx_hal_dma.c ****       break;
1024:Drivers/STM32F7xx_HAL_Driver/Src/stm32f7xx_hal_dma.c ****     }
1025:Drivers/STM32F7xx_HAL_Driver/Src/stm32f7xx_hal_dma.c ****   }
1026:Drivers/STM32F7xx_HAL_Driver/Src/stm32f7xx_hal_dma.c ****   else
1027:Drivers/STM32F7xx_HAL_Driver/Src/stm32f7xx_hal_dma.c ****   {
1028:Drivers/STM32F7xx_HAL_Driver/Src/stm32f7xx_hal_dma.c ****     /* Return error status */
1029:Drivers/STM32F7xx_HAL_Driver/Src/stm32f7xx_hal_dma.c ****     status =  HAL_ERROR;
ARM GAS  /var/folders/n8/cvzdcwlj0vl4g_wtyz1ffy300000gn/T//ccZxLSjg.s 			page 50


 1772              		.loc 1 1029 0
 1773 0088 0123     		movs	r3, #1
 1774 008a FB75     		strb	r3, [r7, #23]
 1775 008c 00E0     		b	.L93
 1776              	.L94:
1023:Drivers/STM32F7xx_HAL_Driver/Src/stm32f7xx_hal_dma.c ****     }
 1777              		.loc 1 1023 0
 1778 008e 00BF     		nop
 1779              	.L93:
1030:Drivers/STM32F7xx_HAL_Driver/Src/stm32f7xx_hal_dma.c ****   }
1031:Drivers/STM32F7xx_HAL_Driver/Src/stm32f7xx_hal_dma.c **** 
1032:Drivers/STM32F7xx_HAL_Driver/Src/stm32f7xx_hal_dma.c ****   /* Release Lock */
1033:Drivers/STM32F7xx_HAL_Driver/Src/stm32f7xx_hal_dma.c ****   __HAL_UNLOCK(hdma);
 1780              		.loc 1 1033 0
 1781 0090 FB68     		ldr	r3, [r7, #12]
 1782 0092 0022     		movs	r2, #0
 1783 0094 83F83420 		strb	r2, [r3, #52]
1034:Drivers/STM32F7xx_HAL_Driver/Src/stm32f7xx_hal_dma.c ****   
1035:Drivers/STM32F7xx_HAL_Driver/Src/stm32f7xx_hal_dma.c ****   return status;
 1784              		.loc 1 1035 0
 1785 0098 FB7D     		ldrb	r3, [r7, #23]	@ zero_extendqisi2
 1786              	.L82:
1036:Drivers/STM32F7xx_HAL_Driver/Src/stm32f7xx_hal_dma.c **** }
 1787              		.loc 1 1036 0
 1788 009a 1846     		mov	r0, r3
 1789 009c 1C37     		adds	r7, r7, #28
 1790              	.LCFI44:
 1791              		.cfi_def_cfa_offset 4
 1792 009e BD46     		mov	sp, r7
 1793              	.LCFI45:
 1794              		.cfi_def_cfa_register 13
 1795              		@ sp needed
 1796 00a0 5DF8047B 		ldr	r7, [sp], #4
 1797              	.LCFI46:
 1798              		.cfi_restore 7
 1799              		.cfi_def_cfa_offset 0
 1800 00a4 7047     		bx	lr
 1801              		.cfi_endproc
 1802              	.LFE146:
 1804 00a6 00BF     		.section	.text.HAL_DMA_UnRegisterCallback,"ax",%progbits
 1805              		.align	1
 1806              		.global	HAL_DMA_UnRegisterCallback
 1807              		.syntax unified
 1808              		.thumb
 1809              		.thumb_func
 1810              		.fpu fpv5-sp-d16
 1812              	HAL_DMA_UnRegisterCallback:
 1813              	.LFB147:
1037:Drivers/STM32F7xx_HAL_Driver/Src/stm32f7xx_hal_dma.c **** 
1038:Drivers/STM32F7xx_HAL_Driver/Src/stm32f7xx_hal_dma.c **** /**
1039:Drivers/STM32F7xx_HAL_Driver/Src/stm32f7xx_hal_dma.c ****   * @brief  UnRegister callbacks
1040:Drivers/STM32F7xx_HAL_Driver/Src/stm32f7xx_hal_dma.c ****   * @param  hdma                 pointer to a DMA_HandleTypeDef structure that contains
1041:Drivers/STM32F7xx_HAL_Driver/Src/stm32f7xx_hal_dma.c ****   *                               the configuration information for the specified DMA Stream.
1042:Drivers/STM32F7xx_HAL_Driver/Src/stm32f7xx_hal_dma.c ****   * @param  CallbackID           User Callback identifer
1043:Drivers/STM32F7xx_HAL_Driver/Src/stm32f7xx_hal_dma.c ****   *                               a HAL_DMA_CallbackIDTypeDef ENUM as parameter.
1044:Drivers/STM32F7xx_HAL_Driver/Src/stm32f7xx_hal_dma.c ****   * @retval HAL status
1045:Drivers/STM32F7xx_HAL_Driver/Src/stm32f7xx_hal_dma.c ****   */              
ARM GAS  /var/folders/n8/cvzdcwlj0vl4g_wtyz1ffy300000gn/T//ccZxLSjg.s 			page 51


1046:Drivers/STM32F7xx_HAL_Driver/Src/stm32f7xx_hal_dma.c **** HAL_StatusTypeDef HAL_DMA_UnRegisterCallback(DMA_HandleTypeDef *hdma, HAL_DMA_CallbackIDTypeDef Cal
1047:Drivers/STM32F7xx_HAL_Driver/Src/stm32f7xx_hal_dma.c **** {
 1814              		.loc 1 1047 0
 1815              		.cfi_startproc
 1816              		@ args = 0, pretend = 0, frame = 16
 1817              		@ frame_needed = 1, uses_anonymous_args = 0
 1818              		@ link register save eliminated.
 1819 0000 80B4     		push	{r7}
 1820              	.LCFI47:
 1821              		.cfi_def_cfa_offset 4
 1822              		.cfi_offset 7, -4
 1823 0002 85B0     		sub	sp, sp, #20
 1824              	.LCFI48:
 1825              		.cfi_def_cfa_offset 24
 1826 0004 00AF     		add	r7, sp, #0
 1827              	.LCFI49:
 1828              		.cfi_def_cfa_register 7
 1829 0006 7860     		str	r0, [r7, #4]
 1830 0008 0B46     		mov	r3, r1
 1831 000a FB70     		strb	r3, [r7, #3]
1048:Drivers/STM32F7xx_HAL_Driver/Src/stm32f7xx_hal_dma.c ****   HAL_StatusTypeDef status = HAL_OK;
 1832              		.loc 1 1048 0
 1833 000c 0023     		movs	r3, #0
 1834 000e FB73     		strb	r3, [r7, #15]
1049:Drivers/STM32F7xx_HAL_Driver/Src/stm32f7xx_hal_dma.c ****   
1050:Drivers/STM32F7xx_HAL_Driver/Src/stm32f7xx_hal_dma.c ****   /* Process locked */
1051:Drivers/STM32F7xx_HAL_Driver/Src/stm32f7xx_hal_dma.c ****   __HAL_LOCK(hdma);
 1835              		.loc 1 1051 0
 1836 0010 7B68     		ldr	r3, [r7, #4]
 1837 0012 93F83430 		ldrb	r3, [r3, #52]	@ zero_extendqisi2
 1838 0016 012B     		cmp	r3, #1
 1839 0018 01D1     		bne	.L96
 1840              		.loc 1 1051 0 is_stmt 0 discriminator 1
 1841 001a 0223     		movs	r3, #2
 1842 001c 54E0     		b	.L97
 1843              	.L96:
 1844              		.loc 1 1051 0 discriminator 2
 1845 001e 7B68     		ldr	r3, [r7, #4]
 1846 0020 0122     		movs	r2, #1
 1847 0022 83F83420 		strb	r2, [r3, #52]
1052:Drivers/STM32F7xx_HAL_Driver/Src/stm32f7xx_hal_dma.c ****   
1053:Drivers/STM32F7xx_HAL_Driver/Src/stm32f7xx_hal_dma.c ****   if(HAL_DMA_STATE_READY == hdma->State)
 1848              		.loc 1 1053 0 is_stmt 1 discriminator 2
 1849 0026 7B68     		ldr	r3, [r7, #4]
 1850 0028 93F83530 		ldrb	r3, [r3, #53]
 1851 002c DBB2     		uxtb	r3, r3
 1852 002e 012B     		cmp	r3, #1
 1853 0030 43D1     		bne	.L98
1054:Drivers/STM32F7xx_HAL_Driver/Src/stm32f7xx_hal_dma.c ****   {
1055:Drivers/STM32F7xx_HAL_Driver/Src/stm32f7xx_hal_dma.c ****     switch (CallbackID)
 1854              		.loc 1 1055 0
 1855 0032 FB78     		ldrb	r3, [r7, #3]	@ zero_extendqisi2
 1856 0034 062B     		cmp	r3, #6
 1857 0036 3CD8     		bhi	.L99
 1858 0038 01A2     		adr	r2, .L101
 1859 003a 52F823F0 		ldr	pc, [r2, r3, lsl #2]
 1860 003e 00BF     		.p2align 2
ARM GAS  /var/folders/n8/cvzdcwlj0vl4g_wtyz1ffy300000gn/T//ccZxLSjg.s 			page 52


 1861              	.L101:
 1862 0040 5D000000 		.word	.L100+1
 1863 0044 65000000 		.word	.L102+1
 1864 0048 6D000000 		.word	.L103+1
 1865 004c 75000000 		.word	.L104+1
 1866 0050 7D000000 		.word	.L105+1
 1867 0054 85000000 		.word	.L106+1
 1868 0058 8D000000 		.word	.L107+1
 1869              		.p2align 1
 1870              	.L100:
1056:Drivers/STM32F7xx_HAL_Driver/Src/stm32f7xx_hal_dma.c ****     {
1057:Drivers/STM32F7xx_HAL_Driver/Src/stm32f7xx_hal_dma.c ****     case  HAL_DMA_XFER_CPLT_CB_ID:
1058:Drivers/STM32F7xx_HAL_Driver/Src/stm32f7xx_hal_dma.c ****       hdma->XferCpltCallback = NULL;
 1871              		.loc 1 1058 0
 1872 005c 7B68     		ldr	r3, [r7, #4]
 1873 005e 0022     		movs	r2, #0
 1874 0060 DA63     		str	r2, [r3, #60]
1059:Drivers/STM32F7xx_HAL_Driver/Src/stm32f7xx_hal_dma.c ****       break;
 1875              		.loc 1 1059 0
 1876 0062 2CE0     		b	.L109
 1877              	.L102:
1060:Drivers/STM32F7xx_HAL_Driver/Src/stm32f7xx_hal_dma.c ****       
1061:Drivers/STM32F7xx_HAL_Driver/Src/stm32f7xx_hal_dma.c ****     case  HAL_DMA_XFER_HALFCPLT_CB_ID:
1062:Drivers/STM32F7xx_HAL_Driver/Src/stm32f7xx_hal_dma.c ****       hdma->XferHalfCpltCallback = NULL;
 1878              		.loc 1 1062 0
 1879 0064 7B68     		ldr	r3, [r7, #4]
 1880 0066 0022     		movs	r2, #0
 1881 0068 1A64     		str	r2, [r3, #64]
1063:Drivers/STM32F7xx_HAL_Driver/Src/stm32f7xx_hal_dma.c ****       break;
 1882              		.loc 1 1063 0
 1883 006a 28E0     		b	.L109
 1884              	.L103:
1064:Drivers/STM32F7xx_HAL_Driver/Src/stm32f7xx_hal_dma.c ****       
1065:Drivers/STM32F7xx_HAL_Driver/Src/stm32f7xx_hal_dma.c ****     case  HAL_DMA_XFER_M1CPLT_CB_ID:
1066:Drivers/STM32F7xx_HAL_Driver/Src/stm32f7xx_hal_dma.c ****       hdma->XferM1CpltCallback = NULL;
 1885              		.loc 1 1066 0
 1886 006c 7B68     		ldr	r3, [r7, #4]
 1887 006e 0022     		movs	r2, #0
 1888 0070 5A64     		str	r2, [r3, #68]
1067:Drivers/STM32F7xx_HAL_Driver/Src/stm32f7xx_hal_dma.c ****       break;
 1889              		.loc 1 1067 0
 1890 0072 24E0     		b	.L109
 1891              	.L104:
1068:Drivers/STM32F7xx_HAL_Driver/Src/stm32f7xx_hal_dma.c ****       
1069:Drivers/STM32F7xx_HAL_Driver/Src/stm32f7xx_hal_dma.c ****     case  HAL_DMA_XFER_M1HALFCPLT_CB_ID:
1070:Drivers/STM32F7xx_HAL_Driver/Src/stm32f7xx_hal_dma.c ****       hdma->XferM1HalfCpltCallback = NULL;
 1892              		.loc 1 1070 0
 1893 0074 7B68     		ldr	r3, [r7, #4]
 1894 0076 0022     		movs	r2, #0
 1895 0078 9A64     		str	r2, [r3, #72]
1071:Drivers/STM32F7xx_HAL_Driver/Src/stm32f7xx_hal_dma.c ****       break;
 1896              		.loc 1 1071 0
 1897 007a 20E0     		b	.L109
 1898              	.L105:
1072:Drivers/STM32F7xx_HAL_Driver/Src/stm32f7xx_hal_dma.c ****       
1073:Drivers/STM32F7xx_HAL_Driver/Src/stm32f7xx_hal_dma.c ****     case  HAL_DMA_XFER_ERROR_CB_ID:
1074:Drivers/STM32F7xx_HAL_Driver/Src/stm32f7xx_hal_dma.c ****       hdma->XferErrorCallback = NULL;
ARM GAS  /var/folders/n8/cvzdcwlj0vl4g_wtyz1ffy300000gn/T//ccZxLSjg.s 			page 53


 1899              		.loc 1 1074 0
 1900 007c 7B68     		ldr	r3, [r7, #4]
 1901 007e 0022     		movs	r2, #0
 1902 0080 DA64     		str	r2, [r3, #76]
1075:Drivers/STM32F7xx_HAL_Driver/Src/stm32f7xx_hal_dma.c ****       break;
 1903              		.loc 1 1075 0
 1904 0082 1CE0     		b	.L109
 1905              	.L106:
1076:Drivers/STM32F7xx_HAL_Driver/Src/stm32f7xx_hal_dma.c ****       
1077:Drivers/STM32F7xx_HAL_Driver/Src/stm32f7xx_hal_dma.c ****     case  HAL_DMA_XFER_ABORT_CB_ID:
1078:Drivers/STM32F7xx_HAL_Driver/Src/stm32f7xx_hal_dma.c ****       hdma->XferAbortCallback = NULL;
 1906              		.loc 1 1078 0
 1907 0084 7B68     		ldr	r3, [r7, #4]
 1908 0086 0022     		movs	r2, #0
 1909 0088 1A65     		str	r2, [r3, #80]
1079:Drivers/STM32F7xx_HAL_Driver/Src/stm32f7xx_hal_dma.c ****       break; 
 1910              		.loc 1 1079 0
 1911 008a 18E0     		b	.L109
 1912              	.L107:
1080:Drivers/STM32F7xx_HAL_Driver/Src/stm32f7xx_hal_dma.c ****       
1081:Drivers/STM32F7xx_HAL_Driver/Src/stm32f7xx_hal_dma.c ****     case   HAL_DMA_XFER_ALL_CB_ID:
1082:Drivers/STM32F7xx_HAL_Driver/Src/stm32f7xx_hal_dma.c ****       hdma->XferCpltCallback = NULL;
 1913              		.loc 1 1082 0
 1914 008c 7B68     		ldr	r3, [r7, #4]
 1915 008e 0022     		movs	r2, #0
 1916 0090 DA63     		str	r2, [r3, #60]
1083:Drivers/STM32F7xx_HAL_Driver/Src/stm32f7xx_hal_dma.c ****       hdma->XferHalfCpltCallback = NULL;
 1917              		.loc 1 1083 0
 1918 0092 7B68     		ldr	r3, [r7, #4]
 1919 0094 0022     		movs	r2, #0
 1920 0096 1A64     		str	r2, [r3, #64]
1084:Drivers/STM32F7xx_HAL_Driver/Src/stm32f7xx_hal_dma.c ****       hdma->XferM1CpltCallback = NULL;
 1921              		.loc 1 1084 0
 1922 0098 7B68     		ldr	r3, [r7, #4]
 1923 009a 0022     		movs	r2, #0
 1924 009c 5A64     		str	r2, [r3, #68]
1085:Drivers/STM32F7xx_HAL_Driver/Src/stm32f7xx_hal_dma.c ****       hdma->XferM1HalfCpltCallback = NULL;
 1925              		.loc 1 1085 0
 1926 009e 7B68     		ldr	r3, [r7, #4]
 1927 00a0 0022     		movs	r2, #0
 1928 00a2 9A64     		str	r2, [r3, #72]
1086:Drivers/STM32F7xx_HAL_Driver/Src/stm32f7xx_hal_dma.c ****       hdma->XferErrorCallback = NULL;
 1929              		.loc 1 1086 0
 1930 00a4 7B68     		ldr	r3, [r7, #4]
 1931 00a6 0022     		movs	r2, #0
 1932 00a8 DA64     		str	r2, [r3, #76]
1087:Drivers/STM32F7xx_HAL_Driver/Src/stm32f7xx_hal_dma.c ****       hdma->XferAbortCallback = NULL;
 1933              		.loc 1 1087 0
 1934 00aa 7B68     		ldr	r3, [r7, #4]
 1935 00ac 0022     		movs	r2, #0
 1936 00ae 1A65     		str	r2, [r3, #80]
1088:Drivers/STM32F7xx_HAL_Driver/Src/stm32f7xx_hal_dma.c ****       break; 
 1937              		.loc 1 1088 0
 1938 00b0 05E0     		b	.L109
 1939              	.L99:
1089:Drivers/STM32F7xx_HAL_Driver/Src/stm32f7xx_hal_dma.c ****       
1090:Drivers/STM32F7xx_HAL_Driver/Src/stm32f7xx_hal_dma.c ****     default:
ARM GAS  /var/folders/n8/cvzdcwlj0vl4g_wtyz1ffy300000gn/T//ccZxLSjg.s 			page 54


1091:Drivers/STM32F7xx_HAL_Driver/Src/stm32f7xx_hal_dma.c ****       status = HAL_ERROR;
 1940              		.loc 1 1091 0
 1941 00b2 0123     		movs	r3, #1
 1942 00b4 FB73     		strb	r3, [r7, #15]
1092:Drivers/STM32F7xx_HAL_Driver/Src/stm32f7xx_hal_dma.c ****       break;
 1943              		.loc 1 1092 0
 1944 00b6 00BF     		nop
 1945 00b8 01E0     		b	.L109
 1946              	.L98:
1093:Drivers/STM32F7xx_HAL_Driver/Src/stm32f7xx_hal_dma.c ****     }
1094:Drivers/STM32F7xx_HAL_Driver/Src/stm32f7xx_hal_dma.c ****   }
1095:Drivers/STM32F7xx_HAL_Driver/Src/stm32f7xx_hal_dma.c ****   else
1096:Drivers/STM32F7xx_HAL_Driver/Src/stm32f7xx_hal_dma.c ****   {
1097:Drivers/STM32F7xx_HAL_Driver/Src/stm32f7xx_hal_dma.c ****     status = HAL_ERROR;
 1947              		.loc 1 1097 0
 1948 00ba 0123     		movs	r3, #1
 1949 00bc FB73     		strb	r3, [r7, #15]
 1950              	.L109:
1098:Drivers/STM32F7xx_HAL_Driver/Src/stm32f7xx_hal_dma.c ****   }
1099:Drivers/STM32F7xx_HAL_Driver/Src/stm32f7xx_hal_dma.c ****   
1100:Drivers/STM32F7xx_HAL_Driver/Src/stm32f7xx_hal_dma.c ****   /* Release Lock */
1101:Drivers/STM32F7xx_HAL_Driver/Src/stm32f7xx_hal_dma.c ****   __HAL_UNLOCK(hdma);
 1951              		.loc 1 1101 0
 1952 00be 7B68     		ldr	r3, [r7, #4]
 1953 00c0 0022     		movs	r2, #0
 1954 00c2 83F83420 		strb	r2, [r3, #52]
1102:Drivers/STM32F7xx_HAL_Driver/Src/stm32f7xx_hal_dma.c ****   
1103:Drivers/STM32F7xx_HAL_Driver/Src/stm32f7xx_hal_dma.c ****   return status;
 1955              		.loc 1 1103 0
 1956 00c6 FB7B     		ldrb	r3, [r7, #15]	@ zero_extendqisi2
 1957              	.L97:
1104:Drivers/STM32F7xx_HAL_Driver/Src/stm32f7xx_hal_dma.c **** }
 1958              		.loc 1 1104 0
 1959 00c8 1846     		mov	r0, r3
 1960 00ca 1437     		adds	r7, r7, #20
 1961              	.LCFI50:
 1962              		.cfi_def_cfa_offset 4
 1963 00cc BD46     		mov	sp, r7
 1964              	.LCFI51:
 1965              		.cfi_def_cfa_register 13
 1966              		@ sp needed
 1967 00ce 5DF8047B 		ldr	r7, [sp], #4
 1968              	.LCFI52:
 1969              		.cfi_restore 7
 1970              		.cfi_def_cfa_offset 0
 1971 00d2 7047     		bx	lr
 1972              		.cfi_endproc
 1973              	.LFE147:
 1975              		.section	.text.HAL_DMA_GetState,"ax",%progbits
 1976              		.align	1
 1977              		.global	HAL_DMA_GetState
 1978              		.syntax unified
 1979              		.thumb
 1980              		.thumb_func
 1981              		.fpu fpv5-sp-d16
 1983              	HAL_DMA_GetState:
 1984              	.LFB148:
ARM GAS  /var/folders/n8/cvzdcwlj0vl4g_wtyz1ffy300000gn/T//ccZxLSjg.s 			page 55


1105:Drivers/STM32F7xx_HAL_Driver/Src/stm32f7xx_hal_dma.c **** 
1106:Drivers/STM32F7xx_HAL_Driver/Src/stm32f7xx_hal_dma.c **** /**
1107:Drivers/STM32F7xx_HAL_Driver/Src/stm32f7xx_hal_dma.c ****   * @}
1108:Drivers/STM32F7xx_HAL_Driver/Src/stm32f7xx_hal_dma.c ****   */
1109:Drivers/STM32F7xx_HAL_Driver/Src/stm32f7xx_hal_dma.c **** 
1110:Drivers/STM32F7xx_HAL_Driver/Src/stm32f7xx_hal_dma.c **** /** @addtogroup DMA_Exported_Functions_Group3
1111:Drivers/STM32F7xx_HAL_Driver/Src/stm32f7xx_hal_dma.c ****   *
1112:Drivers/STM32F7xx_HAL_Driver/Src/stm32f7xx_hal_dma.c **** @verbatim
1113:Drivers/STM32F7xx_HAL_Driver/Src/stm32f7xx_hal_dma.c ****  ===============================================================================
1114:Drivers/STM32F7xx_HAL_Driver/Src/stm32f7xx_hal_dma.c ****                     ##### State and Errors functions #####
1115:Drivers/STM32F7xx_HAL_Driver/Src/stm32f7xx_hal_dma.c ****  ===============================================================================
1116:Drivers/STM32F7xx_HAL_Driver/Src/stm32f7xx_hal_dma.c ****     [..]
1117:Drivers/STM32F7xx_HAL_Driver/Src/stm32f7xx_hal_dma.c ****     This subsection provides functions allowing to
1118:Drivers/STM32F7xx_HAL_Driver/Src/stm32f7xx_hal_dma.c ****       (+) Check the DMA state
1119:Drivers/STM32F7xx_HAL_Driver/Src/stm32f7xx_hal_dma.c ****       (+) Get error code
1120:Drivers/STM32F7xx_HAL_Driver/Src/stm32f7xx_hal_dma.c **** 
1121:Drivers/STM32F7xx_HAL_Driver/Src/stm32f7xx_hal_dma.c **** @endverbatim
1122:Drivers/STM32F7xx_HAL_Driver/Src/stm32f7xx_hal_dma.c ****   * @{
1123:Drivers/STM32F7xx_HAL_Driver/Src/stm32f7xx_hal_dma.c ****   */
1124:Drivers/STM32F7xx_HAL_Driver/Src/stm32f7xx_hal_dma.c **** 
1125:Drivers/STM32F7xx_HAL_Driver/Src/stm32f7xx_hal_dma.c **** /**
1126:Drivers/STM32F7xx_HAL_Driver/Src/stm32f7xx_hal_dma.c ****   * @brief  Returns the DMA state.
1127:Drivers/STM32F7xx_HAL_Driver/Src/stm32f7xx_hal_dma.c ****   * @param  hdma pointer to a DMA_HandleTypeDef structure that contains
1128:Drivers/STM32F7xx_HAL_Driver/Src/stm32f7xx_hal_dma.c ****   *               the configuration information for the specified DMA Stream.
1129:Drivers/STM32F7xx_HAL_Driver/Src/stm32f7xx_hal_dma.c ****   * @retval HAL state
1130:Drivers/STM32F7xx_HAL_Driver/Src/stm32f7xx_hal_dma.c ****   */
1131:Drivers/STM32F7xx_HAL_Driver/Src/stm32f7xx_hal_dma.c **** HAL_DMA_StateTypeDef HAL_DMA_GetState(DMA_HandleTypeDef *hdma)
1132:Drivers/STM32F7xx_HAL_Driver/Src/stm32f7xx_hal_dma.c **** {
 1985              		.loc 1 1132 0
 1986              		.cfi_startproc
 1987              		@ args = 0, pretend = 0, frame = 8
 1988              		@ frame_needed = 1, uses_anonymous_args = 0
 1989              		@ link register save eliminated.
 1990 0000 80B4     		push	{r7}
 1991              	.LCFI53:
 1992              		.cfi_def_cfa_offset 4
 1993              		.cfi_offset 7, -4
 1994 0002 83B0     		sub	sp, sp, #12
 1995              	.LCFI54:
 1996              		.cfi_def_cfa_offset 16
 1997 0004 00AF     		add	r7, sp, #0
 1998              	.LCFI55:
 1999              		.cfi_def_cfa_register 7
 2000 0006 7860     		str	r0, [r7, #4]
1133:Drivers/STM32F7xx_HAL_Driver/Src/stm32f7xx_hal_dma.c ****   return hdma->State;
 2001              		.loc 1 1133 0
 2002 0008 7B68     		ldr	r3, [r7, #4]
 2003 000a 93F83530 		ldrb	r3, [r3, #53]
 2004 000e DBB2     		uxtb	r3, r3
1134:Drivers/STM32F7xx_HAL_Driver/Src/stm32f7xx_hal_dma.c **** }
 2005              		.loc 1 1134 0
 2006 0010 1846     		mov	r0, r3
 2007 0012 0C37     		adds	r7, r7, #12
 2008              	.LCFI56:
 2009              		.cfi_def_cfa_offset 4
 2010 0014 BD46     		mov	sp, r7
 2011              	.LCFI57:
ARM GAS  /var/folders/n8/cvzdcwlj0vl4g_wtyz1ffy300000gn/T//ccZxLSjg.s 			page 56


 2012              		.cfi_def_cfa_register 13
 2013              		@ sp needed
 2014 0016 5DF8047B 		ldr	r7, [sp], #4
 2015              	.LCFI58:
 2016              		.cfi_restore 7
 2017              		.cfi_def_cfa_offset 0
 2018 001a 7047     		bx	lr
 2019              		.cfi_endproc
 2020              	.LFE148:
 2022              		.section	.text.HAL_DMA_GetError,"ax",%progbits
 2023              		.align	1
 2024              		.global	HAL_DMA_GetError
 2025              		.syntax unified
 2026              		.thumb
 2027              		.thumb_func
 2028              		.fpu fpv5-sp-d16
 2030              	HAL_DMA_GetError:
 2031              	.LFB149:
1135:Drivers/STM32F7xx_HAL_Driver/Src/stm32f7xx_hal_dma.c **** 
1136:Drivers/STM32F7xx_HAL_Driver/Src/stm32f7xx_hal_dma.c **** /**
1137:Drivers/STM32F7xx_HAL_Driver/Src/stm32f7xx_hal_dma.c ****   * @brief  Return the DMA error code
1138:Drivers/STM32F7xx_HAL_Driver/Src/stm32f7xx_hal_dma.c ****   * @param  hdma  pointer to a DMA_HandleTypeDef structure that contains
1139:Drivers/STM32F7xx_HAL_Driver/Src/stm32f7xx_hal_dma.c ****   *              the configuration information for the specified DMA Stream.
1140:Drivers/STM32F7xx_HAL_Driver/Src/stm32f7xx_hal_dma.c ****   * @retval DMA Error Code
1141:Drivers/STM32F7xx_HAL_Driver/Src/stm32f7xx_hal_dma.c ****   */
1142:Drivers/STM32F7xx_HAL_Driver/Src/stm32f7xx_hal_dma.c **** uint32_t HAL_DMA_GetError(DMA_HandleTypeDef *hdma)
1143:Drivers/STM32F7xx_HAL_Driver/Src/stm32f7xx_hal_dma.c **** {
 2032              		.loc 1 1143 0
 2033              		.cfi_startproc
 2034              		@ args = 0, pretend = 0, frame = 8
 2035              		@ frame_needed = 1, uses_anonymous_args = 0
 2036              		@ link register save eliminated.
 2037 0000 80B4     		push	{r7}
 2038              	.LCFI59:
 2039              		.cfi_def_cfa_offset 4
 2040              		.cfi_offset 7, -4
 2041 0002 83B0     		sub	sp, sp, #12
 2042              	.LCFI60:
 2043              		.cfi_def_cfa_offset 16
 2044 0004 00AF     		add	r7, sp, #0
 2045              	.LCFI61:
 2046              		.cfi_def_cfa_register 7
 2047 0006 7860     		str	r0, [r7, #4]
1144:Drivers/STM32F7xx_HAL_Driver/Src/stm32f7xx_hal_dma.c ****   return hdma->ErrorCode;
 2048              		.loc 1 1144 0
 2049 0008 7B68     		ldr	r3, [r7, #4]
 2050 000a 5B6D     		ldr	r3, [r3, #84]
1145:Drivers/STM32F7xx_HAL_Driver/Src/stm32f7xx_hal_dma.c **** }
 2051              		.loc 1 1145 0
 2052 000c 1846     		mov	r0, r3
 2053 000e 0C37     		adds	r7, r7, #12
 2054              	.LCFI62:
 2055              		.cfi_def_cfa_offset 4
 2056 0010 BD46     		mov	sp, r7
 2057              	.LCFI63:
 2058              		.cfi_def_cfa_register 13
 2059              		@ sp needed
ARM GAS  /var/folders/n8/cvzdcwlj0vl4g_wtyz1ffy300000gn/T//ccZxLSjg.s 			page 57


 2060 0012 5DF8047B 		ldr	r7, [sp], #4
 2061              	.LCFI64:
 2062              		.cfi_restore 7
 2063              		.cfi_def_cfa_offset 0
 2064 0016 7047     		bx	lr
 2065              		.cfi_endproc
 2066              	.LFE149:
 2068              		.section	.text.DMA_SetConfig,"ax",%progbits
 2069              		.align	1
 2070              		.syntax unified
 2071              		.thumb
 2072              		.thumb_func
 2073              		.fpu fpv5-sp-d16
 2075              	DMA_SetConfig:
 2076              	.LFB150:
1146:Drivers/STM32F7xx_HAL_Driver/Src/stm32f7xx_hal_dma.c **** 
1147:Drivers/STM32F7xx_HAL_Driver/Src/stm32f7xx_hal_dma.c **** /**
1148:Drivers/STM32F7xx_HAL_Driver/Src/stm32f7xx_hal_dma.c ****   * @}
1149:Drivers/STM32F7xx_HAL_Driver/Src/stm32f7xx_hal_dma.c ****   */
1150:Drivers/STM32F7xx_HAL_Driver/Src/stm32f7xx_hal_dma.c **** 
1151:Drivers/STM32F7xx_HAL_Driver/Src/stm32f7xx_hal_dma.c **** /**
1152:Drivers/STM32F7xx_HAL_Driver/Src/stm32f7xx_hal_dma.c ****   * @}
1153:Drivers/STM32F7xx_HAL_Driver/Src/stm32f7xx_hal_dma.c ****   */
1154:Drivers/STM32F7xx_HAL_Driver/Src/stm32f7xx_hal_dma.c **** 
1155:Drivers/STM32F7xx_HAL_Driver/Src/stm32f7xx_hal_dma.c **** /** @addtogroup DMA_Private_Functions
1156:Drivers/STM32F7xx_HAL_Driver/Src/stm32f7xx_hal_dma.c ****   * @{
1157:Drivers/STM32F7xx_HAL_Driver/Src/stm32f7xx_hal_dma.c ****   */
1158:Drivers/STM32F7xx_HAL_Driver/Src/stm32f7xx_hal_dma.c **** 
1159:Drivers/STM32F7xx_HAL_Driver/Src/stm32f7xx_hal_dma.c **** /**
1160:Drivers/STM32F7xx_HAL_Driver/Src/stm32f7xx_hal_dma.c ****   * @brief  Sets the DMA Transfer parameter.
1161:Drivers/STM32F7xx_HAL_Driver/Src/stm32f7xx_hal_dma.c ****   * @param  hdma       pointer to a DMA_HandleTypeDef structure that contains
1162:Drivers/STM32F7xx_HAL_Driver/Src/stm32f7xx_hal_dma.c ****   *                     the configuration information for the specified DMA Stream.
1163:Drivers/STM32F7xx_HAL_Driver/Src/stm32f7xx_hal_dma.c ****   * @param  SrcAddress The source memory Buffer address
1164:Drivers/STM32F7xx_HAL_Driver/Src/stm32f7xx_hal_dma.c ****   * @param  DstAddress The destination memory Buffer address
1165:Drivers/STM32F7xx_HAL_Driver/Src/stm32f7xx_hal_dma.c ****   * @param  DataLength The length of data to be transferred from source to destination
1166:Drivers/STM32F7xx_HAL_Driver/Src/stm32f7xx_hal_dma.c ****   * @retval HAL status
1167:Drivers/STM32F7xx_HAL_Driver/Src/stm32f7xx_hal_dma.c ****   */
1168:Drivers/STM32F7xx_HAL_Driver/Src/stm32f7xx_hal_dma.c **** static void DMA_SetConfig(DMA_HandleTypeDef *hdma, uint32_t SrcAddress, uint32_t DstAddress, uint32
1169:Drivers/STM32F7xx_HAL_Driver/Src/stm32f7xx_hal_dma.c **** {
 2077              		.loc 1 1169 0
 2078              		.cfi_startproc
 2079              		@ args = 0, pretend = 0, frame = 16
 2080              		@ frame_needed = 1, uses_anonymous_args = 0
 2081              		@ link register save eliminated.
 2082 0000 80B4     		push	{r7}
 2083              	.LCFI65:
 2084              		.cfi_def_cfa_offset 4
 2085              		.cfi_offset 7, -4
 2086 0002 85B0     		sub	sp, sp, #20
 2087              	.LCFI66:
 2088              		.cfi_def_cfa_offset 24
 2089 0004 00AF     		add	r7, sp, #0
 2090              	.LCFI67:
 2091              		.cfi_def_cfa_register 7
 2092 0006 F860     		str	r0, [r7, #12]
 2093 0008 B960     		str	r1, [r7, #8]
 2094 000a 7A60     		str	r2, [r7, #4]
ARM GAS  /var/folders/n8/cvzdcwlj0vl4g_wtyz1ffy300000gn/T//ccZxLSjg.s 			page 58


 2095 000c 3B60     		str	r3, [r7]
1170:Drivers/STM32F7xx_HAL_Driver/Src/stm32f7xx_hal_dma.c ****   /* Clear DBM bit */
1171:Drivers/STM32F7xx_HAL_Driver/Src/stm32f7xx_hal_dma.c ****   hdma->Instance->CR &= (uint32_t)(~DMA_SxCR_DBM);
 2096              		.loc 1 1171 0
 2097 000e FB68     		ldr	r3, [r7, #12]
 2098 0010 1B68     		ldr	r3, [r3]
 2099 0012 1A68     		ldr	r2, [r3]
 2100 0014 FB68     		ldr	r3, [r7, #12]
 2101 0016 1B68     		ldr	r3, [r3]
 2102 0018 22F48022 		bic	r2, r2, #262144
 2103 001c 1A60     		str	r2, [r3]
1172:Drivers/STM32F7xx_HAL_Driver/Src/stm32f7xx_hal_dma.c **** 
1173:Drivers/STM32F7xx_HAL_Driver/Src/stm32f7xx_hal_dma.c ****   /* Configure DMA Stream data length */
1174:Drivers/STM32F7xx_HAL_Driver/Src/stm32f7xx_hal_dma.c ****   hdma->Instance->NDTR = DataLength;
 2104              		.loc 1 1174 0
 2105 001e FB68     		ldr	r3, [r7, #12]
 2106 0020 1B68     		ldr	r3, [r3]
 2107 0022 3A68     		ldr	r2, [r7]
 2108 0024 5A60     		str	r2, [r3, #4]
1175:Drivers/STM32F7xx_HAL_Driver/Src/stm32f7xx_hal_dma.c **** 
1176:Drivers/STM32F7xx_HAL_Driver/Src/stm32f7xx_hal_dma.c ****   /* Memory to Peripheral */
1177:Drivers/STM32F7xx_HAL_Driver/Src/stm32f7xx_hal_dma.c ****   if((hdma->Init.Direction) == DMA_MEMORY_TO_PERIPH)
 2109              		.loc 1 1177 0
 2110 0026 FB68     		ldr	r3, [r7, #12]
 2111 0028 9B68     		ldr	r3, [r3, #8]
 2112 002a 402B     		cmp	r3, #64
 2113 002c 08D1     		bne	.L115
1178:Drivers/STM32F7xx_HAL_Driver/Src/stm32f7xx_hal_dma.c ****   {
1179:Drivers/STM32F7xx_HAL_Driver/Src/stm32f7xx_hal_dma.c ****     /* Configure DMA Stream destination address */
1180:Drivers/STM32F7xx_HAL_Driver/Src/stm32f7xx_hal_dma.c ****     hdma->Instance->PAR = DstAddress;
 2114              		.loc 1 1180 0
 2115 002e FB68     		ldr	r3, [r7, #12]
 2116 0030 1B68     		ldr	r3, [r3]
 2117 0032 7A68     		ldr	r2, [r7, #4]
 2118 0034 9A60     		str	r2, [r3, #8]
1181:Drivers/STM32F7xx_HAL_Driver/Src/stm32f7xx_hal_dma.c **** 
1182:Drivers/STM32F7xx_HAL_Driver/Src/stm32f7xx_hal_dma.c ****     /* Configure DMA Stream source address */
1183:Drivers/STM32F7xx_HAL_Driver/Src/stm32f7xx_hal_dma.c ****     hdma->Instance->M0AR = SrcAddress;
 2119              		.loc 1 1183 0
 2120 0036 FB68     		ldr	r3, [r7, #12]
 2121 0038 1B68     		ldr	r3, [r3]
 2122 003a BA68     		ldr	r2, [r7, #8]
 2123 003c DA60     		str	r2, [r3, #12]
1184:Drivers/STM32F7xx_HAL_Driver/Src/stm32f7xx_hal_dma.c ****   }
1185:Drivers/STM32F7xx_HAL_Driver/Src/stm32f7xx_hal_dma.c ****   /* Peripheral to Memory */
1186:Drivers/STM32F7xx_HAL_Driver/Src/stm32f7xx_hal_dma.c ****   else
1187:Drivers/STM32F7xx_HAL_Driver/Src/stm32f7xx_hal_dma.c ****   {
1188:Drivers/STM32F7xx_HAL_Driver/Src/stm32f7xx_hal_dma.c ****     /* Configure DMA Stream source address */
1189:Drivers/STM32F7xx_HAL_Driver/Src/stm32f7xx_hal_dma.c ****     hdma->Instance->PAR = SrcAddress;
1190:Drivers/STM32F7xx_HAL_Driver/Src/stm32f7xx_hal_dma.c **** 
1191:Drivers/STM32F7xx_HAL_Driver/Src/stm32f7xx_hal_dma.c ****     /* Configure DMA Stream destination address */
1192:Drivers/STM32F7xx_HAL_Driver/Src/stm32f7xx_hal_dma.c ****     hdma->Instance->M0AR = DstAddress;
1193:Drivers/STM32F7xx_HAL_Driver/Src/stm32f7xx_hal_dma.c ****   }
1194:Drivers/STM32F7xx_HAL_Driver/Src/stm32f7xx_hal_dma.c **** }
 2124              		.loc 1 1194 0
 2125 003e 07E0     		b	.L117
 2126              	.L115:
ARM GAS  /var/folders/n8/cvzdcwlj0vl4g_wtyz1ffy300000gn/T//ccZxLSjg.s 			page 59


1189:Drivers/STM32F7xx_HAL_Driver/Src/stm32f7xx_hal_dma.c **** 
 2127              		.loc 1 1189 0
 2128 0040 FB68     		ldr	r3, [r7, #12]
 2129 0042 1B68     		ldr	r3, [r3]
 2130 0044 BA68     		ldr	r2, [r7, #8]
 2131 0046 9A60     		str	r2, [r3, #8]
1192:Drivers/STM32F7xx_HAL_Driver/Src/stm32f7xx_hal_dma.c ****   }
 2132              		.loc 1 1192 0
 2133 0048 FB68     		ldr	r3, [r7, #12]
 2134 004a 1B68     		ldr	r3, [r3]
 2135 004c 7A68     		ldr	r2, [r7, #4]
 2136 004e DA60     		str	r2, [r3, #12]
 2137              	.L117:
 2138              		.loc 1 1194 0
 2139 0050 00BF     		nop
 2140 0052 1437     		adds	r7, r7, #20
 2141              	.LCFI68:
 2142              		.cfi_def_cfa_offset 4
 2143 0054 BD46     		mov	sp, r7
 2144              	.LCFI69:
 2145              		.cfi_def_cfa_register 13
 2146              		@ sp needed
 2147 0056 5DF8047B 		ldr	r7, [sp], #4
 2148              	.LCFI70:
 2149              		.cfi_restore 7
 2150              		.cfi_def_cfa_offset 0
 2151 005a 7047     		bx	lr
 2152              		.cfi_endproc
 2153              	.LFE150:
 2155              		.section	.text.DMA_CalcBaseAndBitshift,"ax",%progbits
 2156              		.align	1
 2157              		.syntax unified
 2158              		.thumb
 2159              		.thumb_func
 2160              		.fpu fpv5-sp-d16
 2162              	DMA_CalcBaseAndBitshift:
 2163              	.LFB151:
1195:Drivers/STM32F7xx_HAL_Driver/Src/stm32f7xx_hal_dma.c **** 
1196:Drivers/STM32F7xx_HAL_Driver/Src/stm32f7xx_hal_dma.c **** /**
1197:Drivers/STM32F7xx_HAL_Driver/Src/stm32f7xx_hal_dma.c ****   * @brief  Returns the DMA Stream base address depending on stream number
1198:Drivers/STM32F7xx_HAL_Driver/Src/stm32f7xx_hal_dma.c ****   * @param  hdma       pointer to a DMA_HandleTypeDef structure that contains
1199:Drivers/STM32F7xx_HAL_Driver/Src/stm32f7xx_hal_dma.c ****   *                     the configuration information for the specified DMA Stream. 
1200:Drivers/STM32F7xx_HAL_Driver/Src/stm32f7xx_hal_dma.c ****   * @retval Stream base address
1201:Drivers/STM32F7xx_HAL_Driver/Src/stm32f7xx_hal_dma.c ****   */
1202:Drivers/STM32F7xx_HAL_Driver/Src/stm32f7xx_hal_dma.c **** static uint32_t DMA_CalcBaseAndBitshift(DMA_HandleTypeDef *hdma)
1203:Drivers/STM32F7xx_HAL_Driver/Src/stm32f7xx_hal_dma.c **** {
 2164              		.loc 1 1203 0
 2165              		.cfi_startproc
 2166              		@ args = 0, pretend = 0, frame = 16
 2167              		@ frame_needed = 1, uses_anonymous_args = 0
 2168              		@ link register save eliminated.
 2169 0000 80B4     		push	{r7}
 2170              	.LCFI71:
 2171              		.cfi_def_cfa_offset 4
 2172              		.cfi_offset 7, -4
 2173 0002 85B0     		sub	sp, sp, #20
 2174              	.LCFI72:
ARM GAS  /var/folders/n8/cvzdcwlj0vl4g_wtyz1ffy300000gn/T//ccZxLSjg.s 			page 60


 2175              		.cfi_def_cfa_offset 24
 2176 0004 00AF     		add	r7, sp, #0
 2177              	.LCFI73:
 2178              		.cfi_def_cfa_register 7
 2179 0006 7860     		str	r0, [r7, #4]
1204:Drivers/STM32F7xx_HAL_Driver/Src/stm32f7xx_hal_dma.c ****   uint32_t stream_number = (((uint32_t)hdma->Instance & 0xFFU) - 16U) / 24U;
 2180              		.loc 1 1204 0
 2181 0008 7B68     		ldr	r3, [r7, #4]
 2182 000a 1B68     		ldr	r3, [r3]
 2183 000c DBB2     		uxtb	r3, r3
 2184 000e 103B     		subs	r3, r3, #16
 2185 0010 134A     		ldr	r2, .L122
 2186 0012 A2FB0323 		umull	r2, r3, r2, r3
 2187 0016 1B09     		lsrs	r3, r3, #4
 2188 0018 FB60     		str	r3, [r7, #12]
1205:Drivers/STM32F7xx_HAL_Driver/Src/stm32f7xx_hal_dma.c ****   
1206:Drivers/STM32F7xx_HAL_Driver/Src/stm32f7xx_hal_dma.c ****   /* lookup table for necessary bitshift of flags within status registers */
1207:Drivers/STM32F7xx_HAL_Driver/Src/stm32f7xx_hal_dma.c ****   static const uint8_t flagBitshiftOffset[8U] = {0U, 6U, 16U, 22U, 0U, 6U, 16U, 22U};
1208:Drivers/STM32F7xx_HAL_Driver/Src/stm32f7xx_hal_dma.c ****   hdma->StreamIndex = flagBitshiftOffset[stream_number];
 2189              		.loc 1 1208 0
 2190 001a 124A     		ldr	r2, .L122+4
 2191 001c FB68     		ldr	r3, [r7, #12]
 2192 001e 1344     		add	r3, r3, r2
 2193 0020 1B78     		ldrb	r3, [r3]	@ zero_extendqisi2
 2194 0022 1A46     		mov	r2, r3
 2195 0024 7B68     		ldr	r3, [r7, #4]
 2196 0026 DA65     		str	r2, [r3, #92]
1209:Drivers/STM32F7xx_HAL_Driver/Src/stm32f7xx_hal_dma.c ****   
1210:Drivers/STM32F7xx_HAL_Driver/Src/stm32f7xx_hal_dma.c ****   if (stream_number > 3U)
 2197              		.loc 1 1210 0
 2198 0028 FB68     		ldr	r3, [r7, #12]
 2199 002a 032B     		cmp	r3, #3
 2200 002c 08D9     		bls	.L119
1211:Drivers/STM32F7xx_HAL_Driver/Src/stm32f7xx_hal_dma.c ****   {
1212:Drivers/STM32F7xx_HAL_Driver/Src/stm32f7xx_hal_dma.c ****     /* return pointer to HISR and HIFCR */
1213:Drivers/STM32F7xx_HAL_Driver/Src/stm32f7xx_hal_dma.c ****     hdma->StreamBaseAddress = (((uint32_t)hdma->Instance & (uint32_t)(~0x3FFU)) + 4U);
 2201              		.loc 1 1213 0
 2202 002e 7B68     		ldr	r3, [r7, #4]
 2203 0030 1B68     		ldr	r3, [r3]
 2204 0032 1A46     		mov	r2, r3
 2205 0034 0C4B     		ldr	r3, .L122+8
 2206 0036 1340     		ands	r3, r3, r2
 2207 0038 1A1D     		adds	r2, r3, #4
 2208 003a 7B68     		ldr	r3, [r7, #4]
 2209 003c 9A65     		str	r2, [r3, #88]
 2210 003e 06E0     		b	.L120
 2211              	.L119:
1214:Drivers/STM32F7xx_HAL_Driver/Src/stm32f7xx_hal_dma.c ****   }
1215:Drivers/STM32F7xx_HAL_Driver/Src/stm32f7xx_hal_dma.c ****   else
1216:Drivers/STM32F7xx_HAL_Driver/Src/stm32f7xx_hal_dma.c ****   {
1217:Drivers/STM32F7xx_HAL_Driver/Src/stm32f7xx_hal_dma.c ****     /* return pointer to LISR and LIFCR */
1218:Drivers/STM32F7xx_HAL_Driver/Src/stm32f7xx_hal_dma.c ****     hdma->StreamBaseAddress = ((uint32_t)hdma->Instance & (uint32_t)(~0x3FFU));
 2212              		.loc 1 1218 0
 2213 0040 7B68     		ldr	r3, [r7, #4]
 2214 0042 1B68     		ldr	r3, [r3]
 2215 0044 1A46     		mov	r2, r3
 2216 0046 084B     		ldr	r3, .L122+8
ARM GAS  /var/folders/n8/cvzdcwlj0vl4g_wtyz1ffy300000gn/T//ccZxLSjg.s 			page 61


 2217 0048 1340     		ands	r3, r3, r2
 2218 004a 7A68     		ldr	r2, [r7, #4]
 2219 004c 9365     		str	r3, [r2, #88]
 2220              	.L120:
1219:Drivers/STM32F7xx_HAL_Driver/Src/stm32f7xx_hal_dma.c ****   }
1220:Drivers/STM32F7xx_HAL_Driver/Src/stm32f7xx_hal_dma.c ****   
1221:Drivers/STM32F7xx_HAL_Driver/Src/stm32f7xx_hal_dma.c ****   return hdma->StreamBaseAddress;
 2221              		.loc 1 1221 0
 2222 004e 7B68     		ldr	r3, [r7, #4]
 2223 0050 9B6D     		ldr	r3, [r3, #88]
1222:Drivers/STM32F7xx_HAL_Driver/Src/stm32f7xx_hal_dma.c **** }
 2224              		.loc 1 1222 0
 2225 0052 1846     		mov	r0, r3
 2226 0054 1437     		adds	r7, r7, #20
 2227              	.LCFI74:
 2228              		.cfi_def_cfa_offset 4
 2229 0056 BD46     		mov	sp, r7
 2230              	.LCFI75:
 2231              		.cfi_def_cfa_register 13
 2232              		@ sp needed
 2233 0058 5DF8047B 		ldr	r7, [sp], #4
 2234              	.LCFI76:
 2235              		.cfi_restore 7
 2236              		.cfi_def_cfa_offset 0
 2237 005c 7047     		bx	lr
 2238              	.L123:
 2239 005e 00BF     		.align	2
 2240              	.L122:
 2241 0060 ABAAAAAA 		.word	-1431655765
 2242 0064 00000000 		.word	flagBitshiftOffset.9272
 2243 0068 00FCFFFF 		.word	-1024
 2244              		.cfi_endproc
 2245              	.LFE151:
 2247              		.section	.text.DMA_CheckFifoParam,"ax",%progbits
 2248              		.align	1
 2249              		.syntax unified
 2250              		.thumb
 2251              		.thumb_func
 2252              		.fpu fpv5-sp-d16
 2254              	DMA_CheckFifoParam:
 2255              	.LFB152:
1223:Drivers/STM32F7xx_HAL_Driver/Src/stm32f7xx_hal_dma.c **** 
1224:Drivers/STM32F7xx_HAL_Driver/Src/stm32f7xx_hal_dma.c **** /**
1225:Drivers/STM32F7xx_HAL_Driver/Src/stm32f7xx_hal_dma.c ****   * @brief  Check compatibility between FIFO threshold level and size of the memory burst
1226:Drivers/STM32F7xx_HAL_Driver/Src/stm32f7xx_hal_dma.c ****   * @param  hdma       pointer to a DMA_HandleTypeDef structure that contains
1227:Drivers/STM32F7xx_HAL_Driver/Src/stm32f7xx_hal_dma.c ****   *                     the configuration information for the specified DMA Stream. 
1228:Drivers/STM32F7xx_HAL_Driver/Src/stm32f7xx_hal_dma.c ****   * @retval HAL status
1229:Drivers/STM32F7xx_HAL_Driver/Src/stm32f7xx_hal_dma.c ****   */
1230:Drivers/STM32F7xx_HAL_Driver/Src/stm32f7xx_hal_dma.c **** static HAL_StatusTypeDef DMA_CheckFifoParam(DMA_HandleTypeDef *hdma)
1231:Drivers/STM32F7xx_HAL_Driver/Src/stm32f7xx_hal_dma.c **** {
 2256              		.loc 1 1231 0
 2257              		.cfi_startproc
 2258              		@ args = 0, pretend = 0, frame = 16
 2259              		@ frame_needed = 1, uses_anonymous_args = 0
 2260              		@ link register save eliminated.
 2261 0000 80B4     		push	{r7}
 2262              	.LCFI77:
ARM GAS  /var/folders/n8/cvzdcwlj0vl4g_wtyz1ffy300000gn/T//ccZxLSjg.s 			page 62


 2263              		.cfi_def_cfa_offset 4
 2264              		.cfi_offset 7, -4
 2265 0002 85B0     		sub	sp, sp, #20
 2266              	.LCFI78:
 2267              		.cfi_def_cfa_offset 24
 2268 0004 00AF     		add	r7, sp, #0
 2269              	.LCFI79:
 2270              		.cfi_def_cfa_register 7
 2271 0006 7860     		str	r0, [r7, #4]
1232:Drivers/STM32F7xx_HAL_Driver/Src/stm32f7xx_hal_dma.c ****   HAL_StatusTypeDef status = HAL_OK;
 2272              		.loc 1 1232 0
 2273 0008 0023     		movs	r3, #0
 2274 000a FB73     		strb	r3, [r7, #15]
1233:Drivers/STM32F7xx_HAL_Driver/Src/stm32f7xx_hal_dma.c ****   uint32_t tmp = hdma->Init.FIFOThreshold;
 2275              		.loc 1 1233 0
 2276 000c 7B68     		ldr	r3, [r7, #4]
 2277 000e 9B6A     		ldr	r3, [r3, #40]
 2278 0010 BB60     		str	r3, [r7, #8]
1234:Drivers/STM32F7xx_HAL_Driver/Src/stm32f7xx_hal_dma.c ****   
1235:Drivers/STM32F7xx_HAL_Driver/Src/stm32f7xx_hal_dma.c ****   /* Memory Data size equal to Byte */
1236:Drivers/STM32F7xx_HAL_Driver/Src/stm32f7xx_hal_dma.c ****   if(hdma->Init.MemDataAlignment == DMA_MDATAALIGN_BYTE)
 2279              		.loc 1 1236 0
 2280 0012 7B68     		ldr	r3, [r7, #4]
 2281 0014 9B69     		ldr	r3, [r3, #24]
 2282 0016 002B     		cmp	r3, #0
 2283 0018 1FD1     		bne	.L125
1237:Drivers/STM32F7xx_HAL_Driver/Src/stm32f7xx_hal_dma.c ****   {
1238:Drivers/STM32F7xx_HAL_Driver/Src/stm32f7xx_hal_dma.c ****     switch (tmp)
 2284              		.loc 1 1238 0
 2285 001a BB68     		ldr	r3, [r7, #8]
 2286 001c 032B     		cmp	r3, #3
 2287 001e 55D8     		bhi	.L149
 2288 0020 01A2     		adr	r2, .L128
 2289 0022 52F823F0 		ldr	pc, [r2, r3, lsl #2]
 2290 0026 00BF     		.p2align 2
 2291              	.L128:
 2292 0028 39000000 		.word	.L127+1
 2293 002c 4B000000 		.word	.L129+1
 2294 0030 39000000 		.word	.L127+1
 2295 0034 CD000000 		.word	.L149+1
 2296              		.p2align 1
 2297              	.L127:
1239:Drivers/STM32F7xx_HAL_Driver/Src/stm32f7xx_hal_dma.c ****     {
1240:Drivers/STM32F7xx_HAL_Driver/Src/stm32f7xx_hal_dma.c ****     case DMA_FIFO_THRESHOLD_1QUARTERFULL:
1241:Drivers/STM32F7xx_HAL_Driver/Src/stm32f7xx_hal_dma.c ****     case DMA_FIFO_THRESHOLD_3QUARTERSFULL:
1242:Drivers/STM32F7xx_HAL_Driver/Src/stm32f7xx_hal_dma.c ****       if ((hdma->Init.MemBurst & DMA_SxCR_MBURST_1) == DMA_SxCR_MBURST_1)
 2298              		.loc 1 1242 0
 2299 0038 7B68     		ldr	r3, [r7, #4]
 2300 003a DB6A     		ldr	r3, [r3, #44]
 2301 003c 03F08073 		and	r3, r3, #16777216
 2302 0040 002B     		cmp	r3, #0
 2303 0042 45D0     		beq	.L150
1243:Drivers/STM32F7xx_HAL_Driver/Src/stm32f7xx_hal_dma.c ****       {
1244:Drivers/STM32F7xx_HAL_Driver/Src/stm32f7xx_hal_dma.c ****         status = HAL_ERROR;
 2304              		.loc 1 1244 0
 2305 0044 0123     		movs	r3, #1
 2306 0046 FB73     		strb	r3, [r7, #15]
ARM GAS  /var/folders/n8/cvzdcwlj0vl4g_wtyz1ffy300000gn/T//ccZxLSjg.s 			page 63


1245:Drivers/STM32F7xx_HAL_Driver/Src/stm32f7xx_hal_dma.c ****       }
1246:Drivers/STM32F7xx_HAL_Driver/Src/stm32f7xx_hal_dma.c ****       break;
 2307              		.loc 1 1246 0
 2308 0048 42E0     		b	.L150
 2309              	.L129:
1247:Drivers/STM32F7xx_HAL_Driver/Src/stm32f7xx_hal_dma.c ****     case DMA_FIFO_THRESHOLD_HALFFULL:
1248:Drivers/STM32F7xx_HAL_Driver/Src/stm32f7xx_hal_dma.c ****       if (hdma->Init.MemBurst == DMA_MBURST_INC16)
 2310              		.loc 1 1248 0
 2311 004a 7B68     		ldr	r3, [r7, #4]
 2312 004c DB6A     		ldr	r3, [r3, #44]
 2313 004e B3F1C07F 		cmp	r3, #25165824
 2314 0052 3FD1     		bne	.L151
1249:Drivers/STM32F7xx_HAL_Driver/Src/stm32f7xx_hal_dma.c ****       {
1250:Drivers/STM32F7xx_HAL_Driver/Src/stm32f7xx_hal_dma.c ****         status = HAL_ERROR;
 2315              		.loc 1 1250 0
 2316 0054 0123     		movs	r3, #1
 2317 0056 FB73     		strb	r3, [r7, #15]
1251:Drivers/STM32F7xx_HAL_Driver/Src/stm32f7xx_hal_dma.c ****       }
1252:Drivers/STM32F7xx_HAL_Driver/Src/stm32f7xx_hal_dma.c ****       break;
 2318              		.loc 1 1252 0
 2319 0058 3CE0     		b	.L151
 2320              	.L125:
1253:Drivers/STM32F7xx_HAL_Driver/Src/stm32f7xx_hal_dma.c ****     case DMA_FIFO_THRESHOLD_FULL:
1254:Drivers/STM32F7xx_HAL_Driver/Src/stm32f7xx_hal_dma.c ****       break;
1255:Drivers/STM32F7xx_HAL_Driver/Src/stm32f7xx_hal_dma.c ****     default:
1256:Drivers/STM32F7xx_HAL_Driver/Src/stm32f7xx_hal_dma.c ****       break;
1257:Drivers/STM32F7xx_HAL_Driver/Src/stm32f7xx_hal_dma.c ****     }
1258:Drivers/STM32F7xx_HAL_Driver/Src/stm32f7xx_hal_dma.c ****   }
1259:Drivers/STM32F7xx_HAL_Driver/Src/stm32f7xx_hal_dma.c ****   
1260:Drivers/STM32F7xx_HAL_Driver/Src/stm32f7xx_hal_dma.c ****   /* Memory Data size equal to Half-Word */
1261:Drivers/STM32F7xx_HAL_Driver/Src/stm32f7xx_hal_dma.c ****   else if (hdma->Init.MemDataAlignment == DMA_MDATAALIGN_HALFWORD)
 2321              		.loc 1 1261 0
 2322 005a 7B68     		ldr	r3, [r7, #4]
 2323 005c 9B69     		ldr	r3, [r3, #24]
 2324 005e B3F5005F 		cmp	r3, #8192
 2325 0062 21D1     		bne	.L135
1262:Drivers/STM32F7xx_HAL_Driver/Src/stm32f7xx_hal_dma.c ****   {
1263:Drivers/STM32F7xx_HAL_Driver/Src/stm32f7xx_hal_dma.c ****     switch (tmp)
 2326              		.loc 1 1263 0
 2327 0064 BB68     		ldr	r3, [r7, #8]
 2328 0066 032B     		cmp	r3, #3
 2329 0068 36D8     		bhi	.L152
 2330 006a 01A2     		adr	r2, .L138
 2331 006c 52F823F0 		ldr	pc, [r2, r3, lsl #2]
 2332              		.p2align 2
 2333              	.L138:
 2334 0070 81000000 		.word	.L137+1
 2335 0074 87000000 		.word	.L139+1
 2336 0078 81000000 		.word	.L137+1
 2337 007c 99000000 		.word	.L140+1
 2338              		.p2align 1
 2339              	.L137:
1264:Drivers/STM32F7xx_HAL_Driver/Src/stm32f7xx_hal_dma.c ****     {
1265:Drivers/STM32F7xx_HAL_Driver/Src/stm32f7xx_hal_dma.c ****     case DMA_FIFO_THRESHOLD_1QUARTERFULL:
1266:Drivers/STM32F7xx_HAL_Driver/Src/stm32f7xx_hal_dma.c ****     case DMA_FIFO_THRESHOLD_3QUARTERSFULL:
1267:Drivers/STM32F7xx_HAL_Driver/Src/stm32f7xx_hal_dma.c ****       status = HAL_ERROR;
 2340              		.loc 1 1267 0
ARM GAS  /var/folders/n8/cvzdcwlj0vl4g_wtyz1ffy300000gn/T//ccZxLSjg.s 			page 64


 2341 0080 0123     		movs	r3, #1
 2342 0082 FB73     		strb	r3, [r7, #15]
1268:Drivers/STM32F7xx_HAL_Driver/Src/stm32f7xx_hal_dma.c ****       break;
 2343              		.loc 1 1268 0
 2344 0084 2FE0     		b	.L134
 2345              	.L139:
1269:Drivers/STM32F7xx_HAL_Driver/Src/stm32f7xx_hal_dma.c ****     case DMA_FIFO_THRESHOLD_HALFFULL:
1270:Drivers/STM32F7xx_HAL_Driver/Src/stm32f7xx_hal_dma.c ****       if ((hdma->Init.MemBurst & DMA_SxCR_MBURST_1) == DMA_SxCR_MBURST_1)
 2346              		.loc 1 1270 0
 2347 0086 7B68     		ldr	r3, [r7, #4]
 2348 0088 DB6A     		ldr	r3, [r3, #44]
 2349 008a 03F08073 		and	r3, r3, #16777216
 2350 008e 002B     		cmp	r3, #0
 2351 0090 24D0     		beq	.L153
1271:Drivers/STM32F7xx_HAL_Driver/Src/stm32f7xx_hal_dma.c ****       {
1272:Drivers/STM32F7xx_HAL_Driver/Src/stm32f7xx_hal_dma.c ****         status = HAL_ERROR;
 2352              		.loc 1 1272 0
 2353 0092 0123     		movs	r3, #1
 2354 0094 FB73     		strb	r3, [r7, #15]
1273:Drivers/STM32F7xx_HAL_Driver/Src/stm32f7xx_hal_dma.c ****       }
1274:Drivers/STM32F7xx_HAL_Driver/Src/stm32f7xx_hal_dma.c ****       break;
 2355              		.loc 1 1274 0
 2356 0096 21E0     		b	.L153
 2357              	.L140:
1275:Drivers/STM32F7xx_HAL_Driver/Src/stm32f7xx_hal_dma.c ****     case DMA_FIFO_THRESHOLD_FULL:
1276:Drivers/STM32F7xx_HAL_Driver/Src/stm32f7xx_hal_dma.c ****       if (hdma->Init.MemBurst == DMA_MBURST_INC16)
 2358              		.loc 1 1276 0
 2359 0098 7B68     		ldr	r3, [r7, #4]
 2360 009a DB6A     		ldr	r3, [r3, #44]
 2361 009c B3F1C07F 		cmp	r3, #25165824
 2362 00a0 1ED1     		bne	.L154
1277:Drivers/STM32F7xx_HAL_Driver/Src/stm32f7xx_hal_dma.c ****       {
1278:Drivers/STM32F7xx_HAL_Driver/Src/stm32f7xx_hal_dma.c ****         status = HAL_ERROR;
 2363              		.loc 1 1278 0
 2364 00a2 0123     		movs	r3, #1
 2365 00a4 FB73     		strb	r3, [r7, #15]
1279:Drivers/STM32F7xx_HAL_Driver/Src/stm32f7xx_hal_dma.c ****       }
1280:Drivers/STM32F7xx_HAL_Driver/Src/stm32f7xx_hal_dma.c ****       break;   
 2366              		.loc 1 1280 0
 2367 00a6 1BE0     		b	.L154
 2368              	.L135:
1281:Drivers/STM32F7xx_HAL_Driver/Src/stm32f7xx_hal_dma.c ****     default:
1282:Drivers/STM32F7xx_HAL_Driver/Src/stm32f7xx_hal_dma.c ****       break;
1283:Drivers/STM32F7xx_HAL_Driver/Src/stm32f7xx_hal_dma.c ****     }
1284:Drivers/STM32F7xx_HAL_Driver/Src/stm32f7xx_hal_dma.c ****   }
1285:Drivers/STM32F7xx_HAL_Driver/Src/stm32f7xx_hal_dma.c ****   
1286:Drivers/STM32F7xx_HAL_Driver/Src/stm32f7xx_hal_dma.c ****   /* Memory Data size equal to Word */
1287:Drivers/STM32F7xx_HAL_Driver/Src/stm32f7xx_hal_dma.c ****   else
1288:Drivers/STM32F7xx_HAL_Driver/Src/stm32f7xx_hal_dma.c ****   {
1289:Drivers/STM32F7xx_HAL_Driver/Src/stm32f7xx_hal_dma.c ****     switch (tmp)
 2369              		.loc 1 1289 0
 2370 00a8 BB68     		ldr	r3, [r7, #8]
 2371 00aa 022B     		cmp	r3, #2
 2372 00ac 02D9     		bls	.L145
 2373 00ae 032B     		cmp	r3, #3
 2374 00b0 03D0     		beq	.L146
1290:Drivers/STM32F7xx_HAL_Driver/Src/stm32f7xx_hal_dma.c ****     {
ARM GAS  /var/folders/n8/cvzdcwlj0vl4g_wtyz1ffy300000gn/T//ccZxLSjg.s 			page 65


1291:Drivers/STM32F7xx_HAL_Driver/Src/stm32f7xx_hal_dma.c ****     case DMA_FIFO_THRESHOLD_1QUARTERFULL:
1292:Drivers/STM32F7xx_HAL_Driver/Src/stm32f7xx_hal_dma.c ****     case DMA_FIFO_THRESHOLD_HALFFULL:
1293:Drivers/STM32F7xx_HAL_Driver/Src/stm32f7xx_hal_dma.c ****     case DMA_FIFO_THRESHOLD_3QUARTERSFULL:
1294:Drivers/STM32F7xx_HAL_Driver/Src/stm32f7xx_hal_dma.c ****       status = HAL_ERROR;
1295:Drivers/STM32F7xx_HAL_Driver/Src/stm32f7xx_hal_dma.c ****       break;
1296:Drivers/STM32F7xx_HAL_Driver/Src/stm32f7xx_hal_dma.c ****     case DMA_FIFO_THRESHOLD_FULL:
1297:Drivers/STM32F7xx_HAL_Driver/Src/stm32f7xx_hal_dma.c ****       if ((hdma->Init.MemBurst & DMA_SxCR_MBURST_1) == DMA_SxCR_MBURST_1)
1298:Drivers/STM32F7xx_HAL_Driver/Src/stm32f7xx_hal_dma.c ****       {
1299:Drivers/STM32F7xx_HAL_Driver/Src/stm32f7xx_hal_dma.c ****         status = HAL_ERROR;
1300:Drivers/STM32F7xx_HAL_Driver/Src/stm32f7xx_hal_dma.c ****       }
1301:Drivers/STM32F7xx_HAL_Driver/Src/stm32f7xx_hal_dma.c ****       break;
1302:Drivers/STM32F7xx_HAL_Driver/Src/stm32f7xx_hal_dma.c ****     default:
1303:Drivers/STM32F7xx_HAL_Driver/Src/stm32f7xx_hal_dma.c ****       break;
 2375              		.loc 1 1303 0
 2376 00b2 18E0     		b	.L134
 2377              	.L145:
1294:Drivers/STM32F7xx_HAL_Driver/Src/stm32f7xx_hal_dma.c ****       break;
 2378              		.loc 1 1294 0
 2379 00b4 0123     		movs	r3, #1
 2380 00b6 FB73     		strb	r3, [r7, #15]
1295:Drivers/STM32F7xx_HAL_Driver/Src/stm32f7xx_hal_dma.c ****     case DMA_FIFO_THRESHOLD_FULL:
 2381              		.loc 1 1295 0
 2382 00b8 15E0     		b	.L134
 2383              	.L146:
1297:Drivers/STM32F7xx_HAL_Driver/Src/stm32f7xx_hal_dma.c ****       {
 2384              		.loc 1 1297 0
 2385 00ba 7B68     		ldr	r3, [r7, #4]
 2386 00bc DB6A     		ldr	r3, [r3, #44]
 2387 00be 03F08073 		and	r3, r3, #16777216
 2388 00c2 002B     		cmp	r3, #0
 2389 00c4 0ED0     		beq	.L155
1299:Drivers/STM32F7xx_HAL_Driver/Src/stm32f7xx_hal_dma.c ****       }
 2390              		.loc 1 1299 0
 2391 00c6 0123     		movs	r3, #1
 2392 00c8 FB73     		strb	r3, [r7, #15]
1301:Drivers/STM32F7xx_HAL_Driver/Src/stm32f7xx_hal_dma.c ****     default:
 2393              		.loc 1 1301 0
 2394 00ca 0BE0     		b	.L155
 2395              	.L149:
1256:Drivers/STM32F7xx_HAL_Driver/Src/stm32f7xx_hal_dma.c ****     }
 2396              		.loc 1 1256 0
 2397 00cc 00BF     		nop
 2398 00ce 0AE0     		b	.L134
 2399              	.L150:
1246:Drivers/STM32F7xx_HAL_Driver/Src/stm32f7xx_hal_dma.c ****     case DMA_FIFO_THRESHOLD_HALFFULL:
 2400              		.loc 1 1246 0
 2401 00d0 00BF     		nop
 2402 00d2 08E0     		b	.L134
 2403              	.L151:
1252:Drivers/STM32F7xx_HAL_Driver/Src/stm32f7xx_hal_dma.c ****     case DMA_FIFO_THRESHOLD_FULL:
 2404              		.loc 1 1252 0
 2405 00d4 00BF     		nop
 2406 00d6 06E0     		b	.L134
 2407              	.L152:
1282:Drivers/STM32F7xx_HAL_Driver/Src/stm32f7xx_hal_dma.c ****     }
 2408              		.loc 1 1282 0
 2409 00d8 00BF     		nop
ARM GAS  /var/folders/n8/cvzdcwlj0vl4g_wtyz1ffy300000gn/T//ccZxLSjg.s 			page 66


 2410 00da 04E0     		b	.L134
 2411              	.L153:
1274:Drivers/STM32F7xx_HAL_Driver/Src/stm32f7xx_hal_dma.c ****     case DMA_FIFO_THRESHOLD_FULL:
 2412              		.loc 1 1274 0
 2413 00dc 00BF     		nop
 2414 00de 02E0     		b	.L134
 2415              	.L154:
1280:Drivers/STM32F7xx_HAL_Driver/Src/stm32f7xx_hal_dma.c ****     default:
 2416              		.loc 1 1280 0
 2417 00e0 00BF     		nop
 2418 00e2 00E0     		b	.L134
 2419              	.L155:
1301:Drivers/STM32F7xx_HAL_Driver/Src/stm32f7xx_hal_dma.c ****     default:
 2420              		.loc 1 1301 0
 2421 00e4 00BF     		nop
 2422              	.L134:
1304:Drivers/STM32F7xx_HAL_Driver/Src/stm32f7xx_hal_dma.c ****     }
1305:Drivers/STM32F7xx_HAL_Driver/Src/stm32f7xx_hal_dma.c ****   } 
1306:Drivers/STM32F7xx_HAL_Driver/Src/stm32f7xx_hal_dma.c ****   
1307:Drivers/STM32F7xx_HAL_Driver/Src/stm32f7xx_hal_dma.c ****   return status; 
 2423              		.loc 1 1307 0
 2424 00e6 FB7B     		ldrb	r3, [r7, #15]	@ zero_extendqisi2
1308:Drivers/STM32F7xx_HAL_Driver/Src/stm32f7xx_hal_dma.c **** }
 2425              		.loc 1 1308 0
 2426 00e8 1846     		mov	r0, r3
 2427 00ea 1437     		adds	r7, r7, #20
 2428              	.LCFI80:
 2429              		.cfi_def_cfa_offset 4
 2430 00ec BD46     		mov	sp, r7
 2431              	.LCFI81:
 2432              		.cfi_def_cfa_register 13
 2433              		@ sp needed
 2434 00ee 5DF8047B 		ldr	r7, [sp], #4
 2435              	.LCFI82:
 2436              		.cfi_restore 7
 2437              		.cfi_def_cfa_offset 0
 2438 00f2 7047     		bx	lr
 2439              		.cfi_endproc
 2440              	.LFE152:
 2442              		.section	.rodata.flagBitshiftOffset.9272,"a",%progbits
 2443              		.align	2
 2446              	flagBitshiftOffset.9272:
 2447 0000 00       		.byte	0
 2448 0001 06       		.byte	6
 2449 0002 10       		.byte	16
 2450 0003 16       		.byte	22
 2451 0004 00       		.byte	0
 2452 0005 06       		.byte	6
 2453 0006 10       		.byte	16
 2454 0007 16       		.byte	22
 2455              		.text
 2456              	.Letext0:
 2457              		.file 2 "/usr/local/Cellar/arm-none-eabi-gcc/20180627/arm-none-eabi/include/machine/_default_types
 2458              		.file 3 "/usr/local/Cellar/arm-none-eabi-gcc/20180627/arm-none-eabi/include/sys/_stdint.h"
 2459              		.file 4 "Drivers/CMSIS/Include/core_cm7.h"
 2460              		.file 5 "Drivers/CMSIS/Device/ST/STM32F7xx/Include/system_stm32f7xx.h"
 2461              		.file 6 "Drivers/CMSIS/Device/ST/STM32F7xx/Include/stm32f746xx.h"
ARM GAS  /var/folders/n8/cvzdcwlj0vl4g_wtyz1ffy300000gn/T//ccZxLSjg.s 			page 67


 2462              		.file 7 "/usr/local/Cellar/arm-none-eabi-gcc/20180627/arm-none-eabi/include/sys/lock.h"
 2463              		.file 8 "/usr/local/Cellar/arm-none-eabi-gcc/20180627/arm-none-eabi/include/sys/_types.h"
 2464              		.file 9 "/usr/local/Cellar/arm-none-eabi-gcc/20180627/lib/gcc/arm-none-eabi/7.3.1/include/stddef.h
 2465              		.file 10 "/usr/local/Cellar/arm-none-eabi-gcc/20180627/arm-none-eabi/include/sys/reent.h"
 2466              		.file 11 "Drivers/CMSIS/Device/ST/STM32F7xx/Include/stm32f7xx.h"
 2467              		.file 12 "Drivers/STM32F7xx_HAL_Driver/Inc/stm32f7xx_hal_def.h"
 2468              		.file 13 "Drivers/STM32F7xx_HAL_Driver/Inc/stm32f7xx_hal_dma.h"
ARM GAS  /var/folders/n8/cvzdcwlj0vl4g_wtyz1ffy300000gn/T//ccZxLSjg.s 			page 68

