ARM GAS  /var/folders/n8/cvzdcwlj0vl4g_wtyz1ffy300000gn/T//ccBPNZvy.s 			page 1


   1              		.cpu cortex-m7
   2              		.eabi_attribute 27, 1
   3              		.eabi_attribute 28, 1
   4              		.eabi_attribute 20, 1
   5              		.eabi_attribute 21, 1
   6              		.eabi_attribute 23, 3
   7              		.eabi_attribute 24, 1
   8              		.eabi_attribute 25, 1
   9              		.eabi_attribute 26, 1
  10              		.eabi_attribute 30, 6
  11              		.eabi_attribute 34, 1
  12              		.eabi_attribute 18, 4
  13              		.file	"stm32f7xx_hal_i2c.c"
  14              		.text
  15              	.Ltext0:
  16              		.cfi_sections	.debug_frame
  17              		.section	.text.HAL_I2C_Init,"ax",%progbits
  18              		.align	1
  19              		.global	HAL_I2C_Init
  20              		.syntax unified
  21              		.thumb
  22              		.thumb_func
  23              		.fpu fpv5-sp-d16
  25              	HAL_I2C_Init:
  26              	.LFB138:
  27              		.file 1 "Drivers/STM32F7xx_HAL_Driver/Src/stm32f7xx_hal_i2c.c"
   1:Drivers/STM32F7xx_HAL_Driver/Src/stm32f7xx_hal_i2c.c **** /**
   2:Drivers/STM32F7xx_HAL_Driver/Src/stm32f7xx_hal_i2c.c ****   ******************************************************************************
   3:Drivers/STM32F7xx_HAL_Driver/Src/stm32f7xx_hal_i2c.c ****   * @file    stm32f7xx_hal_i2c.c
   4:Drivers/STM32F7xx_HAL_Driver/Src/stm32f7xx_hal_i2c.c ****   * @author  MCD Application Team
   5:Drivers/STM32F7xx_HAL_Driver/Src/stm32f7xx_hal_i2c.c ****   * @brief   I2C HAL module driver.
   6:Drivers/STM32F7xx_HAL_Driver/Src/stm32f7xx_hal_i2c.c ****   *          This file provides firmware functions to manage the following
   7:Drivers/STM32F7xx_HAL_Driver/Src/stm32f7xx_hal_i2c.c ****   *          functionalities of the Inter Integrated Circuit (I2C) peripheral:
   8:Drivers/STM32F7xx_HAL_Driver/Src/stm32f7xx_hal_i2c.c ****   *           + Initialization and de-initialization functions
   9:Drivers/STM32F7xx_HAL_Driver/Src/stm32f7xx_hal_i2c.c ****   *           + IO operation functions
  10:Drivers/STM32F7xx_HAL_Driver/Src/stm32f7xx_hal_i2c.c ****   *           + Peripheral State and Errors functions
  11:Drivers/STM32F7xx_HAL_Driver/Src/stm32f7xx_hal_i2c.c ****   *
  12:Drivers/STM32F7xx_HAL_Driver/Src/stm32f7xx_hal_i2c.c ****   @verbatim
  13:Drivers/STM32F7xx_HAL_Driver/Src/stm32f7xx_hal_i2c.c ****   ==============================================================================
  14:Drivers/STM32F7xx_HAL_Driver/Src/stm32f7xx_hal_i2c.c ****                         ##### How to use this driver #####
  15:Drivers/STM32F7xx_HAL_Driver/Src/stm32f7xx_hal_i2c.c ****   ==============================================================================
  16:Drivers/STM32F7xx_HAL_Driver/Src/stm32f7xx_hal_i2c.c ****     [..]
  17:Drivers/STM32F7xx_HAL_Driver/Src/stm32f7xx_hal_i2c.c ****     The I2C HAL driver can be used as follows:
  18:Drivers/STM32F7xx_HAL_Driver/Src/stm32f7xx_hal_i2c.c **** 
  19:Drivers/STM32F7xx_HAL_Driver/Src/stm32f7xx_hal_i2c.c ****     (#) Declare a I2C_HandleTypeDef handle structure, for example:
  20:Drivers/STM32F7xx_HAL_Driver/Src/stm32f7xx_hal_i2c.c ****         I2C_HandleTypeDef  hi2c;
  21:Drivers/STM32F7xx_HAL_Driver/Src/stm32f7xx_hal_i2c.c **** 
  22:Drivers/STM32F7xx_HAL_Driver/Src/stm32f7xx_hal_i2c.c ****     (#)Initialize the I2C low level resources by implementing the HAL_I2C_MspInit() API:
  23:Drivers/STM32F7xx_HAL_Driver/Src/stm32f7xx_hal_i2c.c ****         (##) Enable the I2Cx interface clock
  24:Drivers/STM32F7xx_HAL_Driver/Src/stm32f7xx_hal_i2c.c ****         (##) I2C pins configuration
  25:Drivers/STM32F7xx_HAL_Driver/Src/stm32f7xx_hal_i2c.c ****             (+++) Enable the clock for the I2C GPIOs
  26:Drivers/STM32F7xx_HAL_Driver/Src/stm32f7xx_hal_i2c.c ****             (+++) Configure I2C pins as alternate function open-drain
  27:Drivers/STM32F7xx_HAL_Driver/Src/stm32f7xx_hal_i2c.c ****         (##) NVIC configuration if you need to use interrupt process
  28:Drivers/STM32F7xx_HAL_Driver/Src/stm32f7xx_hal_i2c.c ****             (+++) Configure the I2Cx interrupt priority
  29:Drivers/STM32F7xx_HAL_Driver/Src/stm32f7xx_hal_i2c.c ****             (+++) Enable the NVIC I2C IRQ Channel
  30:Drivers/STM32F7xx_HAL_Driver/Src/stm32f7xx_hal_i2c.c ****         (##) DMA Configuration if you need to use DMA process
  31:Drivers/STM32F7xx_HAL_Driver/Src/stm32f7xx_hal_i2c.c ****             (+++) Declare a DMA_HandleTypeDef handle structure for the transmit or receive stream
ARM GAS  /var/folders/n8/cvzdcwlj0vl4g_wtyz1ffy300000gn/T//ccBPNZvy.s 			page 2


  32:Drivers/STM32F7xx_HAL_Driver/Src/stm32f7xx_hal_i2c.c ****             (+++) Enable the DMAx interface clock using
  33:Drivers/STM32F7xx_HAL_Driver/Src/stm32f7xx_hal_i2c.c ****             (+++) Configure the DMA handle parameters
  34:Drivers/STM32F7xx_HAL_Driver/Src/stm32f7xx_hal_i2c.c ****             (+++) Configure the DMA Tx or Rx stream
  35:Drivers/STM32F7xx_HAL_Driver/Src/stm32f7xx_hal_i2c.c ****             (+++) Associate the initialized DMA handle to the hi2c DMA Tx or Rx handle
  36:Drivers/STM32F7xx_HAL_Driver/Src/stm32f7xx_hal_i2c.c ****             (+++) Configure the priority and enable the NVIC for the transfer complete interrupt on
  37:Drivers/STM32F7xx_HAL_Driver/Src/stm32f7xx_hal_i2c.c ****                   the DMA Tx or Rx stream
  38:Drivers/STM32F7xx_HAL_Driver/Src/stm32f7xx_hal_i2c.c **** 
  39:Drivers/STM32F7xx_HAL_Driver/Src/stm32f7xx_hal_i2c.c ****     (#) Configure the Communication Clock Timing, Own Address1, Master Addressing mode, Dual Addres
  40:Drivers/STM32F7xx_HAL_Driver/Src/stm32f7xx_hal_i2c.c ****         Own Address2, Own Address2 Mask, General call and Nostretch mode in the hi2c Init structure
  41:Drivers/STM32F7xx_HAL_Driver/Src/stm32f7xx_hal_i2c.c **** 
  42:Drivers/STM32F7xx_HAL_Driver/Src/stm32f7xx_hal_i2c.c ****     (#) Initialize the I2C registers by calling the HAL_I2C_Init(), configures also the low level H
  43:Drivers/STM32F7xx_HAL_Driver/Src/stm32f7xx_hal_i2c.c ****         (GPIO, CLOCK, NVIC...etc) by calling the customized HAL_I2C_MspInit(&hi2c) API.
  44:Drivers/STM32F7xx_HAL_Driver/Src/stm32f7xx_hal_i2c.c **** 
  45:Drivers/STM32F7xx_HAL_Driver/Src/stm32f7xx_hal_i2c.c ****     (#) To check if target device is ready for communication, use the function HAL_I2C_IsDeviceRead
  46:Drivers/STM32F7xx_HAL_Driver/Src/stm32f7xx_hal_i2c.c **** 
  47:Drivers/STM32F7xx_HAL_Driver/Src/stm32f7xx_hal_i2c.c ****     (#) For I2C IO and IO MEM operations, three operation modes are available within this driver :
  48:Drivers/STM32F7xx_HAL_Driver/Src/stm32f7xx_hal_i2c.c **** 
  49:Drivers/STM32F7xx_HAL_Driver/Src/stm32f7xx_hal_i2c.c ****     *** Polling mode IO operation ***
  50:Drivers/STM32F7xx_HAL_Driver/Src/stm32f7xx_hal_i2c.c ****     =================================
  51:Drivers/STM32F7xx_HAL_Driver/Src/stm32f7xx_hal_i2c.c ****     [..]
  52:Drivers/STM32F7xx_HAL_Driver/Src/stm32f7xx_hal_i2c.c ****       (+) Transmit in master mode an amount of data in blocking mode using HAL_I2C_Master_Transmit(
  53:Drivers/STM32F7xx_HAL_Driver/Src/stm32f7xx_hal_i2c.c ****       (+) Receive in master mode an amount of data in blocking mode using HAL_I2C_Master_Receive()
  54:Drivers/STM32F7xx_HAL_Driver/Src/stm32f7xx_hal_i2c.c ****       (+) Transmit in slave mode an amount of data in blocking mode using HAL_I2C_Slave_Transmit()
  55:Drivers/STM32F7xx_HAL_Driver/Src/stm32f7xx_hal_i2c.c ****       (+) Receive in slave mode an amount of data in blocking mode using HAL_I2C_Slave_Receive()
  56:Drivers/STM32F7xx_HAL_Driver/Src/stm32f7xx_hal_i2c.c **** 
  57:Drivers/STM32F7xx_HAL_Driver/Src/stm32f7xx_hal_i2c.c ****     *** Polling mode IO MEM operation ***
  58:Drivers/STM32F7xx_HAL_Driver/Src/stm32f7xx_hal_i2c.c ****     =====================================
  59:Drivers/STM32F7xx_HAL_Driver/Src/stm32f7xx_hal_i2c.c ****     [..]
  60:Drivers/STM32F7xx_HAL_Driver/Src/stm32f7xx_hal_i2c.c ****       (+) Write an amount of data in blocking mode to a specific memory address using HAL_I2C_Mem_W
  61:Drivers/STM32F7xx_HAL_Driver/Src/stm32f7xx_hal_i2c.c ****       (+) Read an amount of data in blocking mode from a specific memory address using HAL_I2C_Mem_
  62:Drivers/STM32F7xx_HAL_Driver/Src/stm32f7xx_hal_i2c.c **** 
  63:Drivers/STM32F7xx_HAL_Driver/Src/stm32f7xx_hal_i2c.c **** 
  64:Drivers/STM32F7xx_HAL_Driver/Src/stm32f7xx_hal_i2c.c ****     *** Interrupt mode IO operation ***
  65:Drivers/STM32F7xx_HAL_Driver/Src/stm32f7xx_hal_i2c.c ****     ===================================
  66:Drivers/STM32F7xx_HAL_Driver/Src/stm32f7xx_hal_i2c.c ****     [..]
  67:Drivers/STM32F7xx_HAL_Driver/Src/stm32f7xx_hal_i2c.c ****       (+) Transmit in master mode an amount of data in non-blocking mode using HAL_I2C_Master_Trans
  68:Drivers/STM32F7xx_HAL_Driver/Src/stm32f7xx_hal_i2c.c ****       (+) At transmission end of transfer, HAL_I2C_MasterTxCpltCallback() is executed and user can
  69:Drivers/STM32F7xx_HAL_Driver/Src/stm32f7xx_hal_i2c.c ****            add his own code by customization of function pointer HAL_I2C_MasterTxCpltCallback()
  70:Drivers/STM32F7xx_HAL_Driver/Src/stm32f7xx_hal_i2c.c ****       (+) Receive in master mode an amount of data in non-blocking mode using HAL_I2C_Master_Receiv
  71:Drivers/STM32F7xx_HAL_Driver/Src/stm32f7xx_hal_i2c.c ****       (+) At reception end of transfer, HAL_I2C_MasterRxCpltCallback() is executed and user can
  72:Drivers/STM32F7xx_HAL_Driver/Src/stm32f7xx_hal_i2c.c ****            add his own code by customization of function pointer HAL_I2C_MasterRxCpltCallback()
  73:Drivers/STM32F7xx_HAL_Driver/Src/stm32f7xx_hal_i2c.c ****       (+) Transmit in slave mode an amount of data in non-blocking mode using HAL_I2C_Slave_Transmi
  74:Drivers/STM32F7xx_HAL_Driver/Src/stm32f7xx_hal_i2c.c ****       (+) At transmission end of transfer, HAL_I2C_SlaveTxCpltCallback() is executed and user can
  75:Drivers/STM32F7xx_HAL_Driver/Src/stm32f7xx_hal_i2c.c ****            add his own code by customization of function pointer HAL_I2C_SlaveTxCpltCallback()
  76:Drivers/STM32F7xx_HAL_Driver/Src/stm32f7xx_hal_i2c.c ****       (+) Receive in slave mode an amount of data in non-blocking mode using HAL_I2C_Slave_Receive_
  77:Drivers/STM32F7xx_HAL_Driver/Src/stm32f7xx_hal_i2c.c ****       (+) At reception end of transfer, HAL_I2C_SlaveRxCpltCallback() is executed and user can
  78:Drivers/STM32F7xx_HAL_Driver/Src/stm32f7xx_hal_i2c.c ****            add his own code by customization of function pointer HAL_I2C_SlaveRxCpltCallback()
  79:Drivers/STM32F7xx_HAL_Driver/Src/stm32f7xx_hal_i2c.c ****       (+) In case of transfer Error, HAL_I2C_ErrorCallback() function is executed and user can
  80:Drivers/STM32F7xx_HAL_Driver/Src/stm32f7xx_hal_i2c.c ****            add his own code by customization of function pointer HAL_I2C_ErrorCallback()
  81:Drivers/STM32F7xx_HAL_Driver/Src/stm32f7xx_hal_i2c.c ****       (+) Abort a master I2C process communication with Interrupt using HAL_I2C_Master_Abort_IT()
  82:Drivers/STM32F7xx_HAL_Driver/Src/stm32f7xx_hal_i2c.c ****       (+) End of abort process, HAL_I2C_AbortCpltCallback() is executed and user can
  83:Drivers/STM32F7xx_HAL_Driver/Src/stm32f7xx_hal_i2c.c ****            add his own code by customization of function pointer HAL_I2C_AbortCpltCallback()
  84:Drivers/STM32F7xx_HAL_Driver/Src/stm32f7xx_hal_i2c.c ****       (+) Discard a slave I2C process communication using __HAL_I2C_GENERATE_NACK() macro.
  85:Drivers/STM32F7xx_HAL_Driver/Src/stm32f7xx_hal_i2c.c ****            This action will inform Master to generate a Stop condition to discard the communication
  86:Drivers/STM32F7xx_HAL_Driver/Src/stm32f7xx_hal_i2c.c **** 
  87:Drivers/STM32F7xx_HAL_Driver/Src/stm32f7xx_hal_i2c.c **** 
  88:Drivers/STM32F7xx_HAL_Driver/Src/stm32f7xx_hal_i2c.c ****     *** Interrupt mode IO sequential operation ***
ARM GAS  /var/folders/n8/cvzdcwlj0vl4g_wtyz1ffy300000gn/T//ccBPNZvy.s 			page 3


  89:Drivers/STM32F7xx_HAL_Driver/Src/stm32f7xx_hal_i2c.c ****     ==============================================
  90:Drivers/STM32F7xx_HAL_Driver/Src/stm32f7xx_hal_i2c.c ****     [..]
  91:Drivers/STM32F7xx_HAL_Driver/Src/stm32f7xx_hal_i2c.c ****       (@) These interfaces allow to manage a sequential transfer with a repeated start condition
  92:Drivers/STM32F7xx_HAL_Driver/Src/stm32f7xx_hal_i2c.c ****           when a direction change during transfer
  93:Drivers/STM32F7xx_HAL_Driver/Src/stm32f7xx_hal_i2c.c ****     [..]
  94:Drivers/STM32F7xx_HAL_Driver/Src/stm32f7xx_hal_i2c.c ****       (+) A specific option field manage the different steps of a sequential transfer
  95:Drivers/STM32F7xx_HAL_Driver/Src/stm32f7xx_hal_i2c.c ****       (+) Option field values are defined through @ref I2C_XFEROPTIONS and are listed below:
  96:Drivers/STM32F7xx_HAL_Driver/Src/stm32f7xx_hal_i2c.c ****       (++) I2C_FIRST_AND_LAST_FRAME: No sequential usage, functionnal is same as associated interfa
  97:Drivers/STM32F7xx_HAL_Driver/Src/stm32f7xx_hal_i2c.c ****       (++) I2C_FIRST_FRAME: Sequential usage, this option allow to manage a sequence with start con
  98:Drivers/STM32F7xx_HAL_Driver/Src/stm32f7xx_hal_i2c.c ****                             and data to transfer without a final stop condition
  99:Drivers/STM32F7xx_HAL_Driver/Src/stm32f7xx_hal_i2c.c ****       (++) I2C_FIRST_AND_NEXT_FRAME: Sequential usage (Master only), this option allow to manage a 
 100:Drivers/STM32F7xx_HAL_Driver/Src/stm32f7xx_hal_i2c.c ****                             and data to transfer without a final stop condition, an then permit a c
 101:Drivers/STM32F7xx_HAL_Driver/Src/stm32f7xx_hal_i2c.c ****                             several times (like HAL_I2C_Master_Sequential_Transmit_IT() then HAL_I2
 102:Drivers/STM32F7xx_HAL_Driver/Src/stm32f7xx_hal_i2c.c ****       (++) I2C_NEXT_FRAME: Sequential usage, this option allow to manage a sequence with a restart 
 103:Drivers/STM32F7xx_HAL_Driver/Src/stm32f7xx_hal_i2c.c ****                             and with new data to transfer if the direction change or manage only th
 104:Drivers/STM32F7xx_HAL_Driver/Src/stm32f7xx_hal_i2c.c ****                             if no direction change and without a final stop condition in both cases
 105:Drivers/STM32F7xx_HAL_Driver/Src/stm32f7xx_hal_i2c.c ****       (++) I2C_LAST_FRAME: Sequential usage, this option allow to manage a sequance with a restart 
 106:Drivers/STM32F7xx_HAL_Driver/Src/stm32f7xx_hal_i2c.c ****                             and with new data to transfer if the direction change or manage only th
 107:Drivers/STM32F7xx_HAL_Driver/Src/stm32f7xx_hal_i2c.c ****                             if no direction change and with a final stop condition in both cases
 108:Drivers/STM32F7xx_HAL_Driver/Src/stm32f7xx_hal_i2c.c ****       (++) I2C_LAST_FRAME_NO_STOP: Sequential usage (Master only), this option allow to manage a re
 109:Drivers/STM32F7xx_HAL_Driver/Src/stm32f7xx_hal_i2c.c ****                             interface several times (link with option I2C_FIRST_AND_NEXT_FRAME).
 110:Drivers/STM32F7xx_HAL_Driver/Src/stm32f7xx_hal_i2c.c ****                             Usage can, transfer several bytes one by one using HAL_I2C_Master_Seque
 111:Drivers/STM32F7xx_HAL_Driver/Src/stm32f7xx_hal_i2c.c ****                               or HAL_I2C_Master_Sequential_Receive_IT(option I2C_FIRST_AND_NEXT_FRA
 112:Drivers/STM32F7xx_HAL_Driver/Src/stm32f7xx_hal_i2c.c ****                             Then usage of this option I2C_LAST_FRAME_NO_STOP at the last Transmit o
 113:Drivers/STM32F7xx_HAL_Driver/Src/stm32f7xx_hal_i2c.c ****                               without stopping the communication and so generate a restart conditio
 114:Drivers/STM32F7xx_HAL_Driver/Src/stm32f7xx_hal_i2c.c **** 
 115:Drivers/STM32F7xx_HAL_Driver/Src/stm32f7xx_hal_i2c.c ****       (+) Differents sequential I2C interfaces are listed below:
 116:Drivers/STM32F7xx_HAL_Driver/Src/stm32f7xx_hal_i2c.c ****       (++) Sequential transmit in master I2C mode an amount of data in non-blocking mode using HAL_
 117:Drivers/STM32F7xx_HAL_Driver/Src/stm32f7xx_hal_i2c.c ****       (+++) At transmission end of current frame transfer, HAL_I2C_MasterTxCpltCallback() is execut
 118:Drivers/STM32F7xx_HAL_Driver/Src/stm32f7xx_hal_i2c.c ****            add his own code by customization of function pointer HAL_I2C_MasterTxCpltCallback()
 119:Drivers/STM32F7xx_HAL_Driver/Src/stm32f7xx_hal_i2c.c ****       (++) Sequential receive in master I2C mode an amount of data in non-blocking mode using HAL_I
 120:Drivers/STM32F7xx_HAL_Driver/Src/stm32f7xx_hal_i2c.c ****       (+++) At reception end of current frame transfer, HAL_I2C_MasterRxCpltCallback() is executed 
 121:Drivers/STM32F7xx_HAL_Driver/Src/stm32f7xx_hal_i2c.c ****            add his own code by customization of function pointer HAL_I2C_MasterRxCpltCallback()
 122:Drivers/STM32F7xx_HAL_Driver/Src/stm32f7xx_hal_i2c.c ****       (++) Abort a master I2C process communication with Interrupt using HAL_I2C_Master_Abort_IT()
 123:Drivers/STM32F7xx_HAL_Driver/Src/stm32f7xx_hal_i2c.c ****       (+++) End of abort process, HAL_I2C_AbortCpltCallback() is executed and user can
 124:Drivers/STM32F7xx_HAL_Driver/Src/stm32f7xx_hal_i2c.c ****            add his own code by customization of function pointer HAL_I2C_AbortCpltCallback()
 125:Drivers/STM32F7xx_HAL_Driver/Src/stm32f7xx_hal_i2c.c ****       (++) Enable/disable the Address listen mode in slave I2C mode using HAL_I2C_EnableListen_IT()
 126:Drivers/STM32F7xx_HAL_Driver/Src/stm32f7xx_hal_i2c.c ****       (+++) When address slave I2C match, HAL_I2C_AddrCallback() is executed and user can
 127:Drivers/STM32F7xx_HAL_Driver/Src/stm32f7xx_hal_i2c.c ****            add his own code to check the Address Match Code and the transmission direction request 
 128:Drivers/STM32F7xx_HAL_Driver/Src/stm32f7xx_hal_i2c.c ****       (+++) At Listen mode end HAL_I2C_ListenCpltCallback() is executed and user can
 129:Drivers/STM32F7xx_HAL_Driver/Src/stm32f7xx_hal_i2c.c ****            add his own code by customization of function pointer HAL_I2C_ListenCpltCallback()
 130:Drivers/STM32F7xx_HAL_Driver/Src/stm32f7xx_hal_i2c.c ****       (++) Sequential transmit in slave I2C mode an amount of data in non-blocking mode using HAL_I
 131:Drivers/STM32F7xx_HAL_Driver/Src/stm32f7xx_hal_i2c.c ****       (+++) At transmission end of current frame transfer, HAL_I2C_SlaveTxCpltCallback() is execute
 132:Drivers/STM32F7xx_HAL_Driver/Src/stm32f7xx_hal_i2c.c ****            add his own code by customization of function pointer HAL_I2C_SlaveTxCpltCallback()
 133:Drivers/STM32F7xx_HAL_Driver/Src/stm32f7xx_hal_i2c.c ****       (++) Sequential receive in slave I2C mode an amount of data in non-blocking mode using HAL_I2
 134:Drivers/STM32F7xx_HAL_Driver/Src/stm32f7xx_hal_i2c.c ****       (+++) At reception end of current frame transfer, HAL_I2C_SlaveRxCpltCallback() is executed a
 135:Drivers/STM32F7xx_HAL_Driver/Src/stm32f7xx_hal_i2c.c ****            add his own code by customization of function pointer HAL_I2C_SlaveRxCpltCallback()
 136:Drivers/STM32F7xx_HAL_Driver/Src/stm32f7xx_hal_i2c.c ****       (++) In case of transfer Error, HAL_I2C_ErrorCallback() function is executed and user can
 137:Drivers/STM32F7xx_HAL_Driver/Src/stm32f7xx_hal_i2c.c ****            add his own code by customization of function pointer HAL_I2C_ErrorCallback()
 138:Drivers/STM32F7xx_HAL_Driver/Src/stm32f7xx_hal_i2c.c ****       (++) Abort a master I2C process communication with Interrupt using HAL_I2C_Master_Abort_IT()
 139:Drivers/STM32F7xx_HAL_Driver/Src/stm32f7xx_hal_i2c.c ****       (++) End of abort process, HAL_I2C_AbortCpltCallback() is executed and user can
 140:Drivers/STM32F7xx_HAL_Driver/Src/stm32f7xx_hal_i2c.c ****            add his own code by customization of function pointer HAL_I2C_AbortCpltCallback()
 141:Drivers/STM32F7xx_HAL_Driver/Src/stm32f7xx_hal_i2c.c ****       (++) Discard a slave I2C process communication using __HAL_I2C_GENERATE_NACK() macro.
 142:Drivers/STM32F7xx_HAL_Driver/Src/stm32f7xx_hal_i2c.c ****            This action will inform Master to generate a Stop condition to discard the communication
 143:Drivers/STM32F7xx_HAL_Driver/Src/stm32f7xx_hal_i2c.c **** 
 144:Drivers/STM32F7xx_HAL_Driver/Src/stm32f7xx_hal_i2c.c ****     *** Interrupt mode IO MEM operation ***
 145:Drivers/STM32F7xx_HAL_Driver/Src/stm32f7xx_hal_i2c.c ****     =======================================
ARM GAS  /var/folders/n8/cvzdcwlj0vl4g_wtyz1ffy300000gn/T//ccBPNZvy.s 			page 4


 146:Drivers/STM32F7xx_HAL_Driver/Src/stm32f7xx_hal_i2c.c ****     [..]
 147:Drivers/STM32F7xx_HAL_Driver/Src/stm32f7xx_hal_i2c.c ****       (+) Write an amount of data in non-blocking mode with Interrupt to a specific memory address 
 148:Drivers/STM32F7xx_HAL_Driver/Src/stm32f7xx_hal_i2c.c ****           HAL_I2C_Mem_Write_IT()
 149:Drivers/STM32F7xx_HAL_Driver/Src/stm32f7xx_hal_i2c.c ****       (+) At Memory end of write transfer, HAL_I2C_MemTxCpltCallback() is executed and user can
 150:Drivers/STM32F7xx_HAL_Driver/Src/stm32f7xx_hal_i2c.c ****            add his own code by customization of function pointer HAL_I2C_MemTxCpltCallback()
 151:Drivers/STM32F7xx_HAL_Driver/Src/stm32f7xx_hal_i2c.c ****       (+) Read an amount of data in non-blocking mode with Interrupt from a specific memory address
 152:Drivers/STM32F7xx_HAL_Driver/Src/stm32f7xx_hal_i2c.c ****           HAL_I2C_Mem_Read_IT()
 153:Drivers/STM32F7xx_HAL_Driver/Src/stm32f7xx_hal_i2c.c ****       (+) At Memory end of read transfer, HAL_I2C_MemRxCpltCallback() is executed and user can
 154:Drivers/STM32F7xx_HAL_Driver/Src/stm32f7xx_hal_i2c.c ****            add his own code by customization of function pointer HAL_I2C_MemRxCpltCallback()
 155:Drivers/STM32F7xx_HAL_Driver/Src/stm32f7xx_hal_i2c.c ****       (+) In case of transfer Error, HAL_I2C_ErrorCallback() function is executed and user can
 156:Drivers/STM32F7xx_HAL_Driver/Src/stm32f7xx_hal_i2c.c ****            add his own code by customization of function pointer HAL_I2C_ErrorCallback()
 157:Drivers/STM32F7xx_HAL_Driver/Src/stm32f7xx_hal_i2c.c **** 
 158:Drivers/STM32F7xx_HAL_Driver/Src/stm32f7xx_hal_i2c.c ****     *** DMA mode IO operation ***
 159:Drivers/STM32F7xx_HAL_Driver/Src/stm32f7xx_hal_i2c.c ****     ==============================
 160:Drivers/STM32F7xx_HAL_Driver/Src/stm32f7xx_hal_i2c.c ****     [..]
 161:Drivers/STM32F7xx_HAL_Driver/Src/stm32f7xx_hal_i2c.c ****       (+) Transmit in master mode an amount of data in non-blocking mode (DMA) using
 162:Drivers/STM32F7xx_HAL_Driver/Src/stm32f7xx_hal_i2c.c ****           HAL_I2C_Master_Transmit_DMA()
 163:Drivers/STM32F7xx_HAL_Driver/Src/stm32f7xx_hal_i2c.c ****       (+) At transmission end of transfer, HAL_I2C_MasterTxCpltCallback() is executed and user can
 164:Drivers/STM32F7xx_HAL_Driver/Src/stm32f7xx_hal_i2c.c ****            add his own code by customization of function pointer HAL_I2C_MasterTxCpltCallback()
 165:Drivers/STM32F7xx_HAL_Driver/Src/stm32f7xx_hal_i2c.c ****       (+) Receive in master mode an amount of data in non-blocking mode (DMA) using
 166:Drivers/STM32F7xx_HAL_Driver/Src/stm32f7xx_hal_i2c.c ****           HAL_I2C_Master_Receive_DMA()
 167:Drivers/STM32F7xx_HAL_Driver/Src/stm32f7xx_hal_i2c.c ****       (+) At reception end of transfer, HAL_I2C_MasterRxCpltCallback() is executed and user can
 168:Drivers/STM32F7xx_HAL_Driver/Src/stm32f7xx_hal_i2c.c ****            add his own code by customization of function pointer HAL_I2C_MasterRxCpltCallback()
 169:Drivers/STM32F7xx_HAL_Driver/Src/stm32f7xx_hal_i2c.c ****       (+) Transmit in slave mode an amount of data in non-blocking mode (DMA) using
 170:Drivers/STM32F7xx_HAL_Driver/Src/stm32f7xx_hal_i2c.c ****           HAL_I2C_Slave_Transmit_DMA()
 171:Drivers/STM32F7xx_HAL_Driver/Src/stm32f7xx_hal_i2c.c ****       (+) At transmission end of transfer, HAL_I2C_SlaveTxCpltCallback() is executed and user can
 172:Drivers/STM32F7xx_HAL_Driver/Src/stm32f7xx_hal_i2c.c ****            add his own code by customization of function pointer HAL_I2C_SlaveTxCpltCallback()
 173:Drivers/STM32F7xx_HAL_Driver/Src/stm32f7xx_hal_i2c.c ****       (+) Receive in slave mode an amount of data in non-blocking mode (DMA) using
 174:Drivers/STM32F7xx_HAL_Driver/Src/stm32f7xx_hal_i2c.c ****           HAL_I2C_Slave_Receive_DMA()
 175:Drivers/STM32F7xx_HAL_Driver/Src/stm32f7xx_hal_i2c.c ****       (+) At reception end of transfer, HAL_I2C_SlaveRxCpltCallback() is executed and user can
 176:Drivers/STM32F7xx_HAL_Driver/Src/stm32f7xx_hal_i2c.c ****            add his own code by customization of function pointer HAL_I2C_SlaveRxCpltCallback()
 177:Drivers/STM32F7xx_HAL_Driver/Src/stm32f7xx_hal_i2c.c ****       (+) In case of transfer Error, HAL_I2C_ErrorCallback() function is executed and user can
 178:Drivers/STM32F7xx_HAL_Driver/Src/stm32f7xx_hal_i2c.c ****            add his own code by customization of function pointer HAL_I2C_ErrorCallback()
 179:Drivers/STM32F7xx_HAL_Driver/Src/stm32f7xx_hal_i2c.c ****       (+) Abort a master I2C process communication with Interrupt using HAL_I2C_Master_Abort_IT()
 180:Drivers/STM32F7xx_HAL_Driver/Src/stm32f7xx_hal_i2c.c ****       (+) End of abort process, HAL_I2C_AbortCpltCallback() is executed and user can
 181:Drivers/STM32F7xx_HAL_Driver/Src/stm32f7xx_hal_i2c.c ****            add his own code by customization of function pointer HAL_I2C_AbortCpltCallback()
 182:Drivers/STM32F7xx_HAL_Driver/Src/stm32f7xx_hal_i2c.c ****       (+) Discard a slave I2C process communication using __HAL_I2C_GENERATE_NACK() macro.
 183:Drivers/STM32F7xx_HAL_Driver/Src/stm32f7xx_hal_i2c.c ****            This action will inform Master to generate a Stop condition to discard the communication
 184:Drivers/STM32F7xx_HAL_Driver/Src/stm32f7xx_hal_i2c.c **** 
 185:Drivers/STM32F7xx_HAL_Driver/Src/stm32f7xx_hal_i2c.c ****     *** DMA mode IO MEM operation ***
 186:Drivers/STM32F7xx_HAL_Driver/Src/stm32f7xx_hal_i2c.c ****     =================================
 187:Drivers/STM32F7xx_HAL_Driver/Src/stm32f7xx_hal_i2c.c ****     [..]
 188:Drivers/STM32F7xx_HAL_Driver/Src/stm32f7xx_hal_i2c.c ****       (+) Write an amount of data in non-blocking mode with DMA to a specific memory address using
 189:Drivers/STM32F7xx_HAL_Driver/Src/stm32f7xx_hal_i2c.c ****           HAL_I2C_Mem_Write_DMA()
 190:Drivers/STM32F7xx_HAL_Driver/Src/stm32f7xx_hal_i2c.c ****       (+) At Memory end of write transfer, HAL_I2C_MemTxCpltCallback() is executed and user can
 191:Drivers/STM32F7xx_HAL_Driver/Src/stm32f7xx_hal_i2c.c ****            add his own code by customization of function pointer HAL_I2C_MemTxCpltCallback()
 192:Drivers/STM32F7xx_HAL_Driver/Src/stm32f7xx_hal_i2c.c ****       (+) Read an amount of data in non-blocking mode with DMA from a specific memory address using
 193:Drivers/STM32F7xx_HAL_Driver/Src/stm32f7xx_hal_i2c.c ****           HAL_I2C_Mem_Read_DMA()
 194:Drivers/STM32F7xx_HAL_Driver/Src/stm32f7xx_hal_i2c.c ****       (+) At Memory end of read transfer, HAL_I2C_MemRxCpltCallback() is executed and user can
 195:Drivers/STM32F7xx_HAL_Driver/Src/stm32f7xx_hal_i2c.c ****            add his own code by customization of function pointer HAL_I2C_MemRxCpltCallback()
 196:Drivers/STM32F7xx_HAL_Driver/Src/stm32f7xx_hal_i2c.c ****       (+) In case of transfer Error, HAL_I2C_ErrorCallback() function is executed and user can
 197:Drivers/STM32F7xx_HAL_Driver/Src/stm32f7xx_hal_i2c.c ****            add his own code by customization of function pointer HAL_I2C_ErrorCallback()
 198:Drivers/STM32F7xx_HAL_Driver/Src/stm32f7xx_hal_i2c.c **** 
 199:Drivers/STM32F7xx_HAL_Driver/Src/stm32f7xx_hal_i2c.c **** 
 200:Drivers/STM32F7xx_HAL_Driver/Src/stm32f7xx_hal_i2c.c ****      *** I2C HAL driver macros list ***
 201:Drivers/STM32F7xx_HAL_Driver/Src/stm32f7xx_hal_i2c.c ****      ==================================
 202:Drivers/STM32F7xx_HAL_Driver/Src/stm32f7xx_hal_i2c.c ****      [..]
ARM GAS  /var/folders/n8/cvzdcwlj0vl4g_wtyz1ffy300000gn/T//ccBPNZvy.s 			page 5


 203:Drivers/STM32F7xx_HAL_Driver/Src/stm32f7xx_hal_i2c.c ****        Below the list of most used macros in I2C HAL driver.
 204:Drivers/STM32F7xx_HAL_Driver/Src/stm32f7xx_hal_i2c.c **** 
 205:Drivers/STM32F7xx_HAL_Driver/Src/stm32f7xx_hal_i2c.c ****       (+) __HAL_I2C_ENABLE: Enable the I2C peripheral
 206:Drivers/STM32F7xx_HAL_Driver/Src/stm32f7xx_hal_i2c.c ****       (+) __HAL_I2C_DISABLE: Disable the I2C peripheral
 207:Drivers/STM32F7xx_HAL_Driver/Src/stm32f7xx_hal_i2c.c ****       (+) __HAL_I2C_GENERATE_NACK: Generate a Non-Acknowledge I2C peripheral in Slave mode
 208:Drivers/STM32F7xx_HAL_Driver/Src/stm32f7xx_hal_i2c.c ****       (+) __HAL_I2C_GET_FLAG: Check whether the specified I2C flag is set or not
 209:Drivers/STM32F7xx_HAL_Driver/Src/stm32f7xx_hal_i2c.c ****       (+) __HAL_I2C_CLEAR_FLAG: Clear the specified I2C pending flag
 210:Drivers/STM32F7xx_HAL_Driver/Src/stm32f7xx_hal_i2c.c ****       (+) __HAL_I2C_ENABLE_IT: Enable the specified I2C interrupt
 211:Drivers/STM32F7xx_HAL_Driver/Src/stm32f7xx_hal_i2c.c ****       (+) __HAL_I2C_DISABLE_IT: Disable the specified I2C interrupt
 212:Drivers/STM32F7xx_HAL_Driver/Src/stm32f7xx_hal_i2c.c **** 
 213:Drivers/STM32F7xx_HAL_Driver/Src/stm32f7xx_hal_i2c.c ****      [..]
 214:Drivers/STM32F7xx_HAL_Driver/Src/stm32f7xx_hal_i2c.c ****        (@) You can refer to the I2C HAL driver header file for more useful macros
 215:Drivers/STM32F7xx_HAL_Driver/Src/stm32f7xx_hal_i2c.c **** 
 216:Drivers/STM32F7xx_HAL_Driver/Src/stm32f7xx_hal_i2c.c ****   @endverbatim
 217:Drivers/STM32F7xx_HAL_Driver/Src/stm32f7xx_hal_i2c.c ****   ******************************************************************************
 218:Drivers/STM32F7xx_HAL_Driver/Src/stm32f7xx_hal_i2c.c ****   * @attention
 219:Drivers/STM32F7xx_HAL_Driver/Src/stm32f7xx_hal_i2c.c ****   *
 220:Drivers/STM32F7xx_HAL_Driver/Src/stm32f7xx_hal_i2c.c ****   * <h2><center>&copy; COPYRIGHT(c) 2017 STMicroelectronics</center></h2>
 221:Drivers/STM32F7xx_HAL_Driver/Src/stm32f7xx_hal_i2c.c ****   *
 222:Drivers/STM32F7xx_HAL_Driver/Src/stm32f7xx_hal_i2c.c ****   * Redistribution and use in source and binary forms, with or without modification,
 223:Drivers/STM32F7xx_HAL_Driver/Src/stm32f7xx_hal_i2c.c ****   * are permitted provided that the following conditions are met:
 224:Drivers/STM32F7xx_HAL_Driver/Src/stm32f7xx_hal_i2c.c ****   *   1. Redistributions of source code must retain the above copyright notice,
 225:Drivers/STM32F7xx_HAL_Driver/Src/stm32f7xx_hal_i2c.c ****   *      this list of conditions and the following disclaimer.
 226:Drivers/STM32F7xx_HAL_Driver/Src/stm32f7xx_hal_i2c.c ****   *   2. Redistributions in binary form must reproduce the above copyright notice,
 227:Drivers/STM32F7xx_HAL_Driver/Src/stm32f7xx_hal_i2c.c ****   *      this list of conditions and the following disclaimer in the documentation
 228:Drivers/STM32F7xx_HAL_Driver/Src/stm32f7xx_hal_i2c.c ****   *      and/or other materials provided with the distribution.
 229:Drivers/STM32F7xx_HAL_Driver/Src/stm32f7xx_hal_i2c.c ****   *   3. Neither the name of STMicroelectronics nor the names of its contributors
 230:Drivers/STM32F7xx_HAL_Driver/Src/stm32f7xx_hal_i2c.c ****   *      may be used to endorse or promote products derived from this software
 231:Drivers/STM32F7xx_HAL_Driver/Src/stm32f7xx_hal_i2c.c ****   *      without specific prior written permission.
 232:Drivers/STM32F7xx_HAL_Driver/Src/stm32f7xx_hal_i2c.c ****   *
 233:Drivers/STM32F7xx_HAL_Driver/Src/stm32f7xx_hal_i2c.c ****   * THIS SOFTWARE IS PROVIDED BY THE COPYRIGHT HOLDERS AND CONTRIBUTORS "AS IS"
 234:Drivers/STM32F7xx_HAL_Driver/Src/stm32f7xx_hal_i2c.c ****   * AND ANY EXPRESS OR IMPLIED WARRANTIES, INCLUDING, BUT NOT LIMITED TO, THE
 235:Drivers/STM32F7xx_HAL_Driver/Src/stm32f7xx_hal_i2c.c ****   * IMPLIED WARRANTIES OF MERCHANTABILITY AND FITNESS FOR A PARTICULAR PURPOSE ARE
 236:Drivers/STM32F7xx_HAL_Driver/Src/stm32f7xx_hal_i2c.c ****   * DISCLAIMED. IN NO EVENT SHALL THE COPYRIGHT HOLDER OR CONTRIBUTORS BE LIABLE
 237:Drivers/STM32F7xx_HAL_Driver/Src/stm32f7xx_hal_i2c.c ****   * FOR ANY DIRECT, INDIRECT, INCIDENTAL, SPECIAL, EXEMPLARY, OR CONSEQUENTIAL
 238:Drivers/STM32F7xx_HAL_Driver/Src/stm32f7xx_hal_i2c.c ****   * DAMAGES (INCLUDING, BUT NOT LIMITED TO, PROCUREMENT OF SUBSTITUTE GOODS OR
 239:Drivers/STM32F7xx_HAL_Driver/Src/stm32f7xx_hal_i2c.c ****   * SERVICES; LOSS OF USE, DATA, OR PROFITS; OR BUSINESS INTERRUPTION) HOWEVER
 240:Drivers/STM32F7xx_HAL_Driver/Src/stm32f7xx_hal_i2c.c ****   * CAUSED AND ON ANY THEORY OF LIABILITY, WHETHER IN CONTRACT, STRICT LIABILITY,
 241:Drivers/STM32F7xx_HAL_Driver/Src/stm32f7xx_hal_i2c.c ****   * OR TORT (INCLUDING NEGLIGENCE OR OTHERWISE) ARISING IN ANY WAY OUT OF THE USE
 242:Drivers/STM32F7xx_HAL_Driver/Src/stm32f7xx_hal_i2c.c ****   * OF THIS SOFTWARE, EVEN IF ADVISED OF THE POSSIBILITY OF SUCH DAMAGE.
 243:Drivers/STM32F7xx_HAL_Driver/Src/stm32f7xx_hal_i2c.c ****   *
 244:Drivers/STM32F7xx_HAL_Driver/Src/stm32f7xx_hal_i2c.c ****   ******************************************************************************
 245:Drivers/STM32F7xx_HAL_Driver/Src/stm32f7xx_hal_i2c.c ****   */
 246:Drivers/STM32F7xx_HAL_Driver/Src/stm32f7xx_hal_i2c.c **** 
 247:Drivers/STM32F7xx_HAL_Driver/Src/stm32f7xx_hal_i2c.c **** /* Includes ------------------------------------------------------------------*/
 248:Drivers/STM32F7xx_HAL_Driver/Src/stm32f7xx_hal_i2c.c **** #include "stm32f7xx_hal.h"
 249:Drivers/STM32F7xx_HAL_Driver/Src/stm32f7xx_hal_i2c.c **** 
 250:Drivers/STM32F7xx_HAL_Driver/Src/stm32f7xx_hal_i2c.c **** /** @addtogroup STM32F7xx_HAL_Driver
 251:Drivers/STM32F7xx_HAL_Driver/Src/stm32f7xx_hal_i2c.c ****   * @{
 252:Drivers/STM32F7xx_HAL_Driver/Src/stm32f7xx_hal_i2c.c ****   */
 253:Drivers/STM32F7xx_HAL_Driver/Src/stm32f7xx_hal_i2c.c **** 
 254:Drivers/STM32F7xx_HAL_Driver/Src/stm32f7xx_hal_i2c.c **** /** @defgroup I2C I2C
 255:Drivers/STM32F7xx_HAL_Driver/Src/stm32f7xx_hal_i2c.c ****   * @brief I2C HAL module driver
 256:Drivers/STM32F7xx_HAL_Driver/Src/stm32f7xx_hal_i2c.c ****   * @{
 257:Drivers/STM32F7xx_HAL_Driver/Src/stm32f7xx_hal_i2c.c ****   */
 258:Drivers/STM32F7xx_HAL_Driver/Src/stm32f7xx_hal_i2c.c **** 
 259:Drivers/STM32F7xx_HAL_Driver/Src/stm32f7xx_hal_i2c.c **** #ifdef HAL_I2C_MODULE_ENABLED
ARM GAS  /var/folders/n8/cvzdcwlj0vl4g_wtyz1ffy300000gn/T//ccBPNZvy.s 			page 6


 260:Drivers/STM32F7xx_HAL_Driver/Src/stm32f7xx_hal_i2c.c **** 
 261:Drivers/STM32F7xx_HAL_Driver/Src/stm32f7xx_hal_i2c.c **** /* Private typedef -----------------------------------------------------------*/
 262:Drivers/STM32F7xx_HAL_Driver/Src/stm32f7xx_hal_i2c.c **** /* Private define ------------------------------------------------------------*/
 263:Drivers/STM32F7xx_HAL_Driver/Src/stm32f7xx_hal_i2c.c **** 
 264:Drivers/STM32F7xx_HAL_Driver/Src/stm32f7xx_hal_i2c.c **** /** @defgroup I2C_Private_Define I2C Private Define
 265:Drivers/STM32F7xx_HAL_Driver/Src/stm32f7xx_hal_i2c.c ****   * @{
 266:Drivers/STM32F7xx_HAL_Driver/Src/stm32f7xx_hal_i2c.c ****   */
 267:Drivers/STM32F7xx_HAL_Driver/Src/stm32f7xx_hal_i2c.c **** #define TIMING_CLEAR_MASK   (0xF0FFFFFFU)  /*!< I2C TIMING clear register Mask */
 268:Drivers/STM32F7xx_HAL_Driver/Src/stm32f7xx_hal_i2c.c **** #define I2C_TIMEOUT_ADDR    (10000U)       /*!< 10 s  */
 269:Drivers/STM32F7xx_HAL_Driver/Src/stm32f7xx_hal_i2c.c **** #define I2C_TIMEOUT_BUSY    (25U)          /*!< 25 ms */
 270:Drivers/STM32F7xx_HAL_Driver/Src/stm32f7xx_hal_i2c.c **** #define I2C_TIMEOUT_DIR     (25U)          /*!< 25 ms */
 271:Drivers/STM32F7xx_HAL_Driver/Src/stm32f7xx_hal_i2c.c **** #define I2C_TIMEOUT_RXNE    (25U)          /*!< 25 ms */
 272:Drivers/STM32F7xx_HAL_Driver/Src/stm32f7xx_hal_i2c.c **** #define I2C_TIMEOUT_STOPF   (25U)          /*!< 25 ms */
 273:Drivers/STM32F7xx_HAL_Driver/Src/stm32f7xx_hal_i2c.c **** #define I2C_TIMEOUT_TC      (25U)          /*!< 25 ms */
 274:Drivers/STM32F7xx_HAL_Driver/Src/stm32f7xx_hal_i2c.c **** #define I2C_TIMEOUT_TCR     (25U)          /*!< 25 ms */
 275:Drivers/STM32F7xx_HAL_Driver/Src/stm32f7xx_hal_i2c.c **** #define I2C_TIMEOUT_TXIS    (25U)          /*!< 25 ms */
 276:Drivers/STM32F7xx_HAL_Driver/Src/stm32f7xx_hal_i2c.c **** #define I2C_TIMEOUT_FLAG    (25U)          /*!< 25 ms */
 277:Drivers/STM32F7xx_HAL_Driver/Src/stm32f7xx_hal_i2c.c **** 
 278:Drivers/STM32F7xx_HAL_Driver/Src/stm32f7xx_hal_i2c.c **** #define MAX_NBYTE_SIZE      255U
 279:Drivers/STM32F7xx_HAL_Driver/Src/stm32f7xx_hal_i2c.c **** #define SlaveAddr_SHIFT     7U
 280:Drivers/STM32F7xx_HAL_Driver/Src/stm32f7xx_hal_i2c.c **** #define SlaveAddr_MSK       0x06U
 281:Drivers/STM32F7xx_HAL_Driver/Src/stm32f7xx_hal_i2c.c **** 
 282:Drivers/STM32F7xx_HAL_Driver/Src/stm32f7xx_hal_i2c.c **** /* Private define for @ref PreviousState usage */
 283:Drivers/STM32F7xx_HAL_Driver/Src/stm32f7xx_hal_i2c.c **** #define I2C_STATE_MSK             ((uint32_t)((HAL_I2C_STATE_BUSY_TX | HAL_I2C_STATE_BUSY_RX) & (~(
 284:Drivers/STM32F7xx_HAL_Driver/Src/stm32f7xx_hal_i2c.c **** #define I2C_STATE_NONE            ((uint32_t)(HAL_I2C_MODE_NONE))                                  
 285:Drivers/STM32F7xx_HAL_Driver/Src/stm32f7xx_hal_i2c.c **** #define I2C_STATE_MASTER_BUSY_TX  ((uint32_t)((HAL_I2C_STATE_BUSY_TX & I2C_STATE_MSK) | HAL_I2C_MOD
 286:Drivers/STM32F7xx_HAL_Driver/Src/stm32f7xx_hal_i2c.c **** #define I2C_STATE_MASTER_BUSY_RX  ((uint32_t)((HAL_I2C_STATE_BUSY_RX & I2C_STATE_MSK) | HAL_I2C_MOD
 287:Drivers/STM32F7xx_HAL_Driver/Src/stm32f7xx_hal_i2c.c **** #define I2C_STATE_SLAVE_BUSY_TX   ((uint32_t)((HAL_I2C_STATE_BUSY_TX & I2C_STATE_MSK) | HAL_I2C_MOD
 288:Drivers/STM32F7xx_HAL_Driver/Src/stm32f7xx_hal_i2c.c **** #define I2C_STATE_SLAVE_BUSY_RX   ((uint32_t)((HAL_I2C_STATE_BUSY_RX & I2C_STATE_MSK) | HAL_I2C_MOD
 289:Drivers/STM32F7xx_HAL_Driver/Src/stm32f7xx_hal_i2c.c **** #define I2C_STATE_MEM_BUSY_TX     ((uint32_t)((HAL_I2C_STATE_BUSY_TX & I2C_STATE_MSK) | HAL_I2C_MOD
 290:Drivers/STM32F7xx_HAL_Driver/Src/stm32f7xx_hal_i2c.c **** #define I2C_STATE_MEM_BUSY_RX     ((uint32_t)((HAL_I2C_STATE_BUSY_RX & I2C_STATE_MSK) | HAL_I2C_MOD
 291:Drivers/STM32F7xx_HAL_Driver/Src/stm32f7xx_hal_i2c.c **** 
 292:Drivers/STM32F7xx_HAL_Driver/Src/stm32f7xx_hal_i2c.c **** 
 293:Drivers/STM32F7xx_HAL_Driver/Src/stm32f7xx_hal_i2c.c **** /* Private define to centralize the enable/disable of Interrupts */
 294:Drivers/STM32F7xx_HAL_Driver/Src/stm32f7xx_hal_i2c.c **** #define I2C_XFER_TX_IT          (0x00000001U)
 295:Drivers/STM32F7xx_HAL_Driver/Src/stm32f7xx_hal_i2c.c **** #define I2C_XFER_RX_IT          (0x00000002U)
 296:Drivers/STM32F7xx_HAL_Driver/Src/stm32f7xx_hal_i2c.c **** #define I2C_XFER_LISTEN_IT      (0x00000004U)
 297:Drivers/STM32F7xx_HAL_Driver/Src/stm32f7xx_hal_i2c.c **** 
 298:Drivers/STM32F7xx_HAL_Driver/Src/stm32f7xx_hal_i2c.c **** #define I2C_XFER_ERROR_IT       (0x00000011U)
 299:Drivers/STM32F7xx_HAL_Driver/Src/stm32f7xx_hal_i2c.c **** #define I2C_XFER_CPLT_IT        (0x00000012U)
 300:Drivers/STM32F7xx_HAL_Driver/Src/stm32f7xx_hal_i2c.c **** #define I2C_XFER_RELOAD_IT      (0x00000012U)
 301:Drivers/STM32F7xx_HAL_Driver/Src/stm32f7xx_hal_i2c.c **** 
 302:Drivers/STM32F7xx_HAL_Driver/Src/stm32f7xx_hal_i2c.c **** /* Private define Sequential Transfer Options default/reset value */
 303:Drivers/STM32F7xx_HAL_Driver/Src/stm32f7xx_hal_i2c.c **** #define I2C_NO_OPTION_FRAME     (0xFFFF0000U)
 304:Drivers/STM32F7xx_HAL_Driver/Src/stm32f7xx_hal_i2c.c **** /**
 305:Drivers/STM32F7xx_HAL_Driver/Src/stm32f7xx_hal_i2c.c ****   * @}
 306:Drivers/STM32F7xx_HAL_Driver/Src/stm32f7xx_hal_i2c.c ****   */
 307:Drivers/STM32F7xx_HAL_Driver/Src/stm32f7xx_hal_i2c.c **** 
 308:Drivers/STM32F7xx_HAL_Driver/Src/stm32f7xx_hal_i2c.c **** /* Private macro -------------------------------------------------------------*/
 309:Drivers/STM32F7xx_HAL_Driver/Src/stm32f7xx_hal_i2c.c **** #define I2C_GET_DMA_REMAIN_DATA(__HANDLE__) ((((__HANDLE__)->State) == HAL_I2C_STATE_BUSY_TX)   ? \
 310:Drivers/STM32F7xx_HAL_Driver/Src/stm32f7xx_hal_i2c.c ****                                               ((uint32_t)(((DMA_Stream_TypeDef *)(__HANDLE__)->hdma
 311:Drivers/STM32F7xx_HAL_Driver/Src/stm32f7xx_hal_i2c.c ****                                               ((uint32_t)(((DMA_Stream_TypeDef *)(__HANDLE__)->hdma
 312:Drivers/STM32F7xx_HAL_Driver/Src/stm32f7xx_hal_i2c.c **** 
 313:Drivers/STM32F7xx_HAL_Driver/Src/stm32f7xx_hal_i2c.c **** /* Private variables ---------------------------------------------------------*/
 314:Drivers/STM32F7xx_HAL_Driver/Src/stm32f7xx_hal_i2c.c **** /* Private function prototypes -----------------------------------------------*/
 315:Drivers/STM32F7xx_HAL_Driver/Src/stm32f7xx_hal_i2c.c **** 
 316:Drivers/STM32F7xx_HAL_Driver/Src/stm32f7xx_hal_i2c.c **** /** @defgroup I2C_Private_Functions I2C Private Functions
ARM GAS  /var/folders/n8/cvzdcwlj0vl4g_wtyz1ffy300000gn/T//ccBPNZvy.s 			page 7


 317:Drivers/STM32F7xx_HAL_Driver/Src/stm32f7xx_hal_i2c.c ****   * @{
 318:Drivers/STM32F7xx_HAL_Driver/Src/stm32f7xx_hal_i2c.c ****   */
 319:Drivers/STM32F7xx_HAL_Driver/Src/stm32f7xx_hal_i2c.c **** /* Private functions to handle DMA transfer */
 320:Drivers/STM32F7xx_HAL_Driver/Src/stm32f7xx_hal_i2c.c **** static void I2C_DMAMasterTransmitCplt(DMA_HandleTypeDef *hdma);
 321:Drivers/STM32F7xx_HAL_Driver/Src/stm32f7xx_hal_i2c.c **** static void I2C_DMAMasterReceiveCplt(DMA_HandleTypeDef *hdma);
 322:Drivers/STM32F7xx_HAL_Driver/Src/stm32f7xx_hal_i2c.c **** static void I2C_DMASlaveTransmitCplt(DMA_HandleTypeDef *hdma);
 323:Drivers/STM32F7xx_HAL_Driver/Src/stm32f7xx_hal_i2c.c **** static void I2C_DMASlaveReceiveCplt(DMA_HandleTypeDef *hdma);
 324:Drivers/STM32F7xx_HAL_Driver/Src/stm32f7xx_hal_i2c.c **** static void I2C_DMAError(DMA_HandleTypeDef *hdma);
 325:Drivers/STM32F7xx_HAL_Driver/Src/stm32f7xx_hal_i2c.c **** static void I2C_DMAAbort(DMA_HandleTypeDef *hdma);
 326:Drivers/STM32F7xx_HAL_Driver/Src/stm32f7xx_hal_i2c.c **** 
 327:Drivers/STM32F7xx_HAL_Driver/Src/stm32f7xx_hal_i2c.c **** /* Private functions to handle IT transfer */
 328:Drivers/STM32F7xx_HAL_Driver/Src/stm32f7xx_hal_i2c.c **** static void I2C_ITAddrCplt(I2C_HandleTypeDef *hi2c, uint32_t ITFlags);
 329:Drivers/STM32F7xx_HAL_Driver/Src/stm32f7xx_hal_i2c.c **** static void I2C_ITMasterSequentialCplt(I2C_HandleTypeDef *hi2c);
 330:Drivers/STM32F7xx_HAL_Driver/Src/stm32f7xx_hal_i2c.c **** static void I2C_ITSlaveSequentialCplt(I2C_HandleTypeDef *hi2c);
 331:Drivers/STM32F7xx_HAL_Driver/Src/stm32f7xx_hal_i2c.c **** static void I2C_ITMasterCplt(I2C_HandleTypeDef *hi2c, uint32_t ITFlags);
 332:Drivers/STM32F7xx_HAL_Driver/Src/stm32f7xx_hal_i2c.c **** static void I2C_ITSlaveCplt(I2C_HandleTypeDef *hi2c, uint32_t ITFlags);
 333:Drivers/STM32F7xx_HAL_Driver/Src/stm32f7xx_hal_i2c.c **** static void I2C_ITListenCplt(I2C_HandleTypeDef *hi2c, uint32_t ITFlags);
 334:Drivers/STM32F7xx_HAL_Driver/Src/stm32f7xx_hal_i2c.c **** static void I2C_ITError(I2C_HandleTypeDef *hi2c, uint32_t ErrorCode);
 335:Drivers/STM32F7xx_HAL_Driver/Src/stm32f7xx_hal_i2c.c **** 
 336:Drivers/STM32F7xx_HAL_Driver/Src/stm32f7xx_hal_i2c.c **** /* Private functions to handle IT transfer */
 337:Drivers/STM32F7xx_HAL_Driver/Src/stm32f7xx_hal_i2c.c **** static HAL_StatusTypeDef I2C_RequestMemoryWrite(I2C_HandleTypeDef *hi2c, uint16_t DevAddress, uint1
 338:Drivers/STM32F7xx_HAL_Driver/Src/stm32f7xx_hal_i2c.c **** static HAL_StatusTypeDef I2C_RequestMemoryRead(I2C_HandleTypeDef *hi2c, uint16_t DevAddress, uint16
 339:Drivers/STM32F7xx_HAL_Driver/Src/stm32f7xx_hal_i2c.c **** 
 340:Drivers/STM32F7xx_HAL_Driver/Src/stm32f7xx_hal_i2c.c **** /* Private functions for I2C transfer IRQ handler */
 341:Drivers/STM32F7xx_HAL_Driver/Src/stm32f7xx_hal_i2c.c **** static HAL_StatusTypeDef I2C_Master_ISR_IT(struct __I2C_HandleTypeDef *hi2c, uint32_t ITFlags, uint
 342:Drivers/STM32F7xx_HAL_Driver/Src/stm32f7xx_hal_i2c.c **** static HAL_StatusTypeDef I2C_Slave_ISR_IT(struct __I2C_HandleTypeDef *hi2c, uint32_t ITFlags, uint3
 343:Drivers/STM32F7xx_HAL_Driver/Src/stm32f7xx_hal_i2c.c **** static HAL_StatusTypeDef I2C_Master_ISR_DMA(struct __I2C_HandleTypeDef *hi2c, uint32_t ITFlags, uin
 344:Drivers/STM32F7xx_HAL_Driver/Src/stm32f7xx_hal_i2c.c **** static HAL_StatusTypeDef I2C_Slave_ISR_DMA(struct __I2C_HandleTypeDef *hi2c, uint32_t ITFlags, uint
 345:Drivers/STM32F7xx_HAL_Driver/Src/stm32f7xx_hal_i2c.c **** 
 346:Drivers/STM32F7xx_HAL_Driver/Src/stm32f7xx_hal_i2c.c **** /* Private functions to handle flags during polling transfer */
 347:Drivers/STM32F7xx_HAL_Driver/Src/stm32f7xx_hal_i2c.c **** static HAL_StatusTypeDef I2C_WaitOnFlagUntilTimeout(I2C_HandleTypeDef *hi2c, uint32_t Flag, FlagSta
 348:Drivers/STM32F7xx_HAL_Driver/Src/stm32f7xx_hal_i2c.c **** static HAL_StatusTypeDef I2C_WaitOnTXISFlagUntilTimeout(I2C_HandleTypeDef *hi2c, uint32_t Timeout, 
 349:Drivers/STM32F7xx_HAL_Driver/Src/stm32f7xx_hal_i2c.c **** static HAL_StatusTypeDef I2C_WaitOnRXNEFlagUntilTimeout(I2C_HandleTypeDef *hi2c, uint32_t Timeout, 
 350:Drivers/STM32F7xx_HAL_Driver/Src/stm32f7xx_hal_i2c.c **** static HAL_StatusTypeDef I2C_WaitOnSTOPFlagUntilTimeout(I2C_HandleTypeDef *hi2c, uint32_t Timeout, 
 351:Drivers/STM32F7xx_HAL_Driver/Src/stm32f7xx_hal_i2c.c **** static HAL_StatusTypeDef I2C_IsAcknowledgeFailed(I2C_HandleTypeDef *hi2c, uint32_t Timeout, uint32_
 352:Drivers/STM32F7xx_HAL_Driver/Src/stm32f7xx_hal_i2c.c **** 
 353:Drivers/STM32F7xx_HAL_Driver/Src/stm32f7xx_hal_i2c.c **** /* Private functions to centralize the enable/disable of Interrupts */
 354:Drivers/STM32F7xx_HAL_Driver/Src/stm32f7xx_hal_i2c.c **** static HAL_StatusTypeDef I2C_Enable_IRQ(I2C_HandleTypeDef *hi2c, uint16_t InterruptRequest);
 355:Drivers/STM32F7xx_HAL_Driver/Src/stm32f7xx_hal_i2c.c **** static HAL_StatusTypeDef I2C_Disable_IRQ(I2C_HandleTypeDef *hi2c, uint16_t InterruptRequest);
 356:Drivers/STM32F7xx_HAL_Driver/Src/stm32f7xx_hal_i2c.c **** 
 357:Drivers/STM32F7xx_HAL_Driver/Src/stm32f7xx_hal_i2c.c **** /* Private functions to flush TXDR register */
 358:Drivers/STM32F7xx_HAL_Driver/Src/stm32f7xx_hal_i2c.c **** static void I2C_Flush_TXDR(I2C_HandleTypeDef *hi2c);
 359:Drivers/STM32F7xx_HAL_Driver/Src/stm32f7xx_hal_i2c.c **** 
 360:Drivers/STM32F7xx_HAL_Driver/Src/stm32f7xx_hal_i2c.c **** /* Private functions to handle  start, restart or stop a transfer */
 361:Drivers/STM32F7xx_HAL_Driver/Src/stm32f7xx_hal_i2c.c **** static void I2C_TransferConfig(I2C_HandleTypeDef *hi2c,  uint16_t DevAddress, uint8_t Size, uint32_
 362:Drivers/STM32F7xx_HAL_Driver/Src/stm32f7xx_hal_i2c.c **** /**
 363:Drivers/STM32F7xx_HAL_Driver/Src/stm32f7xx_hal_i2c.c ****   * @}
 364:Drivers/STM32F7xx_HAL_Driver/Src/stm32f7xx_hal_i2c.c ****   */
 365:Drivers/STM32F7xx_HAL_Driver/Src/stm32f7xx_hal_i2c.c **** 
 366:Drivers/STM32F7xx_HAL_Driver/Src/stm32f7xx_hal_i2c.c **** /* Exported functions --------------------------------------------------------*/
 367:Drivers/STM32F7xx_HAL_Driver/Src/stm32f7xx_hal_i2c.c **** 
 368:Drivers/STM32F7xx_HAL_Driver/Src/stm32f7xx_hal_i2c.c **** /** @defgroup I2C_Exported_Functions I2C Exported Functions
 369:Drivers/STM32F7xx_HAL_Driver/Src/stm32f7xx_hal_i2c.c ****   * @{
 370:Drivers/STM32F7xx_HAL_Driver/Src/stm32f7xx_hal_i2c.c ****   */
 371:Drivers/STM32F7xx_HAL_Driver/Src/stm32f7xx_hal_i2c.c **** 
 372:Drivers/STM32F7xx_HAL_Driver/Src/stm32f7xx_hal_i2c.c **** /** @defgroup I2C_Exported_Functions_Group1 Initialization and de-initialization functions
 373:Drivers/STM32F7xx_HAL_Driver/Src/stm32f7xx_hal_i2c.c ****  *  @brief    Initialization and Configuration functions
ARM GAS  /var/folders/n8/cvzdcwlj0vl4g_wtyz1ffy300000gn/T//ccBPNZvy.s 			page 8


 374:Drivers/STM32F7xx_HAL_Driver/Src/stm32f7xx_hal_i2c.c ****  *
 375:Drivers/STM32F7xx_HAL_Driver/Src/stm32f7xx_hal_i2c.c **** @verbatim
 376:Drivers/STM32F7xx_HAL_Driver/Src/stm32f7xx_hal_i2c.c ****  ===============================================================================
 377:Drivers/STM32F7xx_HAL_Driver/Src/stm32f7xx_hal_i2c.c ****               ##### Initialization and de-initialization functions #####
 378:Drivers/STM32F7xx_HAL_Driver/Src/stm32f7xx_hal_i2c.c ****  ===============================================================================
 379:Drivers/STM32F7xx_HAL_Driver/Src/stm32f7xx_hal_i2c.c ****     [..]  This subsection provides a set of functions allowing to initialize and
 380:Drivers/STM32F7xx_HAL_Driver/Src/stm32f7xx_hal_i2c.c ****           deinitialize the I2Cx peripheral:
 381:Drivers/STM32F7xx_HAL_Driver/Src/stm32f7xx_hal_i2c.c **** 
 382:Drivers/STM32F7xx_HAL_Driver/Src/stm32f7xx_hal_i2c.c ****       (+) User must Implement HAL_I2C_MspInit() function in which he configures
 383:Drivers/STM32F7xx_HAL_Driver/Src/stm32f7xx_hal_i2c.c ****           all related peripherals resources (CLOCK, GPIO, DMA, IT and NVIC ).
 384:Drivers/STM32F7xx_HAL_Driver/Src/stm32f7xx_hal_i2c.c **** 
 385:Drivers/STM32F7xx_HAL_Driver/Src/stm32f7xx_hal_i2c.c ****       (+) Call the function HAL_I2C_Init() to configure the selected device with
 386:Drivers/STM32F7xx_HAL_Driver/Src/stm32f7xx_hal_i2c.c ****           the selected configuration:
 387:Drivers/STM32F7xx_HAL_Driver/Src/stm32f7xx_hal_i2c.c ****         (++) Clock Timing
 388:Drivers/STM32F7xx_HAL_Driver/Src/stm32f7xx_hal_i2c.c ****         (++) Own Address 1
 389:Drivers/STM32F7xx_HAL_Driver/Src/stm32f7xx_hal_i2c.c ****         (++) Addressing mode (Master, Slave)
 390:Drivers/STM32F7xx_HAL_Driver/Src/stm32f7xx_hal_i2c.c ****         (++) Dual Addressing mode
 391:Drivers/STM32F7xx_HAL_Driver/Src/stm32f7xx_hal_i2c.c ****         (++) Own Address 2
 392:Drivers/STM32F7xx_HAL_Driver/Src/stm32f7xx_hal_i2c.c ****         (++) Own Address 2 Mask
 393:Drivers/STM32F7xx_HAL_Driver/Src/stm32f7xx_hal_i2c.c ****         (++) General call mode
 394:Drivers/STM32F7xx_HAL_Driver/Src/stm32f7xx_hal_i2c.c ****         (++) Nostretch mode
 395:Drivers/STM32F7xx_HAL_Driver/Src/stm32f7xx_hal_i2c.c **** 
 396:Drivers/STM32F7xx_HAL_Driver/Src/stm32f7xx_hal_i2c.c ****       (+) Call the function HAL_I2C_DeInit() to restore the default configuration
 397:Drivers/STM32F7xx_HAL_Driver/Src/stm32f7xx_hal_i2c.c ****           of the selected I2Cx peripheral.
 398:Drivers/STM32F7xx_HAL_Driver/Src/stm32f7xx_hal_i2c.c **** 
 399:Drivers/STM32F7xx_HAL_Driver/Src/stm32f7xx_hal_i2c.c **** @endverbatim
 400:Drivers/STM32F7xx_HAL_Driver/Src/stm32f7xx_hal_i2c.c ****   * @{
 401:Drivers/STM32F7xx_HAL_Driver/Src/stm32f7xx_hal_i2c.c ****   */
 402:Drivers/STM32F7xx_HAL_Driver/Src/stm32f7xx_hal_i2c.c **** 
 403:Drivers/STM32F7xx_HAL_Driver/Src/stm32f7xx_hal_i2c.c **** /**
 404:Drivers/STM32F7xx_HAL_Driver/Src/stm32f7xx_hal_i2c.c ****   * @brief  Initializes the I2C according to the specified parameters
 405:Drivers/STM32F7xx_HAL_Driver/Src/stm32f7xx_hal_i2c.c ****   *         in the I2C_InitTypeDef and initialize the associated handle.
 406:Drivers/STM32F7xx_HAL_Driver/Src/stm32f7xx_hal_i2c.c ****   * @param  hi2c Pointer to a I2C_HandleTypeDef structure that contains
 407:Drivers/STM32F7xx_HAL_Driver/Src/stm32f7xx_hal_i2c.c ****   *                the configuration information for the specified I2C.
 408:Drivers/STM32F7xx_HAL_Driver/Src/stm32f7xx_hal_i2c.c ****   * @retval HAL status
 409:Drivers/STM32F7xx_HAL_Driver/Src/stm32f7xx_hal_i2c.c ****   */
 410:Drivers/STM32F7xx_HAL_Driver/Src/stm32f7xx_hal_i2c.c **** HAL_StatusTypeDef HAL_I2C_Init(I2C_HandleTypeDef *hi2c)
 411:Drivers/STM32F7xx_HAL_Driver/Src/stm32f7xx_hal_i2c.c **** {
  28              		.loc 1 411 0
  29              		.cfi_startproc
  30              		@ args = 0, pretend = 0, frame = 8
  31              		@ frame_needed = 1, uses_anonymous_args = 0
  32 0000 80B5     		push	{r7, lr}
  33              	.LCFI0:
  34              		.cfi_def_cfa_offset 8
  35              		.cfi_offset 7, -8
  36              		.cfi_offset 14, -4
  37 0002 82B0     		sub	sp, sp, #8
  38              	.LCFI1:
  39              		.cfi_def_cfa_offset 16
  40 0004 00AF     		add	r7, sp, #0
  41              	.LCFI2:
  42              		.cfi_def_cfa_register 7
  43 0006 7860     		str	r0, [r7, #4]
 412:Drivers/STM32F7xx_HAL_Driver/Src/stm32f7xx_hal_i2c.c ****   /* Check the I2C handle allocation */
 413:Drivers/STM32F7xx_HAL_Driver/Src/stm32f7xx_hal_i2c.c ****   if (hi2c == NULL)
  44              		.loc 1 413 0
ARM GAS  /var/folders/n8/cvzdcwlj0vl4g_wtyz1ffy300000gn/T//ccBPNZvy.s 			page 9


  45 0008 7B68     		ldr	r3, [r7, #4]
  46 000a 002B     		cmp	r3, #0
  47 000c 01D1     		bne	.L2
 414:Drivers/STM32F7xx_HAL_Driver/Src/stm32f7xx_hal_i2c.c ****   {
 415:Drivers/STM32F7xx_HAL_Driver/Src/stm32f7xx_hal_i2c.c ****     return HAL_ERROR;
  48              		.loc 1 415 0
  49 000e 0123     		movs	r3, #1
  50 0010 7FE0     		b	.L3
  51              	.L2:
 416:Drivers/STM32F7xx_HAL_Driver/Src/stm32f7xx_hal_i2c.c ****   }
 417:Drivers/STM32F7xx_HAL_Driver/Src/stm32f7xx_hal_i2c.c **** 
 418:Drivers/STM32F7xx_HAL_Driver/Src/stm32f7xx_hal_i2c.c ****   /* Check the parameters */
 419:Drivers/STM32F7xx_HAL_Driver/Src/stm32f7xx_hal_i2c.c ****   assert_param(IS_I2C_ALL_INSTANCE(hi2c->Instance));
 420:Drivers/STM32F7xx_HAL_Driver/Src/stm32f7xx_hal_i2c.c ****   assert_param(IS_I2C_OWN_ADDRESS1(hi2c->Init.OwnAddress1));
 421:Drivers/STM32F7xx_HAL_Driver/Src/stm32f7xx_hal_i2c.c ****   assert_param(IS_I2C_ADDRESSING_MODE(hi2c->Init.AddressingMode));
 422:Drivers/STM32F7xx_HAL_Driver/Src/stm32f7xx_hal_i2c.c ****   assert_param(IS_I2C_DUAL_ADDRESS(hi2c->Init.DualAddressMode));
 423:Drivers/STM32F7xx_HAL_Driver/Src/stm32f7xx_hal_i2c.c ****   assert_param(IS_I2C_OWN_ADDRESS2(hi2c->Init.OwnAddress2));
 424:Drivers/STM32F7xx_HAL_Driver/Src/stm32f7xx_hal_i2c.c ****   assert_param(IS_I2C_OWN_ADDRESS2_MASK(hi2c->Init.OwnAddress2Masks));
 425:Drivers/STM32F7xx_HAL_Driver/Src/stm32f7xx_hal_i2c.c ****   assert_param(IS_I2C_GENERAL_CALL(hi2c->Init.GeneralCallMode));
 426:Drivers/STM32F7xx_HAL_Driver/Src/stm32f7xx_hal_i2c.c ****   assert_param(IS_I2C_NO_STRETCH(hi2c->Init.NoStretchMode));
 427:Drivers/STM32F7xx_HAL_Driver/Src/stm32f7xx_hal_i2c.c **** 
 428:Drivers/STM32F7xx_HAL_Driver/Src/stm32f7xx_hal_i2c.c ****   if (hi2c->State == HAL_I2C_STATE_RESET)
  52              		.loc 1 428 0
  53 0012 7B68     		ldr	r3, [r7, #4]
  54 0014 93F84130 		ldrb	r3, [r3, #65]
  55 0018 DBB2     		uxtb	r3, r3
  56 001a 002B     		cmp	r3, #0
  57 001c 06D1     		bne	.L4
 429:Drivers/STM32F7xx_HAL_Driver/Src/stm32f7xx_hal_i2c.c ****   {
 430:Drivers/STM32F7xx_HAL_Driver/Src/stm32f7xx_hal_i2c.c ****     /* Allocate lock resource and initialize it */
 431:Drivers/STM32F7xx_HAL_Driver/Src/stm32f7xx_hal_i2c.c ****     hi2c->Lock = HAL_UNLOCKED;
  58              		.loc 1 431 0
  59 001e 7B68     		ldr	r3, [r7, #4]
  60 0020 0022     		movs	r2, #0
  61 0022 83F84020 		strb	r2, [r3, #64]
 432:Drivers/STM32F7xx_HAL_Driver/Src/stm32f7xx_hal_i2c.c **** 
 433:Drivers/STM32F7xx_HAL_Driver/Src/stm32f7xx_hal_i2c.c ****     /* Init the low level hardware : GPIO, CLOCK, CORTEX...etc */
 434:Drivers/STM32F7xx_HAL_Driver/Src/stm32f7xx_hal_i2c.c ****     HAL_I2C_MspInit(hi2c);
  62              		.loc 1 434 0
  63 0026 7868     		ldr	r0, [r7, #4]
  64 0028 FFF7FEFF 		bl	HAL_I2C_MspInit
  65              	.L4:
 435:Drivers/STM32F7xx_HAL_Driver/Src/stm32f7xx_hal_i2c.c ****   }
 436:Drivers/STM32F7xx_HAL_Driver/Src/stm32f7xx_hal_i2c.c **** 
 437:Drivers/STM32F7xx_HAL_Driver/Src/stm32f7xx_hal_i2c.c ****   hi2c->State = HAL_I2C_STATE_BUSY;
  66              		.loc 1 437 0
  67 002c 7B68     		ldr	r3, [r7, #4]
  68 002e 2422     		movs	r2, #36
  69 0030 83F84120 		strb	r2, [r3, #65]
 438:Drivers/STM32F7xx_HAL_Driver/Src/stm32f7xx_hal_i2c.c **** 
 439:Drivers/STM32F7xx_HAL_Driver/Src/stm32f7xx_hal_i2c.c ****   /* Disable the selected I2C peripheral */
 440:Drivers/STM32F7xx_HAL_Driver/Src/stm32f7xx_hal_i2c.c ****   __HAL_I2C_DISABLE(hi2c);
  70              		.loc 1 440 0
  71 0034 7B68     		ldr	r3, [r7, #4]
  72 0036 1B68     		ldr	r3, [r3]
  73 0038 1A68     		ldr	r2, [r3]
  74 003a 7B68     		ldr	r3, [r7, #4]
ARM GAS  /var/folders/n8/cvzdcwlj0vl4g_wtyz1ffy300000gn/T//ccBPNZvy.s 			page 10


  75 003c 1B68     		ldr	r3, [r3]
  76 003e 22F00102 		bic	r2, r2, #1
  77 0042 1A60     		str	r2, [r3]
 441:Drivers/STM32F7xx_HAL_Driver/Src/stm32f7xx_hal_i2c.c **** 
 442:Drivers/STM32F7xx_HAL_Driver/Src/stm32f7xx_hal_i2c.c ****   /*---------------------------- I2Cx TIMINGR Configuration ------------------*/
 443:Drivers/STM32F7xx_HAL_Driver/Src/stm32f7xx_hal_i2c.c ****   /* Configure I2Cx: Frequency range */
 444:Drivers/STM32F7xx_HAL_Driver/Src/stm32f7xx_hal_i2c.c ****   hi2c->Instance->TIMINGR = hi2c->Init.Timing & TIMING_CLEAR_MASK;
  78              		.loc 1 444 0
  79 0044 7B68     		ldr	r3, [r7, #4]
  80 0046 5A68     		ldr	r2, [r3, #4]
  81 0048 7B68     		ldr	r3, [r7, #4]
  82 004a 1B68     		ldr	r3, [r3]
  83 004c 22F07062 		bic	r2, r2, #251658240
  84 0050 1A61     		str	r2, [r3, #16]
 445:Drivers/STM32F7xx_HAL_Driver/Src/stm32f7xx_hal_i2c.c **** 
 446:Drivers/STM32F7xx_HAL_Driver/Src/stm32f7xx_hal_i2c.c ****   /*---------------------------- I2Cx OAR1 Configuration ---------------------*/
 447:Drivers/STM32F7xx_HAL_Driver/Src/stm32f7xx_hal_i2c.c ****   /* Disable Own Address1 before set the Own Address1 configuration */
 448:Drivers/STM32F7xx_HAL_Driver/Src/stm32f7xx_hal_i2c.c ****   hi2c->Instance->OAR1 &= ~I2C_OAR1_OA1EN;
  85              		.loc 1 448 0
  86 0052 7B68     		ldr	r3, [r7, #4]
  87 0054 1B68     		ldr	r3, [r3]
  88 0056 9A68     		ldr	r2, [r3, #8]
  89 0058 7B68     		ldr	r3, [r7, #4]
  90 005a 1B68     		ldr	r3, [r3]
  91 005c 22F40042 		bic	r2, r2, #32768
  92 0060 9A60     		str	r2, [r3, #8]
 449:Drivers/STM32F7xx_HAL_Driver/Src/stm32f7xx_hal_i2c.c **** 
 450:Drivers/STM32F7xx_HAL_Driver/Src/stm32f7xx_hal_i2c.c ****   /* Configure I2Cx: Own Address1 and ack own address1 mode */
 451:Drivers/STM32F7xx_HAL_Driver/Src/stm32f7xx_hal_i2c.c ****   if (hi2c->Init.AddressingMode == I2C_ADDRESSINGMODE_7BIT)
  93              		.loc 1 451 0
  94 0062 7B68     		ldr	r3, [r7, #4]
  95 0064 DB68     		ldr	r3, [r3, #12]
  96 0066 012B     		cmp	r3, #1
  97 0068 07D1     		bne	.L5
 452:Drivers/STM32F7xx_HAL_Driver/Src/stm32f7xx_hal_i2c.c ****   {
 453:Drivers/STM32F7xx_HAL_Driver/Src/stm32f7xx_hal_i2c.c ****     hi2c->Instance->OAR1 = (I2C_OAR1_OA1EN | hi2c->Init.OwnAddress1);
  98              		.loc 1 453 0
  99 006a 7B68     		ldr	r3, [r7, #4]
 100 006c 9A68     		ldr	r2, [r3, #8]
 101 006e 7B68     		ldr	r3, [r7, #4]
 102 0070 1B68     		ldr	r3, [r3]
 103 0072 42F40042 		orr	r2, r2, #32768
 104 0076 9A60     		str	r2, [r3, #8]
 105 0078 06E0     		b	.L6
 106              	.L5:
 454:Drivers/STM32F7xx_HAL_Driver/Src/stm32f7xx_hal_i2c.c ****   }
 455:Drivers/STM32F7xx_HAL_Driver/Src/stm32f7xx_hal_i2c.c ****   else /* I2C_ADDRESSINGMODE_10BIT */
 456:Drivers/STM32F7xx_HAL_Driver/Src/stm32f7xx_hal_i2c.c ****   {
 457:Drivers/STM32F7xx_HAL_Driver/Src/stm32f7xx_hal_i2c.c ****     hi2c->Instance->OAR1 = (I2C_OAR1_OA1EN | I2C_OAR1_OA1MODE | hi2c->Init.OwnAddress1);
 107              		.loc 1 457 0
 108 007a 7B68     		ldr	r3, [r7, #4]
 109 007c 9A68     		ldr	r2, [r3, #8]
 110 007e 7B68     		ldr	r3, [r7, #4]
 111 0080 1B68     		ldr	r3, [r3]
 112 0082 42F40442 		orr	r2, r2, #33792
 113 0086 9A60     		str	r2, [r3, #8]
 114              	.L6:
ARM GAS  /var/folders/n8/cvzdcwlj0vl4g_wtyz1ffy300000gn/T//ccBPNZvy.s 			page 11


 458:Drivers/STM32F7xx_HAL_Driver/Src/stm32f7xx_hal_i2c.c ****   }
 459:Drivers/STM32F7xx_HAL_Driver/Src/stm32f7xx_hal_i2c.c **** 
 460:Drivers/STM32F7xx_HAL_Driver/Src/stm32f7xx_hal_i2c.c ****   /*---------------------------- I2Cx CR2 Configuration ----------------------*/
 461:Drivers/STM32F7xx_HAL_Driver/Src/stm32f7xx_hal_i2c.c ****   /* Configure I2Cx: Addressing Master mode */
 462:Drivers/STM32F7xx_HAL_Driver/Src/stm32f7xx_hal_i2c.c ****   if (hi2c->Init.AddressingMode == I2C_ADDRESSINGMODE_10BIT)
 115              		.loc 1 462 0
 116 0088 7B68     		ldr	r3, [r7, #4]
 117 008a DB68     		ldr	r3, [r3, #12]
 118 008c 022B     		cmp	r3, #2
 119 008e 04D1     		bne	.L7
 463:Drivers/STM32F7xx_HAL_Driver/Src/stm32f7xx_hal_i2c.c ****   {
 464:Drivers/STM32F7xx_HAL_Driver/Src/stm32f7xx_hal_i2c.c ****     hi2c->Instance->CR2 = (I2C_CR2_ADD10);
 120              		.loc 1 464 0
 121 0090 7B68     		ldr	r3, [r7, #4]
 122 0092 1B68     		ldr	r3, [r3]
 123 0094 4FF40062 		mov	r2, #2048
 124 0098 5A60     		str	r2, [r3, #4]
 125              	.L7:
 465:Drivers/STM32F7xx_HAL_Driver/Src/stm32f7xx_hal_i2c.c ****   }
 466:Drivers/STM32F7xx_HAL_Driver/Src/stm32f7xx_hal_i2c.c ****   /* Enable the AUTOEND by default, and enable NACK (should be disable only during Slave process */
 467:Drivers/STM32F7xx_HAL_Driver/Src/stm32f7xx_hal_i2c.c ****   hi2c->Instance->CR2 |= (I2C_CR2_AUTOEND | I2C_CR2_NACK);
 126              		.loc 1 467 0
 127 009a 7B68     		ldr	r3, [r7, #4]
 128 009c 1B68     		ldr	r3, [r3]
 129 009e 5968     		ldr	r1, [r3, #4]
 130 00a0 7B68     		ldr	r3, [r7, #4]
 131 00a2 1A68     		ldr	r2, [r3]
 132 00a4 1D4B     		ldr	r3, .L8
 133 00a6 0B43     		orrs	r3, r3, r1
 134 00a8 5360     		str	r3, [r2, #4]
 468:Drivers/STM32F7xx_HAL_Driver/Src/stm32f7xx_hal_i2c.c **** 
 469:Drivers/STM32F7xx_HAL_Driver/Src/stm32f7xx_hal_i2c.c ****   /*---------------------------- I2Cx OAR2 Configuration ---------------------*/
 470:Drivers/STM32F7xx_HAL_Driver/Src/stm32f7xx_hal_i2c.c ****   /* Disable Own Address2 before set the Own Address2 configuration */
 471:Drivers/STM32F7xx_HAL_Driver/Src/stm32f7xx_hal_i2c.c ****   hi2c->Instance->OAR2 &= ~I2C_DUALADDRESS_ENABLE;
 135              		.loc 1 471 0
 136 00aa 7B68     		ldr	r3, [r7, #4]
 137 00ac 1B68     		ldr	r3, [r3]
 138 00ae DA68     		ldr	r2, [r3, #12]
 139 00b0 7B68     		ldr	r3, [r7, #4]
 140 00b2 1B68     		ldr	r3, [r3]
 141 00b4 22F40042 		bic	r2, r2, #32768
 142 00b8 DA60     		str	r2, [r3, #12]
 472:Drivers/STM32F7xx_HAL_Driver/Src/stm32f7xx_hal_i2c.c **** 
 473:Drivers/STM32F7xx_HAL_Driver/Src/stm32f7xx_hal_i2c.c ****   /* Configure I2Cx: Dual mode and Own Address2 */
 474:Drivers/STM32F7xx_HAL_Driver/Src/stm32f7xx_hal_i2c.c ****   hi2c->Instance->OAR2 = (hi2c->Init.DualAddressMode | hi2c->Init.OwnAddress2 | (hi2c->Init.OwnAddr
 143              		.loc 1 474 0
 144 00ba 7B68     		ldr	r3, [r7, #4]
 145 00bc 1A69     		ldr	r2, [r3, #16]
 146 00be 7B68     		ldr	r3, [r7, #4]
 147 00c0 5B69     		ldr	r3, [r3, #20]
 148 00c2 42EA0301 		orr	r1, r2, r3
 149 00c6 7B68     		ldr	r3, [r7, #4]
 150 00c8 9B69     		ldr	r3, [r3, #24]
 151 00ca 1A02     		lsls	r2, r3, #8
 152 00cc 7B68     		ldr	r3, [r7, #4]
 153 00ce 1B68     		ldr	r3, [r3]
 154 00d0 0A43     		orrs	r2, r2, r1
ARM GAS  /var/folders/n8/cvzdcwlj0vl4g_wtyz1ffy300000gn/T//ccBPNZvy.s 			page 12


 155 00d2 DA60     		str	r2, [r3, #12]
 475:Drivers/STM32F7xx_HAL_Driver/Src/stm32f7xx_hal_i2c.c **** 
 476:Drivers/STM32F7xx_HAL_Driver/Src/stm32f7xx_hal_i2c.c ****   /*---------------------------- I2Cx CR1 Configuration ----------------------*/
 477:Drivers/STM32F7xx_HAL_Driver/Src/stm32f7xx_hal_i2c.c ****   /* Configure I2Cx: Generalcall and NoStretch mode */
 478:Drivers/STM32F7xx_HAL_Driver/Src/stm32f7xx_hal_i2c.c ****   hi2c->Instance->CR1 = (hi2c->Init.GeneralCallMode | hi2c->Init.NoStretchMode);
 156              		.loc 1 478 0
 157 00d4 7B68     		ldr	r3, [r7, #4]
 158 00d6 D969     		ldr	r1, [r3, #28]
 159 00d8 7B68     		ldr	r3, [r7, #4]
 160 00da 1A6A     		ldr	r2, [r3, #32]
 161 00dc 7B68     		ldr	r3, [r7, #4]
 162 00de 1B68     		ldr	r3, [r3]
 163 00e0 0A43     		orrs	r2, r2, r1
 164 00e2 1A60     		str	r2, [r3]
 479:Drivers/STM32F7xx_HAL_Driver/Src/stm32f7xx_hal_i2c.c **** 
 480:Drivers/STM32F7xx_HAL_Driver/Src/stm32f7xx_hal_i2c.c ****   /* Enable the selected I2C peripheral */
 481:Drivers/STM32F7xx_HAL_Driver/Src/stm32f7xx_hal_i2c.c ****   __HAL_I2C_ENABLE(hi2c);
 165              		.loc 1 481 0
 166 00e4 7B68     		ldr	r3, [r7, #4]
 167 00e6 1B68     		ldr	r3, [r3]
 168 00e8 1A68     		ldr	r2, [r3]
 169 00ea 7B68     		ldr	r3, [r7, #4]
 170 00ec 1B68     		ldr	r3, [r3]
 171 00ee 42F00102 		orr	r2, r2, #1
 172 00f2 1A60     		str	r2, [r3]
 482:Drivers/STM32F7xx_HAL_Driver/Src/stm32f7xx_hal_i2c.c **** 
 483:Drivers/STM32F7xx_HAL_Driver/Src/stm32f7xx_hal_i2c.c ****   hi2c->ErrorCode = HAL_I2C_ERROR_NONE;
 173              		.loc 1 483 0
 174 00f4 7B68     		ldr	r3, [r7, #4]
 175 00f6 0022     		movs	r2, #0
 176 00f8 5A64     		str	r2, [r3, #68]
 484:Drivers/STM32F7xx_HAL_Driver/Src/stm32f7xx_hal_i2c.c ****   hi2c->State = HAL_I2C_STATE_READY;
 177              		.loc 1 484 0
 178 00fa 7B68     		ldr	r3, [r7, #4]
 179 00fc 2022     		movs	r2, #32
 180 00fe 83F84120 		strb	r2, [r3, #65]
 485:Drivers/STM32F7xx_HAL_Driver/Src/stm32f7xx_hal_i2c.c ****   hi2c->PreviousState = I2C_STATE_NONE;
 181              		.loc 1 485 0
 182 0102 7B68     		ldr	r3, [r7, #4]
 183 0104 0022     		movs	r2, #0
 184 0106 1A63     		str	r2, [r3, #48]
 486:Drivers/STM32F7xx_HAL_Driver/Src/stm32f7xx_hal_i2c.c ****   hi2c->Mode = HAL_I2C_MODE_NONE;
 185              		.loc 1 486 0
 186 0108 7B68     		ldr	r3, [r7, #4]
 187 010a 0022     		movs	r2, #0
 188 010c 83F84220 		strb	r2, [r3, #66]
 487:Drivers/STM32F7xx_HAL_Driver/Src/stm32f7xx_hal_i2c.c **** 
 488:Drivers/STM32F7xx_HAL_Driver/Src/stm32f7xx_hal_i2c.c ****   return HAL_OK;
 189              		.loc 1 488 0
 190 0110 0023     		movs	r3, #0
 191              	.L3:
 489:Drivers/STM32F7xx_HAL_Driver/Src/stm32f7xx_hal_i2c.c **** }
 192              		.loc 1 489 0
 193 0112 1846     		mov	r0, r3
 194 0114 0837     		adds	r7, r7, #8
 195              	.LCFI3:
 196              		.cfi_def_cfa_offset 8
ARM GAS  /var/folders/n8/cvzdcwlj0vl4g_wtyz1ffy300000gn/T//ccBPNZvy.s 			page 13


 197 0116 BD46     		mov	sp, r7
 198              	.LCFI4:
 199              		.cfi_def_cfa_register 13
 200              		@ sp needed
 201 0118 80BD     		pop	{r7, pc}
 202              	.L9:
 203 011a 00BF     		.align	2
 204              	.L8:
 205 011c 00800002 		.word	33587200
 206              		.cfi_endproc
 207              	.LFE138:
 209              		.section	.text.HAL_I2C_DeInit,"ax",%progbits
 210              		.align	1
 211              		.global	HAL_I2C_DeInit
 212              		.syntax unified
 213              		.thumb
 214              		.thumb_func
 215              		.fpu fpv5-sp-d16
 217              	HAL_I2C_DeInit:
 218              	.LFB139:
 490:Drivers/STM32F7xx_HAL_Driver/Src/stm32f7xx_hal_i2c.c **** 
 491:Drivers/STM32F7xx_HAL_Driver/Src/stm32f7xx_hal_i2c.c **** /**
 492:Drivers/STM32F7xx_HAL_Driver/Src/stm32f7xx_hal_i2c.c ****   * @brief  DeInitialize the I2C peripheral.
 493:Drivers/STM32F7xx_HAL_Driver/Src/stm32f7xx_hal_i2c.c ****   * @param  hi2c Pointer to a I2C_HandleTypeDef structure that contains
 494:Drivers/STM32F7xx_HAL_Driver/Src/stm32f7xx_hal_i2c.c ****   *                the configuration information for the specified I2C.
 495:Drivers/STM32F7xx_HAL_Driver/Src/stm32f7xx_hal_i2c.c ****   * @retval HAL status
 496:Drivers/STM32F7xx_HAL_Driver/Src/stm32f7xx_hal_i2c.c ****   */
 497:Drivers/STM32F7xx_HAL_Driver/Src/stm32f7xx_hal_i2c.c **** HAL_StatusTypeDef HAL_I2C_DeInit(I2C_HandleTypeDef *hi2c)
 498:Drivers/STM32F7xx_HAL_Driver/Src/stm32f7xx_hal_i2c.c **** {
 219              		.loc 1 498 0
 220              		.cfi_startproc
 221              		@ args = 0, pretend = 0, frame = 8
 222              		@ frame_needed = 1, uses_anonymous_args = 0
 223 0000 80B5     		push	{r7, lr}
 224              	.LCFI5:
 225              		.cfi_def_cfa_offset 8
 226              		.cfi_offset 7, -8
 227              		.cfi_offset 14, -4
 228 0002 82B0     		sub	sp, sp, #8
 229              	.LCFI6:
 230              		.cfi_def_cfa_offset 16
 231 0004 00AF     		add	r7, sp, #0
 232              	.LCFI7:
 233              		.cfi_def_cfa_register 7
 234 0006 7860     		str	r0, [r7, #4]
 499:Drivers/STM32F7xx_HAL_Driver/Src/stm32f7xx_hal_i2c.c ****   /* Check the I2C handle allocation */
 500:Drivers/STM32F7xx_HAL_Driver/Src/stm32f7xx_hal_i2c.c ****   if (hi2c == NULL)
 235              		.loc 1 500 0
 236 0008 7B68     		ldr	r3, [r7, #4]
 237 000a 002B     		cmp	r3, #0
 238 000c 01D1     		bne	.L11
 501:Drivers/STM32F7xx_HAL_Driver/Src/stm32f7xx_hal_i2c.c ****   {
 502:Drivers/STM32F7xx_HAL_Driver/Src/stm32f7xx_hal_i2c.c ****     return HAL_ERROR;
 239              		.loc 1 502 0
 240 000e 0123     		movs	r3, #1
 241 0010 21E0     		b	.L12
 242              	.L11:
ARM GAS  /var/folders/n8/cvzdcwlj0vl4g_wtyz1ffy300000gn/T//ccBPNZvy.s 			page 14


 503:Drivers/STM32F7xx_HAL_Driver/Src/stm32f7xx_hal_i2c.c ****   }
 504:Drivers/STM32F7xx_HAL_Driver/Src/stm32f7xx_hal_i2c.c **** 
 505:Drivers/STM32F7xx_HAL_Driver/Src/stm32f7xx_hal_i2c.c ****   /* Check the parameters */
 506:Drivers/STM32F7xx_HAL_Driver/Src/stm32f7xx_hal_i2c.c ****   assert_param(IS_I2C_ALL_INSTANCE(hi2c->Instance));
 507:Drivers/STM32F7xx_HAL_Driver/Src/stm32f7xx_hal_i2c.c **** 
 508:Drivers/STM32F7xx_HAL_Driver/Src/stm32f7xx_hal_i2c.c ****   hi2c->State = HAL_I2C_STATE_BUSY;
 243              		.loc 1 508 0
 244 0012 7B68     		ldr	r3, [r7, #4]
 245 0014 2422     		movs	r2, #36
 246 0016 83F84120 		strb	r2, [r3, #65]
 509:Drivers/STM32F7xx_HAL_Driver/Src/stm32f7xx_hal_i2c.c **** 
 510:Drivers/STM32F7xx_HAL_Driver/Src/stm32f7xx_hal_i2c.c ****   /* Disable the I2C Peripheral Clock */
 511:Drivers/STM32F7xx_HAL_Driver/Src/stm32f7xx_hal_i2c.c ****   __HAL_I2C_DISABLE(hi2c);
 247              		.loc 1 511 0
 248 001a 7B68     		ldr	r3, [r7, #4]
 249 001c 1B68     		ldr	r3, [r3]
 250 001e 1A68     		ldr	r2, [r3]
 251 0020 7B68     		ldr	r3, [r7, #4]
 252 0022 1B68     		ldr	r3, [r3]
 253 0024 22F00102 		bic	r2, r2, #1
 254 0028 1A60     		str	r2, [r3]
 512:Drivers/STM32F7xx_HAL_Driver/Src/stm32f7xx_hal_i2c.c **** 
 513:Drivers/STM32F7xx_HAL_Driver/Src/stm32f7xx_hal_i2c.c ****   /* DeInit the low level hardware: GPIO, CLOCK, NVIC */
 514:Drivers/STM32F7xx_HAL_Driver/Src/stm32f7xx_hal_i2c.c ****   HAL_I2C_MspDeInit(hi2c);
 255              		.loc 1 514 0
 256 002a 7868     		ldr	r0, [r7, #4]
 257 002c FFF7FEFF 		bl	HAL_I2C_MspDeInit
 515:Drivers/STM32F7xx_HAL_Driver/Src/stm32f7xx_hal_i2c.c **** 
 516:Drivers/STM32F7xx_HAL_Driver/Src/stm32f7xx_hal_i2c.c ****   hi2c->ErrorCode = HAL_I2C_ERROR_NONE;
 258              		.loc 1 516 0
 259 0030 7B68     		ldr	r3, [r7, #4]
 260 0032 0022     		movs	r2, #0
 261 0034 5A64     		str	r2, [r3, #68]
 517:Drivers/STM32F7xx_HAL_Driver/Src/stm32f7xx_hal_i2c.c ****   hi2c->State = HAL_I2C_STATE_RESET;
 262              		.loc 1 517 0
 263 0036 7B68     		ldr	r3, [r7, #4]
 264 0038 0022     		movs	r2, #0
 265 003a 83F84120 		strb	r2, [r3, #65]
 518:Drivers/STM32F7xx_HAL_Driver/Src/stm32f7xx_hal_i2c.c ****   hi2c->PreviousState = I2C_STATE_NONE;
 266              		.loc 1 518 0
 267 003e 7B68     		ldr	r3, [r7, #4]
 268 0040 0022     		movs	r2, #0
 269 0042 1A63     		str	r2, [r3, #48]
 519:Drivers/STM32F7xx_HAL_Driver/Src/stm32f7xx_hal_i2c.c ****   hi2c->Mode = HAL_I2C_MODE_NONE;
 270              		.loc 1 519 0
 271 0044 7B68     		ldr	r3, [r7, #4]
 272 0046 0022     		movs	r2, #0
 273 0048 83F84220 		strb	r2, [r3, #66]
 520:Drivers/STM32F7xx_HAL_Driver/Src/stm32f7xx_hal_i2c.c **** 
 521:Drivers/STM32F7xx_HAL_Driver/Src/stm32f7xx_hal_i2c.c ****   /* Release Lock */
 522:Drivers/STM32F7xx_HAL_Driver/Src/stm32f7xx_hal_i2c.c ****   __HAL_UNLOCK(hi2c);
 274              		.loc 1 522 0
 275 004c 7B68     		ldr	r3, [r7, #4]
 276 004e 0022     		movs	r2, #0
 277 0050 83F84020 		strb	r2, [r3, #64]
 523:Drivers/STM32F7xx_HAL_Driver/Src/stm32f7xx_hal_i2c.c **** 
 524:Drivers/STM32F7xx_HAL_Driver/Src/stm32f7xx_hal_i2c.c ****   return HAL_OK;
ARM GAS  /var/folders/n8/cvzdcwlj0vl4g_wtyz1ffy300000gn/T//ccBPNZvy.s 			page 15


 278              		.loc 1 524 0
 279 0054 0023     		movs	r3, #0
 280              	.L12:
 525:Drivers/STM32F7xx_HAL_Driver/Src/stm32f7xx_hal_i2c.c **** }
 281              		.loc 1 525 0
 282 0056 1846     		mov	r0, r3
 283 0058 0837     		adds	r7, r7, #8
 284              	.LCFI8:
 285              		.cfi_def_cfa_offset 8
 286 005a BD46     		mov	sp, r7
 287              	.LCFI9:
 288              		.cfi_def_cfa_register 13
 289              		@ sp needed
 290 005c 80BD     		pop	{r7, pc}
 291              		.cfi_endproc
 292              	.LFE139:
 294              		.section	.text.HAL_I2C_MspInit,"ax",%progbits
 295              		.align	1
 296              		.weak	HAL_I2C_MspInit
 297              		.syntax unified
 298              		.thumb
 299              		.thumb_func
 300              		.fpu fpv5-sp-d16
 302              	HAL_I2C_MspInit:
 303              	.LFB140:
 526:Drivers/STM32F7xx_HAL_Driver/Src/stm32f7xx_hal_i2c.c **** 
 527:Drivers/STM32F7xx_HAL_Driver/Src/stm32f7xx_hal_i2c.c **** /**
 528:Drivers/STM32F7xx_HAL_Driver/Src/stm32f7xx_hal_i2c.c ****   * @brief Initialize the I2C MSP.
 529:Drivers/STM32F7xx_HAL_Driver/Src/stm32f7xx_hal_i2c.c ****   * @param  hi2c Pointer to a I2C_HandleTypeDef structure that contains
 530:Drivers/STM32F7xx_HAL_Driver/Src/stm32f7xx_hal_i2c.c ****   *                the configuration information for the specified I2C.
 531:Drivers/STM32F7xx_HAL_Driver/Src/stm32f7xx_hal_i2c.c ****   * @retval None
 532:Drivers/STM32F7xx_HAL_Driver/Src/stm32f7xx_hal_i2c.c ****   */
 533:Drivers/STM32F7xx_HAL_Driver/Src/stm32f7xx_hal_i2c.c **** __weak void HAL_I2C_MspInit(I2C_HandleTypeDef *hi2c)
 534:Drivers/STM32F7xx_HAL_Driver/Src/stm32f7xx_hal_i2c.c **** {
 304              		.loc 1 534 0
 305              		.cfi_startproc
 306              		@ args = 0, pretend = 0, frame = 8
 307              		@ frame_needed = 1, uses_anonymous_args = 0
 308              		@ link register save eliminated.
 309 0000 80B4     		push	{r7}
 310              	.LCFI10:
 311              		.cfi_def_cfa_offset 4
 312              		.cfi_offset 7, -4
 313 0002 83B0     		sub	sp, sp, #12
 314              	.LCFI11:
 315              		.cfi_def_cfa_offset 16
 316 0004 00AF     		add	r7, sp, #0
 317              	.LCFI12:
 318              		.cfi_def_cfa_register 7
 319 0006 7860     		str	r0, [r7, #4]
 535:Drivers/STM32F7xx_HAL_Driver/Src/stm32f7xx_hal_i2c.c ****   /* Prevent unused argument(s) compilation warning */
 536:Drivers/STM32F7xx_HAL_Driver/Src/stm32f7xx_hal_i2c.c ****   UNUSED(hi2c);
 537:Drivers/STM32F7xx_HAL_Driver/Src/stm32f7xx_hal_i2c.c **** 
 538:Drivers/STM32F7xx_HAL_Driver/Src/stm32f7xx_hal_i2c.c ****   /* NOTE : This function should not be modified, when the callback is needed,
 539:Drivers/STM32F7xx_HAL_Driver/Src/stm32f7xx_hal_i2c.c ****             the HAL_I2C_MspInit could be implemented in the user file
 540:Drivers/STM32F7xx_HAL_Driver/Src/stm32f7xx_hal_i2c.c ****    */
 541:Drivers/STM32F7xx_HAL_Driver/Src/stm32f7xx_hal_i2c.c **** }
ARM GAS  /var/folders/n8/cvzdcwlj0vl4g_wtyz1ffy300000gn/T//ccBPNZvy.s 			page 16


 320              		.loc 1 541 0
 321 0008 00BF     		nop
 322 000a 0C37     		adds	r7, r7, #12
 323              	.LCFI13:
 324              		.cfi_def_cfa_offset 4
 325 000c BD46     		mov	sp, r7
 326              	.LCFI14:
 327              		.cfi_def_cfa_register 13
 328              		@ sp needed
 329 000e 5DF8047B 		ldr	r7, [sp], #4
 330              	.LCFI15:
 331              		.cfi_restore 7
 332              		.cfi_def_cfa_offset 0
 333 0012 7047     		bx	lr
 334              		.cfi_endproc
 335              	.LFE140:
 337              		.section	.text.HAL_I2C_MspDeInit,"ax",%progbits
 338              		.align	1
 339              		.weak	HAL_I2C_MspDeInit
 340              		.syntax unified
 341              		.thumb
 342              		.thumb_func
 343              		.fpu fpv5-sp-d16
 345              	HAL_I2C_MspDeInit:
 346              	.LFB141:
 542:Drivers/STM32F7xx_HAL_Driver/Src/stm32f7xx_hal_i2c.c **** 
 543:Drivers/STM32F7xx_HAL_Driver/Src/stm32f7xx_hal_i2c.c **** /**
 544:Drivers/STM32F7xx_HAL_Driver/Src/stm32f7xx_hal_i2c.c ****   * @brief DeInitialize the I2C MSP.
 545:Drivers/STM32F7xx_HAL_Driver/Src/stm32f7xx_hal_i2c.c ****   * @param  hi2c Pointer to a I2C_HandleTypeDef structure that contains
 546:Drivers/STM32F7xx_HAL_Driver/Src/stm32f7xx_hal_i2c.c ****   *                the configuration information for the specified I2C.
 547:Drivers/STM32F7xx_HAL_Driver/Src/stm32f7xx_hal_i2c.c ****   * @retval None
 548:Drivers/STM32F7xx_HAL_Driver/Src/stm32f7xx_hal_i2c.c ****   */
 549:Drivers/STM32F7xx_HAL_Driver/Src/stm32f7xx_hal_i2c.c **** __weak void HAL_I2C_MspDeInit(I2C_HandleTypeDef *hi2c)
 550:Drivers/STM32F7xx_HAL_Driver/Src/stm32f7xx_hal_i2c.c **** {
 347              		.loc 1 550 0
 348              		.cfi_startproc
 349              		@ args = 0, pretend = 0, frame = 8
 350              		@ frame_needed = 1, uses_anonymous_args = 0
 351              		@ link register save eliminated.
 352 0000 80B4     		push	{r7}
 353              	.LCFI16:
 354              		.cfi_def_cfa_offset 4
 355              		.cfi_offset 7, -4
 356 0002 83B0     		sub	sp, sp, #12
 357              	.LCFI17:
 358              		.cfi_def_cfa_offset 16
 359 0004 00AF     		add	r7, sp, #0
 360              	.LCFI18:
 361              		.cfi_def_cfa_register 7
 362 0006 7860     		str	r0, [r7, #4]
 551:Drivers/STM32F7xx_HAL_Driver/Src/stm32f7xx_hal_i2c.c ****   /* Prevent unused argument(s) compilation warning */
 552:Drivers/STM32F7xx_HAL_Driver/Src/stm32f7xx_hal_i2c.c ****   UNUSED(hi2c);
 553:Drivers/STM32F7xx_HAL_Driver/Src/stm32f7xx_hal_i2c.c **** 
 554:Drivers/STM32F7xx_HAL_Driver/Src/stm32f7xx_hal_i2c.c ****   /* NOTE : This function should not be modified, when the callback is needed,
 555:Drivers/STM32F7xx_HAL_Driver/Src/stm32f7xx_hal_i2c.c ****             the HAL_I2C_MspDeInit could be implemented in the user file
 556:Drivers/STM32F7xx_HAL_Driver/Src/stm32f7xx_hal_i2c.c ****    */
 557:Drivers/STM32F7xx_HAL_Driver/Src/stm32f7xx_hal_i2c.c **** }
ARM GAS  /var/folders/n8/cvzdcwlj0vl4g_wtyz1ffy300000gn/T//ccBPNZvy.s 			page 17


 363              		.loc 1 557 0
 364 0008 00BF     		nop
 365 000a 0C37     		adds	r7, r7, #12
 366              	.LCFI19:
 367              		.cfi_def_cfa_offset 4
 368 000c BD46     		mov	sp, r7
 369              	.LCFI20:
 370              		.cfi_def_cfa_register 13
 371              		@ sp needed
 372 000e 5DF8047B 		ldr	r7, [sp], #4
 373              	.LCFI21:
 374              		.cfi_restore 7
 375              		.cfi_def_cfa_offset 0
 376 0012 7047     		bx	lr
 377              		.cfi_endproc
 378              	.LFE141:
 380              		.section	.text.HAL_I2C_Master_Transmit,"ax",%progbits
 381              		.align	1
 382              		.global	HAL_I2C_Master_Transmit
 383              		.syntax unified
 384              		.thumb
 385              		.thumb_func
 386              		.fpu fpv5-sp-d16
 388              	HAL_I2C_Master_Transmit:
 389              	.LFB142:
 558:Drivers/STM32F7xx_HAL_Driver/Src/stm32f7xx_hal_i2c.c **** 
 559:Drivers/STM32F7xx_HAL_Driver/Src/stm32f7xx_hal_i2c.c **** /**
 560:Drivers/STM32F7xx_HAL_Driver/Src/stm32f7xx_hal_i2c.c ****   * @}
 561:Drivers/STM32F7xx_HAL_Driver/Src/stm32f7xx_hal_i2c.c ****   */
 562:Drivers/STM32F7xx_HAL_Driver/Src/stm32f7xx_hal_i2c.c **** 
 563:Drivers/STM32F7xx_HAL_Driver/Src/stm32f7xx_hal_i2c.c **** /** @defgroup I2C_Exported_Functions_Group2 Input and Output operation functions
 564:Drivers/STM32F7xx_HAL_Driver/Src/stm32f7xx_hal_i2c.c ****  *  @brief   Data transfers functions
 565:Drivers/STM32F7xx_HAL_Driver/Src/stm32f7xx_hal_i2c.c ****  *
 566:Drivers/STM32F7xx_HAL_Driver/Src/stm32f7xx_hal_i2c.c **** @verbatim
 567:Drivers/STM32F7xx_HAL_Driver/Src/stm32f7xx_hal_i2c.c ****  ===============================================================================
 568:Drivers/STM32F7xx_HAL_Driver/Src/stm32f7xx_hal_i2c.c ****                       ##### IO operation functions #####
 569:Drivers/STM32F7xx_HAL_Driver/Src/stm32f7xx_hal_i2c.c ****  ===============================================================================
 570:Drivers/STM32F7xx_HAL_Driver/Src/stm32f7xx_hal_i2c.c ****     [..]
 571:Drivers/STM32F7xx_HAL_Driver/Src/stm32f7xx_hal_i2c.c ****     This subsection provides a set of functions allowing to manage the I2C data
 572:Drivers/STM32F7xx_HAL_Driver/Src/stm32f7xx_hal_i2c.c ****     transfers.
 573:Drivers/STM32F7xx_HAL_Driver/Src/stm32f7xx_hal_i2c.c **** 
 574:Drivers/STM32F7xx_HAL_Driver/Src/stm32f7xx_hal_i2c.c ****     (#) There are two modes of transfer:
 575:Drivers/STM32F7xx_HAL_Driver/Src/stm32f7xx_hal_i2c.c ****        (++) Blocking mode : The communication is performed in the polling mode.
 576:Drivers/STM32F7xx_HAL_Driver/Src/stm32f7xx_hal_i2c.c ****             The status of all data processing is returned by the same function
 577:Drivers/STM32F7xx_HAL_Driver/Src/stm32f7xx_hal_i2c.c ****             after finishing transfer.
 578:Drivers/STM32F7xx_HAL_Driver/Src/stm32f7xx_hal_i2c.c ****        (++) No-Blocking mode : The communication is performed using Interrupts
 579:Drivers/STM32F7xx_HAL_Driver/Src/stm32f7xx_hal_i2c.c ****             or DMA. These functions return the status of the transfer startup.
 580:Drivers/STM32F7xx_HAL_Driver/Src/stm32f7xx_hal_i2c.c ****             The end of the data processing will be indicated through the
 581:Drivers/STM32F7xx_HAL_Driver/Src/stm32f7xx_hal_i2c.c ****             dedicated I2C IRQ when using Interrupt mode or the DMA IRQ when
 582:Drivers/STM32F7xx_HAL_Driver/Src/stm32f7xx_hal_i2c.c ****             using DMA mode.
 583:Drivers/STM32F7xx_HAL_Driver/Src/stm32f7xx_hal_i2c.c **** 
 584:Drivers/STM32F7xx_HAL_Driver/Src/stm32f7xx_hal_i2c.c ****     (#) Blocking mode functions are :
 585:Drivers/STM32F7xx_HAL_Driver/Src/stm32f7xx_hal_i2c.c ****         (++) HAL_I2C_Master_Transmit()
 586:Drivers/STM32F7xx_HAL_Driver/Src/stm32f7xx_hal_i2c.c ****         (++) HAL_I2C_Master_Receive()
 587:Drivers/STM32F7xx_HAL_Driver/Src/stm32f7xx_hal_i2c.c ****         (++) HAL_I2C_Slave_Transmit()
 588:Drivers/STM32F7xx_HAL_Driver/Src/stm32f7xx_hal_i2c.c ****         (++) HAL_I2C_Slave_Receive()
 589:Drivers/STM32F7xx_HAL_Driver/Src/stm32f7xx_hal_i2c.c ****         (++) HAL_I2C_Mem_Write()
ARM GAS  /var/folders/n8/cvzdcwlj0vl4g_wtyz1ffy300000gn/T//ccBPNZvy.s 			page 18


 590:Drivers/STM32F7xx_HAL_Driver/Src/stm32f7xx_hal_i2c.c ****         (++) HAL_I2C_Mem_Read()
 591:Drivers/STM32F7xx_HAL_Driver/Src/stm32f7xx_hal_i2c.c ****         (++) HAL_I2C_IsDeviceReady()
 592:Drivers/STM32F7xx_HAL_Driver/Src/stm32f7xx_hal_i2c.c **** 
 593:Drivers/STM32F7xx_HAL_Driver/Src/stm32f7xx_hal_i2c.c ****     (#) No-Blocking mode functions with Interrupt are :
 594:Drivers/STM32F7xx_HAL_Driver/Src/stm32f7xx_hal_i2c.c ****         (++) HAL_I2C_Master_Transmit_IT()
 595:Drivers/STM32F7xx_HAL_Driver/Src/stm32f7xx_hal_i2c.c ****         (++) HAL_I2C_Master_Receive_IT()
 596:Drivers/STM32F7xx_HAL_Driver/Src/stm32f7xx_hal_i2c.c ****         (++) HAL_I2C_Slave_Transmit_IT()
 597:Drivers/STM32F7xx_HAL_Driver/Src/stm32f7xx_hal_i2c.c ****         (++) HAL_I2C_Slave_Receive_IT()
 598:Drivers/STM32F7xx_HAL_Driver/Src/stm32f7xx_hal_i2c.c ****         (++) HAL_I2C_Mem_Write_IT()
 599:Drivers/STM32F7xx_HAL_Driver/Src/stm32f7xx_hal_i2c.c ****         (++) HAL_I2C_Mem_Read_IT()
 600:Drivers/STM32F7xx_HAL_Driver/Src/stm32f7xx_hal_i2c.c **** 
 601:Drivers/STM32F7xx_HAL_Driver/Src/stm32f7xx_hal_i2c.c ****     (#) No-Blocking mode functions with DMA are :
 602:Drivers/STM32F7xx_HAL_Driver/Src/stm32f7xx_hal_i2c.c ****         (++) HAL_I2C_Master_Transmit_DMA()
 603:Drivers/STM32F7xx_HAL_Driver/Src/stm32f7xx_hal_i2c.c ****         (++) HAL_I2C_Master_Receive_DMA()
 604:Drivers/STM32F7xx_HAL_Driver/Src/stm32f7xx_hal_i2c.c ****         (++) HAL_I2C_Slave_Transmit_DMA()
 605:Drivers/STM32F7xx_HAL_Driver/Src/stm32f7xx_hal_i2c.c ****         (++) HAL_I2C_Slave_Receive_DMA()
 606:Drivers/STM32F7xx_HAL_Driver/Src/stm32f7xx_hal_i2c.c ****         (++) HAL_I2C_Mem_Write_DMA()
 607:Drivers/STM32F7xx_HAL_Driver/Src/stm32f7xx_hal_i2c.c ****         (++) HAL_I2C_Mem_Read_DMA()
 608:Drivers/STM32F7xx_HAL_Driver/Src/stm32f7xx_hal_i2c.c **** 
 609:Drivers/STM32F7xx_HAL_Driver/Src/stm32f7xx_hal_i2c.c ****     (#) A set of Transfer Complete Callbacks are provided in non Blocking mode:
 610:Drivers/STM32F7xx_HAL_Driver/Src/stm32f7xx_hal_i2c.c ****         (++) HAL_I2C_MemTxCpltCallback()
 611:Drivers/STM32F7xx_HAL_Driver/Src/stm32f7xx_hal_i2c.c ****         (++) HAL_I2C_MemRxCpltCallback()
 612:Drivers/STM32F7xx_HAL_Driver/Src/stm32f7xx_hal_i2c.c ****         (++) HAL_I2C_MasterTxCpltCallback()
 613:Drivers/STM32F7xx_HAL_Driver/Src/stm32f7xx_hal_i2c.c ****         (++) HAL_I2C_MasterRxCpltCallback()
 614:Drivers/STM32F7xx_HAL_Driver/Src/stm32f7xx_hal_i2c.c ****         (++) HAL_I2C_SlaveTxCpltCallback()
 615:Drivers/STM32F7xx_HAL_Driver/Src/stm32f7xx_hal_i2c.c ****         (++) HAL_I2C_SlaveRxCpltCallback()
 616:Drivers/STM32F7xx_HAL_Driver/Src/stm32f7xx_hal_i2c.c ****         (++) HAL_I2C_ErrorCallback()
 617:Drivers/STM32F7xx_HAL_Driver/Src/stm32f7xx_hal_i2c.c **** 
 618:Drivers/STM32F7xx_HAL_Driver/Src/stm32f7xx_hal_i2c.c **** @endverbatim
 619:Drivers/STM32F7xx_HAL_Driver/Src/stm32f7xx_hal_i2c.c ****   * @{
 620:Drivers/STM32F7xx_HAL_Driver/Src/stm32f7xx_hal_i2c.c ****   */
 621:Drivers/STM32F7xx_HAL_Driver/Src/stm32f7xx_hal_i2c.c **** 
 622:Drivers/STM32F7xx_HAL_Driver/Src/stm32f7xx_hal_i2c.c **** /**
 623:Drivers/STM32F7xx_HAL_Driver/Src/stm32f7xx_hal_i2c.c ****   * @brief  Transmits in master mode an amount of data in blocking mode.
 624:Drivers/STM32F7xx_HAL_Driver/Src/stm32f7xx_hal_i2c.c ****   * @param  hi2c Pointer to a I2C_HandleTypeDef structure that contains
 625:Drivers/STM32F7xx_HAL_Driver/Src/stm32f7xx_hal_i2c.c ****   *                the configuration information for the specified I2C.
 626:Drivers/STM32F7xx_HAL_Driver/Src/stm32f7xx_hal_i2c.c ****   * @param  DevAddress Target device address which contain device 7 or 10 bits address value
 627:Drivers/STM32F7xx_HAL_Driver/Src/stm32f7xx_hal_i2c.c ****   *         in datasheet must be shifted to the left before calling the interface
 628:Drivers/STM32F7xx_HAL_Driver/Src/stm32f7xx_hal_i2c.c ****   * @param  pData Pointer to data buffer
 629:Drivers/STM32F7xx_HAL_Driver/Src/stm32f7xx_hal_i2c.c ****   * @param  Size Amount of data to be sent
 630:Drivers/STM32F7xx_HAL_Driver/Src/stm32f7xx_hal_i2c.c ****   * @param  Timeout Timeout duration
 631:Drivers/STM32F7xx_HAL_Driver/Src/stm32f7xx_hal_i2c.c ****   * @retval HAL status
 632:Drivers/STM32F7xx_HAL_Driver/Src/stm32f7xx_hal_i2c.c ****   */
 633:Drivers/STM32F7xx_HAL_Driver/Src/stm32f7xx_hal_i2c.c **** HAL_StatusTypeDef HAL_I2C_Master_Transmit(I2C_HandleTypeDef *hi2c, uint16_t DevAddress, uint8_t *pD
 634:Drivers/STM32F7xx_HAL_Driver/Src/stm32f7xx_hal_i2c.c **** {
 390              		.loc 1 634 0
 391              		.cfi_startproc
 392              		@ args = 4, pretend = 0, frame = 24
 393              		@ frame_needed = 1, uses_anonymous_args = 0
 394 0000 80B5     		push	{r7, lr}
 395              	.LCFI22:
 396              		.cfi_def_cfa_offset 8
 397              		.cfi_offset 7, -8
 398              		.cfi_offset 14, -4
 399 0002 88B0     		sub	sp, sp, #32
 400              	.LCFI23:
 401              		.cfi_def_cfa_offset 40
ARM GAS  /var/folders/n8/cvzdcwlj0vl4g_wtyz1ffy300000gn/T//ccBPNZvy.s 			page 19


 402 0004 02AF     		add	r7, sp, #8
 403              	.LCFI24:
 404              		.cfi_def_cfa 7, 32
 405 0006 F860     		str	r0, [r7, #12]
 406 0008 7A60     		str	r2, [r7, #4]
 407 000a 1A46     		mov	r2, r3
 408 000c 0B46     		mov	r3, r1	@ movhi
 409 000e 7B81     		strh	r3, [r7, #10]	@ movhi
 410 0010 1346     		mov	r3, r2	@ movhi
 411 0012 3B81     		strh	r3, [r7, #8]	@ movhi
 635:Drivers/STM32F7xx_HAL_Driver/Src/stm32f7xx_hal_i2c.c ****   uint32_t tickstart = 0U;
 412              		.loc 1 635 0
 413 0014 0023     		movs	r3, #0
 414 0016 7B61     		str	r3, [r7, #20]
 636:Drivers/STM32F7xx_HAL_Driver/Src/stm32f7xx_hal_i2c.c **** 
 637:Drivers/STM32F7xx_HAL_Driver/Src/stm32f7xx_hal_i2c.c ****   if (hi2c->State == HAL_I2C_STATE_READY)
 415              		.loc 1 637 0
 416 0018 FB68     		ldr	r3, [r7, #12]
 417 001a 93F84130 		ldrb	r3, [r3, #65]
 418 001e DBB2     		uxtb	r3, r3
 419 0020 202B     		cmp	r3, #32
 420 0022 40F0E480 		bne	.L16
 638:Drivers/STM32F7xx_HAL_Driver/Src/stm32f7xx_hal_i2c.c ****   {
 639:Drivers/STM32F7xx_HAL_Driver/Src/stm32f7xx_hal_i2c.c ****     /* Process Locked */
 640:Drivers/STM32F7xx_HAL_Driver/Src/stm32f7xx_hal_i2c.c ****     __HAL_LOCK(hi2c);
 421              		.loc 1 640 0
 422 0026 FB68     		ldr	r3, [r7, #12]
 423 0028 93F84030 		ldrb	r3, [r3, #64]	@ zero_extendqisi2
 424 002c 012B     		cmp	r3, #1
 425 002e 01D1     		bne	.L17
 426              		.loc 1 640 0 is_stmt 0 discriminator 1
 427 0030 0223     		movs	r3, #2
 428 0032 DDE0     		b	.L18
 429              	.L17:
 430              		.loc 1 640 0 discriminator 2
 431 0034 FB68     		ldr	r3, [r7, #12]
 432 0036 0122     		movs	r2, #1
 433 0038 83F84020 		strb	r2, [r3, #64]
 641:Drivers/STM32F7xx_HAL_Driver/Src/stm32f7xx_hal_i2c.c **** 
 642:Drivers/STM32F7xx_HAL_Driver/Src/stm32f7xx_hal_i2c.c ****     /* Init tickstart for timeout management*/
 643:Drivers/STM32F7xx_HAL_Driver/Src/stm32f7xx_hal_i2c.c ****     tickstart = HAL_GetTick();
 434              		.loc 1 643 0 is_stmt 1 discriminator 2
 435 003c FFF7FEFF 		bl	HAL_GetTick
 436 0040 7861     		str	r0, [r7, #20]
 644:Drivers/STM32F7xx_HAL_Driver/Src/stm32f7xx_hal_i2c.c **** 
 645:Drivers/STM32F7xx_HAL_Driver/Src/stm32f7xx_hal_i2c.c ****     if (I2C_WaitOnFlagUntilTimeout(hi2c, I2C_FLAG_BUSY, SET, I2C_TIMEOUT_BUSY, tickstart) != HAL_OK
 437              		.loc 1 645 0 discriminator 2
 438 0042 7B69     		ldr	r3, [r7, #20]
 439 0044 0093     		str	r3, [sp]
 440 0046 1923     		movs	r3, #25
 441 0048 0122     		movs	r2, #1
 442 004a 4FF40041 		mov	r1, #32768
 443 004e F868     		ldr	r0, [r7, #12]
 444 0050 FFF7FEFF 		bl	I2C_WaitOnFlagUntilTimeout
 445 0054 0346     		mov	r3, r0
 446 0056 002B     		cmp	r3, #0
 447 0058 01D0     		beq	.L19
ARM GAS  /var/folders/n8/cvzdcwlj0vl4g_wtyz1ffy300000gn/T//ccBPNZvy.s 			page 20


 646:Drivers/STM32F7xx_HAL_Driver/Src/stm32f7xx_hal_i2c.c ****     {
 647:Drivers/STM32F7xx_HAL_Driver/Src/stm32f7xx_hal_i2c.c ****       return HAL_TIMEOUT;
 448              		.loc 1 647 0
 449 005a 0323     		movs	r3, #3
 450 005c C8E0     		b	.L18
 451              	.L19:
 648:Drivers/STM32F7xx_HAL_Driver/Src/stm32f7xx_hal_i2c.c ****     }
 649:Drivers/STM32F7xx_HAL_Driver/Src/stm32f7xx_hal_i2c.c **** 
 650:Drivers/STM32F7xx_HAL_Driver/Src/stm32f7xx_hal_i2c.c ****     hi2c->State     = HAL_I2C_STATE_BUSY_TX;
 452              		.loc 1 650 0
 453 005e FB68     		ldr	r3, [r7, #12]
 454 0060 2122     		movs	r2, #33
 455 0062 83F84120 		strb	r2, [r3, #65]
 651:Drivers/STM32F7xx_HAL_Driver/Src/stm32f7xx_hal_i2c.c ****     hi2c->Mode      = HAL_I2C_MODE_MASTER;
 456              		.loc 1 651 0
 457 0066 FB68     		ldr	r3, [r7, #12]
 458 0068 1022     		movs	r2, #16
 459 006a 83F84220 		strb	r2, [r3, #66]
 652:Drivers/STM32F7xx_HAL_Driver/Src/stm32f7xx_hal_i2c.c ****     hi2c->ErrorCode = HAL_I2C_ERROR_NONE;
 460              		.loc 1 652 0
 461 006e FB68     		ldr	r3, [r7, #12]
 462 0070 0022     		movs	r2, #0
 463 0072 5A64     		str	r2, [r3, #68]
 653:Drivers/STM32F7xx_HAL_Driver/Src/stm32f7xx_hal_i2c.c **** 
 654:Drivers/STM32F7xx_HAL_Driver/Src/stm32f7xx_hal_i2c.c ****     /* Prepare transfer parameters */
 655:Drivers/STM32F7xx_HAL_Driver/Src/stm32f7xx_hal_i2c.c ****     hi2c->pBuffPtr  = pData;
 464              		.loc 1 655 0
 465 0074 FB68     		ldr	r3, [r7, #12]
 466 0076 7A68     		ldr	r2, [r7, #4]
 467 0078 5A62     		str	r2, [r3, #36]
 656:Drivers/STM32F7xx_HAL_Driver/Src/stm32f7xx_hal_i2c.c ****     hi2c->XferCount = Size;
 468              		.loc 1 656 0
 469 007a FB68     		ldr	r3, [r7, #12]
 470 007c 3A89     		ldrh	r2, [r7, #8]	@ movhi
 471 007e 5A85     		strh	r2, [r3, #42]	@ movhi
 657:Drivers/STM32F7xx_HAL_Driver/Src/stm32f7xx_hal_i2c.c ****     hi2c->XferISR   = NULL;
 472              		.loc 1 657 0
 473 0080 FB68     		ldr	r3, [r7, #12]
 474 0082 0022     		movs	r2, #0
 475 0084 5A63     		str	r2, [r3, #52]
 658:Drivers/STM32F7xx_HAL_Driver/Src/stm32f7xx_hal_i2c.c **** 
 659:Drivers/STM32F7xx_HAL_Driver/Src/stm32f7xx_hal_i2c.c ****     /* Send Slave Address */
 660:Drivers/STM32F7xx_HAL_Driver/Src/stm32f7xx_hal_i2c.c ****     /* Set NBYTES to write and reload if hi2c->XferCount > MAX_NBYTE_SIZE and generate RESTART */
 661:Drivers/STM32F7xx_HAL_Driver/Src/stm32f7xx_hal_i2c.c ****     if (hi2c->XferCount > MAX_NBYTE_SIZE)
 476              		.loc 1 661 0
 477 0086 FB68     		ldr	r3, [r7, #12]
 478 0088 5B8D     		ldrh	r3, [r3, #42]	@ movhi
 479 008a 9BB2     		uxth	r3, r3
 480 008c FF2B     		cmp	r3, #255
 481 008e 0ED9     		bls	.L20
 662:Drivers/STM32F7xx_HAL_Driver/Src/stm32f7xx_hal_i2c.c ****     {
 663:Drivers/STM32F7xx_HAL_Driver/Src/stm32f7xx_hal_i2c.c ****       hi2c->XferSize = MAX_NBYTE_SIZE;
 482              		.loc 1 663 0
 483 0090 FB68     		ldr	r3, [r7, #12]
 484 0092 FF22     		movs	r2, #255
 485 0094 1A85     		strh	r2, [r3, #40]	@ movhi
 664:Drivers/STM32F7xx_HAL_Driver/Src/stm32f7xx_hal_i2c.c ****       I2C_TransferConfig(hi2c, DevAddress, hi2c->XferSize, I2C_RELOAD_MODE, I2C_GENERATE_START_WRIT
ARM GAS  /var/folders/n8/cvzdcwlj0vl4g_wtyz1ffy300000gn/T//ccBPNZvy.s 			page 21


 486              		.loc 1 664 0
 487 0096 FB68     		ldr	r3, [r7, #12]
 488 0098 1B8D     		ldrh	r3, [r3, #40]
 489 009a DAB2     		uxtb	r2, r3
 490 009c 7989     		ldrh	r1, [r7, #10]
 491 009e 564B     		ldr	r3, .L30
 492 00a0 0093     		str	r3, [sp]
 493 00a2 4FF08073 		mov	r3, #16777216
 494 00a6 F868     		ldr	r0, [r7, #12]
 495 00a8 FFF7FEFF 		bl	I2C_TransferConfig
 496 00ac 70E0     		b	.L22
 497              	.L20:
 665:Drivers/STM32F7xx_HAL_Driver/Src/stm32f7xx_hal_i2c.c ****     }
 666:Drivers/STM32F7xx_HAL_Driver/Src/stm32f7xx_hal_i2c.c ****     else
 667:Drivers/STM32F7xx_HAL_Driver/Src/stm32f7xx_hal_i2c.c ****     {
 668:Drivers/STM32F7xx_HAL_Driver/Src/stm32f7xx_hal_i2c.c ****       hi2c->XferSize = hi2c->XferCount;
 498              		.loc 1 668 0
 499 00ae FB68     		ldr	r3, [r7, #12]
 500 00b0 5B8D     		ldrh	r3, [r3, #42]	@ movhi
 501 00b2 9AB2     		uxth	r2, r3
 502 00b4 FB68     		ldr	r3, [r7, #12]
 503 00b6 1A85     		strh	r2, [r3, #40]	@ movhi
 669:Drivers/STM32F7xx_HAL_Driver/Src/stm32f7xx_hal_i2c.c ****       I2C_TransferConfig(hi2c, DevAddress, hi2c->XferSize, I2C_AUTOEND_MODE, I2C_GENERATE_START_WRI
 504              		.loc 1 669 0
 505 00b8 FB68     		ldr	r3, [r7, #12]
 506 00ba 1B8D     		ldrh	r3, [r3, #40]
 507 00bc DAB2     		uxtb	r2, r3
 508 00be 7989     		ldrh	r1, [r7, #10]
 509 00c0 4D4B     		ldr	r3, .L30
 510 00c2 0093     		str	r3, [sp]
 511 00c4 4FF00073 		mov	r3, #33554432
 512 00c8 F868     		ldr	r0, [r7, #12]
 513 00ca FFF7FEFF 		bl	I2C_TransferConfig
 670:Drivers/STM32F7xx_HAL_Driver/Src/stm32f7xx_hal_i2c.c ****     }
 671:Drivers/STM32F7xx_HAL_Driver/Src/stm32f7xx_hal_i2c.c **** 
 672:Drivers/STM32F7xx_HAL_Driver/Src/stm32f7xx_hal_i2c.c ****     while (hi2c->XferCount > 0U)
 514              		.loc 1 672 0
 515 00ce 5FE0     		b	.L22
 516              	.L27:
 673:Drivers/STM32F7xx_HAL_Driver/Src/stm32f7xx_hal_i2c.c ****     {
 674:Drivers/STM32F7xx_HAL_Driver/Src/stm32f7xx_hal_i2c.c ****       /* Wait until TXIS flag is set */
 675:Drivers/STM32F7xx_HAL_Driver/Src/stm32f7xx_hal_i2c.c ****       if (I2C_WaitOnTXISFlagUntilTimeout(hi2c, Timeout, tickstart) != HAL_OK)
 517              		.loc 1 675 0
 518 00d0 7A69     		ldr	r2, [r7, #20]
 519 00d2 396A     		ldr	r1, [r7, #32]
 520 00d4 F868     		ldr	r0, [r7, #12]
 521 00d6 FFF7FEFF 		bl	I2C_WaitOnTXISFlagUntilTimeout
 522 00da 0346     		mov	r3, r0
 523 00dc 002B     		cmp	r3, #0
 524 00de 07D0     		beq	.L23
 676:Drivers/STM32F7xx_HAL_Driver/Src/stm32f7xx_hal_i2c.c ****       {
 677:Drivers/STM32F7xx_HAL_Driver/Src/stm32f7xx_hal_i2c.c ****         if (hi2c->ErrorCode == HAL_I2C_ERROR_AF)
 525              		.loc 1 677 0
 526 00e0 FB68     		ldr	r3, [r7, #12]
 527 00e2 5B6C     		ldr	r3, [r3, #68]
 528 00e4 042B     		cmp	r3, #4
 529 00e6 01D1     		bne	.L24
ARM GAS  /var/folders/n8/cvzdcwlj0vl4g_wtyz1ffy300000gn/T//ccBPNZvy.s 			page 22


 678:Drivers/STM32F7xx_HAL_Driver/Src/stm32f7xx_hal_i2c.c ****         {
 679:Drivers/STM32F7xx_HAL_Driver/Src/stm32f7xx_hal_i2c.c ****           return HAL_ERROR;
 530              		.loc 1 679 0
 531 00e8 0123     		movs	r3, #1
 532 00ea 81E0     		b	.L18
 533              	.L24:
 680:Drivers/STM32F7xx_HAL_Driver/Src/stm32f7xx_hal_i2c.c ****         }
 681:Drivers/STM32F7xx_HAL_Driver/Src/stm32f7xx_hal_i2c.c ****         else
 682:Drivers/STM32F7xx_HAL_Driver/Src/stm32f7xx_hal_i2c.c ****         {
 683:Drivers/STM32F7xx_HAL_Driver/Src/stm32f7xx_hal_i2c.c ****           return HAL_TIMEOUT;
 534              		.loc 1 683 0
 535 00ec 0323     		movs	r3, #3
 536 00ee 7FE0     		b	.L18
 537              	.L23:
 684:Drivers/STM32F7xx_HAL_Driver/Src/stm32f7xx_hal_i2c.c ****         }
 685:Drivers/STM32F7xx_HAL_Driver/Src/stm32f7xx_hal_i2c.c ****       }
 686:Drivers/STM32F7xx_HAL_Driver/Src/stm32f7xx_hal_i2c.c ****       /* Write data to TXDR */
 687:Drivers/STM32F7xx_HAL_Driver/Src/stm32f7xx_hal_i2c.c ****       hi2c->Instance->TXDR = (*hi2c->pBuffPtr++);
 538              		.loc 1 687 0
 539 00f0 FB68     		ldr	r3, [r7, #12]
 540 00f2 5B6A     		ldr	r3, [r3, #36]
 541 00f4 591C     		adds	r1, r3, #1
 542 00f6 FA68     		ldr	r2, [r7, #12]
 543 00f8 5162     		str	r1, [r2, #36]
 544 00fa 1A78     		ldrb	r2, [r3]	@ zero_extendqisi2
 545 00fc FB68     		ldr	r3, [r7, #12]
 546 00fe 1B68     		ldr	r3, [r3]
 547 0100 9A62     		str	r2, [r3, #40]
 688:Drivers/STM32F7xx_HAL_Driver/Src/stm32f7xx_hal_i2c.c ****       hi2c->XferCount--;
 548              		.loc 1 688 0
 549 0102 FB68     		ldr	r3, [r7, #12]
 550 0104 5B8D     		ldrh	r3, [r3, #42]	@ movhi
 551 0106 9BB2     		uxth	r3, r3
 552 0108 013B     		subs	r3, r3, #1
 553 010a 9AB2     		uxth	r2, r3
 554 010c FB68     		ldr	r3, [r7, #12]
 555 010e 5A85     		strh	r2, [r3, #42]	@ movhi
 689:Drivers/STM32F7xx_HAL_Driver/Src/stm32f7xx_hal_i2c.c ****       hi2c->XferSize--;
 556              		.loc 1 689 0
 557 0110 FB68     		ldr	r3, [r7, #12]
 558 0112 1B8D     		ldrh	r3, [r3, #40]
 559 0114 013B     		subs	r3, r3, #1
 560 0116 9AB2     		uxth	r2, r3
 561 0118 FB68     		ldr	r3, [r7, #12]
 562 011a 1A85     		strh	r2, [r3, #40]	@ movhi
 690:Drivers/STM32F7xx_HAL_Driver/Src/stm32f7xx_hal_i2c.c **** 
 691:Drivers/STM32F7xx_HAL_Driver/Src/stm32f7xx_hal_i2c.c ****       if ((hi2c->XferSize == 0U) && (hi2c->XferCount != 0U))
 563              		.loc 1 691 0
 564 011c FB68     		ldr	r3, [r7, #12]
 565 011e 1B8D     		ldrh	r3, [r3, #40]
 566 0120 002B     		cmp	r3, #0
 567 0122 35D1     		bne	.L22
 568              		.loc 1 691 0 is_stmt 0 discriminator 1
 569 0124 FB68     		ldr	r3, [r7, #12]
 570 0126 5B8D     		ldrh	r3, [r3, #42]	@ movhi
 571 0128 9BB2     		uxth	r3, r3
 572 012a 002B     		cmp	r3, #0
ARM GAS  /var/folders/n8/cvzdcwlj0vl4g_wtyz1ffy300000gn/T//ccBPNZvy.s 			page 23


 573 012c 30D0     		beq	.L22
 692:Drivers/STM32F7xx_HAL_Driver/Src/stm32f7xx_hal_i2c.c ****       {
 693:Drivers/STM32F7xx_HAL_Driver/Src/stm32f7xx_hal_i2c.c ****         /* Wait until TCR flag is set */
 694:Drivers/STM32F7xx_HAL_Driver/Src/stm32f7xx_hal_i2c.c ****         if (I2C_WaitOnFlagUntilTimeout(hi2c, I2C_FLAG_TCR, RESET, Timeout, tickstart) != HAL_OK)
 574              		.loc 1 694 0 is_stmt 1
 575 012e 7B69     		ldr	r3, [r7, #20]
 576 0130 0093     		str	r3, [sp]
 577 0132 3B6A     		ldr	r3, [r7, #32]
 578 0134 0022     		movs	r2, #0
 579 0136 8021     		movs	r1, #128
 580 0138 F868     		ldr	r0, [r7, #12]
 581 013a FFF7FEFF 		bl	I2C_WaitOnFlagUntilTimeout
 582 013e 0346     		mov	r3, r0
 583 0140 002B     		cmp	r3, #0
 584 0142 01D0     		beq	.L25
 695:Drivers/STM32F7xx_HAL_Driver/Src/stm32f7xx_hal_i2c.c ****         {
 696:Drivers/STM32F7xx_HAL_Driver/Src/stm32f7xx_hal_i2c.c ****           return HAL_TIMEOUT;
 585              		.loc 1 696 0
 586 0144 0323     		movs	r3, #3
 587 0146 53E0     		b	.L18
 588              	.L25:
 697:Drivers/STM32F7xx_HAL_Driver/Src/stm32f7xx_hal_i2c.c ****         }
 698:Drivers/STM32F7xx_HAL_Driver/Src/stm32f7xx_hal_i2c.c **** 
 699:Drivers/STM32F7xx_HAL_Driver/Src/stm32f7xx_hal_i2c.c ****         if (hi2c->XferCount > MAX_NBYTE_SIZE)
 589              		.loc 1 699 0
 590 0148 FB68     		ldr	r3, [r7, #12]
 591 014a 5B8D     		ldrh	r3, [r3, #42]	@ movhi
 592 014c 9BB2     		uxth	r3, r3
 593 014e FF2B     		cmp	r3, #255
 594 0150 0ED9     		bls	.L26
 700:Drivers/STM32F7xx_HAL_Driver/Src/stm32f7xx_hal_i2c.c ****         {
 701:Drivers/STM32F7xx_HAL_Driver/Src/stm32f7xx_hal_i2c.c ****           hi2c->XferSize = MAX_NBYTE_SIZE;
 595              		.loc 1 701 0
 596 0152 FB68     		ldr	r3, [r7, #12]
 597 0154 FF22     		movs	r2, #255
 598 0156 1A85     		strh	r2, [r3, #40]	@ movhi
 702:Drivers/STM32F7xx_HAL_Driver/Src/stm32f7xx_hal_i2c.c ****           I2C_TransferConfig(hi2c, DevAddress, hi2c->XferSize, I2C_RELOAD_MODE, I2C_NO_STARTSTOP);
 599              		.loc 1 702 0
 600 0158 FB68     		ldr	r3, [r7, #12]
 601 015a 1B8D     		ldrh	r3, [r3, #40]
 602 015c DAB2     		uxtb	r2, r3
 603 015e 7989     		ldrh	r1, [r7, #10]
 604 0160 0023     		movs	r3, #0
 605 0162 0093     		str	r3, [sp]
 606 0164 4FF08073 		mov	r3, #16777216
 607 0168 F868     		ldr	r0, [r7, #12]
 608 016a FFF7FEFF 		bl	I2C_TransferConfig
 609 016e 0FE0     		b	.L22
 610              	.L26:
 703:Drivers/STM32F7xx_HAL_Driver/Src/stm32f7xx_hal_i2c.c ****         }
 704:Drivers/STM32F7xx_HAL_Driver/Src/stm32f7xx_hal_i2c.c ****         else
 705:Drivers/STM32F7xx_HAL_Driver/Src/stm32f7xx_hal_i2c.c ****         {
 706:Drivers/STM32F7xx_HAL_Driver/Src/stm32f7xx_hal_i2c.c ****           hi2c->XferSize = hi2c->XferCount;
 611              		.loc 1 706 0
 612 0170 FB68     		ldr	r3, [r7, #12]
 613 0172 5B8D     		ldrh	r3, [r3, #42]	@ movhi
 614 0174 9AB2     		uxth	r2, r3
ARM GAS  /var/folders/n8/cvzdcwlj0vl4g_wtyz1ffy300000gn/T//ccBPNZvy.s 			page 24


 615 0176 FB68     		ldr	r3, [r7, #12]
 616 0178 1A85     		strh	r2, [r3, #40]	@ movhi
 707:Drivers/STM32F7xx_HAL_Driver/Src/stm32f7xx_hal_i2c.c ****           I2C_TransferConfig(hi2c, DevAddress, hi2c->XferSize, I2C_AUTOEND_MODE, I2C_NO_STARTSTOP);
 617              		.loc 1 707 0
 618 017a FB68     		ldr	r3, [r7, #12]
 619 017c 1B8D     		ldrh	r3, [r3, #40]
 620 017e DAB2     		uxtb	r2, r3
 621 0180 7989     		ldrh	r1, [r7, #10]
 622 0182 0023     		movs	r3, #0
 623 0184 0093     		str	r3, [sp]
 624 0186 4FF00073 		mov	r3, #33554432
 625 018a F868     		ldr	r0, [r7, #12]
 626 018c FFF7FEFF 		bl	I2C_TransferConfig
 627              	.L22:
 672:Drivers/STM32F7xx_HAL_Driver/Src/stm32f7xx_hal_i2c.c ****     {
 628              		.loc 1 672 0
 629 0190 FB68     		ldr	r3, [r7, #12]
 630 0192 5B8D     		ldrh	r3, [r3, #42]	@ movhi
 631 0194 9BB2     		uxth	r3, r3
 632 0196 002B     		cmp	r3, #0
 633 0198 9AD1     		bne	.L27
 708:Drivers/STM32F7xx_HAL_Driver/Src/stm32f7xx_hal_i2c.c ****         }
 709:Drivers/STM32F7xx_HAL_Driver/Src/stm32f7xx_hal_i2c.c ****       }
 710:Drivers/STM32F7xx_HAL_Driver/Src/stm32f7xx_hal_i2c.c ****     }
 711:Drivers/STM32F7xx_HAL_Driver/Src/stm32f7xx_hal_i2c.c **** 
 712:Drivers/STM32F7xx_HAL_Driver/Src/stm32f7xx_hal_i2c.c ****     /* No need to Check TC flag, with AUTOEND mode the stop is automatically generated */
 713:Drivers/STM32F7xx_HAL_Driver/Src/stm32f7xx_hal_i2c.c ****     /* Wait until STOPF flag is set */
 714:Drivers/STM32F7xx_HAL_Driver/Src/stm32f7xx_hal_i2c.c ****     if (I2C_WaitOnSTOPFlagUntilTimeout(hi2c, Timeout, tickstart) != HAL_OK)
 634              		.loc 1 714 0
 635 019a 7A69     		ldr	r2, [r7, #20]
 636 019c 396A     		ldr	r1, [r7, #32]
 637 019e F868     		ldr	r0, [r7, #12]
 638 01a0 FFF7FEFF 		bl	I2C_WaitOnSTOPFlagUntilTimeout
 639 01a4 0346     		mov	r3, r0
 640 01a6 002B     		cmp	r3, #0
 641 01a8 07D0     		beq	.L28
 715:Drivers/STM32F7xx_HAL_Driver/Src/stm32f7xx_hal_i2c.c ****     {
 716:Drivers/STM32F7xx_HAL_Driver/Src/stm32f7xx_hal_i2c.c ****       if (hi2c->ErrorCode == HAL_I2C_ERROR_AF)
 642              		.loc 1 716 0
 643 01aa FB68     		ldr	r3, [r7, #12]
 644 01ac 5B6C     		ldr	r3, [r3, #68]
 645 01ae 042B     		cmp	r3, #4
 646 01b0 01D1     		bne	.L29
 717:Drivers/STM32F7xx_HAL_Driver/Src/stm32f7xx_hal_i2c.c ****       {
 718:Drivers/STM32F7xx_HAL_Driver/Src/stm32f7xx_hal_i2c.c ****         return HAL_ERROR;
 647              		.loc 1 718 0
 648 01b2 0123     		movs	r3, #1
 649 01b4 1CE0     		b	.L18
 650              	.L29:
 719:Drivers/STM32F7xx_HAL_Driver/Src/stm32f7xx_hal_i2c.c ****       }
 720:Drivers/STM32F7xx_HAL_Driver/Src/stm32f7xx_hal_i2c.c ****       else
 721:Drivers/STM32F7xx_HAL_Driver/Src/stm32f7xx_hal_i2c.c ****       {
 722:Drivers/STM32F7xx_HAL_Driver/Src/stm32f7xx_hal_i2c.c ****         return HAL_TIMEOUT;
 651              		.loc 1 722 0
 652 01b6 0323     		movs	r3, #3
 653 01b8 1AE0     		b	.L18
 654              	.L28:
ARM GAS  /var/folders/n8/cvzdcwlj0vl4g_wtyz1ffy300000gn/T//ccBPNZvy.s 			page 25


 723:Drivers/STM32F7xx_HAL_Driver/Src/stm32f7xx_hal_i2c.c ****       }
 724:Drivers/STM32F7xx_HAL_Driver/Src/stm32f7xx_hal_i2c.c ****     }
 725:Drivers/STM32F7xx_HAL_Driver/Src/stm32f7xx_hal_i2c.c **** 
 726:Drivers/STM32F7xx_HAL_Driver/Src/stm32f7xx_hal_i2c.c ****     /* Clear STOP Flag */
 727:Drivers/STM32F7xx_HAL_Driver/Src/stm32f7xx_hal_i2c.c ****     __HAL_I2C_CLEAR_FLAG(hi2c, I2C_FLAG_STOPF);
 655              		.loc 1 727 0
 656 01ba FB68     		ldr	r3, [r7, #12]
 657 01bc 1B68     		ldr	r3, [r3]
 658 01be 2022     		movs	r2, #32
 659 01c0 DA61     		str	r2, [r3, #28]
 728:Drivers/STM32F7xx_HAL_Driver/Src/stm32f7xx_hal_i2c.c **** 
 729:Drivers/STM32F7xx_HAL_Driver/Src/stm32f7xx_hal_i2c.c ****     /* Clear Configuration Register 2 */
 730:Drivers/STM32F7xx_HAL_Driver/Src/stm32f7xx_hal_i2c.c ****     I2C_RESET_CR2(hi2c);
 660              		.loc 1 730 0
 661 01c2 FB68     		ldr	r3, [r7, #12]
 662 01c4 1B68     		ldr	r3, [r3]
 663 01c6 5968     		ldr	r1, [r3, #4]
 664 01c8 FB68     		ldr	r3, [r7, #12]
 665 01ca 1A68     		ldr	r2, [r3]
 666 01cc 0B4B     		ldr	r3, .L30+4
 667 01ce 0B40     		ands	r3, r3, r1
 668 01d0 5360     		str	r3, [r2, #4]
 731:Drivers/STM32F7xx_HAL_Driver/Src/stm32f7xx_hal_i2c.c **** 
 732:Drivers/STM32F7xx_HAL_Driver/Src/stm32f7xx_hal_i2c.c ****     hi2c->State = HAL_I2C_STATE_READY;
 669              		.loc 1 732 0
 670 01d2 FB68     		ldr	r3, [r7, #12]
 671 01d4 2022     		movs	r2, #32
 672 01d6 83F84120 		strb	r2, [r3, #65]
 733:Drivers/STM32F7xx_HAL_Driver/Src/stm32f7xx_hal_i2c.c ****     hi2c->Mode  = HAL_I2C_MODE_NONE;
 673              		.loc 1 733 0
 674 01da FB68     		ldr	r3, [r7, #12]
 675 01dc 0022     		movs	r2, #0
 676 01de 83F84220 		strb	r2, [r3, #66]
 734:Drivers/STM32F7xx_HAL_Driver/Src/stm32f7xx_hal_i2c.c **** 
 735:Drivers/STM32F7xx_HAL_Driver/Src/stm32f7xx_hal_i2c.c ****     /* Process Unlocked */
 736:Drivers/STM32F7xx_HAL_Driver/Src/stm32f7xx_hal_i2c.c ****     __HAL_UNLOCK(hi2c);
 677              		.loc 1 736 0
 678 01e2 FB68     		ldr	r3, [r7, #12]
 679 01e4 0022     		movs	r2, #0
 680 01e6 83F84020 		strb	r2, [r3, #64]
 737:Drivers/STM32F7xx_HAL_Driver/Src/stm32f7xx_hal_i2c.c **** 
 738:Drivers/STM32F7xx_HAL_Driver/Src/stm32f7xx_hal_i2c.c ****     return HAL_OK;
 681              		.loc 1 738 0
 682 01ea 0023     		movs	r3, #0
 683 01ec 00E0     		b	.L18
 684              	.L16:
 739:Drivers/STM32F7xx_HAL_Driver/Src/stm32f7xx_hal_i2c.c ****   }
 740:Drivers/STM32F7xx_HAL_Driver/Src/stm32f7xx_hal_i2c.c ****   else
 741:Drivers/STM32F7xx_HAL_Driver/Src/stm32f7xx_hal_i2c.c ****   {
 742:Drivers/STM32F7xx_HAL_Driver/Src/stm32f7xx_hal_i2c.c ****     return HAL_BUSY;
 685              		.loc 1 742 0
 686 01ee 0223     		movs	r3, #2
 687              	.L18:
 743:Drivers/STM32F7xx_HAL_Driver/Src/stm32f7xx_hal_i2c.c ****   }
 744:Drivers/STM32F7xx_HAL_Driver/Src/stm32f7xx_hal_i2c.c **** }
 688              		.loc 1 744 0
 689 01f0 1846     		mov	r0, r3
ARM GAS  /var/folders/n8/cvzdcwlj0vl4g_wtyz1ffy300000gn/T//ccBPNZvy.s 			page 26


 690 01f2 1837     		adds	r7, r7, #24
 691              	.LCFI25:
 692              		.cfi_def_cfa_offset 8
 693 01f4 BD46     		mov	sp, r7
 694              	.LCFI26:
 695              		.cfi_def_cfa_register 13
 696              		@ sp needed
 697 01f6 80BD     		pop	{r7, pc}
 698              	.L31:
 699              		.align	2
 700              	.L30:
 701 01f8 00200080 		.word	-2147475456
 702 01fc 00E800FE 		.word	-33495040
 703              		.cfi_endproc
 704              	.LFE142:
 706              		.section	.text.HAL_I2C_Master_Receive,"ax",%progbits
 707              		.align	1
 708              		.global	HAL_I2C_Master_Receive
 709              		.syntax unified
 710              		.thumb
 711              		.thumb_func
 712              		.fpu fpv5-sp-d16
 714              	HAL_I2C_Master_Receive:
 715              	.LFB143:
 745:Drivers/STM32F7xx_HAL_Driver/Src/stm32f7xx_hal_i2c.c **** 
 746:Drivers/STM32F7xx_HAL_Driver/Src/stm32f7xx_hal_i2c.c **** /**
 747:Drivers/STM32F7xx_HAL_Driver/Src/stm32f7xx_hal_i2c.c ****   * @brief  Receives in master mode an amount of data in blocking mode.
 748:Drivers/STM32F7xx_HAL_Driver/Src/stm32f7xx_hal_i2c.c ****   * @param  hi2c Pointer to a I2C_HandleTypeDef structure that contains
 749:Drivers/STM32F7xx_HAL_Driver/Src/stm32f7xx_hal_i2c.c ****   *                the configuration information for the specified I2C.
 750:Drivers/STM32F7xx_HAL_Driver/Src/stm32f7xx_hal_i2c.c ****   * @param  DevAddress Target device address which contain device 7 or 10 bits address value
 751:Drivers/STM32F7xx_HAL_Driver/Src/stm32f7xx_hal_i2c.c ****   *         in datasheet must be shifted to the left before calling the interface
 752:Drivers/STM32F7xx_HAL_Driver/Src/stm32f7xx_hal_i2c.c ****   * @param  pData Pointer to data buffer
 753:Drivers/STM32F7xx_HAL_Driver/Src/stm32f7xx_hal_i2c.c ****   * @param  Size Amount of data to be sent
 754:Drivers/STM32F7xx_HAL_Driver/Src/stm32f7xx_hal_i2c.c ****   * @param  Timeout Timeout duration
 755:Drivers/STM32F7xx_HAL_Driver/Src/stm32f7xx_hal_i2c.c ****   * @retval HAL status
 756:Drivers/STM32F7xx_HAL_Driver/Src/stm32f7xx_hal_i2c.c ****   */
 757:Drivers/STM32F7xx_HAL_Driver/Src/stm32f7xx_hal_i2c.c **** HAL_StatusTypeDef HAL_I2C_Master_Receive(I2C_HandleTypeDef *hi2c, uint16_t DevAddress, uint8_t *pDa
 758:Drivers/STM32F7xx_HAL_Driver/Src/stm32f7xx_hal_i2c.c **** {
 716              		.loc 1 758 0
 717              		.cfi_startproc
 718              		@ args = 4, pretend = 0, frame = 24
 719              		@ frame_needed = 1, uses_anonymous_args = 0
 720 0000 80B5     		push	{r7, lr}
 721              	.LCFI27:
 722              		.cfi_def_cfa_offset 8
 723              		.cfi_offset 7, -8
 724              		.cfi_offset 14, -4
 725 0002 88B0     		sub	sp, sp, #32
 726              	.LCFI28:
 727              		.cfi_def_cfa_offset 40
 728 0004 02AF     		add	r7, sp, #8
 729              	.LCFI29:
 730              		.cfi_def_cfa 7, 32
 731 0006 F860     		str	r0, [r7, #12]
 732 0008 7A60     		str	r2, [r7, #4]
 733 000a 1A46     		mov	r2, r3
 734 000c 0B46     		mov	r3, r1	@ movhi
ARM GAS  /var/folders/n8/cvzdcwlj0vl4g_wtyz1ffy300000gn/T//ccBPNZvy.s 			page 27


 735 000e 7B81     		strh	r3, [r7, #10]	@ movhi
 736 0010 1346     		mov	r3, r2	@ movhi
 737 0012 3B81     		strh	r3, [r7, #8]	@ movhi
 759:Drivers/STM32F7xx_HAL_Driver/Src/stm32f7xx_hal_i2c.c ****   uint32_t tickstart = 0U;
 738              		.loc 1 759 0
 739 0014 0023     		movs	r3, #0
 740 0016 7B61     		str	r3, [r7, #20]
 760:Drivers/STM32F7xx_HAL_Driver/Src/stm32f7xx_hal_i2c.c **** 
 761:Drivers/STM32F7xx_HAL_Driver/Src/stm32f7xx_hal_i2c.c ****   if (hi2c->State == HAL_I2C_STATE_READY)
 741              		.loc 1 761 0
 742 0018 FB68     		ldr	r3, [r7, #12]
 743 001a 93F84130 		ldrb	r3, [r3, #65]
 744 001e DBB2     		uxtb	r3, r3
 745 0020 202B     		cmp	r3, #32
 746 0022 40F0E580 		bne	.L33
 762:Drivers/STM32F7xx_HAL_Driver/Src/stm32f7xx_hal_i2c.c ****   {
 763:Drivers/STM32F7xx_HAL_Driver/Src/stm32f7xx_hal_i2c.c ****     /* Process Locked */
 764:Drivers/STM32F7xx_HAL_Driver/Src/stm32f7xx_hal_i2c.c ****     __HAL_LOCK(hi2c);
 747              		.loc 1 764 0
 748 0026 FB68     		ldr	r3, [r7, #12]
 749 0028 93F84030 		ldrb	r3, [r3, #64]	@ zero_extendqisi2
 750 002c 012B     		cmp	r3, #1
 751 002e 01D1     		bne	.L34
 752              		.loc 1 764 0 is_stmt 0 discriminator 1
 753 0030 0223     		movs	r3, #2
 754 0032 DEE0     		b	.L35
 755              	.L34:
 756              		.loc 1 764 0 discriminator 2
 757 0034 FB68     		ldr	r3, [r7, #12]
 758 0036 0122     		movs	r2, #1
 759 0038 83F84020 		strb	r2, [r3, #64]
 765:Drivers/STM32F7xx_HAL_Driver/Src/stm32f7xx_hal_i2c.c **** 
 766:Drivers/STM32F7xx_HAL_Driver/Src/stm32f7xx_hal_i2c.c ****     /* Init tickstart for timeout management*/
 767:Drivers/STM32F7xx_HAL_Driver/Src/stm32f7xx_hal_i2c.c ****     tickstart = HAL_GetTick();
 760              		.loc 1 767 0 is_stmt 1 discriminator 2
 761 003c FFF7FEFF 		bl	HAL_GetTick
 762 0040 7861     		str	r0, [r7, #20]
 768:Drivers/STM32F7xx_HAL_Driver/Src/stm32f7xx_hal_i2c.c **** 
 769:Drivers/STM32F7xx_HAL_Driver/Src/stm32f7xx_hal_i2c.c ****     if (I2C_WaitOnFlagUntilTimeout(hi2c, I2C_FLAG_BUSY, SET, I2C_TIMEOUT_BUSY, tickstart) != HAL_OK
 763              		.loc 1 769 0 discriminator 2
 764 0042 7B69     		ldr	r3, [r7, #20]
 765 0044 0093     		str	r3, [sp]
 766 0046 1923     		movs	r3, #25
 767 0048 0122     		movs	r2, #1
 768 004a 4FF40041 		mov	r1, #32768
 769 004e F868     		ldr	r0, [r7, #12]
 770 0050 FFF7FEFF 		bl	I2C_WaitOnFlagUntilTimeout
 771 0054 0346     		mov	r3, r0
 772 0056 002B     		cmp	r3, #0
 773 0058 01D0     		beq	.L36
 770:Drivers/STM32F7xx_HAL_Driver/Src/stm32f7xx_hal_i2c.c ****     {
 771:Drivers/STM32F7xx_HAL_Driver/Src/stm32f7xx_hal_i2c.c ****       return HAL_TIMEOUT;
 774              		.loc 1 771 0
 775 005a 0323     		movs	r3, #3
 776 005c C9E0     		b	.L35
 777              	.L36:
 772:Drivers/STM32F7xx_HAL_Driver/Src/stm32f7xx_hal_i2c.c ****     }
ARM GAS  /var/folders/n8/cvzdcwlj0vl4g_wtyz1ffy300000gn/T//ccBPNZvy.s 			page 28


 773:Drivers/STM32F7xx_HAL_Driver/Src/stm32f7xx_hal_i2c.c **** 
 774:Drivers/STM32F7xx_HAL_Driver/Src/stm32f7xx_hal_i2c.c ****     hi2c->State     = HAL_I2C_STATE_BUSY_RX;
 778              		.loc 1 774 0
 779 005e FB68     		ldr	r3, [r7, #12]
 780 0060 2222     		movs	r2, #34
 781 0062 83F84120 		strb	r2, [r3, #65]
 775:Drivers/STM32F7xx_HAL_Driver/Src/stm32f7xx_hal_i2c.c ****     hi2c->Mode      = HAL_I2C_MODE_MASTER;
 782              		.loc 1 775 0
 783 0066 FB68     		ldr	r3, [r7, #12]
 784 0068 1022     		movs	r2, #16
 785 006a 83F84220 		strb	r2, [r3, #66]
 776:Drivers/STM32F7xx_HAL_Driver/Src/stm32f7xx_hal_i2c.c ****     hi2c->ErrorCode = HAL_I2C_ERROR_NONE;
 786              		.loc 1 776 0
 787 006e FB68     		ldr	r3, [r7, #12]
 788 0070 0022     		movs	r2, #0
 789 0072 5A64     		str	r2, [r3, #68]
 777:Drivers/STM32F7xx_HAL_Driver/Src/stm32f7xx_hal_i2c.c **** 
 778:Drivers/STM32F7xx_HAL_Driver/Src/stm32f7xx_hal_i2c.c ****     /* Prepare transfer parameters */
 779:Drivers/STM32F7xx_HAL_Driver/Src/stm32f7xx_hal_i2c.c ****     hi2c->pBuffPtr  = pData;
 790              		.loc 1 779 0
 791 0074 FB68     		ldr	r3, [r7, #12]
 792 0076 7A68     		ldr	r2, [r7, #4]
 793 0078 5A62     		str	r2, [r3, #36]
 780:Drivers/STM32F7xx_HAL_Driver/Src/stm32f7xx_hal_i2c.c ****     hi2c->XferCount = Size;
 794              		.loc 1 780 0
 795 007a FB68     		ldr	r3, [r7, #12]
 796 007c 3A89     		ldrh	r2, [r7, #8]	@ movhi
 797 007e 5A85     		strh	r2, [r3, #42]	@ movhi
 781:Drivers/STM32F7xx_HAL_Driver/Src/stm32f7xx_hal_i2c.c ****     hi2c->XferISR   = NULL;
 798              		.loc 1 781 0
 799 0080 FB68     		ldr	r3, [r7, #12]
 800 0082 0022     		movs	r2, #0
 801 0084 5A63     		str	r2, [r3, #52]
 782:Drivers/STM32F7xx_HAL_Driver/Src/stm32f7xx_hal_i2c.c **** 
 783:Drivers/STM32F7xx_HAL_Driver/Src/stm32f7xx_hal_i2c.c ****     /* Send Slave Address */
 784:Drivers/STM32F7xx_HAL_Driver/Src/stm32f7xx_hal_i2c.c ****     /* Set NBYTES to write and reload if hi2c->XferCount > MAX_NBYTE_SIZE and generate RESTART */
 785:Drivers/STM32F7xx_HAL_Driver/Src/stm32f7xx_hal_i2c.c ****     if (hi2c->XferCount > MAX_NBYTE_SIZE)
 802              		.loc 1 785 0
 803 0086 FB68     		ldr	r3, [r7, #12]
 804 0088 5B8D     		ldrh	r3, [r3, #42]	@ movhi
 805 008a 9BB2     		uxth	r3, r3
 806 008c FF2B     		cmp	r3, #255
 807 008e 0ED9     		bls	.L37
 786:Drivers/STM32F7xx_HAL_Driver/Src/stm32f7xx_hal_i2c.c ****     {
 787:Drivers/STM32F7xx_HAL_Driver/Src/stm32f7xx_hal_i2c.c ****       hi2c->XferSize = MAX_NBYTE_SIZE;
 808              		.loc 1 787 0
 809 0090 FB68     		ldr	r3, [r7, #12]
 810 0092 FF22     		movs	r2, #255
 811 0094 1A85     		strh	r2, [r3, #40]	@ movhi
 788:Drivers/STM32F7xx_HAL_Driver/Src/stm32f7xx_hal_i2c.c ****       I2C_TransferConfig(hi2c, DevAddress, hi2c->XferSize, I2C_RELOAD_MODE, I2C_GENERATE_START_READ
 812              		.loc 1 788 0
 813 0096 FB68     		ldr	r3, [r7, #12]
 814 0098 1B8D     		ldrh	r3, [r3, #40]
 815 009a DAB2     		uxtb	r2, r3
 816 009c 7989     		ldrh	r1, [r7, #10]
 817 009e 574B     		ldr	r3, .L47
 818 00a0 0093     		str	r3, [sp]
ARM GAS  /var/folders/n8/cvzdcwlj0vl4g_wtyz1ffy300000gn/T//ccBPNZvy.s 			page 29


 819 00a2 4FF08073 		mov	r3, #16777216
 820 00a6 F868     		ldr	r0, [r7, #12]
 821 00a8 FFF7FEFF 		bl	I2C_TransferConfig
 822 00ac 71E0     		b	.L39
 823              	.L37:
 789:Drivers/STM32F7xx_HAL_Driver/Src/stm32f7xx_hal_i2c.c ****     }
 790:Drivers/STM32F7xx_HAL_Driver/Src/stm32f7xx_hal_i2c.c ****     else
 791:Drivers/STM32F7xx_HAL_Driver/Src/stm32f7xx_hal_i2c.c ****     {
 792:Drivers/STM32F7xx_HAL_Driver/Src/stm32f7xx_hal_i2c.c ****       hi2c->XferSize = hi2c->XferCount;
 824              		.loc 1 792 0
 825 00ae FB68     		ldr	r3, [r7, #12]
 826 00b0 5B8D     		ldrh	r3, [r3, #42]	@ movhi
 827 00b2 9AB2     		uxth	r2, r3
 828 00b4 FB68     		ldr	r3, [r7, #12]
 829 00b6 1A85     		strh	r2, [r3, #40]	@ movhi
 793:Drivers/STM32F7xx_HAL_Driver/Src/stm32f7xx_hal_i2c.c ****       I2C_TransferConfig(hi2c, DevAddress, hi2c->XferSize, I2C_AUTOEND_MODE, I2C_GENERATE_START_REA
 830              		.loc 1 793 0
 831 00b8 FB68     		ldr	r3, [r7, #12]
 832 00ba 1B8D     		ldrh	r3, [r3, #40]
 833 00bc DAB2     		uxtb	r2, r3
 834 00be 7989     		ldrh	r1, [r7, #10]
 835 00c0 4E4B     		ldr	r3, .L47
 836 00c2 0093     		str	r3, [sp]
 837 00c4 4FF00073 		mov	r3, #33554432
 838 00c8 F868     		ldr	r0, [r7, #12]
 839 00ca FFF7FEFF 		bl	I2C_TransferConfig
 794:Drivers/STM32F7xx_HAL_Driver/Src/stm32f7xx_hal_i2c.c ****     }
 795:Drivers/STM32F7xx_HAL_Driver/Src/stm32f7xx_hal_i2c.c **** 
 796:Drivers/STM32F7xx_HAL_Driver/Src/stm32f7xx_hal_i2c.c ****     while (hi2c->XferCount > 0U)
 840              		.loc 1 796 0
 841 00ce 60E0     		b	.L39
 842              	.L44:
 797:Drivers/STM32F7xx_HAL_Driver/Src/stm32f7xx_hal_i2c.c ****     {
 798:Drivers/STM32F7xx_HAL_Driver/Src/stm32f7xx_hal_i2c.c ****       /* Wait until RXNE flag is set */
 799:Drivers/STM32F7xx_HAL_Driver/Src/stm32f7xx_hal_i2c.c ****       if (I2C_WaitOnRXNEFlagUntilTimeout(hi2c, Timeout, tickstart) != HAL_OK)
 843              		.loc 1 799 0
 844 00d0 7A69     		ldr	r2, [r7, #20]
 845 00d2 396A     		ldr	r1, [r7, #32]
 846 00d4 F868     		ldr	r0, [r7, #12]
 847 00d6 FFF7FEFF 		bl	I2C_WaitOnRXNEFlagUntilTimeout
 848 00da 0346     		mov	r3, r0
 849 00dc 002B     		cmp	r3, #0
 850 00de 07D0     		beq	.L40
 800:Drivers/STM32F7xx_HAL_Driver/Src/stm32f7xx_hal_i2c.c ****       {
 801:Drivers/STM32F7xx_HAL_Driver/Src/stm32f7xx_hal_i2c.c ****         if (hi2c->ErrorCode == HAL_I2C_ERROR_AF)
 851              		.loc 1 801 0
 852 00e0 FB68     		ldr	r3, [r7, #12]
 853 00e2 5B6C     		ldr	r3, [r3, #68]
 854 00e4 042B     		cmp	r3, #4
 855 00e6 01D1     		bne	.L41
 802:Drivers/STM32F7xx_HAL_Driver/Src/stm32f7xx_hal_i2c.c ****         {
 803:Drivers/STM32F7xx_HAL_Driver/Src/stm32f7xx_hal_i2c.c ****           return HAL_ERROR;
 856              		.loc 1 803 0
 857 00e8 0123     		movs	r3, #1
 858 00ea 82E0     		b	.L35
 859              	.L41:
 804:Drivers/STM32F7xx_HAL_Driver/Src/stm32f7xx_hal_i2c.c ****         }
ARM GAS  /var/folders/n8/cvzdcwlj0vl4g_wtyz1ffy300000gn/T//ccBPNZvy.s 			page 30


 805:Drivers/STM32F7xx_HAL_Driver/Src/stm32f7xx_hal_i2c.c ****         else
 806:Drivers/STM32F7xx_HAL_Driver/Src/stm32f7xx_hal_i2c.c ****         {
 807:Drivers/STM32F7xx_HAL_Driver/Src/stm32f7xx_hal_i2c.c ****           return HAL_TIMEOUT;
 860              		.loc 1 807 0
 861 00ec 0323     		movs	r3, #3
 862 00ee 80E0     		b	.L35
 863              	.L40:
 808:Drivers/STM32F7xx_HAL_Driver/Src/stm32f7xx_hal_i2c.c ****         }
 809:Drivers/STM32F7xx_HAL_Driver/Src/stm32f7xx_hal_i2c.c ****       }
 810:Drivers/STM32F7xx_HAL_Driver/Src/stm32f7xx_hal_i2c.c **** 
 811:Drivers/STM32F7xx_HAL_Driver/Src/stm32f7xx_hal_i2c.c ****       /* Read data from RXDR */
 812:Drivers/STM32F7xx_HAL_Driver/Src/stm32f7xx_hal_i2c.c ****       (*hi2c->pBuffPtr++) = hi2c->Instance->RXDR;
 864              		.loc 1 812 0
 865 00f0 FB68     		ldr	r3, [r7, #12]
 866 00f2 1B68     		ldr	r3, [r3]
 867 00f4 586A     		ldr	r0, [r3, #36]
 868 00f6 FB68     		ldr	r3, [r7, #12]
 869 00f8 5B6A     		ldr	r3, [r3, #36]
 870 00fa 591C     		adds	r1, r3, #1
 871 00fc FA68     		ldr	r2, [r7, #12]
 872 00fe 5162     		str	r1, [r2, #36]
 873 0100 C2B2     		uxtb	r2, r0
 874 0102 1A70     		strb	r2, [r3]
 813:Drivers/STM32F7xx_HAL_Driver/Src/stm32f7xx_hal_i2c.c ****       hi2c->XferSize--;
 875              		.loc 1 813 0
 876 0104 FB68     		ldr	r3, [r7, #12]
 877 0106 1B8D     		ldrh	r3, [r3, #40]
 878 0108 013B     		subs	r3, r3, #1
 879 010a 9AB2     		uxth	r2, r3
 880 010c FB68     		ldr	r3, [r7, #12]
 881 010e 1A85     		strh	r2, [r3, #40]	@ movhi
 814:Drivers/STM32F7xx_HAL_Driver/Src/stm32f7xx_hal_i2c.c ****       hi2c->XferCount--;
 882              		.loc 1 814 0
 883 0110 FB68     		ldr	r3, [r7, #12]
 884 0112 5B8D     		ldrh	r3, [r3, #42]	@ movhi
 885 0114 9BB2     		uxth	r3, r3
 886 0116 013B     		subs	r3, r3, #1
 887 0118 9AB2     		uxth	r2, r3
 888 011a FB68     		ldr	r3, [r7, #12]
 889 011c 5A85     		strh	r2, [r3, #42]	@ movhi
 815:Drivers/STM32F7xx_HAL_Driver/Src/stm32f7xx_hal_i2c.c **** 
 816:Drivers/STM32F7xx_HAL_Driver/Src/stm32f7xx_hal_i2c.c ****       if ((hi2c->XferSize == 0U) && (hi2c->XferCount != 0U))
 890              		.loc 1 816 0
 891 011e FB68     		ldr	r3, [r7, #12]
 892 0120 1B8D     		ldrh	r3, [r3, #40]
 893 0122 002B     		cmp	r3, #0
 894 0124 35D1     		bne	.L39
 895              		.loc 1 816 0 is_stmt 0 discriminator 1
 896 0126 FB68     		ldr	r3, [r7, #12]
 897 0128 5B8D     		ldrh	r3, [r3, #42]	@ movhi
 898 012a 9BB2     		uxth	r3, r3
 899 012c 002B     		cmp	r3, #0
 900 012e 30D0     		beq	.L39
 817:Drivers/STM32F7xx_HAL_Driver/Src/stm32f7xx_hal_i2c.c ****       {
 818:Drivers/STM32F7xx_HAL_Driver/Src/stm32f7xx_hal_i2c.c ****         /* Wait until TCR flag is set */
 819:Drivers/STM32F7xx_HAL_Driver/Src/stm32f7xx_hal_i2c.c ****         if (I2C_WaitOnFlagUntilTimeout(hi2c, I2C_FLAG_TCR, RESET, Timeout, tickstart) != HAL_OK)
 901              		.loc 1 819 0 is_stmt 1
ARM GAS  /var/folders/n8/cvzdcwlj0vl4g_wtyz1ffy300000gn/T//ccBPNZvy.s 			page 31


 902 0130 7B69     		ldr	r3, [r7, #20]
 903 0132 0093     		str	r3, [sp]
 904 0134 3B6A     		ldr	r3, [r7, #32]
 905 0136 0022     		movs	r2, #0
 906 0138 8021     		movs	r1, #128
 907 013a F868     		ldr	r0, [r7, #12]
 908 013c FFF7FEFF 		bl	I2C_WaitOnFlagUntilTimeout
 909 0140 0346     		mov	r3, r0
 910 0142 002B     		cmp	r3, #0
 911 0144 01D0     		beq	.L42
 820:Drivers/STM32F7xx_HAL_Driver/Src/stm32f7xx_hal_i2c.c ****         {
 821:Drivers/STM32F7xx_HAL_Driver/Src/stm32f7xx_hal_i2c.c ****           return HAL_TIMEOUT;
 912              		.loc 1 821 0
 913 0146 0323     		movs	r3, #3
 914 0148 53E0     		b	.L35
 915              	.L42:
 822:Drivers/STM32F7xx_HAL_Driver/Src/stm32f7xx_hal_i2c.c ****         }
 823:Drivers/STM32F7xx_HAL_Driver/Src/stm32f7xx_hal_i2c.c **** 
 824:Drivers/STM32F7xx_HAL_Driver/Src/stm32f7xx_hal_i2c.c ****         if (hi2c->XferCount > MAX_NBYTE_SIZE)
 916              		.loc 1 824 0
 917 014a FB68     		ldr	r3, [r7, #12]
 918 014c 5B8D     		ldrh	r3, [r3, #42]	@ movhi
 919 014e 9BB2     		uxth	r3, r3
 920 0150 FF2B     		cmp	r3, #255
 921 0152 0ED9     		bls	.L43
 825:Drivers/STM32F7xx_HAL_Driver/Src/stm32f7xx_hal_i2c.c ****         {
 826:Drivers/STM32F7xx_HAL_Driver/Src/stm32f7xx_hal_i2c.c ****           hi2c->XferSize = MAX_NBYTE_SIZE;
 922              		.loc 1 826 0
 923 0154 FB68     		ldr	r3, [r7, #12]
 924 0156 FF22     		movs	r2, #255
 925 0158 1A85     		strh	r2, [r3, #40]	@ movhi
 827:Drivers/STM32F7xx_HAL_Driver/Src/stm32f7xx_hal_i2c.c ****           I2C_TransferConfig(hi2c, DevAddress, hi2c->XferSize, I2C_RELOAD_MODE, I2C_NO_STARTSTOP);
 926              		.loc 1 827 0
 927 015a FB68     		ldr	r3, [r7, #12]
 928 015c 1B8D     		ldrh	r3, [r3, #40]
 929 015e DAB2     		uxtb	r2, r3
 930 0160 7989     		ldrh	r1, [r7, #10]
 931 0162 0023     		movs	r3, #0
 932 0164 0093     		str	r3, [sp]
 933 0166 4FF08073 		mov	r3, #16777216
 934 016a F868     		ldr	r0, [r7, #12]
 935 016c FFF7FEFF 		bl	I2C_TransferConfig
 936 0170 0FE0     		b	.L39
 937              	.L43:
 828:Drivers/STM32F7xx_HAL_Driver/Src/stm32f7xx_hal_i2c.c ****         }
 829:Drivers/STM32F7xx_HAL_Driver/Src/stm32f7xx_hal_i2c.c ****         else
 830:Drivers/STM32F7xx_HAL_Driver/Src/stm32f7xx_hal_i2c.c ****         {
 831:Drivers/STM32F7xx_HAL_Driver/Src/stm32f7xx_hal_i2c.c ****           hi2c->XferSize = hi2c->XferCount;
 938              		.loc 1 831 0
 939 0172 FB68     		ldr	r3, [r7, #12]
 940 0174 5B8D     		ldrh	r3, [r3, #42]	@ movhi
 941 0176 9AB2     		uxth	r2, r3
 942 0178 FB68     		ldr	r3, [r7, #12]
 943 017a 1A85     		strh	r2, [r3, #40]	@ movhi
 832:Drivers/STM32F7xx_HAL_Driver/Src/stm32f7xx_hal_i2c.c ****           I2C_TransferConfig(hi2c, DevAddress, hi2c->XferSize, I2C_AUTOEND_MODE, I2C_NO_STARTSTOP);
 944              		.loc 1 832 0
 945 017c FB68     		ldr	r3, [r7, #12]
ARM GAS  /var/folders/n8/cvzdcwlj0vl4g_wtyz1ffy300000gn/T//ccBPNZvy.s 			page 32


 946 017e 1B8D     		ldrh	r3, [r3, #40]
 947 0180 DAB2     		uxtb	r2, r3
 948 0182 7989     		ldrh	r1, [r7, #10]
 949 0184 0023     		movs	r3, #0
 950 0186 0093     		str	r3, [sp]
 951 0188 4FF00073 		mov	r3, #33554432
 952 018c F868     		ldr	r0, [r7, #12]
 953 018e FFF7FEFF 		bl	I2C_TransferConfig
 954              	.L39:
 796:Drivers/STM32F7xx_HAL_Driver/Src/stm32f7xx_hal_i2c.c ****     {
 955              		.loc 1 796 0
 956 0192 FB68     		ldr	r3, [r7, #12]
 957 0194 5B8D     		ldrh	r3, [r3, #42]	@ movhi
 958 0196 9BB2     		uxth	r3, r3
 959 0198 002B     		cmp	r3, #0
 960 019a 99D1     		bne	.L44
 833:Drivers/STM32F7xx_HAL_Driver/Src/stm32f7xx_hal_i2c.c ****         }
 834:Drivers/STM32F7xx_HAL_Driver/Src/stm32f7xx_hal_i2c.c ****       }
 835:Drivers/STM32F7xx_HAL_Driver/Src/stm32f7xx_hal_i2c.c ****     }
 836:Drivers/STM32F7xx_HAL_Driver/Src/stm32f7xx_hal_i2c.c **** 
 837:Drivers/STM32F7xx_HAL_Driver/Src/stm32f7xx_hal_i2c.c ****     /* No need to Check TC flag, with AUTOEND mode the stop is automatically generated */
 838:Drivers/STM32F7xx_HAL_Driver/Src/stm32f7xx_hal_i2c.c ****     /* Wait until STOPF flag is set */
 839:Drivers/STM32F7xx_HAL_Driver/Src/stm32f7xx_hal_i2c.c ****     if (I2C_WaitOnSTOPFlagUntilTimeout(hi2c, Timeout, tickstart) != HAL_OK)
 961              		.loc 1 839 0
 962 019c 7A69     		ldr	r2, [r7, #20]
 963 019e 396A     		ldr	r1, [r7, #32]
 964 01a0 F868     		ldr	r0, [r7, #12]
 965 01a2 FFF7FEFF 		bl	I2C_WaitOnSTOPFlagUntilTimeout
 966 01a6 0346     		mov	r3, r0
 967 01a8 002B     		cmp	r3, #0
 968 01aa 07D0     		beq	.L45
 840:Drivers/STM32F7xx_HAL_Driver/Src/stm32f7xx_hal_i2c.c ****     {
 841:Drivers/STM32F7xx_HAL_Driver/Src/stm32f7xx_hal_i2c.c ****       if (hi2c->ErrorCode == HAL_I2C_ERROR_AF)
 969              		.loc 1 841 0
 970 01ac FB68     		ldr	r3, [r7, #12]
 971 01ae 5B6C     		ldr	r3, [r3, #68]
 972 01b0 042B     		cmp	r3, #4
 973 01b2 01D1     		bne	.L46
 842:Drivers/STM32F7xx_HAL_Driver/Src/stm32f7xx_hal_i2c.c ****       {
 843:Drivers/STM32F7xx_HAL_Driver/Src/stm32f7xx_hal_i2c.c ****         return HAL_ERROR;
 974              		.loc 1 843 0
 975 01b4 0123     		movs	r3, #1
 976 01b6 1CE0     		b	.L35
 977              	.L46:
 844:Drivers/STM32F7xx_HAL_Driver/Src/stm32f7xx_hal_i2c.c ****       }
 845:Drivers/STM32F7xx_HAL_Driver/Src/stm32f7xx_hal_i2c.c ****       else
 846:Drivers/STM32F7xx_HAL_Driver/Src/stm32f7xx_hal_i2c.c ****       {
 847:Drivers/STM32F7xx_HAL_Driver/Src/stm32f7xx_hal_i2c.c ****         return HAL_TIMEOUT;
 978              		.loc 1 847 0
 979 01b8 0323     		movs	r3, #3
 980 01ba 1AE0     		b	.L35
 981              	.L45:
 848:Drivers/STM32F7xx_HAL_Driver/Src/stm32f7xx_hal_i2c.c ****       }
 849:Drivers/STM32F7xx_HAL_Driver/Src/stm32f7xx_hal_i2c.c ****     }
 850:Drivers/STM32F7xx_HAL_Driver/Src/stm32f7xx_hal_i2c.c **** 
 851:Drivers/STM32F7xx_HAL_Driver/Src/stm32f7xx_hal_i2c.c ****     /* Clear STOP Flag */
 852:Drivers/STM32F7xx_HAL_Driver/Src/stm32f7xx_hal_i2c.c ****     __HAL_I2C_CLEAR_FLAG(hi2c, I2C_FLAG_STOPF);
ARM GAS  /var/folders/n8/cvzdcwlj0vl4g_wtyz1ffy300000gn/T//ccBPNZvy.s 			page 33


 982              		.loc 1 852 0
 983 01bc FB68     		ldr	r3, [r7, #12]
 984 01be 1B68     		ldr	r3, [r3]
 985 01c0 2022     		movs	r2, #32
 986 01c2 DA61     		str	r2, [r3, #28]
 853:Drivers/STM32F7xx_HAL_Driver/Src/stm32f7xx_hal_i2c.c **** 
 854:Drivers/STM32F7xx_HAL_Driver/Src/stm32f7xx_hal_i2c.c ****     /* Clear Configuration Register 2 */
 855:Drivers/STM32F7xx_HAL_Driver/Src/stm32f7xx_hal_i2c.c ****     I2C_RESET_CR2(hi2c);
 987              		.loc 1 855 0
 988 01c4 FB68     		ldr	r3, [r7, #12]
 989 01c6 1B68     		ldr	r3, [r3]
 990 01c8 5968     		ldr	r1, [r3, #4]
 991 01ca FB68     		ldr	r3, [r7, #12]
 992 01cc 1A68     		ldr	r2, [r3]
 993 01ce 0C4B     		ldr	r3, .L47+4
 994 01d0 0B40     		ands	r3, r3, r1
 995 01d2 5360     		str	r3, [r2, #4]
 856:Drivers/STM32F7xx_HAL_Driver/Src/stm32f7xx_hal_i2c.c **** 
 857:Drivers/STM32F7xx_HAL_Driver/Src/stm32f7xx_hal_i2c.c ****     hi2c->State = HAL_I2C_STATE_READY;
 996              		.loc 1 857 0
 997 01d4 FB68     		ldr	r3, [r7, #12]
 998 01d6 2022     		movs	r2, #32
 999 01d8 83F84120 		strb	r2, [r3, #65]
 858:Drivers/STM32F7xx_HAL_Driver/Src/stm32f7xx_hal_i2c.c ****     hi2c->Mode  = HAL_I2C_MODE_NONE;
 1000              		.loc 1 858 0
 1001 01dc FB68     		ldr	r3, [r7, #12]
 1002 01de 0022     		movs	r2, #0
 1003 01e0 83F84220 		strb	r2, [r3, #66]
 859:Drivers/STM32F7xx_HAL_Driver/Src/stm32f7xx_hal_i2c.c **** 
 860:Drivers/STM32F7xx_HAL_Driver/Src/stm32f7xx_hal_i2c.c ****     /* Process Unlocked */
 861:Drivers/STM32F7xx_HAL_Driver/Src/stm32f7xx_hal_i2c.c ****     __HAL_UNLOCK(hi2c);
 1004              		.loc 1 861 0
 1005 01e4 FB68     		ldr	r3, [r7, #12]
 1006 01e6 0022     		movs	r2, #0
 1007 01e8 83F84020 		strb	r2, [r3, #64]
 862:Drivers/STM32F7xx_HAL_Driver/Src/stm32f7xx_hal_i2c.c **** 
 863:Drivers/STM32F7xx_HAL_Driver/Src/stm32f7xx_hal_i2c.c ****     return HAL_OK;
 1008              		.loc 1 863 0
 1009 01ec 0023     		movs	r3, #0
 1010 01ee 00E0     		b	.L35
 1011              	.L33:
 864:Drivers/STM32F7xx_HAL_Driver/Src/stm32f7xx_hal_i2c.c ****   }
 865:Drivers/STM32F7xx_HAL_Driver/Src/stm32f7xx_hal_i2c.c ****   else
 866:Drivers/STM32F7xx_HAL_Driver/Src/stm32f7xx_hal_i2c.c ****   {
 867:Drivers/STM32F7xx_HAL_Driver/Src/stm32f7xx_hal_i2c.c ****     return HAL_BUSY;
 1012              		.loc 1 867 0
 1013 01f0 0223     		movs	r3, #2
 1014              	.L35:
 868:Drivers/STM32F7xx_HAL_Driver/Src/stm32f7xx_hal_i2c.c ****   }
 869:Drivers/STM32F7xx_HAL_Driver/Src/stm32f7xx_hal_i2c.c **** }
 1015              		.loc 1 869 0
 1016 01f2 1846     		mov	r0, r3
 1017 01f4 1837     		adds	r7, r7, #24
 1018              	.LCFI30:
 1019              		.cfi_def_cfa_offset 8
 1020 01f6 BD46     		mov	sp, r7
 1021              	.LCFI31:
ARM GAS  /var/folders/n8/cvzdcwlj0vl4g_wtyz1ffy300000gn/T//ccBPNZvy.s 			page 34


 1022              		.cfi_def_cfa_register 13
 1023              		@ sp needed
 1024 01f8 80BD     		pop	{r7, pc}
 1025              	.L48:
 1026 01fa 00BF     		.align	2
 1027              	.L47:
 1028 01fc 00240080 		.word	-2147474432
 1029 0200 00E800FE 		.word	-33495040
 1030              		.cfi_endproc
 1031              	.LFE143:
 1033              		.section	.text.HAL_I2C_Slave_Transmit,"ax",%progbits
 1034              		.align	1
 1035              		.global	HAL_I2C_Slave_Transmit
 1036              		.syntax unified
 1037              		.thumb
 1038              		.thumb_func
 1039              		.fpu fpv5-sp-d16
 1041              	HAL_I2C_Slave_Transmit:
 1042              	.LFB144:
 870:Drivers/STM32F7xx_HAL_Driver/Src/stm32f7xx_hal_i2c.c **** 
 871:Drivers/STM32F7xx_HAL_Driver/Src/stm32f7xx_hal_i2c.c **** /**
 872:Drivers/STM32F7xx_HAL_Driver/Src/stm32f7xx_hal_i2c.c ****   * @brief  Transmits in slave mode an amount of data in blocking mode.
 873:Drivers/STM32F7xx_HAL_Driver/Src/stm32f7xx_hal_i2c.c ****   * @param  hi2c Pointer to a I2C_HandleTypeDef structure that contains
 874:Drivers/STM32F7xx_HAL_Driver/Src/stm32f7xx_hal_i2c.c ****   *                the configuration information for the specified I2C.
 875:Drivers/STM32F7xx_HAL_Driver/Src/stm32f7xx_hal_i2c.c ****   * @param  pData Pointer to data buffer
 876:Drivers/STM32F7xx_HAL_Driver/Src/stm32f7xx_hal_i2c.c ****   * @param  Size Amount of data to be sent
 877:Drivers/STM32F7xx_HAL_Driver/Src/stm32f7xx_hal_i2c.c ****   * @param  Timeout Timeout duration
 878:Drivers/STM32F7xx_HAL_Driver/Src/stm32f7xx_hal_i2c.c ****   * @retval HAL status
 879:Drivers/STM32F7xx_HAL_Driver/Src/stm32f7xx_hal_i2c.c ****   */
 880:Drivers/STM32F7xx_HAL_Driver/Src/stm32f7xx_hal_i2c.c **** HAL_StatusTypeDef HAL_I2C_Slave_Transmit(I2C_HandleTypeDef *hi2c, uint8_t *pData, uint16_t Size, ui
 881:Drivers/STM32F7xx_HAL_Driver/Src/stm32f7xx_hal_i2c.c **** {
 1043              		.loc 1 881 0
 1044              		.cfi_startproc
 1045              		@ args = 0, pretend = 0, frame = 24
 1046              		@ frame_needed = 1, uses_anonymous_args = 0
 1047 0000 80B5     		push	{r7, lr}
 1048              	.LCFI32:
 1049              		.cfi_def_cfa_offset 8
 1050              		.cfi_offset 7, -8
 1051              		.cfi_offset 14, -4
 1052 0002 88B0     		sub	sp, sp, #32
 1053              	.LCFI33:
 1054              		.cfi_def_cfa_offset 40
 1055 0004 02AF     		add	r7, sp, #8
 1056              	.LCFI34:
 1057              		.cfi_def_cfa 7, 32
 1058 0006 F860     		str	r0, [r7, #12]
 1059 0008 B960     		str	r1, [r7, #8]
 1060 000a 3B60     		str	r3, [r7]
 1061 000c 1346     		mov	r3, r2	@ movhi
 1062 000e FB80     		strh	r3, [r7, #6]	@ movhi
 882:Drivers/STM32F7xx_HAL_Driver/Src/stm32f7xx_hal_i2c.c ****   uint32_t tickstart = 0U;
 1063              		.loc 1 882 0
 1064 0010 0023     		movs	r3, #0
 1065 0012 7B61     		str	r3, [r7, #20]
 883:Drivers/STM32F7xx_HAL_Driver/Src/stm32f7xx_hal_i2c.c **** 
 884:Drivers/STM32F7xx_HAL_Driver/Src/stm32f7xx_hal_i2c.c ****   if (hi2c->State == HAL_I2C_STATE_READY)
ARM GAS  /var/folders/n8/cvzdcwlj0vl4g_wtyz1ffy300000gn/T//ccBPNZvy.s 			page 35


 1066              		.loc 1 884 0
 1067 0014 FB68     		ldr	r3, [r7, #12]
 1068 0016 93F84130 		ldrb	r3, [r3, #65]
 1069 001a DBB2     		uxtb	r3, r3
 1070 001c 202B     		cmp	r3, #32
 1071 001e 40F0F580 		bne	.L50
 885:Drivers/STM32F7xx_HAL_Driver/Src/stm32f7xx_hal_i2c.c ****   {
 886:Drivers/STM32F7xx_HAL_Driver/Src/stm32f7xx_hal_i2c.c ****     if ((pData == NULL) || (Size == 0U))
 1072              		.loc 1 886 0
 1073 0022 BB68     		ldr	r3, [r7, #8]
 1074 0024 002B     		cmp	r3, #0
 1075 0026 02D0     		beq	.L51
 1076              		.loc 1 886 0 is_stmt 0 discriminator 1
 1077 0028 FB88     		ldrh	r3, [r7, #6]
 1078 002a 002B     		cmp	r3, #0
 1079 002c 01D1     		bne	.L52
 1080              	.L51:
 887:Drivers/STM32F7xx_HAL_Driver/Src/stm32f7xx_hal_i2c.c ****     {
 888:Drivers/STM32F7xx_HAL_Driver/Src/stm32f7xx_hal_i2c.c ****       return  HAL_ERROR;
 1081              		.loc 1 888 0 is_stmt 1
 1082 002e 0123     		movs	r3, #1
 1083 0030 EDE0     		b	.L53
 1084              	.L52:
 889:Drivers/STM32F7xx_HAL_Driver/Src/stm32f7xx_hal_i2c.c ****     }
 890:Drivers/STM32F7xx_HAL_Driver/Src/stm32f7xx_hal_i2c.c ****     /* Process Locked */
 891:Drivers/STM32F7xx_HAL_Driver/Src/stm32f7xx_hal_i2c.c ****     __HAL_LOCK(hi2c);
 1085              		.loc 1 891 0
 1086 0032 FB68     		ldr	r3, [r7, #12]
 1087 0034 93F84030 		ldrb	r3, [r3, #64]	@ zero_extendqisi2
 1088 0038 012B     		cmp	r3, #1
 1089 003a 01D1     		bne	.L54
 1090              		.loc 1 891 0 is_stmt 0 discriminator 1
 1091 003c 0223     		movs	r3, #2
 1092 003e E6E0     		b	.L53
 1093              	.L54:
 1094              		.loc 1 891 0 discriminator 2
 1095 0040 FB68     		ldr	r3, [r7, #12]
 1096 0042 0122     		movs	r2, #1
 1097 0044 83F84020 		strb	r2, [r3, #64]
 892:Drivers/STM32F7xx_HAL_Driver/Src/stm32f7xx_hal_i2c.c **** 
 893:Drivers/STM32F7xx_HAL_Driver/Src/stm32f7xx_hal_i2c.c ****     /* Init tickstart for timeout management*/
 894:Drivers/STM32F7xx_HAL_Driver/Src/stm32f7xx_hal_i2c.c ****     tickstart = HAL_GetTick();
 1098              		.loc 1 894 0 is_stmt 1 discriminator 2
 1099 0048 FFF7FEFF 		bl	HAL_GetTick
 1100 004c 7861     		str	r0, [r7, #20]
 895:Drivers/STM32F7xx_HAL_Driver/Src/stm32f7xx_hal_i2c.c **** 
 896:Drivers/STM32F7xx_HAL_Driver/Src/stm32f7xx_hal_i2c.c ****     hi2c->State     = HAL_I2C_STATE_BUSY_TX;
 1101              		.loc 1 896 0 discriminator 2
 1102 004e FB68     		ldr	r3, [r7, #12]
 1103 0050 2122     		movs	r2, #33
 1104 0052 83F84120 		strb	r2, [r3, #65]
 897:Drivers/STM32F7xx_HAL_Driver/Src/stm32f7xx_hal_i2c.c ****     hi2c->Mode      = HAL_I2C_MODE_SLAVE;
 1105              		.loc 1 897 0 discriminator 2
 1106 0056 FB68     		ldr	r3, [r7, #12]
 1107 0058 2022     		movs	r2, #32
 1108 005a 83F84220 		strb	r2, [r3, #66]
 898:Drivers/STM32F7xx_HAL_Driver/Src/stm32f7xx_hal_i2c.c ****     hi2c->ErrorCode = HAL_I2C_ERROR_NONE;
ARM GAS  /var/folders/n8/cvzdcwlj0vl4g_wtyz1ffy300000gn/T//ccBPNZvy.s 			page 36


 1109              		.loc 1 898 0 discriminator 2
 1110 005e FB68     		ldr	r3, [r7, #12]
 1111 0060 0022     		movs	r2, #0
 1112 0062 5A64     		str	r2, [r3, #68]
 899:Drivers/STM32F7xx_HAL_Driver/Src/stm32f7xx_hal_i2c.c **** 
 900:Drivers/STM32F7xx_HAL_Driver/Src/stm32f7xx_hal_i2c.c ****     /* Prepare transfer parameters */
 901:Drivers/STM32F7xx_HAL_Driver/Src/stm32f7xx_hal_i2c.c ****     hi2c->pBuffPtr  = pData;
 1113              		.loc 1 901 0 discriminator 2
 1114 0064 FB68     		ldr	r3, [r7, #12]
 1115 0066 BA68     		ldr	r2, [r7, #8]
 1116 0068 5A62     		str	r2, [r3, #36]
 902:Drivers/STM32F7xx_HAL_Driver/Src/stm32f7xx_hal_i2c.c ****     hi2c->XferCount = Size;
 1117              		.loc 1 902 0 discriminator 2
 1118 006a FB68     		ldr	r3, [r7, #12]
 1119 006c FA88     		ldrh	r2, [r7, #6]	@ movhi
 1120 006e 5A85     		strh	r2, [r3, #42]	@ movhi
 903:Drivers/STM32F7xx_HAL_Driver/Src/stm32f7xx_hal_i2c.c ****     hi2c->XferISR   = NULL;
 1121              		.loc 1 903 0 discriminator 2
 1122 0070 FB68     		ldr	r3, [r7, #12]
 1123 0072 0022     		movs	r2, #0
 1124 0074 5A63     		str	r2, [r3, #52]
 904:Drivers/STM32F7xx_HAL_Driver/Src/stm32f7xx_hal_i2c.c **** 
 905:Drivers/STM32F7xx_HAL_Driver/Src/stm32f7xx_hal_i2c.c ****     /* Enable Address Acknowledge */
 906:Drivers/STM32F7xx_HAL_Driver/Src/stm32f7xx_hal_i2c.c ****     hi2c->Instance->CR2 &= ~I2C_CR2_NACK;
 1125              		.loc 1 906 0 discriminator 2
 1126 0076 FB68     		ldr	r3, [r7, #12]
 1127 0078 1B68     		ldr	r3, [r3]
 1128 007a 5A68     		ldr	r2, [r3, #4]
 1129 007c FB68     		ldr	r3, [r7, #12]
 1130 007e 1B68     		ldr	r3, [r3]
 1131 0080 22F40042 		bic	r2, r2, #32768
 1132 0084 5A60     		str	r2, [r3, #4]
 907:Drivers/STM32F7xx_HAL_Driver/Src/stm32f7xx_hal_i2c.c **** 
 908:Drivers/STM32F7xx_HAL_Driver/Src/stm32f7xx_hal_i2c.c ****     /* Wait until ADDR flag is set */
 909:Drivers/STM32F7xx_HAL_Driver/Src/stm32f7xx_hal_i2c.c ****     if (I2C_WaitOnFlagUntilTimeout(hi2c, I2C_FLAG_ADDR, RESET, Timeout, tickstart) != HAL_OK)
 1133              		.loc 1 909 0 discriminator 2
 1134 0086 7B69     		ldr	r3, [r7, #20]
 1135 0088 0093     		str	r3, [sp]
 1136 008a 3B68     		ldr	r3, [r7]
 1137 008c 0022     		movs	r2, #0
 1138 008e 0821     		movs	r1, #8
 1139 0090 F868     		ldr	r0, [r7, #12]
 1140 0092 FFF7FEFF 		bl	I2C_WaitOnFlagUntilTimeout
 1141 0096 0346     		mov	r3, r0
 1142 0098 002B     		cmp	r3, #0
 1143 009a 09D0     		beq	.L55
 910:Drivers/STM32F7xx_HAL_Driver/Src/stm32f7xx_hal_i2c.c ****     {
 911:Drivers/STM32F7xx_HAL_Driver/Src/stm32f7xx_hal_i2c.c ****       /* Disable Address Acknowledge */
 912:Drivers/STM32F7xx_HAL_Driver/Src/stm32f7xx_hal_i2c.c ****       hi2c->Instance->CR2 |= I2C_CR2_NACK;
 1144              		.loc 1 912 0
 1145 009c FB68     		ldr	r3, [r7, #12]
 1146 009e 1B68     		ldr	r3, [r3]
 1147 00a0 5A68     		ldr	r2, [r3, #4]
 1148 00a2 FB68     		ldr	r3, [r7, #12]
 1149 00a4 1B68     		ldr	r3, [r3]
 1150 00a6 42F40042 		orr	r2, r2, #32768
 1151 00aa 5A60     		str	r2, [r3, #4]
ARM GAS  /var/folders/n8/cvzdcwlj0vl4g_wtyz1ffy300000gn/T//ccBPNZvy.s 			page 37


 913:Drivers/STM32F7xx_HAL_Driver/Src/stm32f7xx_hal_i2c.c ****       return HAL_TIMEOUT;
 1152              		.loc 1 913 0
 1153 00ac 0323     		movs	r3, #3
 1154 00ae AEE0     		b	.L53
 1155              	.L55:
 914:Drivers/STM32F7xx_HAL_Driver/Src/stm32f7xx_hal_i2c.c ****     }
 915:Drivers/STM32F7xx_HAL_Driver/Src/stm32f7xx_hal_i2c.c **** 
 916:Drivers/STM32F7xx_HAL_Driver/Src/stm32f7xx_hal_i2c.c ****     /* Clear ADDR flag */
 917:Drivers/STM32F7xx_HAL_Driver/Src/stm32f7xx_hal_i2c.c ****     __HAL_I2C_CLEAR_FLAG(hi2c, I2C_FLAG_ADDR);
 1156              		.loc 1 917 0
 1157 00b0 FB68     		ldr	r3, [r7, #12]
 1158 00b2 1B68     		ldr	r3, [r3]
 1159 00b4 0822     		movs	r2, #8
 1160 00b6 DA61     		str	r2, [r3, #28]
 918:Drivers/STM32F7xx_HAL_Driver/Src/stm32f7xx_hal_i2c.c **** 
 919:Drivers/STM32F7xx_HAL_Driver/Src/stm32f7xx_hal_i2c.c ****     /* If 10bit addressing mode is selected */
 920:Drivers/STM32F7xx_HAL_Driver/Src/stm32f7xx_hal_i2c.c ****     if (hi2c->Init.AddressingMode == I2C_ADDRESSINGMODE_10BIT)
 1161              		.loc 1 920 0
 1162 00b8 FB68     		ldr	r3, [r7, #12]
 1163 00ba DB68     		ldr	r3, [r3, #12]
 1164 00bc 022B     		cmp	r3, #2
 1165 00be 18D1     		bne	.L56
 921:Drivers/STM32F7xx_HAL_Driver/Src/stm32f7xx_hal_i2c.c ****     {
 922:Drivers/STM32F7xx_HAL_Driver/Src/stm32f7xx_hal_i2c.c ****       /* Wait until ADDR flag is set */
 923:Drivers/STM32F7xx_HAL_Driver/Src/stm32f7xx_hal_i2c.c ****       if (I2C_WaitOnFlagUntilTimeout(hi2c, I2C_FLAG_ADDR, RESET, Timeout, tickstart) != HAL_OK)
 1166              		.loc 1 923 0
 1167 00c0 7B69     		ldr	r3, [r7, #20]
 1168 00c2 0093     		str	r3, [sp]
 1169 00c4 3B68     		ldr	r3, [r7]
 1170 00c6 0022     		movs	r2, #0
 1171 00c8 0821     		movs	r1, #8
 1172 00ca F868     		ldr	r0, [r7, #12]
 1173 00cc FFF7FEFF 		bl	I2C_WaitOnFlagUntilTimeout
 1174 00d0 0346     		mov	r3, r0
 1175 00d2 002B     		cmp	r3, #0
 1176 00d4 09D0     		beq	.L57
 924:Drivers/STM32F7xx_HAL_Driver/Src/stm32f7xx_hal_i2c.c ****       {
 925:Drivers/STM32F7xx_HAL_Driver/Src/stm32f7xx_hal_i2c.c ****         /* Disable Address Acknowledge */
 926:Drivers/STM32F7xx_HAL_Driver/Src/stm32f7xx_hal_i2c.c ****         hi2c->Instance->CR2 |= I2C_CR2_NACK;
 1177              		.loc 1 926 0
 1178 00d6 FB68     		ldr	r3, [r7, #12]
 1179 00d8 1B68     		ldr	r3, [r3]
 1180 00da 5A68     		ldr	r2, [r3, #4]
 1181 00dc FB68     		ldr	r3, [r7, #12]
 1182 00de 1B68     		ldr	r3, [r3]
 1183 00e0 42F40042 		orr	r2, r2, #32768
 1184 00e4 5A60     		str	r2, [r3, #4]
 927:Drivers/STM32F7xx_HAL_Driver/Src/stm32f7xx_hal_i2c.c ****         return HAL_TIMEOUT;
 1185              		.loc 1 927 0
 1186 00e6 0323     		movs	r3, #3
 1187 00e8 91E0     		b	.L53
 1188              	.L57:
 928:Drivers/STM32F7xx_HAL_Driver/Src/stm32f7xx_hal_i2c.c ****       }
 929:Drivers/STM32F7xx_HAL_Driver/Src/stm32f7xx_hal_i2c.c **** 
 930:Drivers/STM32F7xx_HAL_Driver/Src/stm32f7xx_hal_i2c.c ****       /* Clear ADDR flag */
 931:Drivers/STM32F7xx_HAL_Driver/Src/stm32f7xx_hal_i2c.c ****       __HAL_I2C_CLEAR_FLAG(hi2c, I2C_FLAG_ADDR);
 1189              		.loc 1 931 0
ARM GAS  /var/folders/n8/cvzdcwlj0vl4g_wtyz1ffy300000gn/T//ccBPNZvy.s 			page 38


 1190 00ea FB68     		ldr	r3, [r7, #12]
 1191 00ec 1B68     		ldr	r3, [r3]
 1192 00ee 0822     		movs	r2, #8
 1193 00f0 DA61     		str	r2, [r3, #28]
 1194              	.L56:
 932:Drivers/STM32F7xx_HAL_Driver/Src/stm32f7xx_hal_i2c.c ****     }
 933:Drivers/STM32F7xx_HAL_Driver/Src/stm32f7xx_hal_i2c.c **** 
 934:Drivers/STM32F7xx_HAL_Driver/Src/stm32f7xx_hal_i2c.c ****     /* Wait until DIR flag is set Transmitter mode */
 935:Drivers/STM32F7xx_HAL_Driver/Src/stm32f7xx_hal_i2c.c ****     if (I2C_WaitOnFlagUntilTimeout(hi2c, I2C_FLAG_DIR, RESET, Timeout, tickstart) != HAL_OK)
 1195              		.loc 1 935 0
 1196 00f2 7B69     		ldr	r3, [r7, #20]
 1197 00f4 0093     		str	r3, [sp]
 1198 00f6 3B68     		ldr	r3, [r7]
 1199 00f8 0022     		movs	r2, #0
 1200 00fa 4FF48031 		mov	r1, #65536
 1201 00fe F868     		ldr	r0, [r7, #12]
 1202 0100 FFF7FEFF 		bl	I2C_WaitOnFlagUntilTimeout
 1203 0104 0346     		mov	r3, r0
 1204 0106 002B     		cmp	r3, #0
 1205 0108 31D0     		beq	.L59
 936:Drivers/STM32F7xx_HAL_Driver/Src/stm32f7xx_hal_i2c.c ****     {
 937:Drivers/STM32F7xx_HAL_Driver/Src/stm32f7xx_hal_i2c.c ****       /* Disable Address Acknowledge */
 938:Drivers/STM32F7xx_HAL_Driver/Src/stm32f7xx_hal_i2c.c ****       hi2c->Instance->CR2 |= I2C_CR2_NACK;
 1206              		.loc 1 938 0
 1207 010a FB68     		ldr	r3, [r7, #12]
 1208 010c 1B68     		ldr	r3, [r3]
 1209 010e 5A68     		ldr	r2, [r3, #4]
 1210 0110 FB68     		ldr	r3, [r7, #12]
 1211 0112 1B68     		ldr	r3, [r3]
 1212 0114 42F40042 		orr	r2, r2, #32768
 1213 0118 5A60     		str	r2, [r3, #4]
 939:Drivers/STM32F7xx_HAL_Driver/Src/stm32f7xx_hal_i2c.c ****       return HAL_TIMEOUT;
 1214              		.loc 1 939 0
 1215 011a 0323     		movs	r3, #3
 1216 011c 77E0     		b	.L53
 1217              	.L62:
 940:Drivers/STM32F7xx_HAL_Driver/Src/stm32f7xx_hal_i2c.c ****     }
 941:Drivers/STM32F7xx_HAL_Driver/Src/stm32f7xx_hal_i2c.c **** 
 942:Drivers/STM32F7xx_HAL_Driver/Src/stm32f7xx_hal_i2c.c ****     while (hi2c->XferCount > 0U)
 943:Drivers/STM32F7xx_HAL_Driver/Src/stm32f7xx_hal_i2c.c ****     {
 944:Drivers/STM32F7xx_HAL_Driver/Src/stm32f7xx_hal_i2c.c ****       /* Wait until TXIS flag is set */
 945:Drivers/STM32F7xx_HAL_Driver/Src/stm32f7xx_hal_i2c.c ****       if (I2C_WaitOnTXISFlagUntilTimeout(hi2c, Timeout, tickstart) != HAL_OK)
 1218              		.loc 1 945 0
 1219 011e 7A69     		ldr	r2, [r7, #20]
 1220 0120 3968     		ldr	r1, [r7]
 1221 0122 F868     		ldr	r0, [r7, #12]
 1222 0124 FFF7FEFF 		bl	I2C_WaitOnTXISFlagUntilTimeout
 1223 0128 0346     		mov	r3, r0
 1224 012a 002B     		cmp	r3, #0
 1225 012c 0FD0     		beq	.L60
 946:Drivers/STM32F7xx_HAL_Driver/Src/stm32f7xx_hal_i2c.c ****       {
 947:Drivers/STM32F7xx_HAL_Driver/Src/stm32f7xx_hal_i2c.c ****         /* Disable Address Acknowledge */
 948:Drivers/STM32F7xx_HAL_Driver/Src/stm32f7xx_hal_i2c.c ****         hi2c->Instance->CR2 |= I2C_CR2_NACK;
 1226              		.loc 1 948 0
 1227 012e FB68     		ldr	r3, [r7, #12]
 1228 0130 1B68     		ldr	r3, [r3]
 1229 0132 5A68     		ldr	r2, [r3, #4]
ARM GAS  /var/folders/n8/cvzdcwlj0vl4g_wtyz1ffy300000gn/T//ccBPNZvy.s 			page 39


 1230 0134 FB68     		ldr	r3, [r7, #12]
 1231 0136 1B68     		ldr	r3, [r3]
 1232 0138 42F40042 		orr	r2, r2, #32768
 1233 013c 5A60     		str	r2, [r3, #4]
 949:Drivers/STM32F7xx_HAL_Driver/Src/stm32f7xx_hal_i2c.c **** 
 950:Drivers/STM32F7xx_HAL_Driver/Src/stm32f7xx_hal_i2c.c ****         if (hi2c->ErrorCode == HAL_I2C_ERROR_AF)
 1234              		.loc 1 950 0
 1235 013e FB68     		ldr	r3, [r7, #12]
 1236 0140 5B6C     		ldr	r3, [r3, #68]
 1237 0142 042B     		cmp	r3, #4
 1238 0144 01D1     		bne	.L61
 951:Drivers/STM32F7xx_HAL_Driver/Src/stm32f7xx_hal_i2c.c ****         {
 952:Drivers/STM32F7xx_HAL_Driver/Src/stm32f7xx_hal_i2c.c ****           return HAL_ERROR;
 1239              		.loc 1 952 0
 1240 0146 0123     		movs	r3, #1
 1241 0148 61E0     		b	.L53
 1242              	.L61:
 953:Drivers/STM32F7xx_HAL_Driver/Src/stm32f7xx_hal_i2c.c ****         }
 954:Drivers/STM32F7xx_HAL_Driver/Src/stm32f7xx_hal_i2c.c ****         else
 955:Drivers/STM32F7xx_HAL_Driver/Src/stm32f7xx_hal_i2c.c ****         {
 956:Drivers/STM32F7xx_HAL_Driver/Src/stm32f7xx_hal_i2c.c ****           return HAL_TIMEOUT;
 1243              		.loc 1 956 0
 1244 014a 0323     		movs	r3, #3
 1245 014c 5FE0     		b	.L53
 1246              	.L60:
 957:Drivers/STM32F7xx_HAL_Driver/Src/stm32f7xx_hal_i2c.c ****         }
 958:Drivers/STM32F7xx_HAL_Driver/Src/stm32f7xx_hal_i2c.c ****       }
 959:Drivers/STM32F7xx_HAL_Driver/Src/stm32f7xx_hal_i2c.c **** 
 960:Drivers/STM32F7xx_HAL_Driver/Src/stm32f7xx_hal_i2c.c ****       /* Write data to TXDR */
 961:Drivers/STM32F7xx_HAL_Driver/Src/stm32f7xx_hal_i2c.c ****       hi2c->Instance->TXDR = (*hi2c->pBuffPtr++);
 1247              		.loc 1 961 0
 1248 014e FB68     		ldr	r3, [r7, #12]
 1249 0150 5B6A     		ldr	r3, [r3, #36]
 1250 0152 591C     		adds	r1, r3, #1
 1251 0154 FA68     		ldr	r2, [r7, #12]
 1252 0156 5162     		str	r1, [r2, #36]
 1253 0158 1A78     		ldrb	r2, [r3]	@ zero_extendqisi2
 1254 015a FB68     		ldr	r3, [r7, #12]
 1255 015c 1B68     		ldr	r3, [r3]
 1256 015e 9A62     		str	r2, [r3, #40]
 962:Drivers/STM32F7xx_HAL_Driver/Src/stm32f7xx_hal_i2c.c ****       hi2c->XferCount--;
 1257              		.loc 1 962 0
 1258 0160 FB68     		ldr	r3, [r7, #12]
 1259 0162 5B8D     		ldrh	r3, [r3, #42]	@ movhi
 1260 0164 9BB2     		uxth	r3, r3
 1261 0166 013B     		subs	r3, r3, #1
 1262 0168 9AB2     		uxth	r2, r3
 1263 016a FB68     		ldr	r3, [r7, #12]
 1264 016c 5A85     		strh	r2, [r3, #42]	@ movhi
 1265              	.L59:
 942:Drivers/STM32F7xx_HAL_Driver/Src/stm32f7xx_hal_i2c.c ****     {
 1266              		.loc 1 942 0
 1267 016e FB68     		ldr	r3, [r7, #12]
 1268 0170 5B8D     		ldrh	r3, [r3, #42]	@ movhi
 1269 0172 9BB2     		uxth	r3, r3
 1270 0174 002B     		cmp	r3, #0
 1271 0176 D2D1     		bne	.L62
ARM GAS  /var/folders/n8/cvzdcwlj0vl4g_wtyz1ffy300000gn/T//ccBPNZvy.s 			page 40


 963:Drivers/STM32F7xx_HAL_Driver/Src/stm32f7xx_hal_i2c.c ****     }
 964:Drivers/STM32F7xx_HAL_Driver/Src/stm32f7xx_hal_i2c.c **** 
 965:Drivers/STM32F7xx_HAL_Driver/Src/stm32f7xx_hal_i2c.c ****     /* Wait until STOP flag is set */
 966:Drivers/STM32F7xx_HAL_Driver/Src/stm32f7xx_hal_i2c.c ****     if (I2C_WaitOnSTOPFlagUntilTimeout(hi2c, Timeout, tickstart) != HAL_OK)
 1272              		.loc 1 966 0
 1273 0178 7A69     		ldr	r2, [r7, #20]
 1274 017a 3968     		ldr	r1, [r7]
 1275 017c F868     		ldr	r0, [r7, #12]
 1276 017e FFF7FEFF 		bl	I2C_WaitOnSTOPFlagUntilTimeout
 1277 0182 0346     		mov	r3, r0
 1278 0184 002B     		cmp	r3, #0
 1279 0186 11D0     		beq	.L63
 967:Drivers/STM32F7xx_HAL_Driver/Src/stm32f7xx_hal_i2c.c ****     {
 968:Drivers/STM32F7xx_HAL_Driver/Src/stm32f7xx_hal_i2c.c ****       /* Disable Address Acknowledge */
 969:Drivers/STM32F7xx_HAL_Driver/Src/stm32f7xx_hal_i2c.c ****       hi2c->Instance->CR2 |= I2C_CR2_NACK;
 1280              		.loc 1 969 0
 1281 0188 FB68     		ldr	r3, [r7, #12]
 1282 018a 1B68     		ldr	r3, [r3]
 1283 018c 5A68     		ldr	r2, [r3, #4]
 1284 018e FB68     		ldr	r3, [r7, #12]
 1285 0190 1B68     		ldr	r3, [r3]
 1286 0192 42F40042 		orr	r2, r2, #32768
 1287 0196 5A60     		str	r2, [r3, #4]
 970:Drivers/STM32F7xx_HAL_Driver/Src/stm32f7xx_hal_i2c.c **** 
 971:Drivers/STM32F7xx_HAL_Driver/Src/stm32f7xx_hal_i2c.c ****       if (hi2c->ErrorCode == HAL_I2C_ERROR_AF)
 1288              		.loc 1 971 0
 1289 0198 FB68     		ldr	r3, [r7, #12]
 1290 019a 5B6C     		ldr	r3, [r3, #68]
 1291 019c 042B     		cmp	r3, #4
 1292 019e 03D1     		bne	.L64
 972:Drivers/STM32F7xx_HAL_Driver/Src/stm32f7xx_hal_i2c.c ****       {
 973:Drivers/STM32F7xx_HAL_Driver/Src/stm32f7xx_hal_i2c.c ****         /* Normal use case for Transmitter mode */
 974:Drivers/STM32F7xx_HAL_Driver/Src/stm32f7xx_hal_i2c.c ****         /* A NACK is generated to confirm the end of transfer */
 975:Drivers/STM32F7xx_HAL_Driver/Src/stm32f7xx_hal_i2c.c ****         hi2c->ErrorCode = HAL_I2C_ERROR_NONE;
 1293              		.loc 1 975 0
 1294 01a0 FB68     		ldr	r3, [r7, #12]
 1295 01a2 0022     		movs	r2, #0
 1296 01a4 5A64     		str	r2, [r3, #68]
 1297 01a6 01E0     		b	.L63
 1298              	.L64:
 976:Drivers/STM32F7xx_HAL_Driver/Src/stm32f7xx_hal_i2c.c ****       }
 977:Drivers/STM32F7xx_HAL_Driver/Src/stm32f7xx_hal_i2c.c ****       else
 978:Drivers/STM32F7xx_HAL_Driver/Src/stm32f7xx_hal_i2c.c ****       {
 979:Drivers/STM32F7xx_HAL_Driver/Src/stm32f7xx_hal_i2c.c ****         return HAL_TIMEOUT;
 1299              		.loc 1 979 0
 1300 01a8 0323     		movs	r3, #3
 1301 01aa 30E0     		b	.L53
 1302              	.L63:
 980:Drivers/STM32F7xx_HAL_Driver/Src/stm32f7xx_hal_i2c.c ****       }
 981:Drivers/STM32F7xx_HAL_Driver/Src/stm32f7xx_hal_i2c.c ****     }
 982:Drivers/STM32F7xx_HAL_Driver/Src/stm32f7xx_hal_i2c.c **** 
 983:Drivers/STM32F7xx_HAL_Driver/Src/stm32f7xx_hal_i2c.c ****     /* Clear STOP flag */
 984:Drivers/STM32F7xx_HAL_Driver/Src/stm32f7xx_hal_i2c.c ****     __HAL_I2C_CLEAR_FLAG(hi2c, I2C_FLAG_STOPF);
 1303              		.loc 1 984 0
 1304 01ac FB68     		ldr	r3, [r7, #12]
 1305 01ae 1B68     		ldr	r3, [r3]
 1306 01b0 2022     		movs	r2, #32
ARM GAS  /var/folders/n8/cvzdcwlj0vl4g_wtyz1ffy300000gn/T//ccBPNZvy.s 			page 41


 1307 01b2 DA61     		str	r2, [r3, #28]
 985:Drivers/STM32F7xx_HAL_Driver/Src/stm32f7xx_hal_i2c.c **** 
 986:Drivers/STM32F7xx_HAL_Driver/Src/stm32f7xx_hal_i2c.c ****     /* Wait until BUSY flag is reset */
 987:Drivers/STM32F7xx_HAL_Driver/Src/stm32f7xx_hal_i2c.c ****     if (I2C_WaitOnFlagUntilTimeout(hi2c, I2C_FLAG_BUSY, SET, Timeout, tickstart) != HAL_OK)
 1308              		.loc 1 987 0
 1309 01b4 7B69     		ldr	r3, [r7, #20]
 1310 01b6 0093     		str	r3, [sp]
 1311 01b8 3B68     		ldr	r3, [r7]
 1312 01ba 0122     		movs	r2, #1
 1313 01bc 4FF40041 		mov	r1, #32768
 1314 01c0 F868     		ldr	r0, [r7, #12]
 1315 01c2 FFF7FEFF 		bl	I2C_WaitOnFlagUntilTimeout
 1316 01c6 0346     		mov	r3, r0
 1317 01c8 002B     		cmp	r3, #0
 1318 01ca 09D0     		beq	.L65
 988:Drivers/STM32F7xx_HAL_Driver/Src/stm32f7xx_hal_i2c.c ****     {
 989:Drivers/STM32F7xx_HAL_Driver/Src/stm32f7xx_hal_i2c.c ****       /* Disable Address Acknowledge */
 990:Drivers/STM32F7xx_HAL_Driver/Src/stm32f7xx_hal_i2c.c ****       hi2c->Instance->CR2 |= I2C_CR2_NACK;
 1319              		.loc 1 990 0
 1320 01cc FB68     		ldr	r3, [r7, #12]
 1321 01ce 1B68     		ldr	r3, [r3]
 1322 01d0 5A68     		ldr	r2, [r3, #4]
 1323 01d2 FB68     		ldr	r3, [r7, #12]
 1324 01d4 1B68     		ldr	r3, [r3]
 1325 01d6 42F40042 		orr	r2, r2, #32768
 1326 01da 5A60     		str	r2, [r3, #4]
 991:Drivers/STM32F7xx_HAL_Driver/Src/stm32f7xx_hal_i2c.c ****       return HAL_TIMEOUT;
 1327              		.loc 1 991 0
 1328 01dc 0323     		movs	r3, #3
 1329 01de 16E0     		b	.L53
 1330              	.L65:
 992:Drivers/STM32F7xx_HAL_Driver/Src/stm32f7xx_hal_i2c.c ****     }
 993:Drivers/STM32F7xx_HAL_Driver/Src/stm32f7xx_hal_i2c.c **** 
 994:Drivers/STM32F7xx_HAL_Driver/Src/stm32f7xx_hal_i2c.c ****     /* Disable Address Acknowledge */
 995:Drivers/STM32F7xx_HAL_Driver/Src/stm32f7xx_hal_i2c.c ****     hi2c->Instance->CR2 |= I2C_CR2_NACK;
 1331              		.loc 1 995 0
 1332 01e0 FB68     		ldr	r3, [r7, #12]
 1333 01e2 1B68     		ldr	r3, [r3]
 1334 01e4 5A68     		ldr	r2, [r3, #4]
 1335 01e6 FB68     		ldr	r3, [r7, #12]
 1336 01e8 1B68     		ldr	r3, [r3]
 1337 01ea 42F40042 		orr	r2, r2, #32768
 1338 01ee 5A60     		str	r2, [r3, #4]
 996:Drivers/STM32F7xx_HAL_Driver/Src/stm32f7xx_hal_i2c.c **** 
 997:Drivers/STM32F7xx_HAL_Driver/Src/stm32f7xx_hal_i2c.c ****     hi2c->State = HAL_I2C_STATE_READY;
 1339              		.loc 1 997 0
 1340 01f0 FB68     		ldr	r3, [r7, #12]
 1341 01f2 2022     		movs	r2, #32
 1342 01f4 83F84120 		strb	r2, [r3, #65]
 998:Drivers/STM32F7xx_HAL_Driver/Src/stm32f7xx_hal_i2c.c ****     hi2c->Mode  = HAL_I2C_MODE_NONE;
 1343              		.loc 1 998 0
 1344 01f8 FB68     		ldr	r3, [r7, #12]
 1345 01fa 0022     		movs	r2, #0
 1346 01fc 83F84220 		strb	r2, [r3, #66]
 999:Drivers/STM32F7xx_HAL_Driver/Src/stm32f7xx_hal_i2c.c **** 
1000:Drivers/STM32F7xx_HAL_Driver/Src/stm32f7xx_hal_i2c.c ****     /* Process Unlocked */
1001:Drivers/STM32F7xx_HAL_Driver/Src/stm32f7xx_hal_i2c.c ****     __HAL_UNLOCK(hi2c);
ARM GAS  /var/folders/n8/cvzdcwlj0vl4g_wtyz1ffy300000gn/T//ccBPNZvy.s 			page 42


 1347              		.loc 1 1001 0
 1348 0200 FB68     		ldr	r3, [r7, #12]
 1349 0202 0022     		movs	r2, #0
 1350 0204 83F84020 		strb	r2, [r3, #64]
1002:Drivers/STM32F7xx_HAL_Driver/Src/stm32f7xx_hal_i2c.c **** 
1003:Drivers/STM32F7xx_HAL_Driver/Src/stm32f7xx_hal_i2c.c ****     return HAL_OK;
 1351              		.loc 1 1003 0
 1352 0208 0023     		movs	r3, #0
 1353 020a 00E0     		b	.L53
 1354              	.L50:
1004:Drivers/STM32F7xx_HAL_Driver/Src/stm32f7xx_hal_i2c.c ****   }
1005:Drivers/STM32F7xx_HAL_Driver/Src/stm32f7xx_hal_i2c.c ****   else
1006:Drivers/STM32F7xx_HAL_Driver/Src/stm32f7xx_hal_i2c.c ****   {
1007:Drivers/STM32F7xx_HAL_Driver/Src/stm32f7xx_hal_i2c.c ****     return HAL_BUSY;
 1355              		.loc 1 1007 0
 1356 020c 0223     		movs	r3, #2
 1357              	.L53:
1008:Drivers/STM32F7xx_HAL_Driver/Src/stm32f7xx_hal_i2c.c ****   }
1009:Drivers/STM32F7xx_HAL_Driver/Src/stm32f7xx_hal_i2c.c **** }
 1358              		.loc 1 1009 0
 1359 020e 1846     		mov	r0, r3
 1360 0210 1837     		adds	r7, r7, #24
 1361              	.LCFI35:
 1362              		.cfi_def_cfa_offset 8
 1363 0212 BD46     		mov	sp, r7
 1364              	.LCFI36:
 1365              		.cfi_def_cfa_register 13
 1366              		@ sp needed
 1367 0214 80BD     		pop	{r7, pc}
 1368              		.cfi_endproc
 1369              	.LFE144:
 1371              		.section	.text.HAL_I2C_Slave_Receive,"ax",%progbits
 1372              		.align	1
 1373              		.global	HAL_I2C_Slave_Receive
 1374              		.syntax unified
 1375              		.thumb
 1376              		.thumb_func
 1377              		.fpu fpv5-sp-d16
 1379              	HAL_I2C_Slave_Receive:
 1380              	.LFB145:
1010:Drivers/STM32F7xx_HAL_Driver/Src/stm32f7xx_hal_i2c.c **** 
1011:Drivers/STM32F7xx_HAL_Driver/Src/stm32f7xx_hal_i2c.c **** /**
1012:Drivers/STM32F7xx_HAL_Driver/Src/stm32f7xx_hal_i2c.c ****   * @brief  Receive in slave mode an amount of data in blocking mode
1013:Drivers/STM32F7xx_HAL_Driver/Src/stm32f7xx_hal_i2c.c ****   * @param  hi2c Pointer to a I2C_HandleTypeDef structure that contains
1014:Drivers/STM32F7xx_HAL_Driver/Src/stm32f7xx_hal_i2c.c ****   *                the configuration information for the specified I2C.
1015:Drivers/STM32F7xx_HAL_Driver/Src/stm32f7xx_hal_i2c.c ****   * @param  pData Pointer to data buffer
1016:Drivers/STM32F7xx_HAL_Driver/Src/stm32f7xx_hal_i2c.c ****   * @param  Size Amount of data to be sent
1017:Drivers/STM32F7xx_HAL_Driver/Src/stm32f7xx_hal_i2c.c ****   * @param  Timeout Timeout duration
1018:Drivers/STM32F7xx_HAL_Driver/Src/stm32f7xx_hal_i2c.c ****   * @retval HAL status
1019:Drivers/STM32F7xx_HAL_Driver/Src/stm32f7xx_hal_i2c.c ****   */
1020:Drivers/STM32F7xx_HAL_Driver/Src/stm32f7xx_hal_i2c.c **** HAL_StatusTypeDef HAL_I2C_Slave_Receive(I2C_HandleTypeDef *hi2c, uint8_t *pData, uint16_t Size, uin
1021:Drivers/STM32F7xx_HAL_Driver/Src/stm32f7xx_hal_i2c.c **** {
 1381              		.loc 1 1021 0
 1382              		.cfi_startproc
 1383              		@ args = 0, pretend = 0, frame = 24
 1384              		@ frame_needed = 1, uses_anonymous_args = 0
 1385 0000 80B5     		push	{r7, lr}
ARM GAS  /var/folders/n8/cvzdcwlj0vl4g_wtyz1ffy300000gn/T//ccBPNZvy.s 			page 43


 1386              	.LCFI37:
 1387              		.cfi_def_cfa_offset 8
 1388              		.cfi_offset 7, -8
 1389              		.cfi_offset 14, -4
 1390 0002 88B0     		sub	sp, sp, #32
 1391              	.LCFI38:
 1392              		.cfi_def_cfa_offset 40
 1393 0004 02AF     		add	r7, sp, #8
 1394              	.LCFI39:
 1395              		.cfi_def_cfa 7, 32
 1396 0006 F860     		str	r0, [r7, #12]
 1397 0008 B960     		str	r1, [r7, #8]
 1398 000a 3B60     		str	r3, [r7]
 1399 000c 1346     		mov	r3, r2	@ movhi
 1400 000e FB80     		strh	r3, [r7, #6]	@ movhi
1022:Drivers/STM32F7xx_HAL_Driver/Src/stm32f7xx_hal_i2c.c ****   uint32_t tickstart = 0U;
 1401              		.loc 1 1022 0
 1402 0010 0023     		movs	r3, #0
 1403 0012 7B61     		str	r3, [r7, #20]
1023:Drivers/STM32F7xx_HAL_Driver/Src/stm32f7xx_hal_i2c.c **** 
1024:Drivers/STM32F7xx_HAL_Driver/Src/stm32f7xx_hal_i2c.c ****   if (hi2c->State == HAL_I2C_STATE_READY)
 1404              		.loc 1 1024 0
 1405 0014 FB68     		ldr	r3, [r7, #12]
 1406 0016 93F84130 		ldrb	r3, [r3, #65]
 1407 001a DBB2     		uxtb	r3, r3
 1408 001c 202B     		cmp	r3, #32
 1409 001e 40F0EF80 		bne	.L67
1025:Drivers/STM32F7xx_HAL_Driver/Src/stm32f7xx_hal_i2c.c ****   {
1026:Drivers/STM32F7xx_HAL_Driver/Src/stm32f7xx_hal_i2c.c ****     if ((pData == NULL) || (Size == 0U))
 1410              		.loc 1 1026 0
 1411 0022 BB68     		ldr	r3, [r7, #8]
 1412 0024 002B     		cmp	r3, #0
 1413 0026 02D0     		beq	.L68
 1414              		.loc 1 1026 0 is_stmt 0 discriminator 1
 1415 0028 FB88     		ldrh	r3, [r7, #6]
 1416 002a 002B     		cmp	r3, #0
 1417 002c 01D1     		bne	.L69
 1418              	.L68:
1027:Drivers/STM32F7xx_HAL_Driver/Src/stm32f7xx_hal_i2c.c ****     {
1028:Drivers/STM32F7xx_HAL_Driver/Src/stm32f7xx_hal_i2c.c ****       return  HAL_ERROR;
 1419              		.loc 1 1028 0 is_stmt 1
 1420 002e 0123     		movs	r3, #1
 1421 0030 E7E0     		b	.L70
 1422              	.L69:
1029:Drivers/STM32F7xx_HAL_Driver/Src/stm32f7xx_hal_i2c.c ****     }
1030:Drivers/STM32F7xx_HAL_Driver/Src/stm32f7xx_hal_i2c.c ****     /* Process Locked */
1031:Drivers/STM32F7xx_HAL_Driver/Src/stm32f7xx_hal_i2c.c ****     __HAL_LOCK(hi2c);
 1423              		.loc 1 1031 0
 1424 0032 FB68     		ldr	r3, [r7, #12]
 1425 0034 93F84030 		ldrb	r3, [r3, #64]	@ zero_extendqisi2
 1426 0038 012B     		cmp	r3, #1
 1427 003a 01D1     		bne	.L71
 1428              		.loc 1 1031 0 is_stmt 0 discriminator 1
 1429 003c 0223     		movs	r3, #2
 1430 003e E0E0     		b	.L70
 1431              	.L71:
 1432              		.loc 1 1031 0 discriminator 2
ARM GAS  /var/folders/n8/cvzdcwlj0vl4g_wtyz1ffy300000gn/T//ccBPNZvy.s 			page 44


 1433 0040 FB68     		ldr	r3, [r7, #12]
 1434 0042 0122     		movs	r2, #1
 1435 0044 83F84020 		strb	r2, [r3, #64]
1032:Drivers/STM32F7xx_HAL_Driver/Src/stm32f7xx_hal_i2c.c **** 
1033:Drivers/STM32F7xx_HAL_Driver/Src/stm32f7xx_hal_i2c.c ****     /* Init tickstart for timeout management*/
1034:Drivers/STM32F7xx_HAL_Driver/Src/stm32f7xx_hal_i2c.c ****     tickstart = HAL_GetTick();
 1436              		.loc 1 1034 0 is_stmt 1 discriminator 2
 1437 0048 FFF7FEFF 		bl	HAL_GetTick
 1438 004c 7861     		str	r0, [r7, #20]
1035:Drivers/STM32F7xx_HAL_Driver/Src/stm32f7xx_hal_i2c.c **** 
1036:Drivers/STM32F7xx_HAL_Driver/Src/stm32f7xx_hal_i2c.c ****     hi2c->State     = HAL_I2C_STATE_BUSY_RX;
 1439              		.loc 1 1036 0 discriminator 2
 1440 004e FB68     		ldr	r3, [r7, #12]
 1441 0050 2222     		movs	r2, #34
 1442 0052 83F84120 		strb	r2, [r3, #65]
1037:Drivers/STM32F7xx_HAL_Driver/Src/stm32f7xx_hal_i2c.c ****     hi2c->Mode      = HAL_I2C_MODE_SLAVE;
 1443              		.loc 1 1037 0 discriminator 2
 1444 0056 FB68     		ldr	r3, [r7, #12]
 1445 0058 2022     		movs	r2, #32
 1446 005a 83F84220 		strb	r2, [r3, #66]
1038:Drivers/STM32F7xx_HAL_Driver/Src/stm32f7xx_hal_i2c.c ****     hi2c->ErrorCode = HAL_I2C_ERROR_NONE;
 1447              		.loc 1 1038 0 discriminator 2
 1448 005e FB68     		ldr	r3, [r7, #12]
 1449 0060 0022     		movs	r2, #0
 1450 0062 5A64     		str	r2, [r3, #68]
1039:Drivers/STM32F7xx_HAL_Driver/Src/stm32f7xx_hal_i2c.c **** 
1040:Drivers/STM32F7xx_HAL_Driver/Src/stm32f7xx_hal_i2c.c ****     /* Prepare transfer parameters */
1041:Drivers/STM32F7xx_HAL_Driver/Src/stm32f7xx_hal_i2c.c ****     hi2c->pBuffPtr  = pData;
 1451              		.loc 1 1041 0 discriminator 2
 1452 0064 FB68     		ldr	r3, [r7, #12]
 1453 0066 BA68     		ldr	r2, [r7, #8]
 1454 0068 5A62     		str	r2, [r3, #36]
1042:Drivers/STM32F7xx_HAL_Driver/Src/stm32f7xx_hal_i2c.c ****     hi2c->XferCount = Size;
 1455              		.loc 1 1042 0 discriminator 2
 1456 006a FB68     		ldr	r3, [r7, #12]
 1457 006c FA88     		ldrh	r2, [r7, #6]	@ movhi
 1458 006e 5A85     		strh	r2, [r3, #42]	@ movhi
1043:Drivers/STM32F7xx_HAL_Driver/Src/stm32f7xx_hal_i2c.c ****     hi2c->XferISR   = NULL;
 1459              		.loc 1 1043 0 discriminator 2
 1460 0070 FB68     		ldr	r3, [r7, #12]
 1461 0072 0022     		movs	r2, #0
 1462 0074 5A63     		str	r2, [r3, #52]
1044:Drivers/STM32F7xx_HAL_Driver/Src/stm32f7xx_hal_i2c.c **** 
1045:Drivers/STM32F7xx_HAL_Driver/Src/stm32f7xx_hal_i2c.c ****     /* Enable Address Acknowledge */
1046:Drivers/STM32F7xx_HAL_Driver/Src/stm32f7xx_hal_i2c.c ****     hi2c->Instance->CR2 &= ~I2C_CR2_NACK;
 1463              		.loc 1 1046 0 discriminator 2
 1464 0076 FB68     		ldr	r3, [r7, #12]
 1465 0078 1B68     		ldr	r3, [r3]
 1466 007a 5A68     		ldr	r2, [r3, #4]
 1467 007c FB68     		ldr	r3, [r7, #12]
 1468 007e 1B68     		ldr	r3, [r3]
 1469 0080 22F40042 		bic	r2, r2, #32768
 1470 0084 5A60     		str	r2, [r3, #4]
1047:Drivers/STM32F7xx_HAL_Driver/Src/stm32f7xx_hal_i2c.c **** 
1048:Drivers/STM32F7xx_HAL_Driver/Src/stm32f7xx_hal_i2c.c ****     /* Wait until ADDR flag is set */
1049:Drivers/STM32F7xx_HAL_Driver/Src/stm32f7xx_hal_i2c.c ****     if (I2C_WaitOnFlagUntilTimeout(hi2c, I2C_FLAG_ADDR, RESET, Timeout, tickstart) != HAL_OK)
 1471              		.loc 1 1049 0 discriminator 2
ARM GAS  /var/folders/n8/cvzdcwlj0vl4g_wtyz1ffy300000gn/T//ccBPNZvy.s 			page 45


 1472 0086 7B69     		ldr	r3, [r7, #20]
 1473 0088 0093     		str	r3, [sp]
 1474 008a 3B68     		ldr	r3, [r7]
 1475 008c 0022     		movs	r2, #0
 1476 008e 0821     		movs	r1, #8
 1477 0090 F868     		ldr	r0, [r7, #12]
 1478 0092 FFF7FEFF 		bl	I2C_WaitOnFlagUntilTimeout
 1479 0096 0346     		mov	r3, r0
 1480 0098 002B     		cmp	r3, #0
 1481 009a 09D0     		beq	.L72
1050:Drivers/STM32F7xx_HAL_Driver/Src/stm32f7xx_hal_i2c.c ****     {
1051:Drivers/STM32F7xx_HAL_Driver/Src/stm32f7xx_hal_i2c.c ****       /* Disable Address Acknowledge */
1052:Drivers/STM32F7xx_HAL_Driver/Src/stm32f7xx_hal_i2c.c ****       hi2c->Instance->CR2 |= I2C_CR2_NACK;
 1482              		.loc 1 1052 0
 1483 009c FB68     		ldr	r3, [r7, #12]
 1484 009e 1B68     		ldr	r3, [r3]
 1485 00a0 5A68     		ldr	r2, [r3, #4]
 1486 00a2 FB68     		ldr	r3, [r7, #12]
 1487 00a4 1B68     		ldr	r3, [r3]
 1488 00a6 42F40042 		orr	r2, r2, #32768
 1489 00aa 5A60     		str	r2, [r3, #4]
1053:Drivers/STM32F7xx_HAL_Driver/Src/stm32f7xx_hal_i2c.c ****       return HAL_TIMEOUT;
 1490              		.loc 1 1053 0
 1491 00ac 0323     		movs	r3, #3
 1492 00ae A8E0     		b	.L70
 1493              	.L72:
1054:Drivers/STM32F7xx_HAL_Driver/Src/stm32f7xx_hal_i2c.c ****     }
1055:Drivers/STM32F7xx_HAL_Driver/Src/stm32f7xx_hal_i2c.c **** 
1056:Drivers/STM32F7xx_HAL_Driver/Src/stm32f7xx_hal_i2c.c ****     /* Clear ADDR flag */
1057:Drivers/STM32F7xx_HAL_Driver/Src/stm32f7xx_hal_i2c.c ****     __HAL_I2C_CLEAR_FLAG(hi2c, I2C_FLAG_ADDR);
 1494              		.loc 1 1057 0
 1495 00b0 FB68     		ldr	r3, [r7, #12]
 1496 00b2 1B68     		ldr	r3, [r3]
 1497 00b4 0822     		movs	r2, #8
 1498 00b6 DA61     		str	r2, [r3, #28]
1058:Drivers/STM32F7xx_HAL_Driver/Src/stm32f7xx_hal_i2c.c **** 
1059:Drivers/STM32F7xx_HAL_Driver/Src/stm32f7xx_hal_i2c.c ****     /* Wait until DIR flag is reset Receiver mode */
1060:Drivers/STM32F7xx_HAL_Driver/Src/stm32f7xx_hal_i2c.c ****     if (I2C_WaitOnFlagUntilTimeout(hi2c, I2C_FLAG_DIR, SET, Timeout, tickstart) != HAL_OK)
 1499              		.loc 1 1060 0
 1500 00b8 7B69     		ldr	r3, [r7, #20]
 1501 00ba 0093     		str	r3, [sp]
 1502 00bc 3B68     		ldr	r3, [r7]
 1503 00be 0122     		movs	r2, #1
 1504 00c0 4FF48031 		mov	r1, #65536
 1505 00c4 F868     		ldr	r0, [r7, #12]
 1506 00c6 FFF7FEFF 		bl	I2C_WaitOnFlagUntilTimeout
 1507 00ca 0346     		mov	r3, r0
 1508 00cc 002B     		cmp	r3, #0
 1509 00ce 4AD0     		beq	.L74
1061:Drivers/STM32F7xx_HAL_Driver/Src/stm32f7xx_hal_i2c.c ****     {
1062:Drivers/STM32F7xx_HAL_Driver/Src/stm32f7xx_hal_i2c.c ****       /* Disable Address Acknowledge */
1063:Drivers/STM32F7xx_HAL_Driver/Src/stm32f7xx_hal_i2c.c ****       hi2c->Instance->CR2 |= I2C_CR2_NACK;
 1510              		.loc 1 1063 0
 1511 00d0 FB68     		ldr	r3, [r7, #12]
 1512 00d2 1B68     		ldr	r3, [r3]
 1513 00d4 5A68     		ldr	r2, [r3, #4]
 1514 00d6 FB68     		ldr	r3, [r7, #12]
ARM GAS  /var/folders/n8/cvzdcwlj0vl4g_wtyz1ffy300000gn/T//ccBPNZvy.s 			page 46


 1515 00d8 1B68     		ldr	r3, [r3]
 1516 00da 42F40042 		orr	r2, r2, #32768
 1517 00de 5A60     		str	r2, [r3, #4]
1064:Drivers/STM32F7xx_HAL_Driver/Src/stm32f7xx_hal_i2c.c ****       return HAL_TIMEOUT;
 1518              		.loc 1 1064 0
 1519 00e0 0323     		movs	r3, #3
 1520 00e2 8EE0     		b	.L70
 1521              	.L78:
1065:Drivers/STM32F7xx_HAL_Driver/Src/stm32f7xx_hal_i2c.c ****     }
1066:Drivers/STM32F7xx_HAL_Driver/Src/stm32f7xx_hal_i2c.c **** 
1067:Drivers/STM32F7xx_HAL_Driver/Src/stm32f7xx_hal_i2c.c ****     while (hi2c->XferCount > 0U)
1068:Drivers/STM32F7xx_HAL_Driver/Src/stm32f7xx_hal_i2c.c ****     {
1069:Drivers/STM32F7xx_HAL_Driver/Src/stm32f7xx_hal_i2c.c ****       /* Wait until RXNE flag is set */
1070:Drivers/STM32F7xx_HAL_Driver/Src/stm32f7xx_hal_i2c.c ****       if (I2C_WaitOnRXNEFlagUntilTimeout(hi2c, Timeout, tickstart) != HAL_OK)
 1522              		.loc 1 1070 0
 1523 00e4 7A69     		ldr	r2, [r7, #20]
 1524 00e6 3968     		ldr	r1, [r7]
 1525 00e8 F868     		ldr	r0, [r7, #12]
 1526 00ea FFF7FEFF 		bl	I2C_WaitOnRXNEFlagUntilTimeout
 1527 00ee 0346     		mov	r3, r0
 1528 00f0 002B     		cmp	r3, #0
 1529 00f2 27D0     		beq	.L75
1071:Drivers/STM32F7xx_HAL_Driver/Src/stm32f7xx_hal_i2c.c ****       {
1072:Drivers/STM32F7xx_HAL_Driver/Src/stm32f7xx_hal_i2c.c ****         /* Disable Address Acknowledge */
1073:Drivers/STM32F7xx_HAL_Driver/Src/stm32f7xx_hal_i2c.c ****         hi2c->Instance->CR2 |= I2C_CR2_NACK;
 1530              		.loc 1 1073 0
 1531 00f4 FB68     		ldr	r3, [r7, #12]
 1532 00f6 1B68     		ldr	r3, [r3]
 1533 00f8 5A68     		ldr	r2, [r3, #4]
 1534 00fa FB68     		ldr	r3, [r7, #12]
 1535 00fc 1B68     		ldr	r3, [r3]
 1536 00fe 42F40042 		orr	r2, r2, #32768
 1537 0102 5A60     		str	r2, [r3, #4]
1074:Drivers/STM32F7xx_HAL_Driver/Src/stm32f7xx_hal_i2c.c **** 
1075:Drivers/STM32F7xx_HAL_Driver/Src/stm32f7xx_hal_i2c.c ****         /* Store Last receive data if any */
1076:Drivers/STM32F7xx_HAL_Driver/Src/stm32f7xx_hal_i2c.c ****         if (__HAL_I2C_GET_FLAG(hi2c, I2C_FLAG_RXNE) == SET)
 1538              		.loc 1 1076 0
 1539 0104 FB68     		ldr	r3, [r7, #12]
 1540 0106 1B68     		ldr	r3, [r3]
 1541 0108 9B69     		ldr	r3, [r3, #24]
 1542 010a 03F00403 		and	r3, r3, #4
 1543 010e 042B     		cmp	r3, #4
 1544 0110 10D1     		bne	.L76
1077:Drivers/STM32F7xx_HAL_Driver/Src/stm32f7xx_hal_i2c.c ****         {
1078:Drivers/STM32F7xx_HAL_Driver/Src/stm32f7xx_hal_i2c.c ****           /* Read data from RXDR */
1079:Drivers/STM32F7xx_HAL_Driver/Src/stm32f7xx_hal_i2c.c ****           (*hi2c->pBuffPtr++) = hi2c->Instance->RXDR;
 1545              		.loc 1 1079 0
 1546 0112 FB68     		ldr	r3, [r7, #12]
 1547 0114 1B68     		ldr	r3, [r3]
 1548 0116 586A     		ldr	r0, [r3, #36]
 1549 0118 FB68     		ldr	r3, [r7, #12]
 1550 011a 5B6A     		ldr	r3, [r3, #36]
 1551 011c 591C     		adds	r1, r3, #1
 1552 011e FA68     		ldr	r2, [r7, #12]
 1553 0120 5162     		str	r1, [r2, #36]
 1554 0122 C2B2     		uxtb	r2, r0
 1555 0124 1A70     		strb	r2, [r3]
ARM GAS  /var/folders/n8/cvzdcwlj0vl4g_wtyz1ffy300000gn/T//ccBPNZvy.s 			page 47


1080:Drivers/STM32F7xx_HAL_Driver/Src/stm32f7xx_hal_i2c.c ****           hi2c->XferCount--;
 1556              		.loc 1 1080 0
 1557 0126 FB68     		ldr	r3, [r7, #12]
 1558 0128 5B8D     		ldrh	r3, [r3, #42]	@ movhi
 1559 012a 9BB2     		uxth	r3, r3
 1560 012c 013B     		subs	r3, r3, #1
 1561 012e 9AB2     		uxth	r2, r3
 1562 0130 FB68     		ldr	r3, [r7, #12]
 1563 0132 5A85     		strh	r2, [r3, #42]	@ movhi
 1564              	.L76:
1081:Drivers/STM32F7xx_HAL_Driver/Src/stm32f7xx_hal_i2c.c ****         }
1082:Drivers/STM32F7xx_HAL_Driver/Src/stm32f7xx_hal_i2c.c **** 
1083:Drivers/STM32F7xx_HAL_Driver/Src/stm32f7xx_hal_i2c.c ****         if (hi2c->ErrorCode == HAL_I2C_ERROR_TIMEOUT)
 1565              		.loc 1 1083 0
 1566 0134 FB68     		ldr	r3, [r7, #12]
 1567 0136 5B6C     		ldr	r3, [r3, #68]
 1568 0138 202B     		cmp	r3, #32
 1569 013a 01D1     		bne	.L77
1084:Drivers/STM32F7xx_HAL_Driver/Src/stm32f7xx_hal_i2c.c ****         {
1085:Drivers/STM32F7xx_HAL_Driver/Src/stm32f7xx_hal_i2c.c ****           return HAL_TIMEOUT;
 1570              		.loc 1 1085 0
 1571 013c 0323     		movs	r3, #3
 1572 013e 60E0     		b	.L70
 1573              	.L77:
1086:Drivers/STM32F7xx_HAL_Driver/Src/stm32f7xx_hal_i2c.c ****         }
1087:Drivers/STM32F7xx_HAL_Driver/Src/stm32f7xx_hal_i2c.c ****         else
1088:Drivers/STM32F7xx_HAL_Driver/Src/stm32f7xx_hal_i2c.c ****         {
1089:Drivers/STM32F7xx_HAL_Driver/Src/stm32f7xx_hal_i2c.c ****           return HAL_ERROR;
 1574              		.loc 1 1089 0
 1575 0140 0123     		movs	r3, #1
 1576 0142 5EE0     		b	.L70
 1577              	.L75:
1090:Drivers/STM32F7xx_HAL_Driver/Src/stm32f7xx_hal_i2c.c ****         }
1091:Drivers/STM32F7xx_HAL_Driver/Src/stm32f7xx_hal_i2c.c ****       }
1092:Drivers/STM32F7xx_HAL_Driver/Src/stm32f7xx_hal_i2c.c **** 
1093:Drivers/STM32F7xx_HAL_Driver/Src/stm32f7xx_hal_i2c.c ****       /* Read data from RXDR */
1094:Drivers/STM32F7xx_HAL_Driver/Src/stm32f7xx_hal_i2c.c ****       (*hi2c->pBuffPtr++) = hi2c->Instance->RXDR;
 1578              		.loc 1 1094 0
 1579 0144 FB68     		ldr	r3, [r7, #12]
 1580 0146 1B68     		ldr	r3, [r3]
 1581 0148 586A     		ldr	r0, [r3, #36]
 1582 014a FB68     		ldr	r3, [r7, #12]
 1583 014c 5B6A     		ldr	r3, [r3, #36]
 1584 014e 591C     		adds	r1, r3, #1
 1585 0150 FA68     		ldr	r2, [r7, #12]
 1586 0152 5162     		str	r1, [r2, #36]
 1587 0154 C2B2     		uxtb	r2, r0
 1588 0156 1A70     		strb	r2, [r3]
1095:Drivers/STM32F7xx_HAL_Driver/Src/stm32f7xx_hal_i2c.c ****       hi2c->XferCount--;
 1589              		.loc 1 1095 0
 1590 0158 FB68     		ldr	r3, [r7, #12]
 1591 015a 5B8D     		ldrh	r3, [r3, #42]	@ movhi
 1592 015c 9BB2     		uxth	r3, r3
 1593 015e 013B     		subs	r3, r3, #1
 1594 0160 9AB2     		uxth	r2, r3
 1595 0162 FB68     		ldr	r3, [r7, #12]
 1596 0164 5A85     		strh	r2, [r3, #42]	@ movhi
ARM GAS  /var/folders/n8/cvzdcwlj0vl4g_wtyz1ffy300000gn/T//ccBPNZvy.s 			page 48


 1597              	.L74:
1067:Drivers/STM32F7xx_HAL_Driver/Src/stm32f7xx_hal_i2c.c ****     {
 1598              		.loc 1 1067 0
 1599 0166 FB68     		ldr	r3, [r7, #12]
 1600 0168 5B8D     		ldrh	r3, [r3, #42]	@ movhi
 1601 016a 9BB2     		uxth	r3, r3
 1602 016c 002B     		cmp	r3, #0
 1603 016e B9D1     		bne	.L78
1096:Drivers/STM32F7xx_HAL_Driver/Src/stm32f7xx_hal_i2c.c ****     }
1097:Drivers/STM32F7xx_HAL_Driver/Src/stm32f7xx_hal_i2c.c **** 
1098:Drivers/STM32F7xx_HAL_Driver/Src/stm32f7xx_hal_i2c.c ****     /* Wait until STOP flag is set */
1099:Drivers/STM32F7xx_HAL_Driver/Src/stm32f7xx_hal_i2c.c ****     if (I2C_WaitOnSTOPFlagUntilTimeout(hi2c, Timeout, tickstart) != HAL_OK)
 1604              		.loc 1 1099 0
 1605 0170 7A69     		ldr	r2, [r7, #20]
 1606 0172 3968     		ldr	r1, [r7]
 1607 0174 F868     		ldr	r0, [r7, #12]
 1608 0176 FFF7FEFF 		bl	I2C_WaitOnSTOPFlagUntilTimeout
 1609 017a 0346     		mov	r3, r0
 1610 017c 002B     		cmp	r3, #0
 1611 017e 0FD0     		beq	.L79
1100:Drivers/STM32F7xx_HAL_Driver/Src/stm32f7xx_hal_i2c.c ****     {
1101:Drivers/STM32F7xx_HAL_Driver/Src/stm32f7xx_hal_i2c.c ****       /* Disable Address Acknowledge */
1102:Drivers/STM32F7xx_HAL_Driver/Src/stm32f7xx_hal_i2c.c ****       hi2c->Instance->CR2 |= I2C_CR2_NACK;
 1612              		.loc 1 1102 0
 1613 0180 FB68     		ldr	r3, [r7, #12]
 1614 0182 1B68     		ldr	r3, [r3]
 1615 0184 5A68     		ldr	r2, [r3, #4]
 1616 0186 FB68     		ldr	r3, [r7, #12]
 1617 0188 1B68     		ldr	r3, [r3]
 1618 018a 42F40042 		orr	r2, r2, #32768
 1619 018e 5A60     		str	r2, [r3, #4]
1103:Drivers/STM32F7xx_HAL_Driver/Src/stm32f7xx_hal_i2c.c **** 
1104:Drivers/STM32F7xx_HAL_Driver/Src/stm32f7xx_hal_i2c.c ****       if (hi2c->ErrorCode == HAL_I2C_ERROR_AF)
 1620              		.loc 1 1104 0
 1621 0190 FB68     		ldr	r3, [r7, #12]
 1622 0192 5B6C     		ldr	r3, [r3, #68]
 1623 0194 042B     		cmp	r3, #4
 1624 0196 01D1     		bne	.L80
1105:Drivers/STM32F7xx_HAL_Driver/Src/stm32f7xx_hal_i2c.c ****       {
1106:Drivers/STM32F7xx_HAL_Driver/Src/stm32f7xx_hal_i2c.c ****         return HAL_ERROR;
 1625              		.loc 1 1106 0
 1626 0198 0123     		movs	r3, #1
 1627 019a 32E0     		b	.L70
 1628              	.L80:
1107:Drivers/STM32F7xx_HAL_Driver/Src/stm32f7xx_hal_i2c.c ****       }
1108:Drivers/STM32F7xx_HAL_Driver/Src/stm32f7xx_hal_i2c.c ****       else
1109:Drivers/STM32F7xx_HAL_Driver/Src/stm32f7xx_hal_i2c.c ****       {
1110:Drivers/STM32F7xx_HAL_Driver/Src/stm32f7xx_hal_i2c.c ****         return HAL_TIMEOUT;
 1629              		.loc 1 1110 0
 1630 019c 0323     		movs	r3, #3
 1631 019e 30E0     		b	.L70
 1632              	.L79:
1111:Drivers/STM32F7xx_HAL_Driver/Src/stm32f7xx_hal_i2c.c ****       }
1112:Drivers/STM32F7xx_HAL_Driver/Src/stm32f7xx_hal_i2c.c ****     }
1113:Drivers/STM32F7xx_HAL_Driver/Src/stm32f7xx_hal_i2c.c **** 
1114:Drivers/STM32F7xx_HAL_Driver/Src/stm32f7xx_hal_i2c.c ****     /* Clear STOP flag */
1115:Drivers/STM32F7xx_HAL_Driver/Src/stm32f7xx_hal_i2c.c ****     __HAL_I2C_CLEAR_FLAG(hi2c, I2C_FLAG_STOPF);
ARM GAS  /var/folders/n8/cvzdcwlj0vl4g_wtyz1ffy300000gn/T//ccBPNZvy.s 			page 49


 1633              		.loc 1 1115 0
 1634 01a0 FB68     		ldr	r3, [r7, #12]
 1635 01a2 1B68     		ldr	r3, [r3]
 1636 01a4 2022     		movs	r2, #32
 1637 01a6 DA61     		str	r2, [r3, #28]
1116:Drivers/STM32F7xx_HAL_Driver/Src/stm32f7xx_hal_i2c.c **** 
1117:Drivers/STM32F7xx_HAL_Driver/Src/stm32f7xx_hal_i2c.c ****     /* Wait until BUSY flag is reset */
1118:Drivers/STM32F7xx_HAL_Driver/Src/stm32f7xx_hal_i2c.c ****     if (I2C_WaitOnFlagUntilTimeout(hi2c, I2C_FLAG_BUSY, SET, Timeout, tickstart) != HAL_OK)
 1638              		.loc 1 1118 0
 1639 01a8 7B69     		ldr	r3, [r7, #20]
 1640 01aa 0093     		str	r3, [sp]
 1641 01ac 3B68     		ldr	r3, [r7]
 1642 01ae 0122     		movs	r2, #1
 1643 01b0 4FF40041 		mov	r1, #32768
 1644 01b4 F868     		ldr	r0, [r7, #12]
 1645 01b6 FFF7FEFF 		bl	I2C_WaitOnFlagUntilTimeout
 1646 01ba 0346     		mov	r3, r0
 1647 01bc 002B     		cmp	r3, #0
 1648 01be 09D0     		beq	.L81
1119:Drivers/STM32F7xx_HAL_Driver/Src/stm32f7xx_hal_i2c.c ****     {
1120:Drivers/STM32F7xx_HAL_Driver/Src/stm32f7xx_hal_i2c.c ****       /* Disable Address Acknowledge */
1121:Drivers/STM32F7xx_HAL_Driver/Src/stm32f7xx_hal_i2c.c ****       hi2c->Instance->CR2 |= I2C_CR2_NACK;
 1649              		.loc 1 1121 0
 1650 01c0 FB68     		ldr	r3, [r7, #12]
 1651 01c2 1B68     		ldr	r3, [r3]
 1652 01c4 5A68     		ldr	r2, [r3, #4]
 1653 01c6 FB68     		ldr	r3, [r7, #12]
 1654 01c8 1B68     		ldr	r3, [r3]
 1655 01ca 42F40042 		orr	r2, r2, #32768
 1656 01ce 5A60     		str	r2, [r3, #4]
1122:Drivers/STM32F7xx_HAL_Driver/Src/stm32f7xx_hal_i2c.c ****       return HAL_TIMEOUT;
 1657              		.loc 1 1122 0
 1658 01d0 0323     		movs	r3, #3
 1659 01d2 16E0     		b	.L70
 1660              	.L81:
1123:Drivers/STM32F7xx_HAL_Driver/Src/stm32f7xx_hal_i2c.c ****     }
1124:Drivers/STM32F7xx_HAL_Driver/Src/stm32f7xx_hal_i2c.c **** 
1125:Drivers/STM32F7xx_HAL_Driver/Src/stm32f7xx_hal_i2c.c ****     /* Disable Address Acknowledge */
1126:Drivers/STM32F7xx_HAL_Driver/Src/stm32f7xx_hal_i2c.c ****     hi2c->Instance->CR2 |= I2C_CR2_NACK;
 1661              		.loc 1 1126 0
 1662 01d4 FB68     		ldr	r3, [r7, #12]
 1663 01d6 1B68     		ldr	r3, [r3]
 1664 01d8 5A68     		ldr	r2, [r3, #4]
 1665 01da FB68     		ldr	r3, [r7, #12]
 1666 01dc 1B68     		ldr	r3, [r3]
 1667 01de 42F40042 		orr	r2, r2, #32768
 1668 01e2 5A60     		str	r2, [r3, #4]
1127:Drivers/STM32F7xx_HAL_Driver/Src/stm32f7xx_hal_i2c.c **** 
1128:Drivers/STM32F7xx_HAL_Driver/Src/stm32f7xx_hal_i2c.c ****     hi2c->State = HAL_I2C_STATE_READY;
 1669              		.loc 1 1128 0
 1670 01e4 FB68     		ldr	r3, [r7, #12]
 1671 01e6 2022     		movs	r2, #32
 1672 01e8 83F84120 		strb	r2, [r3, #65]
1129:Drivers/STM32F7xx_HAL_Driver/Src/stm32f7xx_hal_i2c.c ****     hi2c->Mode  = HAL_I2C_MODE_NONE;
 1673              		.loc 1 1129 0
 1674 01ec FB68     		ldr	r3, [r7, #12]
 1675 01ee 0022     		movs	r2, #0
ARM GAS  /var/folders/n8/cvzdcwlj0vl4g_wtyz1ffy300000gn/T//ccBPNZvy.s 			page 50


 1676 01f0 83F84220 		strb	r2, [r3, #66]
1130:Drivers/STM32F7xx_HAL_Driver/Src/stm32f7xx_hal_i2c.c **** 
1131:Drivers/STM32F7xx_HAL_Driver/Src/stm32f7xx_hal_i2c.c ****     /* Process Unlocked */
1132:Drivers/STM32F7xx_HAL_Driver/Src/stm32f7xx_hal_i2c.c ****     __HAL_UNLOCK(hi2c);
 1677              		.loc 1 1132 0
 1678 01f4 FB68     		ldr	r3, [r7, #12]
 1679 01f6 0022     		movs	r2, #0
 1680 01f8 83F84020 		strb	r2, [r3, #64]
1133:Drivers/STM32F7xx_HAL_Driver/Src/stm32f7xx_hal_i2c.c **** 
1134:Drivers/STM32F7xx_HAL_Driver/Src/stm32f7xx_hal_i2c.c ****     return HAL_OK;
 1681              		.loc 1 1134 0
 1682 01fc 0023     		movs	r3, #0
 1683 01fe 00E0     		b	.L70
 1684              	.L67:
1135:Drivers/STM32F7xx_HAL_Driver/Src/stm32f7xx_hal_i2c.c ****   }
1136:Drivers/STM32F7xx_HAL_Driver/Src/stm32f7xx_hal_i2c.c ****   else
1137:Drivers/STM32F7xx_HAL_Driver/Src/stm32f7xx_hal_i2c.c ****   {
1138:Drivers/STM32F7xx_HAL_Driver/Src/stm32f7xx_hal_i2c.c ****     return HAL_BUSY;
 1685              		.loc 1 1138 0
 1686 0200 0223     		movs	r3, #2
 1687              	.L70:
1139:Drivers/STM32F7xx_HAL_Driver/Src/stm32f7xx_hal_i2c.c ****   }
1140:Drivers/STM32F7xx_HAL_Driver/Src/stm32f7xx_hal_i2c.c **** }
 1688              		.loc 1 1140 0
 1689 0202 1846     		mov	r0, r3
 1690 0204 1837     		adds	r7, r7, #24
 1691              	.LCFI40:
 1692              		.cfi_def_cfa_offset 8
 1693 0206 BD46     		mov	sp, r7
 1694              	.LCFI41:
 1695              		.cfi_def_cfa_register 13
 1696              		@ sp needed
 1697 0208 80BD     		pop	{r7, pc}
 1698              		.cfi_endproc
 1699              	.LFE145:
 1701              		.section	.text.HAL_I2C_Master_Transmit_IT,"ax",%progbits
 1702              		.align	1
 1703              		.global	HAL_I2C_Master_Transmit_IT
 1704              		.syntax unified
 1705              		.thumb
 1706              		.thumb_func
 1707              		.fpu fpv5-sp-d16
 1709              	HAL_I2C_Master_Transmit_IT:
 1710              	.LFB146:
1141:Drivers/STM32F7xx_HAL_Driver/Src/stm32f7xx_hal_i2c.c **** 
1142:Drivers/STM32F7xx_HAL_Driver/Src/stm32f7xx_hal_i2c.c **** /**
1143:Drivers/STM32F7xx_HAL_Driver/Src/stm32f7xx_hal_i2c.c ****   * @brief  Transmit in master mode an amount of data in non-blocking mode with Interrupt
1144:Drivers/STM32F7xx_HAL_Driver/Src/stm32f7xx_hal_i2c.c ****   * @param  hi2c Pointer to a I2C_HandleTypeDef structure that contains
1145:Drivers/STM32F7xx_HAL_Driver/Src/stm32f7xx_hal_i2c.c ****   *                the configuration information for the specified I2C.
1146:Drivers/STM32F7xx_HAL_Driver/Src/stm32f7xx_hal_i2c.c ****   * @param  DevAddress Target device address which contain device 7 or 10 bits address value
1147:Drivers/STM32F7xx_HAL_Driver/Src/stm32f7xx_hal_i2c.c ****   *         in datasheet must be shifted to the left before calling the interface
1148:Drivers/STM32F7xx_HAL_Driver/Src/stm32f7xx_hal_i2c.c ****   * @param  pData Pointer to data buffer
1149:Drivers/STM32F7xx_HAL_Driver/Src/stm32f7xx_hal_i2c.c ****   * @param  Size Amount of data to be sent
1150:Drivers/STM32F7xx_HAL_Driver/Src/stm32f7xx_hal_i2c.c ****   * @retval HAL status
1151:Drivers/STM32F7xx_HAL_Driver/Src/stm32f7xx_hal_i2c.c ****   */
1152:Drivers/STM32F7xx_HAL_Driver/Src/stm32f7xx_hal_i2c.c **** HAL_StatusTypeDef HAL_I2C_Master_Transmit_IT(I2C_HandleTypeDef *hi2c, uint16_t DevAddress, uint8_t 
1153:Drivers/STM32F7xx_HAL_Driver/Src/stm32f7xx_hal_i2c.c **** {
ARM GAS  /var/folders/n8/cvzdcwlj0vl4g_wtyz1ffy300000gn/T//ccBPNZvy.s 			page 51


 1711              		.loc 1 1153 0
 1712              		.cfi_startproc
 1713              		@ args = 0, pretend = 0, frame = 24
 1714              		@ frame_needed = 1, uses_anonymous_args = 0
 1715 0000 80B5     		push	{r7, lr}
 1716              	.LCFI42:
 1717              		.cfi_def_cfa_offset 8
 1718              		.cfi_offset 7, -8
 1719              		.cfi_offset 14, -4
 1720 0002 88B0     		sub	sp, sp, #32
 1721              	.LCFI43:
 1722              		.cfi_def_cfa_offset 40
 1723 0004 02AF     		add	r7, sp, #8
 1724              	.LCFI44:
 1725              		.cfi_def_cfa 7, 32
 1726 0006 F860     		str	r0, [r7, #12]
 1727 0008 7A60     		str	r2, [r7, #4]
 1728 000a 1A46     		mov	r2, r3
 1729 000c 0B46     		mov	r3, r1	@ movhi
 1730 000e 7B81     		strh	r3, [r7, #10]	@ movhi
 1731 0010 1346     		mov	r3, r2	@ movhi
 1732 0012 3B81     		strh	r3, [r7, #8]	@ movhi
1154:Drivers/STM32F7xx_HAL_Driver/Src/stm32f7xx_hal_i2c.c ****   uint32_t xfermode = 0U;
 1733              		.loc 1 1154 0
 1734 0014 0023     		movs	r3, #0
 1735 0016 7B61     		str	r3, [r7, #20]
1155:Drivers/STM32F7xx_HAL_Driver/Src/stm32f7xx_hal_i2c.c **** 
1156:Drivers/STM32F7xx_HAL_Driver/Src/stm32f7xx_hal_i2c.c ****   if (hi2c->State == HAL_I2C_STATE_READY)
 1736              		.loc 1 1156 0
 1737 0018 FB68     		ldr	r3, [r7, #12]
 1738 001a 93F84130 		ldrb	r3, [r3, #65]
 1739 001e DBB2     		uxtb	r3, r3
 1740 0020 202B     		cmp	r3, #32
 1741 0022 53D1     		bne	.L83
1157:Drivers/STM32F7xx_HAL_Driver/Src/stm32f7xx_hal_i2c.c ****   {
1158:Drivers/STM32F7xx_HAL_Driver/Src/stm32f7xx_hal_i2c.c ****     if (__HAL_I2C_GET_FLAG(hi2c, I2C_FLAG_BUSY) == SET)
 1742              		.loc 1 1158 0
 1743 0024 FB68     		ldr	r3, [r7, #12]
 1744 0026 1B68     		ldr	r3, [r3]
 1745 0028 9B69     		ldr	r3, [r3, #24]
 1746 002a 03F40043 		and	r3, r3, #32768
 1747 002e B3F5004F 		cmp	r3, #32768
 1748 0032 01D1     		bne	.L84
1159:Drivers/STM32F7xx_HAL_Driver/Src/stm32f7xx_hal_i2c.c ****     {
1160:Drivers/STM32F7xx_HAL_Driver/Src/stm32f7xx_hal_i2c.c ****       return HAL_BUSY;
 1749              		.loc 1 1160 0
 1750 0034 0223     		movs	r3, #2
 1751 0036 4AE0     		b	.L85
 1752              	.L84:
1161:Drivers/STM32F7xx_HAL_Driver/Src/stm32f7xx_hal_i2c.c ****     }
1162:Drivers/STM32F7xx_HAL_Driver/Src/stm32f7xx_hal_i2c.c **** 
1163:Drivers/STM32F7xx_HAL_Driver/Src/stm32f7xx_hal_i2c.c ****     /* Process Locked */
1164:Drivers/STM32F7xx_HAL_Driver/Src/stm32f7xx_hal_i2c.c ****     __HAL_LOCK(hi2c);
 1753              		.loc 1 1164 0
 1754 0038 FB68     		ldr	r3, [r7, #12]
 1755 003a 93F84030 		ldrb	r3, [r3, #64]	@ zero_extendqisi2
 1756 003e 012B     		cmp	r3, #1
ARM GAS  /var/folders/n8/cvzdcwlj0vl4g_wtyz1ffy300000gn/T//ccBPNZvy.s 			page 52


 1757 0040 01D1     		bne	.L86
 1758              		.loc 1 1164 0 is_stmt 0 discriminator 1
 1759 0042 0223     		movs	r3, #2
 1760 0044 43E0     		b	.L85
 1761              	.L86:
 1762              		.loc 1 1164 0 discriminator 2
 1763 0046 FB68     		ldr	r3, [r7, #12]
 1764 0048 0122     		movs	r2, #1
 1765 004a 83F84020 		strb	r2, [r3, #64]
1165:Drivers/STM32F7xx_HAL_Driver/Src/stm32f7xx_hal_i2c.c **** 
1166:Drivers/STM32F7xx_HAL_Driver/Src/stm32f7xx_hal_i2c.c ****     hi2c->State       = HAL_I2C_STATE_BUSY_TX;
 1766              		.loc 1 1166 0 is_stmt 1 discriminator 2
 1767 004e FB68     		ldr	r3, [r7, #12]
 1768 0050 2122     		movs	r2, #33
 1769 0052 83F84120 		strb	r2, [r3, #65]
1167:Drivers/STM32F7xx_HAL_Driver/Src/stm32f7xx_hal_i2c.c ****     hi2c->Mode        = HAL_I2C_MODE_MASTER;
 1770              		.loc 1 1167 0 discriminator 2
 1771 0056 FB68     		ldr	r3, [r7, #12]
 1772 0058 1022     		movs	r2, #16
 1773 005a 83F84220 		strb	r2, [r3, #66]
1168:Drivers/STM32F7xx_HAL_Driver/Src/stm32f7xx_hal_i2c.c ****     hi2c->ErrorCode   = HAL_I2C_ERROR_NONE;
 1774              		.loc 1 1168 0 discriminator 2
 1775 005e FB68     		ldr	r3, [r7, #12]
 1776 0060 0022     		movs	r2, #0
 1777 0062 5A64     		str	r2, [r3, #68]
1169:Drivers/STM32F7xx_HAL_Driver/Src/stm32f7xx_hal_i2c.c **** 
1170:Drivers/STM32F7xx_HAL_Driver/Src/stm32f7xx_hal_i2c.c ****     /* Prepare transfer parameters */
1171:Drivers/STM32F7xx_HAL_Driver/Src/stm32f7xx_hal_i2c.c ****     hi2c->pBuffPtr    = pData;
 1778              		.loc 1 1171 0 discriminator 2
 1779 0064 FB68     		ldr	r3, [r7, #12]
 1780 0066 7A68     		ldr	r2, [r7, #4]
 1781 0068 5A62     		str	r2, [r3, #36]
1172:Drivers/STM32F7xx_HAL_Driver/Src/stm32f7xx_hal_i2c.c ****     hi2c->XferCount   = Size;
 1782              		.loc 1 1172 0 discriminator 2
 1783 006a FB68     		ldr	r3, [r7, #12]
 1784 006c 3A89     		ldrh	r2, [r7, #8]	@ movhi
 1785 006e 5A85     		strh	r2, [r3, #42]	@ movhi
1173:Drivers/STM32F7xx_HAL_Driver/Src/stm32f7xx_hal_i2c.c ****     hi2c->XferOptions = I2C_NO_OPTION_FRAME;
 1786              		.loc 1 1173 0 discriminator 2
 1787 0070 FB68     		ldr	r3, [r7, #12]
 1788 0072 194A     		ldr	r2, .L89
 1789 0074 DA62     		str	r2, [r3, #44]
1174:Drivers/STM32F7xx_HAL_Driver/Src/stm32f7xx_hal_i2c.c ****     hi2c->XferISR     = I2C_Master_ISR_IT;
 1790              		.loc 1 1174 0 discriminator 2
 1791 0076 FB68     		ldr	r3, [r7, #12]
 1792 0078 184A     		ldr	r2, .L89+4
 1793 007a 5A63     		str	r2, [r3, #52]
1175:Drivers/STM32F7xx_HAL_Driver/Src/stm32f7xx_hal_i2c.c **** 
1176:Drivers/STM32F7xx_HAL_Driver/Src/stm32f7xx_hal_i2c.c ****     if (hi2c->XferCount > MAX_NBYTE_SIZE)
 1794              		.loc 1 1176 0 discriminator 2
 1795 007c FB68     		ldr	r3, [r7, #12]
 1796 007e 5B8D     		ldrh	r3, [r3, #42]	@ movhi
 1797 0080 9BB2     		uxth	r3, r3
 1798 0082 FF2B     		cmp	r3, #255
 1799 0084 06D9     		bls	.L87
1177:Drivers/STM32F7xx_HAL_Driver/Src/stm32f7xx_hal_i2c.c ****     {
1178:Drivers/STM32F7xx_HAL_Driver/Src/stm32f7xx_hal_i2c.c ****       hi2c->XferSize = MAX_NBYTE_SIZE;
ARM GAS  /var/folders/n8/cvzdcwlj0vl4g_wtyz1ffy300000gn/T//ccBPNZvy.s 			page 53


 1800              		.loc 1 1178 0
 1801 0086 FB68     		ldr	r3, [r7, #12]
 1802 0088 FF22     		movs	r2, #255
 1803 008a 1A85     		strh	r2, [r3, #40]	@ movhi
1179:Drivers/STM32F7xx_HAL_Driver/Src/stm32f7xx_hal_i2c.c ****       xfermode = I2C_RELOAD_MODE;
 1804              		.loc 1 1179 0
 1805 008c 4FF08073 		mov	r3, #16777216
 1806 0090 7B61     		str	r3, [r7, #20]
 1807 0092 07E0     		b	.L88
 1808              	.L87:
1180:Drivers/STM32F7xx_HAL_Driver/Src/stm32f7xx_hal_i2c.c ****     }
1181:Drivers/STM32F7xx_HAL_Driver/Src/stm32f7xx_hal_i2c.c ****     else
1182:Drivers/STM32F7xx_HAL_Driver/Src/stm32f7xx_hal_i2c.c ****     {
1183:Drivers/STM32F7xx_HAL_Driver/Src/stm32f7xx_hal_i2c.c ****       hi2c->XferSize = hi2c->XferCount;
 1809              		.loc 1 1183 0
 1810 0094 FB68     		ldr	r3, [r7, #12]
 1811 0096 5B8D     		ldrh	r3, [r3, #42]	@ movhi
 1812 0098 9AB2     		uxth	r2, r3
 1813 009a FB68     		ldr	r3, [r7, #12]
 1814 009c 1A85     		strh	r2, [r3, #40]	@ movhi
1184:Drivers/STM32F7xx_HAL_Driver/Src/stm32f7xx_hal_i2c.c ****       xfermode = I2C_AUTOEND_MODE;
 1815              		.loc 1 1184 0
 1816 009e 4FF00073 		mov	r3, #33554432
 1817 00a2 7B61     		str	r3, [r7, #20]
 1818              	.L88:
1185:Drivers/STM32F7xx_HAL_Driver/Src/stm32f7xx_hal_i2c.c ****     }
1186:Drivers/STM32F7xx_HAL_Driver/Src/stm32f7xx_hal_i2c.c **** 
1187:Drivers/STM32F7xx_HAL_Driver/Src/stm32f7xx_hal_i2c.c ****     /* Send Slave Address */
1188:Drivers/STM32F7xx_HAL_Driver/Src/stm32f7xx_hal_i2c.c ****     /* Set NBYTES to write and reload if hi2c->XferCount > MAX_NBYTE_SIZE */
1189:Drivers/STM32F7xx_HAL_Driver/Src/stm32f7xx_hal_i2c.c ****     I2C_TransferConfig(hi2c, DevAddress, hi2c->XferSize, xfermode, I2C_GENERATE_START_WRITE);
 1819              		.loc 1 1189 0
 1820 00a4 FB68     		ldr	r3, [r7, #12]
 1821 00a6 1B8D     		ldrh	r3, [r3, #40]
 1822 00a8 DAB2     		uxtb	r2, r3
 1823 00aa 7989     		ldrh	r1, [r7, #10]
 1824 00ac 0C4B     		ldr	r3, .L89+8
 1825 00ae 0093     		str	r3, [sp]
 1826 00b0 7B69     		ldr	r3, [r7, #20]
 1827 00b2 F868     		ldr	r0, [r7, #12]
 1828 00b4 FFF7FEFF 		bl	I2C_TransferConfig
1190:Drivers/STM32F7xx_HAL_Driver/Src/stm32f7xx_hal_i2c.c **** 
1191:Drivers/STM32F7xx_HAL_Driver/Src/stm32f7xx_hal_i2c.c ****     /* Process Unlocked */
1192:Drivers/STM32F7xx_HAL_Driver/Src/stm32f7xx_hal_i2c.c ****     __HAL_UNLOCK(hi2c);
 1829              		.loc 1 1192 0
 1830 00b8 FB68     		ldr	r3, [r7, #12]
 1831 00ba 0022     		movs	r2, #0
 1832 00bc 83F84020 		strb	r2, [r3, #64]
1193:Drivers/STM32F7xx_HAL_Driver/Src/stm32f7xx_hal_i2c.c **** 
1194:Drivers/STM32F7xx_HAL_Driver/Src/stm32f7xx_hal_i2c.c ****     /* Note : The I2C interrupts must be enabled after unlocking current process
1195:Drivers/STM32F7xx_HAL_Driver/Src/stm32f7xx_hal_i2c.c ****               to avoid the risk of I2C interrupt handle execution before current
1196:Drivers/STM32F7xx_HAL_Driver/Src/stm32f7xx_hal_i2c.c ****               process unlock */
1197:Drivers/STM32F7xx_HAL_Driver/Src/stm32f7xx_hal_i2c.c **** 
1198:Drivers/STM32F7xx_HAL_Driver/Src/stm32f7xx_hal_i2c.c ****     /* Enable ERR, TC, STOP, NACK, TXI interrupt */
1199:Drivers/STM32F7xx_HAL_Driver/Src/stm32f7xx_hal_i2c.c ****     /* possible to enable all of these */
1200:Drivers/STM32F7xx_HAL_Driver/Src/stm32f7xx_hal_i2c.c ****     /* I2C_IT_ERRI | I2C_IT_TCI| I2C_IT_STOPI| I2C_IT_NACKI | I2C_IT_ADDRI | I2C_IT_RXI | I2C_IT_TX
1201:Drivers/STM32F7xx_HAL_Driver/Src/stm32f7xx_hal_i2c.c ****     I2C_Enable_IRQ(hi2c, I2C_XFER_TX_IT);
 1833              		.loc 1 1201 0
ARM GAS  /var/folders/n8/cvzdcwlj0vl4g_wtyz1ffy300000gn/T//ccBPNZvy.s 			page 54


 1834 00c0 0121     		movs	r1, #1
 1835 00c2 F868     		ldr	r0, [r7, #12]
 1836 00c4 FFF7FEFF 		bl	I2C_Enable_IRQ
1202:Drivers/STM32F7xx_HAL_Driver/Src/stm32f7xx_hal_i2c.c **** 
1203:Drivers/STM32F7xx_HAL_Driver/Src/stm32f7xx_hal_i2c.c ****     return HAL_OK;
 1837              		.loc 1 1203 0
 1838 00c8 0023     		movs	r3, #0
 1839 00ca 00E0     		b	.L85
 1840              	.L83:
1204:Drivers/STM32F7xx_HAL_Driver/Src/stm32f7xx_hal_i2c.c ****   }
1205:Drivers/STM32F7xx_HAL_Driver/Src/stm32f7xx_hal_i2c.c ****   else
1206:Drivers/STM32F7xx_HAL_Driver/Src/stm32f7xx_hal_i2c.c ****   {
1207:Drivers/STM32F7xx_HAL_Driver/Src/stm32f7xx_hal_i2c.c ****     return HAL_BUSY;
 1841              		.loc 1 1207 0
 1842 00cc 0223     		movs	r3, #2
 1843              	.L85:
1208:Drivers/STM32F7xx_HAL_Driver/Src/stm32f7xx_hal_i2c.c ****   }
1209:Drivers/STM32F7xx_HAL_Driver/Src/stm32f7xx_hal_i2c.c **** }
 1844              		.loc 1 1209 0
 1845 00ce 1846     		mov	r0, r3
 1846 00d0 1837     		adds	r7, r7, #24
 1847              	.LCFI45:
 1848              		.cfi_def_cfa_offset 8
 1849 00d2 BD46     		mov	sp, r7
 1850              	.LCFI46:
 1851              		.cfi_def_cfa_register 13
 1852              		@ sp needed
 1853 00d4 80BD     		pop	{r7, pc}
 1854              	.L90:
 1855 00d6 00BF     		.align	2
 1856              	.L89:
 1857 00d8 0000FFFF 		.word	-65536
 1858 00dc 00000000 		.word	I2C_Master_ISR_IT
 1859 00e0 00200080 		.word	-2147475456
 1860              		.cfi_endproc
 1861              	.LFE146:
 1863              		.section	.text.HAL_I2C_Master_Receive_IT,"ax",%progbits
 1864              		.align	1
 1865              		.global	HAL_I2C_Master_Receive_IT
 1866              		.syntax unified
 1867              		.thumb
 1868              		.thumb_func
 1869              		.fpu fpv5-sp-d16
 1871              	HAL_I2C_Master_Receive_IT:
 1872              	.LFB147:
1210:Drivers/STM32F7xx_HAL_Driver/Src/stm32f7xx_hal_i2c.c **** 
1211:Drivers/STM32F7xx_HAL_Driver/Src/stm32f7xx_hal_i2c.c **** /**
1212:Drivers/STM32F7xx_HAL_Driver/Src/stm32f7xx_hal_i2c.c ****   * @brief  Receive in master mode an amount of data in non-blocking mode with Interrupt
1213:Drivers/STM32F7xx_HAL_Driver/Src/stm32f7xx_hal_i2c.c ****   * @param  hi2c Pointer to a I2C_HandleTypeDef structure that contains
1214:Drivers/STM32F7xx_HAL_Driver/Src/stm32f7xx_hal_i2c.c ****   *                the configuration information for the specified I2C.
1215:Drivers/STM32F7xx_HAL_Driver/Src/stm32f7xx_hal_i2c.c ****   * @param  DevAddress Target device address which contain device 7 or 10 bits address value
1216:Drivers/STM32F7xx_HAL_Driver/Src/stm32f7xx_hal_i2c.c ****   *         in datasheet must be shifted to the left before calling the interface
1217:Drivers/STM32F7xx_HAL_Driver/Src/stm32f7xx_hal_i2c.c ****   * @param  pData Pointer to data buffer
1218:Drivers/STM32F7xx_HAL_Driver/Src/stm32f7xx_hal_i2c.c ****   * @param  Size Amount of data to be sent
1219:Drivers/STM32F7xx_HAL_Driver/Src/stm32f7xx_hal_i2c.c ****   * @retval HAL status
1220:Drivers/STM32F7xx_HAL_Driver/Src/stm32f7xx_hal_i2c.c ****   */
1221:Drivers/STM32F7xx_HAL_Driver/Src/stm32f7xx_hal_i2c.c **** HAL_StatusTypeDef HAL_I2C_Master_Receive_IT(I2C_HandleTypeDef *hi2c, uint16_t DevAddress, uint8_t *
ARM GAS  /var/folders/n8/cvzdcwlj0vl4g_wtyz1ffy300000gn/T//ccBPNZvy.s 			page 55


1222:Drivers/STM32F7xx_HAL_Driver/Src/stm32f7xx_hal_i2c.c **** {
 1873              		.loc 1 1222 0
 1874              		.cfi_startproc
 1875              		@ args = 0, pretend = 0, frame = 24
 1876              		@ frame_needed = 1, uses_anonymous_args = 0
 1877 0000 80B5     		push	{r7, lr}
 1878              	.LCFI47:
 1879              		.cfi_def_cfa_offset 8
 1880              		.cfi_offset 7, -8
 1881              		.cfi_offset 14, -4
 1882 0002 88B0     		sub	sp, sp, #32
 1883              	.LCFI48:
 1884              		.cfi_def_cfa_offset 40
 1885 0004 02AF     		add	r7, sp, #8
 1886              	.LCFI49:
 1887              		.cfi_def_cfa 7, 32
 1888 0006 F860     		str	r0, [r7, #12]
 1889 0008 7A60     		str	r2, [r7, #4]
 1890 000a 1A46     		mov	r2, r3
 1891 000c 0B46     		mov	r3, r1	@ movhi
 1892 000e 7B81     		strh	r3, [r7, #10]	@ movhi
 1893 0010 1346     		mov	r3, r2	@ movhi
 1894 0012 3B81     		strh	r3, [r7, #8]	@ movhi
1223:Drivers/STM32F7xx_HAL_Driver/Src/stm32f7xx_hal_i2c.c ****   uint32_t xfermode = 0U;
 1895              		.loc 1 1223 0
 1896 0014 0023     		movs	r3, #0
 1897 0016 7B61     		str	r3, [r7, #20]
1224:Drivers/STM32F7xx_HAL_Driver/Src/stm32f7xx_hal_i2c.c **** 
1225:Drivers/STM32F7xx_HAL_Driver/Src/stm32f7xx_hal_i2c.c ****   if (hi2c->State == HAL_I2C_STATE_READY)
 1898              		.loc 1 1225 0
 1899 0018 FB68     		ldr	r3, [r7, #12]
 1900 001a 93F84130 		ldrb	r3, [r3, #65]
 1901 001e DBB2     		uxtb	r3, r3
 1902 0020 202B     		cmp	r3, #32
 1903 0022 53D1     		bne	.L92
1226:Drivers/STM32F7xx_HAL_Driver/Src/stm32f7xx_hal_i2c.c ****   {
1227:Drivers/STM32F7xx_HAL_Driver/Src/stm32f7xx_hal_i2c.c ****     if (__HAL_I2C_GET_FLAG(hi2c, I2C_FLAG_BUSY) == SET)
 1904              		.loc 1 1227 0
 1905 0024 FB68     		ldr	r3, [r7, #12]
 1906 0026 1B68     		ldr	r3, [r3]
 1907 0028 9B69     		ldr	r3, [r3, #24]
 1908 002a 03F40043 		and	r3, r3, #32768
 1909 002e B3F5004F 		cmp	r3, #32768
 1910 0032 01D1     		bne	.L93
1228:Drivers/STM32F7xx_HAL_Driver/Src/stm32f7xx_hal_i2c.c ****     {
1229:Drivers/STM32F7xx_HAL_Driver/Src/stm32f7xx_hal_i2c.c ****       return HAL_BUSY;
 1911              		.loc 1 1229 0
 1912 0034 0223     		movs	r3, #2
 1913 0036 4AE0     		b	.L94
 1914              	.L93:
1230:Drivers/STM32F7xx_HAL_Driver/Src/stm32f7xx_hal_i2c.c ****     }
1231:Drivers/STM32F7xx_HAL_Driver/Src/stm32f7xx_hal_i2c.c **** 
1232:Drivers/STM32F7xx_HAL_Driver/Src/stm32f7xx_hal_i2c.c ****     /* Process Locked */
1233:Drivers/STM32F7xx_HAL_Driver/Src/stm32f7xx_hal_i2c.c ****     __HAL_LOCK(hi2c);
 1915              		.loc 1 1233 0
 1916 0038 FB68     		ldr	r3, [r7, #12]
 1917 003a 93F84030 		ldrb	r3, [r3, #64]	@ zero_extendqisi2
ARM GAS  /var/folders/n8/cvzdcwlj0vl4g_wtyz1ffy300000gn/T//ccBPNZvy.s 			page 56


 1918 003e 012B     		cmp	r3, #1
 1919 0040 01D1     		bne	.L95
 1920              		.loc 1 1233 0 is_stmt 0 discriminator 1
 1921 0042 0223     		movs	r3, #2
 1922 0044 43E0     		b	.L94
 1923              	.L95:
 1924              		.loc 1 1233 0 discriminator 2
 1925 0046 FB68     		ldr	r3, [r7, #12]
 1926 0048 0122     		movs	r2, #1
 1927 004a 83F84020 		strb	r2, [r3, #64]
1234:Drivers/STM32F7xx_HAL_Driver/Src/stm32f7xx_hal_i2c.c **** 
1235:Drivers/STM32F7xx_HAL_Driver/Src/stm32f7xx_hal_i2c.c ****     hi2c->State       = HAL_I2C_STATE_BUSY_RX;
 1928              		.loc 1 1235 0 is_stmt 1 discriminator 2
 1929 004e FB68     		ldr	r3, [r7, #12]
 1930 0050 2222     		movs	r2, #34
 1931 0052 83F84120 		strb	r2, [r3, #65]
1236:Drivers/STM32F7xx_HAL_Driver/Src/stm32f7xx_hal_i2c.c ****     hi2c->Mode        = HAL_I2C_MODE_MASTER;
 1932              		.loc 1 1236 0 discriminator 2
 1933 0056 FB68     		ldr	r3, [r7, #12]
 1934 0058 1022     		movs	r2, #16
 1935 005a 83F84220 		strb	r2, [r3, #66]
1237:Drivers/STM32F7xx_HAL_Driver/Src/stm32f7xx_hal_i2c.c ****     hi2c->ErrorCode   = HAL_I2C_ERROR_NONE;
 1936              		.loc 1 1237 0 discriminator 2
 1937 005e FB68     		ldr	r3, [r7, #12]
 1938 0060 0022     		movs	r2, #0
 1939 0062 5A64     		str	r2, [r3, #68]
1238:Drivers/STM32F7xx_HAL_Driver/Src/stm32f7xx_hal_i2c.c **** 
1239:Drivers/STM32F7xx_HAL_Driver/Src/stm32f7xx_hal_i2c.c ****     /* Prepare transfer parameters */
1240:Drivers/STM32F7xx_HAL_Driver/Src/stm32f7xx_hal_i2c.c ****     hi2c->pBuffPtr    = pData;
 1940              		.loc 1 1240 0 discriminator 2
 1941 0064 FB68     		ldr	r3, [r7, #12]
 1942 0066 7A68     		ldr	r2, [r7, #4]
 1943 0068 5A62     		str	r2, [r3, #36]
1241:Drivers/STM32F7xx_HAL_Driver/Src/stm32f7xx_hal_i2c.c ****     hi2c->XferCount   = Size;
 1944              		.loc 1 1241 0 discriminator 2
 1945 006a FB68     		ldr	r3, [r7, #12]
 1946 006c 3A89     		ldrh	r2, [r7, #8]	@ movhi
 1947 006e 5A85     		strh	r2, [r3, #42]	@ movhi
1242:Drivers/STM32F7xx_HAL_Driver/Src/stm32f7xx_hal_i2c.c ****     hi2c->XferOptions = I2C_NO_OPTION_FRAME;
 1948              		.loc 1 1242 0 discriminator 2
 1949 0070 FB68     		ldr	r3, [r7, #12]
 1950 0072 194A     		ldr	r2, .L98
 1951 0074 DA62     		str	r2, [r3, #44]
1243:Drivers/STM32F7xx_HAL_Driver/Src/stm32f7xx_hal_i2c.c ****     hi2c->XferISR     = I2C_Master_ISR_IT;
 1952              		.loc 1 1243 0 discriminator 2
 1953 0076 FB68     		ldr	r3, [r7, #12]
 1954 0078 184A     		ldr	r2, .L98+4
 1955 007a 5A63     		str	r2, [r3, #52]
1244:Drivers/STM32F7xx_HAL_Driver/Src/stm32f7xx_hal_i2c.c **** 
1245:Drivers/STM32F7xx_HAL_Driver/Src/stm32f7xx_hal_i2c.c ****     if (hi2c->XferCount > MAX_NBYTE_SIZE)
 1956              		.loc 1 1245 0 discriminator 2
 1957 007c FB68     		ldr	r3, [r7, #12]
 1958 007e 5B8D     		ldrh	r3, [r3, #42]	@ movhi
 1959 0080 9BB2     		uxth	r3, r3
 1960 0082 FF2B     		cmp	r3, #255
 1961 0084 06D9     		bls	.L96
1246:Drivers/STM32F7xx_HAL_Driver/Src/stm32f7xx_hal_i2c.c ****     {
ARM GAS  /var/folders/n8/cvzdcwlj0vl4g_wtyz1ffy300000gn/T//ccBPNZvy.s 			page 57


1247:Drivers/STM32F7xx_HAL_Driver/Src/stm32f7xx_hal_i2c.c ****       hi2c->XferSize = MAX_NBYTE_SIZE;
 1962              		.loc 1 1247 0
 1963 0086 FB68     		ldr	r3, [r7, #12]
 1964 0088 FF22     		movs	r2, #255
 1965 008a 1A85     		strh	r2, [r3, #40]	@ movhi
1248:Drivers/STM32F7xx_HAL_Driver/Src/stm32f7xx_hal_i2c.c ****       xfermode = I2C_RELOAD_MODE;
 1966              		.loc 1 1248 0
 1967 008c 4FF08073 		mov	r3, #16777216
 1968 0090 7B61     		str	r3, [r7, #20]
 1969 0092 07E0     		b	.L97
 1970              	.L96:
1249:Drivers/STM32F7xx_HAL_Driver/Src/stm32f7xx_hal_i2c.c ****     }
1250:Drivers/STM32F7xx_HAL_Driver/Src/stm32f7xx_hal_i2c.c ****     else
1251:Drivers/STM32F7xx_HAL_Driver/Src/stm32f7xx_hal_i2c.c ****     {
1252:Drivers/STM32F7xx_HAL_Driver/Src/stm32f7xx_hal_i2c.c ****       hi2c->XferSize = hi2c->XferCount;
 1971              		.loc 1 1252 0
 1972 0094 FB68     		ldr	r3, [r7, #12]
 1973 0096 5B8D     		ldrh	r3, [r3, #42]	@ movhi
 1974 0098 9AB2     		uxth	r2, r3
 1975 009a FB68     		ldr	r3, [r7, #12]
 1976 009c 1A85     		strh	r2, [r3, #40]	@ movhi
1253:Drivers/STM32F7xx_HAL_Driver/Src/stm32f7xx_hal_i2c.c ****       xfermode = I2C_AUTOEND_MODE;
 1977              		.loc 1 1253 0
 1978 009e 4FF00073 		mov	r3, #33554432
 1979 00a2 7B61     		str	r3, [r7, #20]
 1980              	.L97:
1254:Drivers/STM32F7xx_HAL_Driver/Src/stm32f7xx_hal_i2c.c ****     }
1255:Drivers/STM32F7xx_HAL_Driver/Src/stm32f7xx_hal_i2c.c **** 
1256:Drivers/STM32F7xx_HAL_Driver/Src/stm32f7xx_hal_i2c.c ****     /* Send Slave Address */
1257:Drivers/STM32F7xx_HAL_Driver/Src/stm32f7xx_hal_i2c.c ****     /* Set NBYTES to write and reload if hi2c->XferCount > MAX_NBYTE_SIZE */
1258:Drivers/STM32F7xx_HAL_Driver/Src/stm32f7xx_hal_i2c.c ****     I2C_TransferConfig(hi2c, DevAddress, hi2c->XferSize, xfermode, I2C_GENERATE_START_READ);
 1981              		.loc 1 1258 0
 1982 00a4 FB68     		ldr	r3, [r7, #12]
 1983 00a6 1B8D     		ldrh	r3, [r3, #40]
 1984 00a8 DAB2     		uxtb	r2, r3
 1985 00aa 7989     		ldrh	r1, [r7, #10]
 1986 00ac 0C4B     		ldr	r3, .L98+8
 1987 00ae 0093     		str	r3, [sp]
 1988 00b0 7B69     		ldr	r3, [r7, #20]
 1989 00b2 F868     		ldr	r0, [r7, #12]
 1990 00b4 FFF7FEFF 		bl	I2C_TransferConfig
1259:Drivers/STM32F7xx_HAL_Driver/Src/stm32f7xx_hal_i2c.c **** 
1260:Drivers/STM32F7xx_HAL_Driver/Src/stm32f7xx_hal_i2c.c ****     /* Process Unlocked */
1261:Drivers/STM32F7xx_HAL_Driver/Src/stm32f7xx_hal_i2c.c ****     __HAL_UNLOCK(hi2c);
 1991              		.loc 1 1261 0
 1992 00b8 FB68     		ldr	r3, [r7, #12]
 1993 00ba 0022     		movs	r2, #0
 1994 00bc 83F84020 		strb	r2, [r3, #64]
1262:Drivers/STM32F7xx_HAL_Driver/Src/stm32f7xx_hal_i2c.c **** 
1263:Drivers/STM32F7xx_HAL_Driver/Src/stm32f7xx_hal_i2c.c ****     /* Note : The I2C interrupts must be enabled after unlocking current process
1264:Drivers/STM32F7xx_HAL_Driver/Src/stm32f7xx_hal_i2c.c ****               to avoid the risk of I2C interrupt handle execution before current
1265:Drivers/STM32F7xx_HAL_Driver/Src/stm32f7xx_hal_i2c.c ****               process unlock */
1266:Drivers/STM32F7xx_HAL_Driver/Src/stm32f7xx_hal_i2c.c **** 
1267:Drivers/STM32F7xx_HAL_Driver/Src/stm32f7xx_hal_i2c.c ****     /* Enable ERR, TC, STOP, NACK, RXI interrupt */
1268:Drivers/STM32F7xx_HAL_Driver/Src/stm32f7xx_hal_i2c.c ****     /* possible to enable all of these */
1269:Drivers/STM32F7xx_HAL_Driver/Src/stm32f7xx_hal_i2c.c ****     /* I2C_IT_ERRI | I2C_IT_TCI| I2C_IT_STOPI| I2C_IT_NACKI | I2C_IT_ADDRI | I2C_IT_RXI | I2C_IT_TX
1270:Drivers/STM32F7xx_HAL_Driver/Src/stm32f7xx_hal_i2c.c ****     I2C_Enable_IRQ(hi2c, I2C_XFER_RX_IT);
ARM GAS  /var/folders/n8/cvzdcwlj0vl4g_wtyz1ffy300000gn/T//ccBPNZvy.s 			page 58


 1995              		.loc 1 1270 0
 1996 00c0 0221     		movs	r1, #2
 1997 00c2 F868     		ldr	r0, [r7, #12]
 1998 00c4 FFF7FEFF 		bl	I2C_Enable_IRQ
1271:Drivers/STM32F7xx_HAL_Driver/Src/stm32f7xx_hal_i2c.c **** 
1272:Drivers/STM32F7xx_HAL_Driver/Src/stm32f7xx_hal_i2c.c ****     return HAL_OK;
 1999              		.loc 1 1272 0
 2000 00c8 0023     		movs	r3, #0
 2001 00ca 00E0     		b	.L94
 2002              	.L92:
1273:Drivers/STM32F7xx_HAL_Driver/Src/stm32f7xx_hal_i2c.c ****   }
1274:Drivers/STM32F7xx_HAL_Driver/Src/stm32f7xx_hal_i2c.c ****   else
1275:Drivers/STM32F7xx_HAL_Driver/Src/stm32f7xx_hal_i2c.c ****   {
1276:Drivers/STM32F7xx_HAL_Driver/Src/stm32f7xx_hal_i2c.c ****     return HAL_BUSY;
 2003              		.loc 1 1276 0
 2004 00cc 0223     		movs	r3, #2
 2005              	.L94:
1277:Drivers/STM32F7xx_HAL_Driver/Src/stm32f7xx_hal_i2c.c ****   }
1278:Drivers/STM32F7xx_HAL_Driver/Src/stm32f7xx_hal_i2c.c **** }
 2006              		.loc 1 1278 0
 2007 00ce 1846     		mov	r0, r3
 2008 00d0 1837     		adds	r7, r7, #24
 2009              	.LCFI50:
 2010              		.cfi_def_cfa_offset 8
 2011 00d2 BD46     		mov	sp, r7
 2012              	.LCFI51:
 2013              		.cfi_def_cfa_register 13
 2014              		@ sp needed
 2015 00d4 80BD     		pop	{r7, pc}
 2016              	.L99:
 2017 00d6 00BF     		.align	2
 2018              	.L98:
 2019 00d8 0000FFFF 		.word	-65536
 2020 00dc 00000000 		.word	I2C_Master_ISR_IT
 2021 00e0 00240080 		.word	-2147474432
 2022              		.cfi_endproc
 2023              	.LFE147:
 2025              		.section	.text.HAL_I2C_Slave_Transmit_IT,"ax",%progbits
 2026              		.align	1
 2027              		.global	HAL_I2C_Slave_Transmit_IT
 2028              		.syntax unified
 2029              		.thumb
 2030              		.thumb_func
 2031              		.fpu fpv5-sp-d16
 2033              	HAL_I2C_Slave_Transmit_IT:
 2034              	.LFB148:
1279:Drivers/STM32F7xx_HAL_Driver/Src/stm32f7xx_hal_i2c.c **** 
1280:Drivers/STM32F7xx_HAL_Driver/Src/stm32f7xx_hal_i2c.c **** /**
1281:Drivers/STM32F7xx_HAL_Driver/Src/stm32f7xx_hal_i2c.c ****   * @brief  Transmit in slave mode an amount of data in non-blocking mode with Interrupt
1282:Drivers/STM32F7xx_HAL_Driver/Src/stm32f7xx_hal_i2c.c ****   * @param  hi2c Pointer to a I2C_HandleTypeDef structure that contains
1283:Drivers/STM32F7xx_HAL_Driver/Src/stm32f7xx_hal_i2c.c ****   *                the configuration information for the specified I2C.
1284:Drivers/STM32F7xx_HAL_Driver/Src/stm32f7xx_hal_i2c.c ****   * @param  pData Pointer to data buffer
1285:Drivers/STM32F7xx_HAL_Driver/Src/stm32f7xx_hal_i2c.c ****   * @param  Size Amount of data to be sent
1286:Drivers/STM32F7xx_HAL_Driver/Src/stm32f7xx_hal_i2c.c ****   * @retval HAL status
1287:Drivers/STM32F7xx_HAL_Driver/Src/stm32f7xx_hal_i2c.c ****   */
1288:Drivers/STM32F7xx_HAL_Driver/Src/stm32f7xx_hal_i2c.c **** HAL_StatusTypeDef HAL_I2C_Slave_Transmit_IT(I2C_HandleTypeDef *hi2c, uint8_t *pData, uint16_t Size)
1289:Drivers/STM32F7xx_HAL_Driver/Src/stm32f7xx_hal_i2c.c **** {
ARM GAS  /var/folders/n8/cvzdcwlj0vl4g_wtyz1ffy300000gn/T//ccBPNZvy.s 			page 59


 2035              		.loc 1 1289 0
 2036              		.cfi_startproc
 2037              		@ args = 0, pretend = 0, frame = 16
 2038              		@ frame_needed = 1, uses_anonymous_args = 0
 2039 0000 80B5     		push	{r7, lr}
 2040              	.LCFI52:
 2041              		.cfi_def_cfa_offset 8
 2042              		.cfi_offset 7, -8
 2043              		.cfi_offset 14, -4
 2044 0002 84B0     		sub	sp, sp, #16
 2045              	.LCFI53:
 2046              		.cfi_def_cfa_offset 24
 2047 0004 00AF     		add	r7, sp, #0
 2048              	.LCFI54:
 2049              		.cfi_def_cfa_register 7
 2050 0006 F860     		str	r0, [r7, #12]
 2051 0008 B960     		str	r1, [r7, #8]
 2052 000a 1346     		mov	r3, r2
 2053 000c FB80     		strh	r3, [r7, #6]	@ movhi
1290:Drivers/STM32F7xx_HAL_Driver/Src/stm32f7xx_hal_i2c.c ****   if (hi2c->State == HAL_I2C_STATE_READY)
 2054              		.loc 1 1290 0
 2055 000e FB68     		ldr	r3, [r7, #12]
 2056 0010 93F84130 		ldrb	r3, [r3, #65]
 2057 0014 DBB2     		uxtb	r3, r3
 2058 0016 202B     		cmp	r3, #32
 2059 0018 38D1     		bne	.L101
1291:Drivers/STM32F7xx_HAL_Driver/Src/stm32f7xx_hal_i2c.c ****   {
1292:Drivers/STM32F7xx_HAL_Driver/Src/stm32f7xx_hal_i2c.c ****     /* Process Locked */
1293:Drivers/STM32F7xx_HAL_Driver/Src/stm32f7xx_hal_i2c.c ****     __HAL_LOCK(hi2c);
 2060              		.loc 1 1293 0
 2061 001a FB68     		ldr	r3, [r7, #12]
 2062 001c 93F84030 		ldrb	r3, [r3, #64]	@ zero_extendqisi2
 2063 0020 012B     		cmp	r3, #1
 2064 0022 01D1     		bne	.L102
 2065              		.loc 1 1293 0 is_stmt 0 discriminator 1
 2066 0024 0223     		movs	r3, #2
 2067 0026 32E0     		b	.L103
 2068              	.L102:
 2069              		.loc 1 1293 0 discriminator 2
 2070 0028 FB68     		ldr	r3, [r7, #12]
 2071 002a 0122     		movs	r2, #1
 2072 002c 83F84020 		strb	r2, [r3, #64]
1294:Drivers/STM32F7xx_HAL_Driver/Src/stm32f7xx_hal_i2c.c **** 
1295:Drivers/STM32F7xx_HAL_Driver/Src/stm32f7xx_hal_i2c.c ****     hi2c->State       = HAL_I2C_STATE_BUSY_TX;
 2073              		.loc 1 1295 0 is_stmt 1 discriminator 2
 2074 0030 FB68     		ldr	r3, [r7, #12]
 2075 0032 2122     		movs	r2, #33
 2076 0034 83F84120 		strb	r2, [r3, #65]
1296:Drivers/STM32F7xx_HAL_Driver/Src/stm32f7xx_hal_i2c.c ****     hi2c->Mode        = HAL_I2C_MODE_SLAVE;
 2077              		.loc 1 1296 0 discriminator 2
 2078 0038 FB68     		ldr	r3, [r7, #12]
 2079 003a 2022     		movs	r2, #32
 2080 003c 83F84220 		strb	r2, [r3, #66]
1297:Drivers/STM32F7xx_HAL_Driver/Src/stm32f7xx_hal_i2c.c ****     hi2c->ErrorCode   = HAL_I2C_ERROR_NONE;
 2081              		.loc 1 1297 0 discriminator 2
 2082 0040 FB68     		ldr	r3, [r7, #12]
 2083 0042 0022     		movs	r2, #0
ARM GAS  /var/folders/n8/cvzdcwlj0vl4g_wtyz1ffy300000gn/T//ccBPNZvy.s 			page 60


 2084 0044 5A64     		str	r2, [r3, #68]
1298:Drivers/STM32F7xx_HAL_Driver/Src/stm32f7xx_hal_i2c.c **** 
1299:Drivers/STM32F7xx_HAL_Driver/Src/stm32f7xx_hal_i2c.c ****     /* Enable Address Acknowledge */
1300:Drivers/STM32F7xx_HAL_Driver/Src/stm32f7xx_hal_i2c.c ****     hi2c->Instance->CR2 &= ~I2C_CR2_NACK;
 2085              		.loc 1 1300 0 discriminator 2
 2086 0046 FB68     		ldr	r3, [r7, #12]
 2087 0048 1B68     		ldr	r3, [r3]
 2088 004a 5A68     		ldr	r2, [r3, #4]
 2089 004c FB68     		ldr	r3, [r7, #12]
 2090 004e 1B68     		ldr	r3, [r3]
 2091 0050 22F40042 		bic	r2, r2, #32768
 2092 0054 5A60     		str	r2, [r3, #4]
1301:Drivers/STM32F7xx_HAL_Driver/Src/stm32f7xx_hal_i2c.c **** 
1302:Drivers/STM32F7xx_HAL_Driver/Src/stm32f7xx_hal_i2c.c ****     /* Prepare transfer parameters */
1303:Drivers/STM32F7xx_HAL_Driver/Src/stm32f7xx_hal_i2c.c ****     hi2c->pBuffPtr    = pData;
 2093              		.loc 1 1303 0 discriminator 2
 2094 0056 FB68     		ldr	r3, [r7, #12]
 2095 0058 BA68     		ldr	r2, [r7, #8]
 2096 005a 5A62     		str	r2, [r3, #36]
1304:Drivers/STM32F7xx_HAL_Driver/Src/stm32f7xx_hal_i2c.c ****     hi2c->XferCount   = Size;
 2097              		.loc 1 1304 0 discriminator 2
 2098 005c FB68     		ldr	r3, [r7, #12]
 2099 005e FA88     		ldrh	r2, [r7, #6]	@ movhi
 2100 0060 5A85     		strh	r2, [r3, #42]	@ movhi
1305:Drivers/STM32F7xx_HAL_Driver/Src/stm32f7xx_hal_i2c.c ****     hi2c->XferSize    = hi2c->XferCount;
 2101              		.loc 1 1305 0 discriminator 2
 2102 0062 FB68     		ldr	r3, [r7, #12]
 2103 0064 5B8D     		ldrh	r3, [r3, #42]	@ movhi
 2104 0066 9AB2     		uxth	r2, r3
 2105 0068 FB68     		ldr	r3, [r7, #12]
 2106 006a 1A85     		strh	r2, [r3, #40]	@ movhi
1306:Drivers/STM32F7xx_HAL_Driver/Src/stm32f7xx_hal_i2c.c ****     hi2c->XferOptions = I2C_NO_OPTION_FRAME;
 2107              		.loc 1 1306 0 discriminator 2
 2108 006c FB68     		ldr	r3, [r7, #12]
 2109 006e 0A4A     		ldr	r2, .L104
 2110 0070 DA62     		str	r2, [r3, #44]
1307:Drivers/STM32F7xx_HAL_Driver/Src/stm32f7xx_hal_i2c.c ****     hi2c->XferISR     = I2C_Slave_ISR_IT;
 2111              		.loc 1 1307 0 discriminator 2
 2112 0072 FB68     		ldr	r3, [r7, #12]
 2113 0074 094A     		ldr	r2, .L104+4
 2114 0076 5A63     		str	r2, [r3, #52]
1308:Drivers/STM32F7xx_HAL_Driver/Src/stm32f7xx_hal_i2c.c **** 
1309:Drivers/STM32F7xx_HAL_Driver/Src/stm32f7xx_hal_i2c.c ****     /* Process Unlocked */
1310:Drivers/STM32F7xx_HAL_Driver/Src/stm32f7xx_hal_i2c.c ****     __HAL_UNLOCK(hi2c);
 2115              		.loc 1 1310 0 discriminator 2
 2116 0078 FB68     		ldr	r3, [r7, #12]
 2117 007a 0022     		movs	r2, #0
 2118 007c 83F84020 		strb	r2, [r3, #64]
1311:Drivers/STM32F7xx_HAL_Driver/Src/stm32f7xx_hal_i2c.c **** 
1312:Drivers/STM32F7xx_HAL_Driver/Src/stm32f7xx_hal_i2c.c ****     /* Note : The I2C interrupts must be enabled after unlocking current process
1313:Drivers/STM32F7xx_HAL_Driver/Src/stm32f7xx_hal_i2c.c ****               to avoid the risk of I2C interrupt handle execution before current
1314:Drivers/STM32F7xx_HAL_Driver/Src/stm32f7xx_hal_i2c.c ****               process unlock */
1315:Drivers/STM32F7xx_HAL_Driver/Src/stm32f7xx_hal_i2c.c **** 
1316:Drivers/STM32F7xx_HAL_Driver/Src/stm32f7xx_hal_i2c.c ****     /* Enable ERR, TC, STOP, NACK, TXI interrupt */
1317:Drivers/STM32F7xx_HAL_Driver/Src/stm32f7xx_hal_i2c.c ****     /* possible to enable all of these */
1318:Drivers/STM32F7xx_HAL_Driver/Src/stm32f7xx_hal_i2c.c ****     /* I2C_IT_ERRI | I2C_IT_TCI| I2C_IT_STOPI| I2C_IT_NACKI | I2C_IT_ADDRI | I2C_IT_RXI | I2C_IT_TX
1319:Drivers/STM32F7xx_HAL_Driver/Src/stm32f7xx_hal_i2c.c ****     I2C_Enable_IRQ(hi2c, I2C_XFER_TX_IT | I2C_XFER_LISTEN_IT);
ARM GAS  /var/folders/n8/cvzdcwlj0vl4g_wtyz1ffy300000gn/T//ccBPNZvy.s 			page 61


 2119              		.loc 1 1319 0 discriminator 2
 2120 0080 0521     		movs	r1, #5
 2121 0082 F868     		ldr	r0, [r7, #12]
 2122 0084 FFF7FEFF 		bl	I2C_Enable_IRQ
1320:Drivers/STM32F7xx_HAL_Driver/Src/stm32f7xx_hal_i2c.c **** 
1321:Drivers/STM32F7xx_HAL_Driver/Src/stm32f7xx_hal_i2c.c ****     return HAL_OK;
 2123              		.loc 1 1321 0 discriminator 2
 2124 0088 0023     		movs	r3, #0
 2125 008a 00E0     		b	.L103
 2126              	.L101:
1322:Drivers/STM32F7xx_HAL_Driver/Src/stm32f7xx_hal_i2c.c ****   }
1323:Drivers/STM32F7xx_HAL_Driver/Src/stm32f7xx_hal_i2c.c ****   else
1324:Drivers/STM32F7xx_HAL_Driver/Src/stm32f7xx_hal_i2c.c ****   {
1325:Drivers/STM32F7xx_HAL_Driver/Src/stm32f7xx_hal_i2c.c ****     return HAL_BUSY;
 2127              		.loc 1 1325 0
 2128 008c 0223     		movs	r3, #2
 2129              	.L103:
1326:Drivers/STM32F7xx_HAL_Driver/Src/stm32f7xx_hal_i2c.c ****   }
1327:Drivers/STM32F7xx_HAL_Driver/Src/stm32f7xx_hal_i2c.c **** }
 2130              		.loc 1 1327 0
 2131 008e 1846     		mov	r0, r3
 2132 0090 1037     		adds	r7, r7, #16
 2133              	.LCFI55:
 2134              		.cfi_def_cfa_offset 8
 2135 0092 BD46     		mov	sp, r7
 2136              	.LCFI56:
 2137              		.cfi_def_cfa_register 13
 2138              		@ sp needed
 2139 0094 80BD     		pop	{r7, pc}
 2140              	.L105:
 2141 0096 00BF     		.align	2
 2142              	.L104:
 2143 0098 0000FFFF 		.word	-65536
 2144 009c 00000000 		.word	I2C_Slave_ISR_IT
 2145              		.cfi_endproc
 2146              	.LFE148:
 2148              		.section	.text.HAL_I2C_Slave_Receive_IT,"ax",%progbits
 2149              		.align	1
 2150              		.global	HAL_I2C_Slave_Receive_IT
 2151              		.syntax unified
 2152              		.thumb
 2153              		.thumb_func
 2154              		.fpu fpv5-sp-d16
 2156              	HAL_I2C_Slave_Receive_IT:
 2157              	.LFB149:
1328:Drivers/STM32F7xx_HAL_Driver/Src/stm32f7xx_hal_i2c.c **** 
1329:Drivers/STM32F7xx_HAL_Driver/Src/stm32f7xx_hal_i2c.c **** /**
1330:Drivers/STM32F7xx_HAL_Driver/Src/stm32f7xx_hal_i2c.c ****   * @brief  Receive in slave mode an amount of data in non-blocking mode with Interrupt
1331:Drivers/STM32F7xx_HAL_Driver/Src/stm32f7xx_hal_i2c.c ****   * @param  hi2c Pointer to a I2C_HandleTypeDef structure that contains
1332:Drivers/STM32F7xx_HAL_Driver/Src/stm32f7xx_hal_i2c.c ****   *                the configuration information for the specified I2C.
1333:Drivers/STM32F7xx_HAL_Driver/Src/stm32f7xx_hal_i2c.c ****   * @param  pData Pointer to data buffer
1334:Drivers/STM32F7xx_HAL_Driver/Src/stm32f7xx_hal_i2c.c ****   * @param  Size Amount of data to be sent
1335:Drivers/STM32F7xx_HAL_Driver/Src/stm32f7xx_hal_i2c.c ****   * @retval HAL status
1336:Drivers/STM32F7xx_HAL_Driver/Src/stm32f7xx_hal_i2c.c ****   */
1337:Drivers/STM32F7xx_HAL_Driver/Src/stm32f7xx_hal_i2c.c **** HAL_StatusTypeDef HAL_I2C_Slave_Receive_IT(I2C_HandleTypeDef *hi2c, uint8_t *pData, uint16_t Size)
1338:Drivers/STM32F7xx_HAL_Driver/Src/stm32f7xx_hal_i2c.c **** {
 2158              		.loc 1 1338 0
ARM GAS  /var/folders/n8/cvzdcwlj0vl4g_wtyz1ffy300000gn/T//ccBPNZvy.s 			page 62


 2159              		.cfi_startproc
 2160              		@ args = 0, pretend = 0, frame = 16
 2161              		@ frame_needed = 1, uses_anonymous_args = 0
 2162 0000 80B5     		push	{r7, lr}
 2163              	.LCFI57:
 2164              		.cfi_def_cfa_offset 8
 2165              		.cfi_offset 7, -8
 2166              		.cfi_offset 14, -4
 2167 0002 84B0     		sub	sp, sp, #16
 2168              	.LCFI58:
 2169              		.cfi_def_cfa_offset 24
 2170 0004 00AF     		add	r7, sp, #0
 2171              	.LCFI59:
 2172              		.cfi_def_cfa_register 7
 2173 0006 F860     		str	r0, [r7, #12]
 2174 0008 B960     		str	r1, [r7, #8]
 2175 000a 1346     		mov	r3, r2
 2176 000c FB80     		strh	r3, [r7, #6]	@ movhi
1339:Drivers/STM32F7xx_HAL_Driver/Src/stm32f7xx_hal_i2c.c ****   if (hi2c->State == HAL_I2C_STATE_READY)
 2177              		.loc 1 1339 0
 2178 000e FB68     		ldr	r3, [r7, #12]
 2179 0010 93F84130 		ldrb	r3, [r3, #65]
 2180 0014 DBB2     		uxtb	r3, r3
 2181 0016 202B     		cmp	r3, #32
 2182 0018 38D1     		bne	.L107
1340:Drivers/STM32F7xx_HAL_Driver/Src/stm32f7xx_hal_i2c.c ****   {
1341:Drivers/STM32F7xx_HAL_Driver/Src/stm32f7xx_hal_i2c.c ****     /* Process Locked */
1342:Drivers/STM32F7xx_HAL_Driver/Src/stm32f7xx_hal_i2c.c ****     __HAL_LOCK(hi2c);
 2183              		.loc 1 1342 0
 2184 001a FB68     		ldr	r3, [r7, #12]
 2185 001c 93F84030 		ldrb	r3, [r3, #64]	@ zero_extendqisi2
 2186 0020 012B     		cmp	r3, #1
 2187 0022 01D1     		bne	.L108
 2188              		.loc 1 1342 0 is_stmt 0 discriminator 1
 2189 0024 0223     		movs	r3, #2
 2190 0026 32E0     		b	.L109
 2191              	.L108:
 2192              		.loc 1 1342 0 discriminator 2
 2193 0028 FB68     		ldr	r3, [r7, #12]
 2194 002a 0122     		movs	r2, #1
 2195 002c 83F84020 		strb	r2, [r3, #64]
1343:Drivers/STM32F7xx_HAL_Driver/Src/stm32f7xx_hal_i2c.c **** 
1344:Drivers/STM32F7xx_HAL_Driver/Src/stm32f7xx_hal_i2c.c ****     hi2c->State       = HAL_I2C_STATE_BUSY_RX;
 2196              		.loc 1 1344 0 is_stmt 1 discriminator 2
 2197 0030 FB68     		ldr	r3, [r7, #12]
 2198 0032 2222     		movs	r2, #34
 2199 0034 83F84120 		strb	r2, [r3, #65]
1345:Drivers/STM32F7xx_HAL_Driver/Src/stm32f7xx_hal_i2c.c ****     hi2c->Mode        = HAL_I2C_MODE_SLAVE;
 2200              		.loc 1 1345 0 discriminator 2
 2201 0038 FB68     		ldr	r3, [r7, #12]
 2202 003a 2022     		movs	r2, #32
 2203 003c 83F84220 		strb	r2, [r3, #66]
1346:Drivers/STM32F7xx_HAL_Driver/Src/stm32f7xx_hal_i2c.c ****     hi2c->ErrorCode   = HAL_I2C_ERROR_NONE;
 2204              		.loc 1 1346 0 discriminator 2
 2205 0040 FB68     		ldr	r3, [r7, #12]
 2206 0042 0022     		movs	r2, #0
 2207 0044 5A64     		str	r2, [r3, #68]
ARM GAS  /var/folders/n8/cvzdcwlj0vl4g_wtyz1ffy300000gn/T//ccBPNZvy.s 			page 63


1347:Drivers/STM32F7xx_HAL_Driver/Src/stm32f7xx_hal_i2c.c **** 
1348:Drivers/STM32F7xx_HAL_Driver/Src/stm32f7xx_hal_i2c.c ****     /* Enable Address Acknowledge */
1349:Drivers/STM32F7xx_HAL_Driver/Src/stm32f7xx_hal_i2c.c ****     hi2c->Instance->CR2 &= ~I2C_CR2_NACK;
 2208              		.loc 1 1349 0 discriminator 2
 2209 0046 FB68     		ldr	r3, [r7, #12]
 2210 0048 1B68     		ldr	r3, [r3]
 2211 004a 5A68     		ldr	r2, [r3, #4]
 2212 004c FB68     		ldr	r3, [r7, #12]
 2213 004e 1B68     		ldr	r3, [r3]
 2214 0050 22F40042 		bic	r2, r2, #32768
 2215 0054 5A60     		str	r2, [r3, #4]
1350:Drivers/STM32F7xx_HAL_Driver/Src/stm32f7xx_hal_i2c.c **** 
1351:Drivers/STM32F7xx_HAL_Driver/Src/stm32f7xx_hal_i2c.c ****     /* Prepare transfer parameters */
1352:Drivers/STM32F7xx_HAL_Driver/Src/stm32f7xx_hal_i2c.c ****     hi2c->pBuffPtr    = pData;
 2216              		.loc 1 1352 0 discriminator 2
 2217 0056 FB68     		ldr	r3, [r7, #12]
 2218 0058 BA68     		ldr	r2, [r7, #8]
 2219 005a 5A62     		str	r2, [r3, #36]
1353:Drivers/STM32F7xx_HAL_Driver/Src/stm32f7xx_hal_i2c.c ****     hi2c->XferCount   = Size;
 2220              		.loc 1 1353 0 discriminator 2
 2221 005c FB68     		ldr	r3, [r7, #12]
 2222 005e FA88     		ldrh	r2, [r7, #6]	@ movhi
 2223 0060 5A85     		strh	r2, [r3, #42]	@ movhi
1354:Drivers/STM32F7xx_HAL_Driver/Src/stm32f7xx_hal_i2c.c ****     hi2c->XferSize    = hi2c->XferCount;
 2224              		.loc 1 1354 0 discriminator 2
 2225 0062 FB68     		ldr	r3, [r7, #12]
 2226 0064 5B8D     		ldrh	r3, [r3, #42]	@ movhi
 2227 0066 9AB2     		uxth	r2, r3
 2228 0068 FB68     		ldr	r3, [r7, #12]
 2229 006a 1A85     		strh	r2, [r3, #40]	@ movhi
1355:Drivers/STM32F7xx_HAL_Driver/Src/stm32f7xx_hal_i2c.c ****     hi2c->XferOptions = I2C_NO_OPTION_FRAME;
 2230              		.loc 1 1355 0 discriminator 2
 2231 006c FB68     		ldr	r3, [r7, #12]
 2232 006e 0A4A     		ldr	r2, .L110
 2233 0070 DA62     		str	r2, [r3, #44]
1356:Drivers/STM32F7xx_HAL_Driver/Src/stm32f7xx_hal_i2c.c ****     hi2c->XferISR     = I2C_Slave_ISR_IT;
 2234              		.loc 1 1356 0 discriminator 2
 2235 0072 FB68     		ldr	r3, [r7, #12]
 2236 0074 094A     		ldr	r2, .L110+4
 2237 0076 5A63     		str	r2, [r3, #52]
1357:Drivers/STM32F7xx_HAL_Driver/Src/stm32f7xx_hal_i2c.c **** 
1358:Drivers/STM32F7xx_HAL_Driver/Src/stm32f7xx_hal_i2c.c ****     /* Process Unlocked */
1359:Drivers/STM32F7xx_HAL_Driver/Src/stm32f7xx_hal_i2c.c ****     __HAL_UNLOCK(hi2c);
 2238              		.loc 1 1359 0 discriminator 2
 2239 0078 FB68     		ldr	r3, [r7, #12]
 2240 007a 0022     		movs	r2, #0
 2241 007c 83F84020 		strb	r2, [r3, #64]
1360:Drivers/STM32F7xx_HAL_Driver/Src/stm32f7xx_hal_i2c.c **** 
1361:Drivers/STM32F7xx_HAL_Driver/Src/stm32f7xx_hal_i2c.c ****     /* Note : The I2C interrupts must be enabled after unlocking current process
1362:Drivers/STM32F7xx_HAL_Driver/Src/stm32f7xx_hal_i2c.c ****               to avoid the risk of I2C interrupt handle execution before current
1363:Drivers/STM32F7xx_HAL_Driver/Src/stm32f7xx_hal_i2c.c ****               process unlock */
1364:Drivers/STM32F7xx_HAL_Driver/Src/stm32f7xx_hal_i2c.c **** 
1365:Drivers/STM32F7xx_HAL_Driver/Src/stm32f7xx_hal_i2c.c ****     /* Enable ERR, TC, STOP, NACK, RXI interrupt */
1366:Drivers/STM32F7xx_HAL_Driver/Src/stm32f7xx_hal_i2c.c ****     /* possible to enable all of these */
1367:Drivers/STM32F7xx_HAL_Driver/Src/stm32f7xx_hal_i2c.c ****     /* I2C_IT_ERRI | I2C_IT_TCI| I2C_IT_STOPI| I2C_IT_NACKI | I2C_IT_ADDRI | I2C_IT_RXI | I2C_IT_TX
1368:Drivers/STM32F7xx_HAL_Driver/Src/stm32f7xx_hal_i2c.c ****     I2C_Enable_IRQ(hi2c, I2C_XFER_RX_IT | I2C_XFER_LISTEN_IT);
 2242              		.loc 1 1368 0 discriminator 2
ARM GAS  /var/folders/n8/cvzdcwlj0vl4g_wtyz1ffy300000gn/T//ccBPNZvy.s 			page 64


 2243 0080 0621     		movs	r1, #6
 2244 0082 F868     		ldr	r0, [r7, #12]
 2245 0084 FFF7FEFF 		bl	I2C_Enable_IRQ
1369:Drivers/STM32F7xx_HAL_Driver/Src/stm32f7xx_hal_i2c.c **** 
1370:Drivers/STM32F7xx_HAL_Driver/Src/stm32f7xx_hal_i2c.c ****     return HAL_OK;
 2246              		.loc 1 1370 0 discriminator 2
 2247 0088 0023     		movs	r3, #0
 2248 008a 00E0     		b	.L109
 2249              	.L107:
1371:Drivers/STM32F7xx_HAL_Driver/Src/stm32f7xx_hal_i2c.c ****   }
1372:Drivers/STM32F7xx_HAL_Driver/Src/stm32f7xx_hal_i2c.c ****   else
1373:Drivers/STM32F7xx_HAL_Driver/Src/stm32f7xx_hal_i2c.c ****   {
1374:Drivers/STM32F7xx_HAL_Driver/Src/stm32f7xx_hal_i2c.c ****     return HAL_BUSY;
 2250              		.loc 1 1374 0
 2251 008c 0223     		movs	r3, #2
 2252              	.L109:
1375:Drivers/STM32F7xx_HAL_Driver/Src/stm32f7xx_hal_i2c.c ****   }
1376:Drivers/STM32F7xx_HAL_Driver/Src/stm32f7xx_hal_i2c.c **** }
 2253              		.loc 1 1376 0
 2254 008e 1846     		mov	r0, r3
 2255 0090 1037     		adds	r7, r7, #16
 2256              	.LCFI60:
 2257              		.cfi_def_cfa_offset 8
 2258 0092 BD46     		mov	sp, r7
 2259              	.LCFI61:
 2260              		.cfi_def_cfa_register 13
 2261              		@ sp needed
 2262 0094 80BD     		pop	{r7, pc}
 2263              	.L111:
 2264 0096 00BF     		.align	2
 2265              	.L110:
 2266 0098 0000FFFF 		.word	-65536
 2267 009c 00000000 		.word	I2C_Slave_ISR_IT
 2268              		.cfi_endproc
 2269              	.LFE149:
 2271              		.section	.text.HAL_I2C_Master_Transmit_DMA,"ax",%progbits
 2272              		.align	1
 2273              		.global	HAL_I2C_Master_Transmit_DMA
 2274              		.syntax unified
 2275              		.thumb
 2276              		.thumb_func
 2277              		.fpu fpv5-sp-d16
 2279              	HAL_I2C_Master_Transmit_DMA:
 2280              	.LFB150:
1377:Drivers/STM32F7xx_HAL_Driver/Src/stm32f7xx_hal_i2c.c **** 
1378:Drivers/STM32F7xx_HAL_Driver/Src/stm32f7xx_hal_i2c.c **** /**
1379:Drivers/STM32F7xx_HAL_Driver/Src/stm32f7xx_hal_i2c.c ****   * @brief  Transmit in master mode an amount of data in non-blocking mode with DMA
1380:Drivers/STM32F7xx_HAL_Driver/Src/stm32f7xx_hal_i2c.c ****   * @param  hi2c Pointer to a I2C_HandleTypeDef structure that contains
1381:Drivers/STM32F7xx_HAL_Driver/Src/stm32f7xx_hal_i2c.c ****   *                the configuration information for the specified I2C.
1382:Drivers/STM32F7xx_HAL_Driver/Src/stm32f7xx_hal_i2c.c ****   * @param  DevAddress Target device address which contain device 7 or 10 bits address value
1383:Drivers/STM32F7xx_HAL_Driver/Src/stm32f7xx_hal_i2c.c ****   *         in datasheet must be shifted to the left before calling the interface
1384:Drivers/STM32F7xx_HAL_Driver/Src/stm32f7xx_hal_i2c.c ****   * @param  pData Pointer to data buffer
1385:Drivers/STM32F7xx_HAL_Driver/Src/stm32f7xx_hal_i2c.c ****   * @param  Size Amount of data to be sent
1386:Drivers/STM32F7xx_HAL_Driver/Src/stm32f7xx_hal_i2c.c ****   * @retval HAL status
1387:Drivers/STM32F7xx_HAL_Driver/Src/stm32f7xx_hal_i2c.c ****   */
1388:Drivers/STM32F7xx_HAL_Driver/Src/stm32f7xx_hal_i2c.c **** HAL_StatusTypeDef HAL_I2C_Master_Transmit_DMA(I2C_HandleTypeDef *hi2c, uint16_t DevAddress, uint8_t
1389:Drivers/STM32F7xx_HAL_Driver/Src/stm32f7xx_hal_i2c.c **** {
ARM GAS  /var/folders/n8/cvzdcwlj0vl4g_wtyz1ffy300000gn/T//ccBPNZvy.s 			page 65


 2281              		.loc 1 1389 0
 2282              		.cfi_startproc
 2283              		@ args = 0, pretend = 0, frame = 24
 2284              		@ frame_needed = 1, uses_anonymous_args = 0
 2285 0000 80B5     		push	{r7, lr}
 2286              	.LCFI62:
 2287              		.cfi_def_cfa_offset 8
 2288              		.cfi_offset 7, -8
 2289              		.cfi_offset 14, -4
 2290 0002 88B0     		sub	sp, sp, #32
 2291              	.LCFI63:
 2292              		.cfi_def_cfa_offset 40
 2293 0004 02AF     		add	r7, sp, #8
 2294              	.LCFI64:
 2295              		.cfi_def_cfa 7, 32
 2296 0006 F860     		str	r0, [r7, #12]
 2297 0008 7A60     		str	r2, [r7, #4]
 2298 000a 1A46     		mov	r2, r3
 2299 000c 0B46     		mov	r3, r1	@ movhi
 2300 000e 7B81     		strh	r3, [r7, #10]	@ movhi
 2301 0010 1346     		mov	r3, r2	@ movhi
 2302 0012 3B81     		strh	r3, [r7, #8]	@ movhi
1390:Drivers/STM32F7xx_HAL_Driver/Src/stm32f7xx_hal_i2c.c ****   uint32_t xfermode = 0U;
 2303              		.loc 1 1390 0
 2304 0014 0023     		movs	r3, #0
 2305 0016 7B61     		str	r3, [r7, #20]
1391:Drivers/STM32F7xx_HAL_Driver/Src/stm32f7xx_hal_i2c.c **** 
1392:Drivers/STM32F7xx_HAL_Driver/Src/stm32f7xx_hal_i2c.c ****   if (hi2c->State == HAL_I2C_STATE_READY)
 2306              		.loc 1 1392 0
 2307 0018 FB68     		ldr	r3, [r7, #12]
 2308 001a 93F84130 		ldrb	r3, [r3, #65]
 2309 001e DBB2     		uxtb	r3, r3
 2310 0020 202B     		cmp	r3, #32
 2311 0022 40F09B80 		bne	.L113
1393:Drivers/STM32F7xx_HAL_Driver/Src/stm32f7xx_hal_i2c.c ****   {
1394:Drivers/STM32F7xx_HAL_Driver/Src/stm32f7xx_hal_i2c.c ****     if (__HAL_I2C_GET_FLAG(hi2c, I2C_FLAG_BUSY) == SET)
 2312              		.loc 1 1394 0
 2313 0026 FB68     		ldr	r3, [r7, #12]
 2314 0028 1B68     		ldr	r3, [r3]
 2315 002a 9B69     		ldr	r3, [r3, #24]
 2316 002c 03F40043 		and	r3, r3, #32768
 2317 0030 B3F5004F 		cmp	r3, #32768
 2318 0034 01D1     		bne	.L114
1395:Drivers/STM32F7xx_HAL_Driver/Src/stm32f7xx_hal_i2c.c ****     {
1396:Drivers/STM32F7xx_HAL_Driver/Src/stm32f7xx_hal_i2c.c ****       return HAL_BUSY;
 2319              		.loc 1 1396 0
 2320 0036 0223     		movs	r3, #2
 2321 0038 91E0     		b	.L115
 2322              	.L114:
1397:Drivers/STM32F7xx_HAL_Driver/Src/stm32f7xx_hal_i2c.c ****     }
1398:Drivers/STM32F7xx_HAL_Driver/Src/stm32f7xx_hal_i2c.c **** 
1399:Drivers/STM32F7xx_HAL_Driver/Src/stm32f7xx_hal_i2c.c ****     /* Process Locked */
1400:Drivers/STM32F7xx_HAL_Driver/Src/stm32f7xx_hal_i2c.c ****     __HAL_LOCK(hi2c);
 2323              		.loc 1 1400 0
 2324 003a FB68     		ldr	r3, [r7, #12]
 2325 003c 93F84030 		ldrb	r3, [r3, #64]	@ zero_extendqisi2
 2326 0040 012B     		cmp	r3, #1
ARM GAS  /var/folders/n8/cvzdcwlj0vl4g_wtyz1ffy300000gn/T//ccBPNZvy.s 			page 66


 2327 0042 01D1     		bne	.L116
 2328              		.loc 1 1400 0 is_stmt 0 discriminator 1
 2329 0044 0223     		movs	r3, #2
 2330 0046 8AE0     		b	.L115
 2331              	.L116:
 2332              		.loc 1 1400 0 discriminator 2
 2333 0048 FB68     		ldr	r3, [r7, #12]
 2334 004a 0122     		movs	r2, #1
 2335 004c 83F84020 		strb	r2, [r3, #64]
1401:Drivers/STM32F7xx_HAL_Driver/Src/stm32f7xx_hal_i2c.c **** 
1402:Drivers/STM32F7xx_HAL_Driver/Src/stm32f7xx_hal_i2c.c ****     hi2c->State       = HAL_I2C_STATE_BUSY_TX;
 2336              		.loc 1 1402 0 is_stmt 1 discriminator 2
 2337 0050 FB68     		ldr	r3, [r7, #12]
 2338 0052 2122     		movs	r2, #33
 2339 0054 83F84120 		strb	r2, [r3, #65]
1403:Drivers/STM32F7xx_HAL_Driver/Src/stm32f7xx_hal_i2c.c ****     hi2c->Mode        = HAL_I2C_MODE_MASTER;
 2340              		.loc 1 1403 0 discriminator 2
 2341 0058 FB68     		ldr	r3, [r7, #12]
 2342 005a 1022     		movs	r2, #16
 2343 005c 83F84220 		strb	r2, [r3, #66]
1404:Drivers/STM32F7xx_HAL_Driver/Src/stm32f7xx_hal_i2c.c ****     hi2c->ErrorCode   = HAL_I2C_ERROR_NONE;
 2344              		.loc 1 1404 0 discriminator 2
 2345 0060 FB68     		ldr	r3, [r7, #12]
 2346 0062 0022     		movs	r2, #0
 2347 0064 5A64     		str	r2, [r3, #68]
1405:Drivers/STM32F7xx_HAL_Driver/Src/stm32f7xx_hal_i2c.c **** 
1406:Drivers/STM32F7xx_HAL_Driver/Src/stm32f7xx_hal_i2c.c ****     /* Prepare transfer parameters */
1407:Drivers/STM32F7xx_HAL_Driver/Src/stm32f7xx_hal_i2c.c ****     hi2c->pBuffPtr    = pData;
 2348              		.loc 1 1407 0 discriminator 2
 2349 0066 FB68     		ldr	r3, [r7, #12]
 2350 0068 7A68     		ldr	r2, [r7, #4]
 2351 006a 5A62     		str	r2, [r3, #36]
1408:Drivers/STM32F7xx_HAL_Driver/Src/stm32f7xx_hal_i2c.c ****     hi2c->XferCount   = Size;
 2352              		.loc 1 1408 0 discriminator 2
 2353 006c FB68     		ldr	r3, [r7, #12]
 2354 006e 3A89     		ldrh	r2, [r7, #8]	@ movhi
 2355 0070 5A85     		strh	r2, [r3, #42]	@ movhi
1409:Drivers/STM32F7xx_HAL_Driver/Src/stm32f7xx_hal_i2c.c ****     hi2c->XferOptions = I2C_NO_OPTION_FRAME;
 2356              		.loc 1 1409 0 discriminator 2
 2357 0072 FB68     		ldr	r3, [r7, #12]
 2358 0074 3C4A     		ldr	r2, .L121
 2359 0076 DA62     		str	r2, [r3, #44]
1410:Drivers/STM32F7xx_HAL_Driver/Src/stm32f7xx_hal_i2c.c ****     hi2c->XferISR     = I2C_Master_ISR_DMA;
 2360              		.loc 1 1410 0 discriminator 2
 2361 0078 FB68     		ldr	r3, [r7, #12]
 2362 007a 3C4A     		ldr	r2, .L121+4
 2363 007c 5A63     		str	r2, [r3, #52]
1411:Drivers/STM32F7xx_HAL_Driver/Src/stm32f7xx_hal_i2c.c **** 
1412:Drivers/STM32F7xx_HAL_Driver/Src/stm32f7xx_hal_i2c.c ****     if (hi2c->XferCount > MAX_NBYTE_SIZE)
 2364              		.loc 1 1412 0 discriminator 2
 2365 007e FB68     		ldr	r3, [r7, #12]
 2366 0080 5B8D     		ldrh	r3, [r3, #42]	@ movhi
 2367 0082 9BB2     		uxth	r3, r3
 2368 0084 FF2B     		cmp	r3, #255
 2369 0086 06D9     		bls	.L117
1413:Drivers/STM32F7xx_HAL_Driver/Src/stm32f7xx_hal_i2c.c ****     {
1414:Drivers/STM32F7xx_HAL_Driver/Src/stm32f7xx_hal_i2c.c ****       hi2c->XferSize = MAX_NBYTE_SIZE;
ARM GAS  /var/folders/n8/cvzdcwlj0vl4g_wtyz1ffy300000gn/T//ccBPNZvy.s 			page 67


 2370              		.loc 1 1414 0
 2371 0088 FB68     		ldr	r3, [r7, #12]
 2372 008a FF22     		movs	r2, #255
 2373 008c 1A85     		strh	r2, [r3, #40]	@ movhi
1415:Drivers/STM32F7xx_HAL_Driver/Src/stm32f7xx_hal_i2c.c ****       xfermode = I2C_RELOAD_MODE;
 2374              		.loc 1 1415 0
 2375 008e 4FF08073 		mov	r3, #16777216
 2376 0092 7B61     		str	r3, [r7, #20]
 2377 0094 07E0     		b	.L118
 2378              	.L117:
1416:Drivers/STM32F7xx_HAL_Driver/Src/stm32f7xx_hal_i2c.c ****     }
1417:Drivers/STM32F7xx_HAL_Driver/Src/stm32f7xx_hal_i2c.c ****     else
1418:Drivers/STM32F7xx_HAL_Driver/Src/stm32f7xx_hal_i2c.c ****     {
1419:Drivers/STM32F7xx_HAL_Driver/Src/stm32f7xx_hal_i2c.c ****       hi2c->XferSize = hi2c->XferCount;
 2379              		.loc 1 1419 0
 2380 0096 FB68     		ldr	r3, [r7, #12]
 2381 0098 5B8D     		ldrh	r3, [r3, #42]	@ movhi
 2382 009a 9AB2     		uxth	r2, r3
 2383 009c FB68     		ldr	r3, [r7, #12]
 2384 009e 1A85     		strh	r2, [r3, #40]	@ movhi
1420:Drivers/STM32F7xx_HAL_Driver/Src/stm32f7xx_hal_i2c.c ****       xfermode = I2C_AUTOEND_MODE;
 2385              		.loc 1 1420 0
 2386 00a0 4FF00073 		mov	r3, #33554432
 2387 00a4 7B61     		str	r3, [r7, #20]
 2388              	.L118:
1421:Drivers/STM32F7xx_HAL_Driver/Src/stm32f7xx_hal_i2c.c ****     }
1422:Drivers/STM32F7xx_HAL_Driver/Src/stm32f7xx_hal_i2c.c **** 
1423:Drivers/STM32F7xx_HAL_Driver/Src/stm32f7xx_hal_i2c.c ****     if (hi2c->XferSize > 0U)
 2389              		.loc 1 1423 0
 2390 00a6 FB68     		ldr	r3, [r7, #12]
 2391 00a8 1B8D     		ldrh	r3, [r3, #40]
 2392 00aa 002B     		cmp	r3, #0
 2393 00ac 3ED0     		beq	.L119
1424:Drivers/STM32F7xx_HAL_Driver/Src/stm32f7xx_hal_i2c.c ****     {
1425:Drivers/STM32F7xx_HAL_Driver/Src/stm32f7xx_hal_i2c.c ****       /* Set the I2C DMA transfer complete callback */
1426:Drivers/STM32F7xx_HAL_Driver/Src/stm32f7xx_hal_i2c.c ****       hi2c->hdmatx->XferCpltCallback = I2C_DMAMasterTransmitCplt;
 2394              		.loc 1 1426 0
 2395 00ae FB68     		ldr	r3, [r7, #12]
 2396 00b0 9B6B     		ldr	r3, [r3, #56]
 2397 00b2 2F4A     		ldr	r2, .L121+8
 2398 00b4 DA63     		str	r2, [r3, #60]
1427:Drivers/STM32F7xx_HAL_Driver/Src/stm32f7xx_hal_i2c.c **** 
1428:Drivers/STM32F7xx_HAL_Driver/Src/stm32f7xx_hal_i2c.c ****       /* Set the DMA error callback */
1429:Drivers/STM32F7xx_HAL_Driver/Src/stm32f7xx_hal_i2c.c ****       hi2c->hdmatx->XferErrorCallback = I2C_DMAError;
 2399              		.loc 1 1429 0
 2400 00b6 FB68     		ldr	r3, [r7, #12]
 2401 00b8 9B6B     		ldr	r3, [r3, #56]
 2402 00ba 2E4A     		ldr	r2, .L121+12
 2403 00bc DA64     		str	r2, [r3, #76]
1430:Drivers/STM32F7xx_HAL_Driver/Src/stm32f7xx_hal_i2c.c **** 
1431:Drivers/STM32F7xx_HAL_Driver/Src/stm32f7xx_hal_i2c.c ****       /* Set the unused DMA callbacks to NULL */
1432:Drivers/STM32F7xx_HAL_Driver/Src/stm32f7xx_hal_i2c.c ****       hi2c->hdmatx->XferHalfCpltCallback = NULL;
 2404              		.loc 1 1432 0
 2405 00be FB68     		ldr	r3, [r7, #12]
 2406 00c0 9B6B     		ldr	r3, [r3, #56]
 2407 00c2 0022     		movs	r2, #0
 2408 00c4 1A64     		str	r2, [r3, #64]
ARM GAS  /var/folders/n8/cvzdcwlj0vl4g_wtyz1ffy300000gn/T//ccBPNZvy.s 			page 68


1433:Drivers/STM32F7xx_HAL_Driver/Src/stm32f7xx_hal_i2c.c ****       hi2c->hdmatx->XferAbortCallback = NULL;
 2409              		.loc 1 1433 0
 2410 00c6 FB68     		ldr	r3, [r7, #12]
 2411 00c8 9B6B     		ldr	r3, [r3, #56]
 2412 00ca 0022     		movs	r2, #0
 2413 00cc 1A65     		str	r2, [r3, #80]
1434:Drivers/STM32F7xx_HAL_Driver/Src/stm32f7xx_hal_i2c.c **** 
1435:Drivers/STM32F7xx_HAL_Driver/Src/stm32f7xx_hal_i2c.c ****       /* Enable the DMA stream */
1436:Drivers/STM32F7xx_HAL_Driver/Src/stm32f7xx_hal_i2c.c ****       HAL_DMA_Start_IT(hi2c->hdmatx, (uint32_t)pData, (uint32_t)&hi2c->Instance->TXDR, hi2c->XferSi
 2414              		.loc 1 1436 0
 2415 00ce FB68     		ldr	r3, [r7, #12]
 2416 00d0 986B     		ldr	r0, [r3, #56]
 2417 00d2 7968     		ldr	r1, [r7, #4]
 2418 00d4 FB68     		ldr	r3, [r7, #12]
 2419 00d6 1B68     		ldr	r3, [r3]
 2420 00d8 2833     		adds	r3, r3, #40
 2421 00da 1A46     		mov	r2, r3
 2422 00dc FB68     		ldr	r3, [r7, #12]
 2423 00de 1B8D     		ldrh	r3, [r3, #40]
 2424 00e0 FFF7FEFF 		bl	HAL_DMA_Start_IT
1437:Drivers/STM32F7xx_HAL_Driver/Src/stm32f7xx_hal_i2c.c **** 
1438:Drivers/STM32F7xx_HAL_Driver/Src/stm32f7xx_hal_i2c.c ****       /* Send Slave Address */
1439:Drivers/STM32F7xx_HAL_Driver/Src/stm32f7xx_hal_i2c.c ****       /* Set NBYTES to write and reload if hi2c->XferCount > MAX_NBYTE_SIZE and generate RESTART */
1440:Drivers/STM32F7xx_HAL_Driver/Src/stm32f7xx_hal_i2c.c ****       I2C_TransferConfig(hi2c, DevAddress, hi2c->XferSize, xfermode, I2C_GENERATE_START_WRITE);
 2425              		.loc 1 1440 0
 2426 00e4 FB68     		ldr	r3, [r7, #12]
 2427 00e6 1B8D     		ldrh	r3, [r3, #40]
 2428 00e8 DAB2     		uxtb	r2, r3
 2429 00ea 7989     		ldrh	r1, [r7, #10]
 2430 00ec 224B     		ldr	r3, .L121+16
 2431 00ee 0093     		str	r3, [sp]
 2432 00f0 7B69     		ldr	r3, [r7, #20]
 2433 00f2 F868     		ldr	r0, [r7, #12]
 2434 00f4 FFF7FEFF 		bl	I2C_TransferConfig
1441:Drivers/STM32F7xx_HAL_Driver/Src/stm32f7xx_hal_i2c.c **** 
1442:Drivers/STM32F7xx_HAL_Driver/Src/stm32f7xx_hal_i2c.c ****       /* Update XferCount value */
1443:Drivers/STM32F7xx_HAL_Driver/Src/stm32f7xx_hal_i2c.c ****       hi2c->XferCount -= hi2c->XferSize;
 2435              		.loc 1 1443 0
 2436 00f8 FB68     		ldr	r3, [r7, #12]
 2437 00fa 5B8D     		ldrh	r3, [r3, #42]	@ movhi
 2438 00fc 9AB2     		uxth	r2, r3
 2439 00fe FB68     		ldr	r3, [r7, #12]
 2440 0100 1B8D     		ldrh	r3, [r3, #40]
 2441 0102 D31A     		subs	r3, r2, r3
 2442 0104 9AB2     		uxth	r2, r3
 2443 0106 FB68     		ldr	r3, [r7, #12]
 2444 0108 5A85     		strh	r2, [r3, #42]	@ movhi
1444:Drivers/STM32F7xx_HAL_Driver/Src/stm32f7xx_hal_i2c.c **** 
1445:Drivers/STM32F7xx_HAL_Driver/Src/stm32f7xx_hal_i2c.c ****       /* Process Unlocked */
1446:Drivers/STM32F7xx_HAL_Driver/Src/stm32f7xx_hal_i2c.c ****       __HAL_UNLOCK(hi2c);
 2445              		.loc 1 1446 0
 2446 010a FB68     		ldr	r3, [r7, #12]
 2447 010c 0022     		movs	r2, #0
 2448 010e 83F84020 		strb	r2, [r3, #64]
1447:Drivers/STM32F7xx_HAL_Driver/Src/stm32f7xx_hal_i2c.c **** 
1448:Drivers/STM32F7xx_HAL_Driver/Src/stm32f7xx_hal_i2c.c ****       /* Note : The I2C interrupts must be enabled after unlocking current process
1449:Drivers/STM32F7xx_HAL_Driver/Src/stm32f7xx_hal_i2c.c ****                 to avoid the risk of I2C interrupt handle execution before current
ARM GAS  /var/folders/n8/cvzdcwlj0vl4g_wtyz1ffy300000gn/T//ccBPNZvy.s 			page 69


1450:Drivers/STM32F7xx_HAL_Driver/Src/stm32f7xx_hal_i2c.c ****                 process unlock */
1451:Drivers/STM32F7xx_HAL_Driver/Src/stm32f7xx_hal_i2c.c ****       /* Enable ERR and NACK interrupts */
1452:Drivers/STM32F7xx_HAL_Driver/Src/stm32f7xx_hal_i2c.c ****       I2C_Enable_IRQ(hi2c, I2C_XFER_ERROR_IT);
 2449              		.loc 1 1452 0
 2450 0112 1121     		movs	r1, #17
 2451 0114 F868     		ldr	r0, [r7, #12]
 2452 0116 FFF7FEFF 		bl	I2C_Enable_IRQ
1453:Drivers/STM32F7xx_HAL_Driver/Src/stm32f7xx_hal_i2c.c **** 
1454:Drivers/STM32F7xx_HAL_Driver/Src/stm32f7xx_hal_i2c.c ****       /* Enable DMA Request */
1455:Drivers/STM32F7xx_HAL_Driver/Src/stm32f7xx_hal_i2c.c ****       hi2c->Instance->CR1 |= I2C_CR1_TXDMAEN;
 2453              		.loc 1 1455 0
 2454 011a FB68     		ldr	r3, [r7, #12]
 2455 011c 1B68     		ldr	r3, [r3]
 2456 011e 1A68     		ldr	r2, [r3]
 2457 0120 FB68     		ldr	r3, [r7, #12]
 2458 0122 1B68     		ldr	r3, [r3]
 2459 0124 42F48042 		orr	r2, r2, #16384
 2460 0128 1A60     		str	r2, [r3]
 2461 012a 15E0     		b	.L120
 2462              	.L119:
1456:Drivers/STM32F7xx_HAL_Driver/Src/stm32f7xx_hal_i2c.c ****     }
1457:Drivers/STM32F7xx_HAL_Driver/Src/stm32f7xx_hal_i2c.c ****     else
1458:Drivers/STM32F7xx_HAL_Driver/Src/stm32f7xx_hal_i2c.c ****     {
1459:Drivers/STM32F7xx_HAL_Driver/Src/stm32f7xx_hal_i2c.c ****       /* Update Transfer ISR function pointer */
1460:Drivers/STM32F7xx_HAL_Driver/Src/stm32f7xx_hal_i2c.c ****       hi2c->XferISR = I2C_Master_ISR_IT;
 2463              		.loc 1 1460 0
 2464 012c FB68     		ldr	r3, [r7, #12]
 2465 012e 134A     		ldr	r2, .L121+20
 2466 0130 5A63     		str	r2, [r3, #52]
1461:Drivers/STM32F7xx_HAL_Driver/Src/stm32f7xx_hal_i2c.c **** 
1462:Drivers/STM32F7xx_HAL_Driver/Src/stm32f7xx_hal_i2c.c ****       /* Send Slave Address */
1463:Drivers/STM32F7xx_HAL_Driver/Src/stm32f7xx_hal_i2c.c ****       /* Set NBYTES to write and generate START condition */
1464:Drivers/STM32F7xx_HAL_Driver/Src/stm32f7xx_hal_i2c.c ****       I2C_TransferConfig(hi2c, DevAddress, hi2c->XferSize, I2C_AUTOEND_MODE, I2C_GENERATE_START_WRI
 2467              		.loc 1 1464 0
 2468 0132 FB68     		ldr	r3, [r7, #12]
 2469 0134 1B8D     		ldrh	r3, [r3, #40]
 2470 0136 DAB2     		uxtb	r2, r3
 2471 0138 7989     		ldrh	r1, [r7, #10]
 2472 013a 0F4B     		ldr	r3, .L121+16
 2473 013c 0093     		str	r3, [sp]
 2474 013e 4FF00073 		mov	r3, #33554432
 2475 0142 F868     		ldr	r0, [r7, #12]
 2476 0144 FFF7FEFF 		bl	I2C_TransferConfig
1465:Drivers/STM32F7xx_HAL_Driver/Src/stm32f7xx_hal_i2c.c **** 
1466:Drivers/STM32F7xx_HAL_Driver/Src/stm32f7xx_hal_i2c.c ****       /* Process Unlocked */
1467:Drivers/STM32F7xx_HAL_Driver/Src/stm32f7xx_hal_i2c.c ****       __HAL_UNLOCK(hi2c);
 2477              		.loc 1 1467 0
 2478 0148 FB68     		ldr	r3, [r7, #12]
 2479 014a 0022     		movs	r2, #0
 2480 014c 83F84020 		strb	r2, [r3, #64]
1468:Drivers/STM32F7xx_HAL_Driver/Src/stm32f7xx_hal_i2c.c **** 
1469:Drivers/STM32F7xx_HAL_Driver/Src/stm32f7xx_hal_i2c.c ****       /* Note : The I2C interrupts must be enabled after unlocking current process
1470:Drivers/STM32F7xx_HAL_Driver/Src/stm32f7xx_hal_i2c.c ****                 to avoid the risk of I2C interrupt handle execution before current
1471:Drivers/STM32F7xx_HAL_Driver/Src/stm32f7xx_hal_i2c.c ****                 process unlock */
1472:Drivers/STM32F7xx_HAL_Driver/Src/stm32f7xx_hal_i2c.c ****       /* Enable ERR, TC, STOP, NACK, TXI interrupt */
1473:Drivers/STM32F7xx_HAL_Driver/Src/stm32f7xx_hal_i2c.c ****       /* possible to enable all of these */
1474:Drivers/STM32F7xx_HAL_Driver/Src/stm32f7xx_hal_i2c.c ****       /* I2C_IT_ERRI | I2C_IT_TCI| I2C_IT_STOPI| I2C_IT_NACKI | I2C_IT_ADDRI | I2C_IT_RXI | I2C_IT_
ARM GAS  /var/folders/n8/cvzdcwlj0vl4g_wtyz1ffy300000gn/T//ccBPNZvy.s 			page 70


1475:Drivers/STM32F7xx_HAL_Driver/Src/stm32f7xx_hal_i2c.c ****       I2C_Enable_IRQ(hi2c, I2C_XFER_TX_IT);
 2481              		.loc 1 1475 0
 2482 0150 0121     		movs	r1, #1
 2483 0152 F868     		ldr	r0, [r7, #12]
 2484 0154 FFF7FEFF 		bl	I2C_Enable_IRQ
 2485              	.L120:
1476:Drivers/STM32F7xx_HAL_Driver/Src/stm32f7xx_hal_i2c.c ****     }
1477:Drivers/STM32F7xx_HAL_Driver/Src/stm32f7xx_hal_i2c.c **** 
1478:Drivers/STM32F7xx_HAL_Driver/Src/stm32f7xx_hal_i2c.c ****     return HAL_OK;
 2486              		.loc 1 1478 0
 2487 0158 0023     		movs	r3, #0
 2488 015a 00E0     		b	.L115
 2489              	.L113:
1479:Drivers/STM32F7xx_HAL_Driver/Src/stm32f7xx_hal_i2c.c ****   }
1480:Drivers/STM32F7xx_HAL_Driver/Src/stm32f7xx_hal_i2c.c ****   else
1481:Drivers/STM32F7xx_HAL_Driver/Src/stm32f7xx_hal_i2c.c ****   {
1482:Drivers/STM32F7xx_HAL_Driver/Src/stm32f7xx_hal_i2c.c ****     return HAL_BUSY;
 2490              		.loc 1 1482 0
 2491 015c 0223     		movs	r3, #2
 2492              	.L115:
1483:Drivers/STM32F7xx_HAL_Driver/Src/stm32f7xx_hal_i2c.c ****   }
1484:Drivers/STM32F7xx_HAL_Driver/Src/stm32f7xx_hal_i2c.c **** }
 2493              		.loc 1 1484 0
 2494 015e 1846     		mov	r0, r3
 2495 0160 1837     		adds	r7, r7, #24
 2496              	.LCFI65:
 2497              		.cfi_def_cfa_offset 8
 2498 0162 BD46     		mov	sp, r7
 2499              	.LCFI66:
 2500              		.cfi_def_cfa_register 13
 2501              		@ sp needed
 2502 0164 80BD     		pop	{r7, pc}
 2503              	.L122:
 2504 0166 00BF     		.align	2
 2505              	.L121:
 2506 0168 0000FFFF 		.word	-65536
 2507 016c 00000000 		.word	I2C_Master_ISR_DMA
 2508 0170 00000000 		.word	I2C_DMAMasterTransmitCplt
 2509 0174 00000000 		.word	I2C_DMAError
 2510 0178 00200080 		.word	-2147475456
 2511 017c 00000000 		.word	I2C_Master_ISR_IT
 2512              		.cfi_endproc
 2513              	.LFE150:
 2515              		.section	.text.HAL_I2C_Master_Receive_DMA,"ax",%progbits
 2516              		.align	1
 2517              		.global	HAL_I2C_Master_Receive_DMA
 2518              		.syntax unified
 2519              		.thumb
 2520              		.thumb_func
 2521              		.fpu fpv5-sp-d16
 2523              	HAL_I2C_Master_Receive_DMA:
 2524              	.LFB151:
1485:Drivers/STM32F7xx_HAL_Driver/Src/stm32f7xx_hal_i2c.c **** 
1486:Drivers/STM32F7xx_HAL_Driver/Src/stm32f7xx_hal_i2c.c **** /**
1487:Drivers/STM32F7xx_HAL_Driver/Src/stm32f7xx_hal_i2c.c ****   * @brief  Receive in master mode an amount of data in non-blocking mode with DMA
1488:Drivers/STM32F7xx_HAL_Driver/Src/stm32f7xx_hal_i2c.c ****   * @param  hi2c Pointer to a I2C_HandleTypeDef structure that contains
1489:Drivers/STM32F7xx_HAL_Driver/Src/stm32f7xx_hal_i2c.c ****   *                the configuration information for the specified I2C.
ARM GAS  /var/folders/n8/cvzdcwlj0vl4g_wtyz1ffy300000gn/T//ccBPNZvy.s 			page 71


1490:Drivers/STM32F7xx_HAL_Driver/Src/stm32f7xx_hal_i2c.c ****   * @param  DevAddress Target device address which contain device 7 or 10 bits address value
1491:Drivers/STM32F7xx_HAL_Driver/Src/stm32f7xx_hal_i2c.c ****   *         in datasheet must be shifted to the left before calling the interface
1492:Drivers/STM32F7xx_HAL_Driver/Src/stm32f7xx_hal_i2c.c ****   * @param  pData Pointer to data buffer
1493:Drivers/STM32F7xx_HAL_Driver/Src/stm32f7xx_hal_i2c.c ****   * @param  Size Amount of data to be sent
1494:Drivers/STM32F7xx_HAL_Driver/Src/stm32f7xx_hal_i2c.c ****   * @retval HAL status
1495:Drivers/STM32F7xx_HAL_Driver/Src/stm32f7xx_hal_i2c.c ****   */
1496:Drivers/STM32F7xx_HAL_Driver/Src/stm32f7xx_hal_i2c.c **** HAL_StatusTypeDef HAL_I2C_Master_Receive_DMA(I2C_HandleTypeDef *hi2c, uint16_t DevAddress, uint8_t 
1497:Drivers/STM32F7xx_HAL_Driver/Src/stm32f7xx_hal_i2c.c **** {
 2525              		.loc 1 1497 0
 2526              		.cfi_startproc
 2527              		@ args = 0, pretend = 0, frame = 24
 2528              		@ frame_needed = 1, uses_anonymous_args = 0
 2529 0000 80B5     		push	{r7, lr}
 2530              	.LCFI67:
 2531              		.cfi_def_cfa_offset 8
 2532              		.cfi_offset 7, -8
 2533              		.cfi_offset 14, -4
 2534 0002 88B0     		sub	sp, sp, #32
 2535              	.LCFI68:
 2536              		.cfi_def_cfa_offset 40
 2537 0004 02AF     		add	r7, sp, #8
 2538              	.LCFI69:
 2539              		.cfi_def_cfa 7, 32
 2540 0006 F860     		str	r0, [r7, #12]
 2541 0008 7A60     		str	r2, [r7, #4]
 2542 000a 1A46     		mov	r2, r3
 2543 000c 0B46     		mov	r3, r1	@ movhi
 2544 000e 7B81     		strh	r3, [r7, #10]	@ movhi
 2545 0010 1346     		mov	r3, r2	@ movhi
 2546 0012 3B81     		strh	r3, [r7, #8]	@ movhi
1498:Drivers/STM32F7xx_HAL_Driver/Src/stm32f7xx_hal_i2c.c ****   uint32_t xfermode = 0U;
 2547              		.loc 1 1498 0
 2548 0014 0023     		movs	r3, #0
 2549 0016 7B61     		str	r3, [r7, #20]
1499:Drivers/STM32F7xx_HAL_Driver/Src/stm32f7xx_hal_i2c.c **** 
1500:Drivers/STM32F7xx_HAL_Driver/Src/stm32f7xx_hal_i2c.c ****   if (hi2c->State == HAL_I2C_STATE_READY)
 2550              		.loc 1 1500 0
 2551 0018 FB68     		ldr	r3, [r7, #12]
 2552 001a 93F84130 		ldrb	r3, [r3, #65]
 2553 001e DBB2     		uxtb	r3, r3
 2554 0020 202B     		cmp	r3, #32
 2555 0022 40F09B80 		bne	.L124
1501:Drivers/STM32F7xx_HAL_Driver/Src/stm32f7xx_hal_i2c.c ****   {
1502:Drivers/STM32F7xx_HAL_Driver/Src/stm32f7xx_hal_i2c.c ****     if (__HAL_I2C_GET_FLAG(hi2c, I2C_FLAG_BUSY) == SET)
 2556              		.loc 1 1502 0
 2557 0026 FB68     		ldr	r3, [r7, #12]
 2558 0028 1B68     		ldr	r3, [r3]
 2559 002a 9B69     		ldr	r3, [r3, #24]
 2560 002c 03F40043 		and	r3, r3, #32768
 2561 0030 B3F5004F 		cmp	r3, #32768
 2562 0034 01D1     		bne	.L125
1503:Drivers/STM32F7xx_HAL_Driver/Src/stm32f7xx_hal_i2c.c ****     {
1504:Drivers/STM32F7xx_HAL_Driver/Src/stm32f7xx_hal_i2c.c ****       return HAL_BUSY;
 2563              		.loc 1 1504 0
 2564 0036 0223     		movs	r3, #2
 2565 0038 91E0     		b	.L126
 2566              	.L125:
ARM GAS  /var/folders/n8/cvzdcwlj0vl4g_wtyz1ffy300000gn/T//ccBPNZvy.s 			page 72


1505:Drivers/STM32F7xx_HAL_Driver/Src/stm32f7xx_hal_i2c.c ****     }
1506:Drivers/STM32F7xx_HAL_Driver/Src/stm32f7xx_hal_i2c.c **** 
1507:Drivers/STM32F7xx_HAL_Driver/Src/stm32f7xx_hal_i2c.c ****     /* Process Locked */
1508:Drivers/STM32F7xx_HAL_Driver/Src/stm32f7xx_hal_i2c.c ****     __HAL_LOCK(hi2c);
 2567              		.loc 1 1508 0
 2568 003a FB68     		ldr	r3, [r7, #12]
 2569 003c 93F84030 		ldrb	r3, [r3, #64]	@ zero_extendqisi2
 2570 0040 012B     		cmp	r3, #1
 2571 0042 01D1     		bne	.L127
 2572              		.loc 1 1508 0 is_stmt 0 discriminator 1
 2573 0044 0223     		movs	r3, #2
 2574 0046 8AE0     		b	.L126
 2575              	.L127:
 2576              		.loc 1 1508 0 discriminator 2
 2577 0048 FB68     		ldr	r3, [r7, #12]
 2578 004a 0122     		movs	r2, #1
 2579 004c 83F84020 		strb	r2, [r3, #64]
1509:Drivers/STM32F7xx_HAL_Driver/Src/stm32f7xx_hal_i2c.c **** 
1510:Drivers/STM32F7xx_HAL_Driver/Src/stm32f7xx_hal_i2c.c ****     hi2c->State       = HAL_I2C_STATE_BUSY_RX;
 2580              		.loc 1 1510 0 is_stmt 1 discriminator 2
 2581 0050 FB68     		ldr	r3, [r7, #12]
 2582 0052 2222     		movs	r2, #34
 2583 0054 83F84120 		strb	r2, [r3, #65]
1511:Drivers/STM32F7xx_HAL_Driver/Src/stm32f7xx_hal_i2c.c ****     hi2c->Mode        = HAL_I2C_MODE_MASTER;
 2584              		.loc 1 1511 0 discriminator 2
 2585 0058 FB68     		ldr	r3, [r7, #12]
 2586 005a 1022     		movs	r2, #16
 2587 005c 83F84220 		strb	r2, [r3, #66]
1512:Drivers/STM32F7xx_HAL_Driver/Src/stm32f7xx_hal_i2c.c ****     hi2c->ErrorCode   = HAL_I2C_ERROR_NONE;
 2588              		.loc 1 1512 0 discriminator 2
 2589 0060 FB68     		ldr	r3, [r7, #12]
 2590 0062 0022     		movs	r2, #0
 2591 0064 5A64     		str	r2, [r3, #68]
1513:Drivers/STM32F7xx_HAL_Driver/Src/stm32f7xx_hal_i2c.c **** 
1514:Drivers/STM32F7xx_HAL_Driver/Src/stm32f7xx_hal_i2c.c ****     /* Prepare transfer parameters */
1515:Drivers/STM32F7xx_HAL_Driver/Src/stm32f7xx_hal_i2c.c ****     hi2c->pBuffPtr    = pData;
 2592              		.loc 1 1515 0 discriminator 2
 2593 0066 FB68     		ldr	r3, [r7, #12]
 2594 0068 7A68     		ldr	r2, [r7, #4]
 2595 006a 5A62     		str	r2, [r3, #36]
1516:Drivers/STM32F7xx_HAL_Driver/Src/stm32f7xx_hal_i2c.c ****     hi2c->XferCount   = Size;
 2596              		.loc 1 1516 0 discriminator 2
 2597 006c FB68     		ldr	r3, [r7, #12]
 2598 006e 3A89     		ldrh	r2, [r7, #8]	@ movhi
 2599 0070 5A85     		strh	r2, [r3, #42]	@ movhi
1517:Drivers/STM32F7xx_HAL_Driver/Src/stm32f7xx_hal_i2c.c ****     hi2c->XferOptions = I2C_NO_OPTION_FRAME;
 2600              		.loc 1 1517 0 discriminator 2
 2601 0072 FB68     		ldr	r3, [r7, #12]
 2602 0074 3C4A     		ldr	r2, .L132
 2603 0076 DA62     		str	r2, [r3, #44]
1518:Drivers/STM32F7xx_HAL_Driver/Src/stm32f7xx_hal_i2c.c ****     hi2c->XferISR     = I2C_Master_ISR_DMA;
 2604              		.loc 1 1518 0 discriminator 2
 2605 0078 FB68     		ldr	r3, [r7, #12]
 2606 007a 3C4A     		ldr	r2, .L132+4
 2607 007c 5A63     		str	r2, [r3, #52]
1519:Drivers/STM32F7xx_HAL_Driver/Src/stm32f7xx_hal_i2c.c **** 
1520:Drivers/STM32F7xx_HAL_Driver/Src/stm32f7xx_hal_i2c.c ****     if (hi2c->XferCount > MAX_NBYTE_SIZE)
ARM GAS  /var/folders/n8/cvzdcwlj0vl4g_wtyz1ffy300000gn/T//ccBPNZvy.s 			page 73


 2608              		.loc 1 1520 0 discriminator 2
 2609 007e FB68     		ldr	r3, [r7, #12]
 2610 0080 5B8D     		ldrh	r3, [r3, #42]	@ movhi
 2611 0082 9BB2     		uxth	r3, r3
 2612 0084 FF2B     		cmp	r3, #255
 2613 0086 06D9     		bls	.L128
1521:Drivers/STM32F7xx_HAL_Driver/Src/stm32f7xx_hal_i2c.c ****     {
1522:Drivers/STM32F7xx_HAL_Driver/Src/stm32f7xx_hal_i2c.c ****       hi2c->XferSize = MAX_NBYTE_SIZE;
 2614              		.loc 1 1522 0
 2615 0088 FB68     		ldr	r3, [r7, #12]
 2616 008a FF22     		movs	r2, #255
 2617 008c 1A85     		strh	r2, [r3, #40]	@ movhi
1523:Drivers/STM32F7xx_HAL_Driver/Src/stm32f7xx_hal_i2c.c ****       xfermode = I2C_RELOAD_MODE;
 2618              		.loc 1 1523 0
 2619 008e 4FF08073 		mov	r3, #16777216
 2620 0092 7B61     		str	r3, [r7, #20]
 2621 0094 07E0     		b	.L129
 2622              	.L128:
1524:Drivers/STM32F7xx_HAL_Driver/Src/stm32f7xx_hal_i2c.c ****     }
1525:Drivers/STM32F7xx_HAL_Driver/Src/stm32f7xx_hal_i2c.c ****     else
1526:Drivers/STM32F7xx_HAL_Driver/Src/stm32f7xx_hal_i2c.c ****     {
1527:Drivers/STM32F7xx_HAL_Driver/Src/stm32f7xx_hal_i2c.c ****       hi2c->XferSize = hi2c->XferCount;
 2623              		.loc 1 1527 0
 2624 0096 FB68     		ldr	r3, [r7, #12]
 2625 0098 5B8D     		ldrh	r3, [r3, #42]	@ movhi
 2626 009a 9AB2     		uxth	r2, r3
 2627 009c FB68     		ldr	r3, [r7, #12]
 2628 009e 1A85     		strh	r2, [r3, #40]	@ movhi
1528:Drivers/STM32F7xx_HAL_Driver/Src/stm32f7xx_hal_i2c.c ****       xfermode = I2C_AUTOEND_MODE;
 2629              		.loc 1 1528 0
 2630 00a0 4FF00073 		mov	r3, #33554432
 2631 00a4 7B61     		str	r3, [r7, #20]
 2632              	.L129:
1529:Drivers/STM32F7xx_HAL_Driver/Src/stm32f7xx_hal_i2c.c ****     }
1530:Drivers/STM32F7xx_HAL_Driver/Src/stm32f7xx_hal_i2c.c **** 
1531:Drivers/STM32F7xx_HAL_Driver/Src/stm32f7xx_hal_i2c.c ****     if (hi2c->XferSize > 0U)
 2633              		.loc 1 1531 0
 2634 00a6 FB68     		ldr	r3, [r7, #12]
 2635 00a8 1B8D     		ldrh	r3, [r3, #40]
 2636 00aa 002B     		cmp	r3, #0
 2637 00ac 3ED0     		beq	.L130
1532:Drivers/STM32F7xx_HAL_Driver/Src/stm32f7xx_hal_i2c.c ****     {
1533:Drivers/STM32F7xx_HAL_Driver/Src/stm32f7xx_hal_i2c.c ****       /* Set the I2C DMA transfer complete callback */
1534:Drivers/STM32F7xx_HAL_Driver/Src/stm32f7xx_hal_i2c.c ****       hi2c->hdmarx->XferCpltCallback = I2C_DMAMasterReceiveCplt;
 2638              		.loc 1 1534 0
 2639 00ae FB68     		ldr	r3, [r7, #12]
 2640 00b0 DB6B     		ldr	r3, [r3, #60]
 2641 00b2 2F4A     		ldr	r2, .L132+8
 2642 00b4 DA63     		str	r2, [r3, #60]
1535:Drivers/STM32F7xx_HAL_Driver/Src/stm32f7xx_hal_i2c.c **** 
1536:Drivers/STM32F7xx_HAL_Driver/Src/stm32f7xx_hal_i2c.c ****       /* Set the DMA error callback */
1537:Drivers/STM32F7xx_HAL_Driver/Src/stm32f7xx_hal_i2c.c ****       hi2c->hdmarx->XferErrorCallback = I2C_DMAError;
 2643              		.loc 1 1537 0
 2644 00b6 FB68     		ldr	r3, [r7, #12]
 2645 00b8 DB6B     		ldr	r3, [r3, #60]
 2646 00ba 2E4A     		ldr	r2, .L132+12
 2647 00bc DA64     		str	r2, [r3, #76]
ARM GAS  /var/folders/n8/cvzdcwlj0vl4g_wtyz1ffy300000gn/T//ccBPNZvy.s 			page 74


1538:Drivers/STM32F7xx_HAL_Driver/Src/stm32f7xx_hal_i2c.c **** 
1539:Drivers/STM32F7xx_HAL_Driver/Src/stm32f7xx_hal_i2c.c ****       /* Set the unused DMA callbacks to NULL */
1540:Drivers/STM32F7xx_HAL_Driver/Src/stm32f7xx_hal_i2c.c ****       hi2c->hdmarx->XferHalfCpltCallback = NULL;
 2648              		.loc 1 1540 0
 2649 00be FB68     		ldr	r3, [r7, #12]
 2650 00c0 DB6B     		ldr	r3, [r3, #60]
 2651 00c2 0022     		movs	r2, #0
 2652 00c4 1A64     		str	r2, [r3, #64]
1541:Drivers/STM32F7xx_HAL_Driver/Src/stm32f7xx_hal_i2c.c ****       hi2c->hdmarx->XferAbortCallback = NULL;
 2653              		.loc 1 1541 0
 2654 00c6 FB68     		ldr	r3, [r7, #12]
 2655 00c8 DB6B     		ldr	r3, [r3, #60]
 2656 00ca 0022     		movs	r2, #0
 2657 00cc 1A65     		str	r2, [r3, #80]
1542:Drivers/STM32F7xx_HAL_Driver/Src/stm32f7xx_hal_i2c.c **** 
1543:Drivers/STM32F7xx_HAL_Driver/Src/stm32f7xx_hal_i2c.c ****       /* Enable the DMA stream */
1544:Drivers/STM32F7xx_HAL_Driver/Src/stm32f7xx_hal_i2c.c ****       HAL_DMA_Start_IT(hi2c->hdmarx, (uint32_t)&hi2c->Instance->RXDR, (uint32_t)pData, hi2c->XferSi
 2658              		.loc 1 1544 0
 2659 00ce FB68     		ldr	r3, [r7, #12]
 2660 00d0 D86B     		ldr	r0, [r3, #60]
 2661 00d2 FB68     		ldr	r3, [r7, #12]
 2662 00d4 1B68     		ldr	r3, [r3]
 2663 00d6 2433     		adds	r3, r3, #36
 2664 00d8 1946     		mov	r1, r3
 2665 00da 7A68     		ldr	r2, [r7, #4]
 2666 00dc FB68     		ldr	r3, [r7, #12]
 2667 00de 1B8D     		ldrh	r3, [r3, #40]
 2668 00e0 FFF7FEFF 		bl	HAL_DMA_Start_IT
1545:Drivers/STM32F7xx_HAL_Driver/Src/stm32f7xx_hal_i2c.c **** 
1546:Drivers/STM32F7xx_HAL_Driver/Src/stm32f7xx_hal_i2c.c ****       /* Send Slave Address */
1547:Drivers/STM32F7xx_HAL_Driver/Src/stm32f7xx_hal_i2c.c ****       /* Set NBYTES to read and reload if hi2c->XferCount > MAX_NBYTE_SIZE and generate RESTART */
1548:Drivers/STM32F7xx_HAL_Driver/Src/stm32f7xx_hal_i2c.c ****       I2C_TransferConfig(hi2c, DevAddress, hi2c->XferSize, xfermode, I2C_GENERATE_START_READ);
 2669              		.loc 1 1548 0
 2670 00e4 FB68     		ldr	r3, [r7, #12]
 2671 00e6 1B8D     		ldrh	r3, [r3, #40]
 2672 00e8 DAB2     		uxtb	r2, r3
 2673 00ea 7989     		ldrh	r1, [r7, #10]
 2674 00ec 224B     		ldr	r3, .L132+16
 2675 00ee 0093     		str	r3, [sp]
 2676 00f0 7B69     		ldr	r3, [r7, #20]
 2677 00f2 F868     		ldr	r0, [r7, #12]
 2678 00f4 FFF7FEFF 		bl	I2C_TransferConfig
1549:Drivers/STM32F7xx_HAL_Driver/Src/stm32f7xx_hal_i2c.c **** 
1550:Drivers/STM32F7xx_HAL_Driver/Src/stm32f7xx_hal_i2c.c ****       /* Update XferCount value */
1551:Drivers/STM32F7xx_HAL_Driver/Src/stm32f7xx_hal_i2c.c ****       hi2c->XferCount -= hi2c->XferSize;
 2679              		.loc 1 1551 0
 2680 00f8 FB68     		ldr	r3, [r7, #12]
 2681 00fa 5B8D     		ldrh	r3, [r3, #42]	@ movhi
 2682 00fc 9AB2     		uxth	r2, r3
 2683 00fe FB68     		ldr	r3, [r7, #12]
 2684 0100 1B8D     		ldrh	r3, [r3, #40]
 2685 0102 D31A     		subs	r3, r2, r3
 2686 0104 9AB2     		uxth	r2, r3
 2687 0106 FB68     		ldr	r3, [r7, #12]
 2688 0108 5A85     		strh	r2, [r3, #42]	@ movhi
1552:Drivers/STM32F7xx_HAL_Driver/Src/stm32f7xx_hal_i2c.c **** 
1553:Drivers/STM32F7xx_HAL_Driver/Src/stm32f7xx_hal_i2c.c ****       /* Process Unlocked */
ARM GAS  /var/folders/n8/cvzdcwlj0vl4g_wtyz1ffy300000gn/T//ccBPNZvy.s 			page 75


1554:Drivers/STM32F7xx_HAL_Driver/Src/stm32f7xx_hal_i2c.c ****       __HAL_UNLOCK(hi2c);
 2689              		.loc 1 1554 0
 2690 010a FB68     		ldr	r3, [r7, #12]
 2691 010c 0022     		movs	r2, #0
 2692 010e 83F84020 		strb	r2, [r3, #64]
1555:Drivers/STM32F7xx_HAL_Driver/Src/stm32f7xx_hal_i2c.c **** 
1556:Drivers/STM32F7xx_HAL_Driver/Src/stm32f7xx_hal_i2c.c ****       /* Note : The I2C interrupts must be enabled after unlocking current process
1557:Drivers/STM32F7xx_HAL_Driver/Src/stm32f7xx_hal_i2c.c ****                 to avoid the risk of I2C interrupt handle execution before current
1558:Drivers/STM32F7xx_HAL_Driver/Src/stm32f7xx_hal_i2c.c ****                 process unlock */
1559:Drivers/STM32F7xx_HAL_Driver/Src/stm32f7xx_hal_i2c.c ****       /* Enable ERR and NACK interrupts */
1560:Drivers/STM32F7xx_HAL_Driver/Src/stm32f7xx_hal_i2c.c ****       I2C_Enable_IRQ(hi2c, I2C_XFER_ERROR_IT);
 2693              		.loc 1 1560 0
 2694 0112 1121     		movs	r1, #17
 2695 0114 F868     		ldr	r0, [r7, #12]
 2696 0116 FFF7FEFF 		bl	I2C_Enable_IRQ
1561:Drivers/STM32F7xx_HAL_Driver/Src/stm32f7xx_hal_i2c.c **** 
1562:Drivers/STM32F7xx_HAL_Driver/Src/stm32f7xx_hal_i2c.c ****       /* Enable DMA Request */
1563:Drivers/STM32F7xx_HAL_Driver/Src/stm32f7xx_hal_i2c.c ****       hi2c->Instance->CR1 |= I2C_CR1_RXDMAEN;
 2697              		.loc 1 1563 0
 2698 011a FB68     		ldr	r3, [r7, #12]
 2699 011c 1B68     		ldr	r3, [r3]
 2700 011e 1A68     		ldr	r2, [r3]
 2701 0120 FB68     		ldr	r3, [r7, #12]
 2702 0122 1B68     		ldr	r3, [r3]
 2703 0124 42F40042 		orr	r2, r2, #32768
 2704 0128 1A60     		str	r2, [r3]
 2705 012a 15E0     		b	.L131
 2706              	.L130:
1564:Drivers/STM32F7xx_HAL_Driver/Src/stm32f7xx_hal_i2c.c ****     }
1565:Drivers/STM32F7xx_HAL_Driver/Src/stm32f7xx_hal_i2c.c ****     else
1566:Drivers/STM32F7xx_HAL_Driver/Src/stm32f7xx_hal_i2c.c ****     {
1567:Drivers/STM32F7xx_HAL_Driver/Src/stm32f7xx_hal_i2c.c ****       /* Update Transfer ISR function pointer */
1568:Drivers/STM32F7xx_HAL_Driver/Src/stm32f7xx_hal_i2c.c ****       hi2c->XferISR = I2C_Master_ISR_IT;
 2707              		.loc 1 1568 0
 2708 012c FB68     		ldr	r3, [r7, #12]
 2709 012e 134A     		ldr	r2, .L132+20
 2710 0130 5A63     		str	r2, [r3, #52]
1569:Drivers/STM32F7xx_HAL_Driver/Src/stm32f7xx_hal_i2c.c **** 
1570:Drivers/STM32F7xx_HAL_Driver/Src/stm32f7xx_hal_i2c.c ****       /* Send Slave Address */
1571:Drivers/STM32F7xx_HAL_Driver/Src/stm32f7xx_hal_i2c.c ****       /* Set NBYTES to read and generate START condition */
1572:Drivers/STM32F7xx_HAL_Driver/Src/stm32f7xx_hal_i2c.c ****       I2C_TransferConfig(hi2c, DevAddress, hi2c->XferSize, I2C_AUTOEND_MODE, I2C_GENERATE_START_REA
 2711              		.loc 1 1572 0
 2712 0132 FB68     		ldr	r3, [r7, #12]
 2713 0134 1B8D     		ldrh	r3, [r3, #40]
 2714 0136 DAB2     		uxtb	r2, r3
 2715 0138 7989     		ldrh	r1, [r7, #10]
 2716 013a 0F4B     		ldr	r3, .L132+16
 2717 013c 0093     		str	r3, [sp]
 2718 013e 4FF00073 		mov	r3, #33554432
 2719 0142 F868     		ldr	r0, [r7, #12]
 2720 0144 FFF7FEFF 		bl	I2C_TransferConfig
1573:Drivers/STM32F7xx_HAL_Driver/Src/stm32f7xx_hal_i2c.c **** 
1574:Drivers/STM32F7xx_HAL_Driver/Src/stm32f7xx_hal_i2c.c ****       /* Process Unlocked */
1575:Drivers/STM32F7xx_HAL_Driver/Src/stm32f7xx_hal_i2c.c ****       __HAL_UNLOCK(hi2c);
 2721              		.loc 1 1575 0
 2722 0148 FB68     		ldr	r3, [r7, #12]
 2723 014a 0022     		movs	r2, #0
ARM GAS  /var/folders/n8/cvzdcwlj0vl4g_wtyz1ffy300000gn/T//ccBPNZvy.s 			page 76


 2724 014c 83F84020 		strb	r2, [r3, #64]
1576:Drivers/STM32F7xx_HAL_Driver/Src/stm32f7xx_hal_i2c.c **** 
1577:Drivers/STM32F7xx_HAL_Driver/Src/stm32f7xx_hal_i2c.c ****       /* Note : The I2C interrupts must be enabled after unlocking current process
1578:Drivers/STM32F7xx_HAL_Driver/Src/stm32f7xx_hal_i2c.c ****                 to avoid the risk of I2C interrupt handle execution before current
1579:Drivers/STM32F7xx_HAL_Driver/Src/stm32f7xx_hal_i2c.c ****                 process unlock */
1580:Drivers/STM32F7xx_HAL_Driver/Src/stm32f7xx_hal_i2c.c ****       /* Enable ERR, TC, STOP, NACK, TXI interrupt */
1581:Drivers/STM32F7xx_HAL_Driver/Src/stm32f7xx_hal_i2c.c ****       /* possible to enable all of these */
1582:Drivers/STM32F7xx_HAL_Driver/Src/stm32f7xx_hal_i2c.c ****       /* I2C_IT_ERRI | I2C_IT_TCI| I2C_IT_STOPI| I2C_IT_NACKI | I2C_IT_ADDRI | I2C_IT_RXI | I2C_IT_
1583:Drivers/STM32F7xx_HAL_Driver/Src/stm32f7xx_hal_i2c.c ****       I2C_Enable_IRQ(hi2c, I2C_XFER_TX_IT);
 2725              		.loc 1 1583 0
 2726 0150 0121     		movs	r1, #1
 2727 0152 F868     		ldr	r0, [r7, #12]
 2728 0154 FFF7FEFF 		bl	I2C_Enable_IRQ
 2729              	.L131:
1584:Drivers/STM32F7xx_HAL_Driver/Src/stm32f7xx_hal_i2c.c ****     }
1585:Drivers/STM32F7xx_HAL_Driver/Src/stm32f7xx_hal_i2c.c ****     return HAL_OK;
 2730              		.loc 1 1585 0
 2731 0158 0023     		movs	r3, #0
 2732 015a 00E0     		b	.L126
 2733              	.L124:
1586:Drivers/STM32F7xx_HAL_Driver/Src/stm32f7xx_hal_i2c.c ****   }
1587:Drivers/STM32F7xx_HAL_Driver/Src/stm32f7xx_hal_i2c.c ****   else
1588:Drivers/STM32F7xx_HAL_Driver/Src/stm32f7xx_hal_i2c.c ****   {
1589:Drivers/STM32F7xx_HAL_Driver/Src/stm32f7xx_hal_i2c.c ****     return HAL_BUSY;
 2734              		.loc 1 1589 0
 2735 015c 0223     		movs	r3, #2
 2736              	.L126:
1590:Drivers/STM32F7xx_HAL_Driver/Src/stm32f7xx_hal_i2c.c ****   }
1591:Drivers/STM32F7xx_HAL_Driver/Src/stm32f7xx_hal_i2c.c **** }
 2737              		.loc 1 1591 0
 2738 015e 1846     		mov	r0, r3
 2739 0160 1837     		adds	r7, r7, #24
 2740              	.LCFI70:
 2741              		.cfi_def_cfa_offset 8
 2742 0162 BD46     		mov	sp, r7
 2743              	.LCFI71:
 2744              		.cfi_def_cfa_register 13
 2745              		@ sp needed
 2746 0164 80BD     		pop	{r7, pc}
 2747              	.L133:
 2748 0166 00BF     		.align	2
 2749              	.L132:
 2750 0168 0000FFFF 		.word	-65536
 2751 016c 00000000 		.word	I2C_Master_ISR_DMA
 2752 0170 00000000 		.word	I2C_DMAMasterReceiveCplt
 2753 0174 00000000 		.word	I2C_DMAError
 2754 0178 00240080 		.word	-2147474432
 2755 017c 00000000 		.word	I2C_Master_ISR_IT
 2756              		.cfi_endproc
 2757              	.LFE151:
 2759              		.section	.text.HAL_I2C_Slave_Transmit_DMA,"ax",%progbits
 2760              		.align	1
 2761              		.global	HAL_I2C_Slave_Transmit_DMA
 2762              		.syntax unified
 2763              		.thumb
 2764              		.thumb_func
 2765              		.fpu fpv5-sp-d16
ARM GAS  /var/folders/n8/cvzdcwlj0vl4g_wtyz1ffy300000gn/T//ccBPNZvy.s 			page 77


 2767              	HAL_I2C_Slave_Transmit_DMA:
 2768              	.LFB152:
1592:Drivers/STM32F7xx_HAL_Driver/Src/stm32f7xx_hal_i2c.c **** 
1593:Drivers/STM32F7xx_HAL_Driver/Src/stm32f7xx_hal_i2c.c **** /**
1594:Drivers/STM32F7xx_HAL_Driver/Src/stm32f7xx_hal_i2c.c ****   * @brief  Transmit in slave mode an amount of data in non-blocking mode with DMA
1595:Drivers/STM32F7xx_HAL_Driver/Src/stm32f7xx_hal_i2c.c ****   * @param  hi2c Pointer to a I2C_HandleTypeDef structure that contains
1596:Drivers/STM32F7xx_HAL_Driver/Src/stm32f7xx_hal_i2c.c ****   *                the configuration information for the specified I2C.
1597:Drivers/STM32F7xx_HAL_Driver/Src/stm32f7xx_hal_i2c.c ****   * @param  pData Pointer to data buffer
1598:Drivers/STM32F7xx_HAL_Driver/Src/stm32f7xx_hal_i2c.c ****   * @param  Size Amount of data to be sent
1599:Drivers/STM32F7xx_HAL_Driver/Src/stm32f7xx_hal_i2c.c ****   * @retval HAL status
1600:Drivers/STM32F7xx_HAL_Driver/Src/stm32f7xx_hal_i2c.c ****   */
1601:Drivers/STM32F7xx_HAL_Driver/Src/stm32f7xx_hal_i2c.c **** HAL_StatusTypeDef HAL_I2C_Slave_Transmit_DMA(I2C_HandleTypeDef *hi2c, uint8_t *pData, uint16_t Size
1602:Drivers/STM32F7xx_HAL_Driver/Src/stm32f7xx_hal_i2c.c **** {
 2769              		.loc 1 1602 0
 2770              		.cfi_startproc
 2771              		@ args = 0, pretend = 0, frame = 16
 2772              		@ frame_needed = 1, uses_anonymous_args = 0
 2773 0000 80B5     		push	{r7, lr}
 2774              	.LCFI72:
 2775              		.cfi_def_cfa_offset 8
 2776              		.cfi_offset 7, -8
 2777              		.cfi_offset 14, -4
 2778 0002 84B0     		sub	sp, sp, #16
 2779              	.LCFI73:
 2780              		.cfi_def_cfa_offset 24
 2781 0004 00AF     		add	r7, sp, #0
 2782              	.LCFI74:
 2783              		.cfi_def_cfa_register 7
 2784 0006 F860     		str	r0, [r7, #12]
 2785 0008 B960     		str	r1, [r7, #8]
 2786 000a 1346     		mov	r3, r2
 2787 000c FB80     		strh	r3, [r7, #6]	@ movhi
1603:Drivers/STM32F7xx_HAL_Driver/Src/stm32f7xx_hal_i2c.c ****   if (hi2c->State == HAL_I2C_STATE_READY)
 2788              		.loc 1 1603 0
 2789 000e FB68     		ldr	r3, [r7, #12]
 2790 0010 93F84130 		ldrb	r3, [r3, #65]
 2791 0014 DBB2     		uxtb	r3, r3
 2792 0016 202B     		cmp	r3, #32
 2793 0018 63D1     		bne	.L135
1604:Drivers/STM32F7xx_HAL_Driver/Src/stm32f7xx_hal_i2c.c ****   {
1605:Drivers/STM32F7xx_HAL_Driver/Src/stm32f7xx_hal_i2c.c ****     if ((pData == NULL) || (Size == 0U))
 2794              		.loc 1 1605 0
 2795 001a BB68     		ldr	r3, [r7, #8]
 2796 001c 002B     		cmp	r3, #0
 2797 001e 02D0     		beq	.L136
 2798              		.loc 1 1605 0 is_stmt 0 discriminator 1
 2799 0020 FB88     		ldrh	r3, [r7, #6]
 2800 0022 002B     		cmp	r3, #0
 2801 0024 01D1     		bne	.L137
 2802              	.L136:
1606:Drivers/STM32F7xx_HAL_Driver/Src/stm32f7xx_hal_i2c.c ****     {
1607:Drivers/STM32F7xx_HAL_Driver/Src/stm32f7xx_hal_i2c.c ****       return  HAL_ERROR;
 2803              		.loc 1 1607 0 is_stmt 1
 2804 0026 0123     		movs	r3, #1
 2805 0028 5CE0     		b	.L138
 2806              	.L137:
1608:Drivers/STM32F7xx_HAL_Driver/Src/stm32f7xx_hal_i2c.c ****     }
ARM GAS  /var/folders/n8/cvzdcwlj0vl4g_wtyz1ffy300000gn/T//ccBPNZvy.s 			page 78


1609:Drivers/STM32F7xx_HAL_Driver/Src/stm32f7xx_hal_i2c.c ****     /* Process Locked */
1610:Drivers/STM32F7xx_HAL_Driver/Src/stm32f7xx_hal_i2c.c ****     __HAL_LOCK(hi2c);
 2807              		.loc 1 1610 0
 2808 002a FB68     		ldr	r3, [r7, #12]
 2809 002c 93F84030 		ldrb	r3, [r3, #64]	@ zero_extendqisi2
 2810 0030 012B     		cmp	r3, #1
 2811 0032 01D1     		bne	.L139
 2812              		.loc 1 1610 0 is_stmt 0 discriminator 1
 2813 0034 0223     		movs	r3, #2
 2814 0036 55E0     		b	.L138
 2815              	.L139:
 2816              		.loc 1 1610 0 discriminator 2
 2817 0038 FB68     		ldr	r3, [r7, #12]
 2818 003a 0122     		movs	r2, #1
 2819 003c 83F84020 		strb	r2, [r3, #64]
1611:Drivers/STM32F7xx_HAL_Driver/Src/stm32f7xx_hal_i2c.c **** 
1612:Drivers/STM32F7xx_HAL_Driver/Src/stm32f7xx_hal_i2c.c ****     hi2c->State       = HAL_I2C_STATE_BUSY_TX;
 2820              		.loc 1 1612 0 is_stmt 1 discriminator 2
 2821 0040 FB68     		ldr	r3, [r7, #12]
 2822 0042 2122     		movs	r2, #33
 2823 0044 83F84120 		strb	r2, [r3, #65]
1613:Drivers/STM32F7xx_HAL_Driver/Src/stm32f7xx_hal_i2c.c ****     hi2c->Mode        = HAL_I2C_MODE_SLAVE;
 2824              		.loc 1 1613 0 discriminator 2
 2825 0048 FB68     		ldr	r3, [r7, #12]
 2826 004a 2022     		movs	r2, #32
 2827 004c 83F84220 		strb	r2, [r3, #66]
1614:Drivers/STM32F7xx_HAL_Driver/Src/stm32f7xx_hal_i2c.c ****     hi2c->ErrorCode   = HAL_I2C_ERROR_NONE;
 2828              		.loc 1 1614 0 discriminator 2
 2829 0050 FB68     		ldr	r3, [r7, #12]
 2830 0052 0022     		movs	r2, #0
 2831 0054 5A64     		str	r2, [r3, #68]
1615:Drivers/STM32F7xx_HAL_Driver/Src/stm32f7xx_hal_i2c.c **** 
1616:Drivers/STM32F7xx_HAL_Driver/Src/stm32f7xx_hal_i2c.c ****     /* Prepare transfer parameters */
1617:Drivers/STM32F7xx_HAL_Driver/Src/stm32f7xx_hal_i2c.c ****     hi2c->pBuffPtr    = pData;
 2832              		.loc 1 1617 0 discriminator 2
 2833 0056 FB68     		ldr	r3, [r7, #12]
 2834 0058 BA68     		ldr	r2, [r7, #8]
 2835 005a 5A62     		str	r2, [r3, #36]
1618:Drivers/STM32F7xx_HAL_Driver/Src/stm32f7xx_hal_i2c.c ****     hi2c->XferCount   = Size;
 2836              		.loc 1 1618 0 discriminator 2
 2837 005c FB68     		ldr	r3, [r7, #12]
 2838 005e FA88     		ldrh	r2, [r7, #6]	@ movhi
 2839 0060 5A85     		strh	r2, [r3, #42]	@ movhi
1619:Drivers/STM32F7xx_HAL_Driver/Src/stm32f7xx_hal_i2c.c ****     hi2c->XferSize    = hi2c->XferCount;
 2840              		.loc 1 1619 0 discriminator 2
 2841 0062 FB68     		ldr	r3, [r7, #12]
 2842 0064 5B8D     		ldrh	r3, [r3, #42]	@ movhi
 2843 0066 9AB2     		uxth	r2, r3
 2844 0068 FB68     		ldr	r3, [r7, #12]
 2845 006a 1A85     		strh	r2, [r3, #40]	@ movhi
1620:Drivers/STM32F7xx_HAL_Driver/Src/stm32f7xx_hal_i2c.c ****     hi2c->XferOptions = I2C_NO_OPTION_FRAME;
 2846              		.loc 1 1620 0 discriminator 2
 2847 006c FB68     		ldr	r3, [r7, #12]
 2848 006e 1F4A     		ldr	r2, .L140
 2849 0070 DA62     		str	r2, [r3, #44]
1621:Drivers/STM32F7xx_HAL_Driver/Src/stm32f7xx_hal_i2c.c ****     hi2c->XferISR     = I2C_Slave_ISR_DMA;
 2850              		.loc 1 1621 0 discriminator 2
ARM GAS  /var/folders/n8/cvzdcwlj0vl4g_wtyz1ffy300000gn/T//ccBPNZvy.s 			page 79


 2851 0072 FB68     		ldr	r3, [r7, #12]
 2852 0074 1E4A     		ldr	r2, .L140+4
 2853 0076 5A63     		str	r2, [r3, #52]
1622:Drivers/STM32F7xx_HAL_Driver/Src/stm32f7xx_hal_i2c.c **** 
1623:Drivers/STM32F7xx_HAL_Driver/Src/stm32f7xx_hal_i2c.c ****     /* Set the I2C DMA transfer complete callback */
1624:Drivers/STM32F7xx_HAL_Driver/Src/stm32f7xx_hal_i2c.c ****     hi2c->hdmatx->XferCpltCallback = I2C_DMASlaveTransmitCplt;
 2854              		.loc 1 1624 0 discriminator 2
 2855 0078 FB68     		ldr	r3, [r7, #12]
 2856 007a 9B6B     		ldr	r3, [r3, #56]
 2857 007c 1D4A     		ldr	r2, .L140+8
 2858 007e DA63     		str	r2, [r3, #60]
1625:Drivers/STM32F7xx_HAL_Driver/Src/stm32f7xx_hal_i2c.c **** 
1626:Drivers/STM32F7xx_HAL_Driver/Src/stm32f7xx_hal_i2c.c ****     /* Set the DMA error callback */
1627:Drivers/STM32F7xx_HAL_Driver/Src/stm32f7xx_hal_i2c.c ****     hi2c->hdmatx->XferErrorCallback = I2C_DMAError;
 2859              		.loc 1 1627 0 discriminator 2
 2860 0080 FB68     		ldr	r3, [r7, #12]
 2861 0082 9B6B     		ldr	r3, [r3, #56]
 2862 0084 1C4A     		ldr	r2, .L140+12
 2863 0086 DA64     		str	r2, [r3, #76]
1628:Drivers/STM32F7xx_HAL_Driver/Src/stm32f7xx_hal_i2c.c **** 
1629:Drivers/STM32F7xx_HAL_Driver/Src/stm32f7xx_hal_i2c.c ****     /* Set the unused DMA callbacks to NULL */
1630:Drivers/STM32F7xx_HAL_Driver/Src/stm32f7xx_hal_i2c.c ****     hi2c->hdmatx->XferHalfCpltCallback = NULL;
 2864              		.loc 1 1630 0 discriminator 2
 2865 0088 FB68     		ldr	r3, [r7, #12]
 2866 008a 9B6B     		ldr	r3, [r3, #56]
 2867 008c 0022     		movs	r2, #0
 2868 008e 1A64     		str	r2, [r3, #64]
1631:Drivers/STM32F7xx_HAL_Driver/Src/stm32f7xx_hal_i2c.c ****     hi2c->hdmatx->XferAbortCallback = NULL;
 2869              		.loc 1 1631 0 discriminator 2
 2870 0090 FB68     		ldr	r3, [r7, #12]
 2871 0092 9B6B     		ldr	r3, [r3, #56]
 2872 0094 0022     		movs	r2, #0
 2873 0096 1A65     		str	r2, [r3, #80]
1632:Drivers/STM32F7xx_HAL_Driver/Src/stm32f7xx_hal_i2c.c **** 
1633:Drivers/STM32F7xx_HAL_Driver/Src/stm32f7xx_hal_i2c.c ****     /* Enable the DMA stream */
1634:Drivers/STM32F7xx_HAL_Driver/Src/stm32f7xx_hal_i2c.c ****     HAL_DMA_Start_IT(hi2c->hdmatx, (uint32_t)pData, (uint32_t)&hi2c->Instance->TXDR, hi2c->XferSize
 2874              		.loc 1 1634 0 discriminator 2
 2875 0098 FB68     		ldr	r3, [r7, #12]
 2876 009a 986B     		ldr	r0, [r3, #56]
 2877 009c B968     		ldr	r1, [r7, #8]
 2878 009e FB68     		ldr	r3, [r7, #12]
 2879 00a0 1B68     		ldr	r3, [r3]
 2880 00a2 2833     		adds	r3, r3, #40
 2881 00a4 1A46     		mov	r2, r3
 2882 00a6 FB68     		ldr	r3, [r7, #12]
 2883 00a8 1B8D     		ldrh	r3, [r3, #40]
 2884 00aa FFF7FEFF 		bl	HAL_DMA_Start_IT
1635:Drivers/STM32F7xx_HAL_Driver/Src/stm32f7xx_hal_i2c.c **** 
1636:Drivers/STM32F7xx_HAL_Driver/Src/stm32f7xx_hal_i2c.c ****     /* Enable Address Acknowledge */
1637:Drivers/STM32F7xx_HAL_Driver/Src/stm32f7xx_hal_i2c.c ****     hi2c->Instance->CR2 &= ~I2C_CR2_NACK;
 2885              		.loc 1 1637 0 discriminator 2
 2886 00ae FB68     		ldr	r3, [r7, #12]
 2887 00b0 1B68     		ldr	r3, [r3]
 2888 00b2 5A68     		ldr	r2, [r3, #4]
 2889 00b4 FB68     		ldr	r3, [r7, #12]
 2890 00b6 1B68     		ldr	r3, [r3]
 2891 00b8 22F40042 		bic	r2, r2, #32768
ARM GAS  /var/folders/n8/cvzdcwlj0vl4g_wtyz1ffy300000gn/T//ccBPNZvy.s 			page 80


 2892 00bc 5A60     		str	r2, [r3, #4]
1638:Drivers/STM32F7xx_HAL_Driver/Src/stm32f7xx_hal_i2c.c **** 
1639:Drivers/STM32F7xx_HAL_Driver/Src/stm32f7xx_hal_i2c.c ****     /* Process Unlocked */
1640:Drivers/STM32F7xx_HAL_Driver/Src/stm32f7xx_hal_i2c.c ****     __HAL_UNLOCK(hi2c);
 2893              		.loc 1 1640 0 discriminator 2
 2894 00be FB68     		ldr	r3, [r7, #12]
 2895 00c0 0022     		movs	r2, #0
 2896 00c2 83F84020 		strb	r2, [r3, #64]
1641:Drivers/STM32F7xx_HAL_Driver/Src/stm32f7xx_hal_i2c.c **** 
1642:Drivers/STM32F7xx_HAL_Driver/Src/stm32f7xx_hal_i2c.c ****     /* Note : The I2C interrupts must be enabled after unlocking current process
1643:Drivers/STM32F7xx_HAL_Driver/Src/stm32f7xx_hal_i2c.c ****               to avoid the risk of I2C interrupt handle execution before current
1644:Drivers/STM32F7xx_HAL_Driver/Src/stm32f7xx_hal_i2c.c ****               process unlock */
1645:Drivers/STM32F7xx_HAL_Driver/Src/stm32f7xx_hal_i2c.c ****     /* Enable ERR, STOP, NACK, ADDR interrupts */
1646:Drivers/STM32F7xx_HAL_Driver/Src/stm32f7xx_hal_i2c.c ****     I2C_Enable_IRQ(hi2c, I2C_XFER_LISTEN_IT);
 2897              		.loc 1 1646 0 discriminator 2
 2898 00c6 0421     		movs	r1, #4
 2899 00c8 F868     		ldr	r0, [r7, #12]
 2900 00ca FFF7FEFF 		bl	I2C_Enable_IRQ
1647:Drivers/STM32F7xx_HAL_Driver/Src/stm32f7xx_hal_i2c.c **** 
1648:Drivers/STM32F7xx_HAL_Driver/Src/stm32f7xx_hal_i2c.c ****     /* Enable DMA Request */
1649:Drivers/STM32F7xx_HAL_Driver/Src/stm32f7xx_hal_i2c.c ****     hi2c->Instance->CR1 |= I2C_CR1_TXDMAEN;
 2901              		.loc 1 1649 0 discriminator 2
 2902 00ce FB68     		ldr	r3, [r7, #12]
 2903 00d0 1B68     		ldr	r3, [r3]
 2904 00d2 1A68     		ldr	r2, [r3]
 2905 00d4 FB68     		ldr	r3, [r7, #12]
 2906 00d6 1B68     		ldr	r3, [r3]
 2907 00d8 42F48042 		orr	r2, r2, #16384
 2908 00dc 1A60     		str	r2, [r3]
1650:Drivers/STM32F7xx_HAL_Driver/Src/stm32f7xx_hal_i2c.c **** 
1651:Drivers/STM32F7xx_HAL_Driver/Src/stm32f7xx_hal_i2c.c ****     return HAL_OK;
 2909              		.loc 1 1651 0 discriminator 2
 2910 00de 0023     		movs	r3, #0
 2911 00e0 00E0     		b	.L138
 2912              	.L135:
1652:Drivers/STM32F7xx_HAL_Driver/Src/stm32f7xx_hal_i2c.c ****   }
1653:Drivers/STM32F7xx_HAL_Driver/Src/stm32f7xx_hal_i2c.c ****   else
1654:Drivers/STM32F7xx_HAL_Driver/Src/stm32f7xx_hal_i2c.c ****   {
1655:Drivers/STM32F7xx_HAL_Driver/Src/stm32f7xx_hal_i2c.c ****     return HAL_BUSY;
 2913              		.loc 1 1655 0
 2914 00e2 0223     		movs	r3, #2
 2915              	.L138:
1656:Drivers/STM32F7xx_HAL_Driver/Src/stm32f7xx_hal_i2c.c ****   }
1657:Drivers/STM32F7xx_HAL_Driver/Src/stm32f7xx_hal_i2c.c **** }
 2916              		.loc 1 1657 0
 2917 00e4 1846     		mov	r0, r3
 2918 00e6 1037     		adds	r7, r7, #16
 2919              	.LCFI75:
 2920              		.cfi_def_cfa_offset 8
 2921 00e8 BD46     		mov	sp, r7
 2922              	.LCFI76:
 2923              		.cfi_def_cfa_register 13
 2924              		@ sp needed
 2925 00ea 80BD     		pop	{r7, pc}
 2926              	.L141:
 2927              		.align	2
 2928              	.L140:
ARM GAS  /var/folders/n8/cvzdcwlj0vl4g_wtyz1ffy300000gn/T//ccBPNZvy.s 			page 81


 2929 00ec 0000FFFF 		.word	-65536
 2930 00f0 00000000 		.word	I2C_Slave_ISR_DMA
 2931 00f4 00000000 		.word	I2C_DMASlaveTransmitCplt
 2932 00f8 00000000 		.word	I2C_DMAError
 2933              		.cfi_endproc
 2934              	.LFE152:
 2936              		.section	.text.HAL_I2C_Slave_Receive_DMA,"ax",%progbits
 2937              		.align	1
 2938              		.global	HAL_I2C_Slave_Receive_DMA
 2939              		.syntax unified
 2940              		.thumb
 2941              		.thumb_func
 2942              		.fpu fpv5-sp-d16
 2944              	HAL_I2C_Slave_Receive_DMA:
 2945              	.LFB153:
1658:Drivers/STM32F7xx_HAL_Driver/Src/stm32f7xx_hal_i2c.c **** 
1659:Drivers/STM32F7xx_HAL_Driver/Src/stm32f7xx_hal_i2c.c **** /**
1660:Drivers/STM32F7xx_HAL_Driver/Src/stm32f7xx_hal_i2c.c ****   * @brief  Receive in slave mode an amount of data in non-blocking mode with DMA
1661:Drivers/STM32F7xx_HAL_Driver/Src/stm32f7xx_hal_i2c.c ****   * @param  hi2c Pointer to a I2C_HandleTypeDef structure that contains
1662:Drivers/STM32F7xx_HAL_Driver/Src/stm32f7xx_hal_i2c.c ****   *                the configuration information for the specified I2C.
1663:Drivers/STM32F7xx_HAL_Driver/Src/stm32f7xx_hal_i2c.c ****   * @param  pData Pointer to data buffer
1664:Drivers/STM32F7xx_HAL_Driver/Src/stm32f7xx_hal_i2c.c ****   * @param  Size Amount of data to be sent
1665:Drivers/STM32F7xx_HAL_Driver/Src/stm32f7xx_hal_i2c.c ****   * @retval HAL status
1666:Drivers/STM32F7xx_HAL_Driver/Src/stm32f7xx_hal_i2c.c ****   */
1667:Drivers/STM32F7xx_HAL_Driver/Src/stm32f7xx_hal_i2c.c **** HAL_StatusTypeDef HAL_I2C_Slave_Receive_DMA(I2C_HandleTypeDef *hi2c, uint8_t *pData, uint16_t Size)
1668:Drivers/STM32F7xx_HAL_Driver/Src/stm32f7xx_hal_i2c.c **** {
 2946              		.loc 1 1668 0
 2947              		.cfi_startproc
 2948              		@ args = 0, pretend = 0, frame = 16
 2949              		@ frame_needed = 1, uses_anonymous_args = 0
 2950 0000 80B5     		push	{r7, lr}
 2951              	.LCFI77:
 2952              		.cfi_def_cfa_offset 8
 2953              		.cfi_offset 7, -8
 2954              		.cfi_offset 14, -4
 2955 0002 84B0     		sub	sp, sp, #16
 2956              	.LCFI78:
 2957              		.cfi_def_cfa_offset 24
 2958 0004 00AF     		add	r7, sp, #0
 2959              	.LCFI79:
 2960              		.cfi_def_cfa_register 7
 2961 0006 F860     		str	r0, [r7, #12]
 2962 0008 B960     		str	r1, [r7, #8]
 2963 000a 1346     		mov	r3, r2
 2964 000c FB80     		strh	r3, [r7, #6]	@ movhi
1669:Drivers/STM32F7xx_HAL_Driver/Src/stm32f7xx_hal_i2c.c ****   if (hi2c->State == HAL_I2C_STATE_READY)
 2965              		.loc 1 1669 0
 2966 000e FB68     		ldr	r3, [r7, #12]
 2967 0010 93F84130 		ldrb	r3, [r3, #65]
 2968 0014 DBB2     		uxtb	r3, r3
 2969 0016 202B     		cmp	r3, #32
 2970 0018 63D1     		bne	.L143
1670:Drivers/STM32F7xx_HAL_Driver/Src/stm32f7xx_hal_i2c.c ****   {
1671:Drivers/STM32F7xx_HAL_Driver/Src/stm32f7xx_hal_i2c.c ****     if ((pData == NULL) || (Size == 0U))
 2971              		.loc 1 1671 0
 2972 001a BB68     		ldr	r3, [r7, #8]
 2973 001c 002B     		cmp	r3, #0
ARM GAS  /var/folders/n8/cvzdcwlj0vl4g_wtyz1ffy300000gn/T//ccBPNZvy.s 			page 82


 2974 001e 02D0     		beq	.L144
 2975              		.loc 1 1671 0 is_stmt 0 discriminator 1
 2976 0020 FB88     		ldrh	r3, [r7, #6]
 2977 0022 002B     		cmp	r3, #0
 2978 0024 01D1     		bne	.L145
 2979              	.L144:
1672:Drivers/STM32F7xx_HAL_Driver/Src/stm32f7xx_hal_i2c.c ****     {
1673:Drivers/STM32F7xx_HAL_Driver/Src/stm32f7xx_hal_i2c.c ****       return  HAL_ERROR;
 2980              		.loc 1 1673 0 is_stmt 1
 2981 0026 0123     		movs	r3, #1
 2982 0028 5CE0     		b	.L146
 2983              	.L145:
1674:Drivers/STM32F7xx_HAL_Driver/Src/stm32f7xx_hal_i2c.c ****     }
1675:Drivers/STM32F7xx_HAL_Driver/Src/stm32f7xx_hal_i2c.c ****     /* Process Locked */
1676:Drivers/STM32F7xx_HAL_Driver/Src/stm32f7xx_hal_i2c.c ****     __HAL_LOCK(hi2c);
 2984              		.loc 1 1676 0
 2985 002a FB68     		ldr	r3, [r7, #12]
 2986 002c 93F84030 		ldrb	r3, [r3, #64]	@ zero_extendqisi2
 2987 0030 012B     		cmp	r3, #1
 2988 0032 01D1     		bne	.L147
 2989              		.loc 1 1676 0 is_stmt 0 discriminator 1
 2990 0034 0223     		movs	r3, #2
 2991 0036 55E0     		b	.L146
 2992              	.L147:
 2993              		.loc 1 1676 0 discriminator 2
 2994 0038 FB68     		ldr	r3, [r7, #12]
 2995 003a 0122     		movs	r2, #1
 2996 003c 83F84020 		strb	r2, [r3, #64]
1677:Drivers/STM32F7xx_HAL_Driver/Src/stm32f7xx_hal_i2c.c **** 
1678:Drivers/STM32F7xx_HAL_Driver/Src/stm32f7xx_hal_i2c.c ****     hi2c->State       = HAL_I2C_STATE_BUSY_RX;
 2997              		.loc 1 1678 0 is_stmt 1 discriminator 2
 2998 0040 FB68     		ldr	r3, [r7, #12]
 2999 0042 2222     		movs	r2, #34
 3000 0044 83F84120 		strb	r2, [r3, #65]
1679:Drivers/STM32F7xx_HAL_Driver/Src/stm32f7xx_hal_i2c.c ****     hi2c->Mode        = HAL_I2C_MODE_SLAVE;
 3001              		.loc 1 1679 0 discriminator 2
 3002 0048 FB68     		ldr	r3, [r7, #12]
 3003 004a 2022     		movs	r2, #32
 3004 004c 83F84220 		strb	r2, [r3, #66]
1680:Drivers/STM32F7xx_HAL_Driver/Src/stm32f7xx_hal_i2c.c ****     hi2c->ErrorCode   = HAL_I2C_ERROR_NONE;
 3005              		.loc 1 1680 0 discriminator 2
 3006 0050 FB68     		ldr	r3, [r7, #12]
 3007 0052 0022     		movs	r2, #0
 3008 0054 5A64     		str	r2, [r3, #68]
1681:Drivers/STM32F7xx_HAL_Driver/Src/stm32f7xx_hal_i2c.c **** 
1682:Drivers/STM32F7xx_HAL_Driver/Src/stm32f7xx_hal_i2c.c ****     /* Prepare transfer parameters */
1683:Drivers/STM32F7xx_HAL_Driver/Src/stm32f7xx_hal_i2c.c ****     hi2c->pBuffPtr    = pData;
 3009              		.loc 1 1683 0 discriminator 2
 3010 0056 FB68     		ldr	r3, [r7, #12]
 3011 0058 BA68     		ldr	r2, [r7, #8]
 3012 005a 5A62     		str	r2, [r3, #36]
1684:Drivers/STM32F7xx_HAL_Driver/Src/stm32f7xx_hal_i2c.c ****     hi2c->XferCount   = Size;
 3013              		.loc 1 1684 0 discriminator 2
 3014 005c FB68     		ldr	r3, [r7, #12]
 3015 005e FA88     		ldrh	r2, [r7, #6]	@ movhi
 3016 0060 5A85     		strh	r2, [r3, #42]	@ movhi
1685:Drivers/STM32F7xx_HAL_Driver/Src/stm32f7xx_hal_i2c.c ****     hi2c->XferSize    = hi2c->XferCount;
ARM GAS  /var/folders/n8/cvzdcwlj0vl4g_wtyz1ffy300000gn/T//ccBPNZvy.s 			page 83


 3017              		.loc 1 1685 0 discriminator 2
 3018 0062 FB68     		ldr	r3, [r7, #12]
 3019 0064 5B8D     		ldrh	r3, [r3, #42]	@ movhi
 3020 0066 9AB2     		uxth	r2, r3
 3021 0068 FB68     		ldr	r3, [r7, #12]
 3022 006a 1A85     		strh	r2, [r3, #40]	@ movhi
1686:Drivers/STM32F7xx_HAL_Driver/Src/stm32f7xx_hal_i2c.c ****     hi2c->XferOptions = I2C_NO_OPTION_FRAME;
 3023              		.loc 1 1686 0 discriminator 2
 3024 006c FB68     		ldr	r3, [r7, #12]
 3025 006e 1F4A     		ldr	r2, .L148
 3026 0070 DA62     		str	r2, [r3, #44]
1687:Drivers/STM32F7xx_HAL_Driver/Src/stm32f7xx_hal_i2c.c ****     hi2c->XferISR     = I2C_Slave_ISR_DMA;
 3027              		.loc 1 1687 0 discriminator 2
 3028 0072 FB68     		ldr	r3, [r7, #12]
 3029 0074 1E4A     		ldr	r2, .L148+4
 3030 0076 5A63     		str	r2, [r3, #52]
1688:Drivers/STM32F7xx_HAL_Driver/Src/stm32f7xx_hal_i2c.c **** 
1689:Drivers/STM32F7xx_HAL_Driver/Src/stm32f7xx_hal_i2c.c ****     /* Set the I2C DMA transfer complete callback */
1690:Drivers/STM32F7xx_HAL_Driver/Src/stm32f7xx_hal_i2c.c ****     hi2c->hdmarx->XferCpltCallback = I2C_DMASlaveReceiveCplt;
 3031              		.loc 1 1690 0 discriminator 2
 3032 0078 FB68     		ldr	r3, [r7, #12]
 3033 007a DB6B     		ldr	r3, [r3, #60]
 3034 007c 1D4A     		ldr	r2, .L148+8
 3035 007e DA63     		str	r2, [r3, #60]
1691:Drivers/STM32F7xx_HAL_Driver/Src/stm32f7xx_hal_i2c.c **** 
1692:Drivers/STM32F7xx_HAL_Driver/Src/stm32f7xx_hal_i2c.c ****     /* Set the DMA error callback */
1693:Drivers/STM32F7xx_HAL_Driver/Src/stm32f7xx_hal_i2c.c ****     hi2c->hdmarx->XferErrorCallback = I2C_DMAError;
 3036              		.loc 1 1693 0 discriminator 2
 3037 0080 FB68     		ldr	r3, [r7, #12]
 3038 0082 DB6B     		ldr	r3, [r3, #60]
 3039 0084 1C4A     		ldr	r2, .L148+12
 3040 0086 DA64     		str	r2, [r3, #76]
1694:Drivers/STM32F7xx_HAL_Driver/Src/stm32f7xx_hal_i2c.c **** 
1695:Drivers/STM32F7xx_HAL_Driver/Src/stm32f7xx_hal_i2c.c ****     /* Set the unused DMA callbacks to NULL */
1696:Drivers/STM32F7xx_HAL_Driver/Src/stm32f7xx_hal_i2c.c ****     hi2c->hdmarx->XferHalfCpltCallback = NULL;
 3041              		.loc 1 1696 0 discriminator 2
 3042 0088 FB68     		ldr	r3, [r7, #12]
 3043 008a DB6B     		ldr	r3, [r3, #60]
 3044 008c 0022     		movs	r2, #0
 3045 008e 1A64     		str	r2, [r3, #64]
1697:Drivers/STM32F7xx_HAL_Driver/Src/stm32f7xx_hal_i2c.c ****     hi2c->hdmarx->XferAbortCallback = NULL;
 3046              		.loc 1 1697 0 discriminator 2
 3047 0090 FB68     		ldr	r3, [r7, #12]
 3048 0092 DB6B     		ldr	r3, [r3, #60]
 3049 0094 0022     		movs	r2, #0
 3050 0096 1A65     		str	r2, [r3, #80]
1698:Drivers/STM32F7xx_HAL_Driver/Src/stm32f7xx_hal_i2c.c **** 
1699:Drivers/STM32F7xx_HAL_Driver/Src/stm32f7xx_hal_i2c.c ****     /* Enable the DMA stream */
1700:Drivers/STM32F7xx_HAL_Driver/Src/stm32f7xx_hal_i2c.c ****     HAL_DMA_Start_IT(hi2c->hdmarx, (uint32_t)&hi2c->Instance->RXDR, (uint32_t)pData, hi2c->XferSize
 3051              		.loc 1 1700 0 discriminator 2
 3052 0098 FB68     		ldr	r3, [r7, #12]
 3053 009a D86B     		ldr	r0, [r3, #60]
 3054 009c FB68     		ldr	r3, [r7, #12]
 3055 009e 1B68     		ldr	r3, [r3]
 3056 00a0 2433     		adds	r3, r3, #36
 3057 00a2 1946     		mov	r1, r3
 3058 00a4 BA68     		ldr	r2, [r7, #8]
ARM GAS  /var/folders/n8/cvzdcwlj0vl4g_wtyz1ffy300000gn/T//ccBPNZvy.s 			page 84


 3059 00a6 FB68     		ldr	r3, [r7, #12]
 3060 00a8 1B8D     		ldrh	r3, [r3, #40]
 3061 00aa FFF7FEFF 		bl	HAL_DMA_Start_IT
1701:Drivers/STM32F7xx_HAL_Driver/Src/stm32f7xx_hal_i2c.c **** 
1702:Drivers/STM32F7xx_HAL_Driver/Src/stm32f7xx_hal_i2c.c ****     /* Enable Address Acknowledge */
1703:Drivers/STM32F7xx_HAL_Driver/Src/stm32f7xx_hal_i2c.c ****     hi2c->Instance->CR2 &= ~I2C_CR2_NACK;
 3062              		.loc 1 1703 0 discriminator 2
 3063 00ae FB68     		ldr	r3, [r7, #12]
 3064 00b0 1B68     		ldr	r3, [r3]
 3065 00b2 5A68     		ldr	r2, [r3, #4]
 3066 00b4 FB68     		ldr	r3, [r7, #12]
 3067 00b6 1B68     		ldr	r3, [r3]
 3068 00b8 22F40042 		bic	r2, r2, #32768
 3069 00bc 5A60     		str	r2, [r3, #4]
1704:Drivers/STM32F7xx_HAL_Driver/Src/stm32f7xx_hal_i2c.c **** 
1705:Drivers/STM32F7xx_HAL_Driver/Src/stm32f7xx_hal_i2c.c ****     /* Process Unlocked */
1706:Drivers/STM32F7xx_HAL_Driver/Src/stm32f7xx_hal_i2c.c ****     __HAL_UNLOCK(hi2c);
 3070              		.loc 1 1706 0 discriminator 2
 3071 00be FB68     		ldr	r3, [r7, #12]
 3072 00c0 0022     		movs	r2, #0
 3073 00c2 83F84020 		strb	r2, [r3, #64]
1707:Drivers/STM32F7xx_HAL_Driver/Src/stm32f7xx_hal_i2c.c **** 
1708:Drivers/STM32F7xx_HAL_Driver/Src/stm32f7xx_hal_i2c.c ****     /* Note : The I2C interrupts must be enabled after unlocking current process
1709:Drivers/STM32F7xx_HAL_Driver/Src/stm32f7xx_hal_i2c.c ****               to avoid the risk of I2C interrupt handle execution before current
1710:Drivers/STM32F7xx_HAL_Driver/Src/stm32f7xx_hal_i2c.c ****               process unlock */
1711:Drivers/STM32F7xx_HAL_Driver/Src/stm32f7xx_hal_i2c.c ****     /* Enable ERR, STOP, NACK, ADDR interrupts */
1712:Drivers/STM32F7xx_HAL_Driver/Src/stm32f7xx_hal_i2c.c ****     I2C_Enable_IRQ(hi2c, I2C_XFER_LISTEN_IT);
 3074              		.loc 1 1712 0 discriminator 2
 3075 00c6 0421     		movs	r1, #4
 3076 00c8 F868     		ldr	r0, [r7, #12]
 3077 00ca FFF7FEFF 		bl	I2C_Enable_IRQ
1713:Drivers/STM32F7xx_HAL_Driver/Src/stm32f7xx_hal_i2c.c **** 
1714:Drivers/STM32F7xx_HAL_Driver/Src/stm32f7xx_hal_i2c.c ****     /* Enable DMA Request */
1715:Drivers/STM32F7xx_HAL_Driver/Src/stm32f7xx_hal_i2c.c ****     hi2c->Instance->CR1 |= I2C_CR1_RXDMAEN;
 3078              		.loc 1 1715 0 discriminator 2
 3079 00ce FB68     		ldr	r3, [r7, #12]
 3080 00d0 1B68     		ldr	r3, [r3]
 3081 00d2 1A68     		ldr	r2, [r3]
 3082 00d4 FB68     		ldr	r3, [r7, #12]
 3083 00d6 1B68     		ldr	r3, [r3]
 3084 00d8 42F40042 		orr	r2, r2, #32768
 3085 00dc 1A60     		str	r2, [r3]
1716:Drivers/STM32F7xx_HAL_Driver/Src/stm32f7xx_hal_i2c.c **** 
1717:Drivers/STM32F7xx_HAL_Driver/Src/stm32f7xx_hal_i2c.c ****     return HAL_OK;
 3086              		.loc 1 1717 0 discriminator 2
 3087 00de 0023     		movs	r3, #0
 3088 00e0 00E0     		b	.L146
 3089              	.L143:
1718:Drivers/STM32F7xx_HAL_Driver/Src/stm32f7xx_hal_i2c.c ****   }
1719:Drivers/STM32F7xx_HAL_Driver/Src/stm32f7xx_hal_i2c.c ****   else
1720:Drivers/STM32F7xx_HAL_Driver/Src/stm32f7xx_hal_i2c.c ****   {
1721:Drivers/STM32F7xx_HAL_Driver/Src/stm32f7xx_hal_i2c.c ****     return HAL_BUSY;
 3090              		.loc 1 1721 0
 3091 00e2 0223     		movs	r3, #2
 3092              	.L146:
1722:Drivers/STM32F7xx_HAL_Driver/Src/stm32f7xx_hal_i2c.c ****   }
1723:Drivers/STM32F7xx_HAL_Driver/Src/stm32f7xx_hal_i2c.c **** }
ARM GAS  /var/folders/n8/cvzdcwlj0vl4g_wtyz1ffy300000gn/T//ccBPNZvy.s 			page 85


 3093              		.loc 1 1723 0
 3094 00e4 1846     		mov	r0, r3
 3095 00e6 1037     		adds	r7, r7, #16
 3096              	.LCFI80:
 3097              		.cfi_def_cfa_offset 8
 3098 00e8 BD46     		mov	sp, r7
 3099              	.LCFI81:
 3100              		.cfi_def_cfa_register 13
 3101              		@ sp needed
 3102 00ea 80BD     		pop	{r7, pc}
 3103              	.L149:
 3104              		.align	2
 3105              	.L148:
 3106 00ec 0000FFFF 		.word	-65536
 3107 00f0 00000000 		.word	I2C_Slave_ISR_DMA
 3108 00f4 00000000 		.word	I2C_DMASlaveReceiveCplt
 3109 00f8 00000000 		.word	I2C_DMAError
 3110              		.cfi_endproc
 3111              	.LFE153:
 3113              		.section	.text.HAL_I2C_Mem_Write,"ax",%progbits
 3114              		.align	1
 3115              		.global	HAL_I2C_Mem_Write
 3116              		.syntax unified
 3117              		.thumb
 3118              		.thumb_func
 3119              		.fpu fpv5-sp-d16
 3121              	HAL_I2C_Mem_Write:
 3122              	.LFB154:
1724:Drivers/STM32F7xx_HAL_Driver/Src/stm32f7xx_hal_i2c.c **** /**
1725:Drivers/STM32F7xx_HAL_Driver/Src/stm32f7xx_hal_i2c.c ****   * @brief  Write an amount of data in blocking mode to a specific memory address
1726:Drivers/STM32F7xx_HAL_Driver/Src/stm32f7xx_hal_i2c.c ****   * @param  hi2c Pointer to a I2C_HandleTypeDef structure that contains
1727:Drivers/STM32F7xx_HAL_Driver/Src/stm32f7xx_hal_i2c.c ****   *                the configuration information for the specified I2C.
1728:Drivers/STM32F7xx_HAL_Driver/Src/stm32f7xx_hal_i2c.c ****   * @param  DevAddress Target device address which contain device 7 or 10 bits address value
1729:Drivers/STM32F7xx_HAL_Driver/Src/stm32f7xx_hal_i2c.c ****   *         in datasheet must be shifted to the left before calling the interface
1730:Drivers/STM32F7xx_HAL_Driver/Src/stm32f7xx_hal_i2c.c ****   * @param  MemAddress Internal memory address
1731:Drivers/STM32F7xx_HAL_Driver/Src/stm32f7xx_hal_i2c.c ****   * @param  MemAddSize Size of internal memory address
1732:Drivers/STM32F7xx_HAL_Driver/Src/stm32f7xx_hal_i2c.c ****   * @param  pData Pointer to data buffer
1733:Drivers/STM32F7xx_HAL_Driver/Src/stm32f7xx_hal_i2c.c ****   * @param  Size Amount of data to be sent
1734:Drivers/STM32F7xx_HAL_Driver/Src/stm32f7xx_hal_i2c.c ****   * @param  Timeout Timeout duration
1735:Drivers/STM32F7xx_HAL_Driver/Src/stm32f7xx_hal_i2c.c ****   * @retval HAL status
1736:Drivers/STM32F7xx_HAL_Driver/Src/stm32f7xx_hal_i2c.c ****   */
1737:Drivers/STM32F7xx_HAL_Driver/Src/stm32f7xx_hal_i2c.c **** HAL_StatusTypeDef HAL_I2C_Mem_Write(I2C_HandleTypeDef *hi2c, uint16_t DevAddress, uint16_t MemAddre
1738:Drivers/STM32F7xx_HAL_Driver/Src/stm32f7xx_hal_i2c.c **** {
 3123              		.loc 1 1738 0
 3124              		.cfi_startproc
 3125              		@ args = 12, pretend = 0, frame = 24
 3126              		@ frame_needed = 1, uses_anonymous_args = 0
 3127 0000 80B5     		push	{r7, lr}
 3128              	.LCFI82:
 3129              		.cfi_def_cfa_offset 8
 3130              		.cfi_offset 7, -8
 3131              		.cfi_offset 14, -4
 3132 0002 88B0     		sub	sp, sp, #32
 3133              	.LCFI83:
 3134              		.cfi_def_cfa_offset 40
 3135 0004 02AF     		add	r7, sp, #8
 3136              	.LCFI84:
ARM GAS  /var/folders/n8/cvzdcwlj0vl4g_wtyz1ffy300000gn/T//ccBPNZvy.s 			page 86


 3137              		.cfi_def_cfa 7, 32
 3138 0006 F860     		str	r0, [r7, #12]
 3139 0008 0846     		mov	r0, r1
 3140 000a 1146     		mov	r1, r2
 3141 000c 1A46     		mov	r2, r3
 3142 000e 0346     		mov	r3, r0	@ movhi
 3143 0010 7B81     		strh	r3, [r7, #10]	@ movhi
 3144 0012 0B46     		mov	r3, r1	@ movhi
 3145 0014 3B81     		strh	r3, [r7, #8]	@ movhi
 3146 0016 1346     		mov	r3, r2	@ movhi
 3147 0018 FB80     		strh	r3, [r7, #6]	@ movhi
1739:Drivers/STM32F7xx_HAL_Driver/Src/stm32f7xx_hal_i2c.c ****   uint32_t tickstart = 0U;
 3148              		.loc 1 1739 0
 3149 001a 0023     		movs	r3, #0
 3150 001c 7B61     		str	r3, [r7, #20]
1740:Drivers/STM32F7xx_HAL_Driver/Src/stm32f7xx_hal_i2c.c **** 
1741:Drivers/STM32F7xx_HAL_Driver/Src/stm32f7xx_hal_i2c.c ****   /* Check the parameters */
1742:Drivers/STM32F7xx_HAL_Driver/Src/stm32f7xx_hal_i2c.c ****   assert_param(IS_I2C_MEMADD_SIZE(MemAddSize));
1743:Drivers/STM32F7xx_HAL_Driver/Src/stm32f7xx_hal_i2c.c **** 
1744:Drivers/STM32F7xx_HAL_Driver/Src/stm32f7xx_hal_i2c.c ****   if (hi2c->State == HAL_I2C_STATE_READY)
 3151              		.loc 1 1744 0
 3152 001e FB68     		ldr	r3, [r7, #12]
 3153 0020 93F84130 		ldrb	r3, [r3, #65]
 3154 0024 DBB2     		uxtb	r3, r3
 3155 0026 202B     		cmp	r3, #32
 3156 0028 40F00981 		bne	.L151
1745:Drivers/STM32F7xx_HAL_Driver/Src/stm32f7xx_hal_i2c.c ****   {
1746:Drivers/STM32F7xx_HAL_Driver/Src/stm32f7xx_hal_i2c.c ****     if ((pData == NULL) || (Size == 0U))
 3157              		.loc 1 1746 0
 3158 002c 3B6A     		ldr	r3, [r7, #32]
 3159 002e 002B     		cmp	r3, #0
 3160 0030 02D0     		beq	.L152
 3161              		.loc 1 1746 0 is_stmt 0 discriminator 1
 3162 0032 BB8C     		ldrh	r3, [r7, #36]
 3163 0034 002B     		cmp	r3, #0
 3164 0036 01D1     		bne	.L153
 3165              	.L152:
1747:Drivers/STM32F7xx_HAL_Driver/Src/stm32f7xx_hal_i2c.c ****     {
1748:Drivers/STM32F7xx_HAL_Driver/Src/stm32f7xx_hal_i2c.c ****       return  HAL_ERROR;
 3166              		.loc 1 1748 0 is_stmt 1
 3167 0038 0123     		movs	r3, #1
 3168 003a 01E1     		b	.L154
 3169              	.L153:
1749:Drivers/STM32F7xx_HAL_Driver/Src/stm32f7xx_hal_i2c.c ****     }
1750:Drivers/STM32F7xx_HAL_Driver/Src/stm32f7xx_hal_i2c.c **** 
1751:Drivers/STM32F7xx_HAL_Driver/Src/stm32f7xx_hal_i2c.c ****     /* Process Locked */
1752:Drivers/STM32F7xx_HAL_Driver/Src/stm32f7xx_hal_i2c.c ****     __HAL_LOCK(hi2c);
 3170              		.loc 1 1752 0
 3171 003c FB68     		ldr	r3, [r7, #12]
 3172 003e 93F84030 		ldrb	r3, [r3, #64]	@ zero_extendqisi2
 3173 0042 012B     		cmp	r3, #1
 3174 0044 01D1     		bne	.L155
 3175              		.loc 1 1752 0 is_stmt 0 discriminator 1
 3176 0046 0223     		movs	r3, #2
 3177 0048 FAE0     		b	.L154
 3178              	.L155:
 3179              		.loc 1 1752 0 discriminator 2
ARM GAS  /var/folders/n8/cvzdcwlj0vl4g_wtyz1ffy300000gn/T//ccBPNZvy.s 			page 87


 3180 004a FB68     		ldr	r3, [r7, #12]
 3181 004c 0122     		movs	r2, #1
 3182 004e 83F84020 		strb	r2, [r3, #64]
1753:Drivers/STM32F7xx_HAL_Driver/Src/stm32f7xx_hal_i2c.c **** 
1754:Drivers/STM32F7xx_HAL_Driver/Src/stm32f7xx_hal_i2c.c ****     /* Init tickstart for timeout management*/
1755:Drivers/STM32F7xx_HAL_Driver/Src/stm32f7xx_hal_i2c.c ****     tickstart = HAL_GetTick();
 3183              		.loc 1 1755 0 is_stmt 1 discriminator 2
 3184 0052 FFF7FEFF 		bl	HAL_GetTick
 3185 0056 7861     		str	r0, [r7, #20]
1756:Drivers/STM32F7xx_HAL_Driver/Src/stm32f7xx_hal_i2c.c **** 
1757:Drivers/STM32F7xx_HAL_Driver/Src/stm32f7xx_hal_i2c.c ****     if (I2C_WaitOnFlagUntilTimeout(hi2c, I2C_FLAG_BUSY, SET, I2C_TIMEOUT_BUSY, tickstart) != HAL_OK
 3186              		.loc 1 1757 0 discriminator 2
 3187 0058 7B69     		ldr	r3, [r7, #20]
 3188 005a 0093     		str	r3, [sp]
 3189 005c 1923     		movs	r3, #25
 3190 005e 0122     		movs	r2, #1
 3191 0060 4FF40041 		mov	r1, #32768
 3192 0064 F868     		ldr	r0, [r7, #12]
 3193 0066 FFF7FEFF 		bl	I2C_WaitOnFlagUntilTimeout
 3194 006a 0346     		mov	r3, r0
 3195 006c 002B     		cmp	r3, #0
 3196 006e 01D0     		beq	.L156
1758:Drivers/STM32F7xx_HAL_Driver/Src/stm32f7xx_hal_i2c.c ****     {
1759:Drivers/STM32F7xx_HAL_Driver/Src/stm32f7xx_hal_i2c.c ****       return HAL_TIMEOUT;
 3197              		.loc 1 1759 0
 3198 0070 0323     		movs	r3, #3
 3199 0072 E5E0     		b	.L154
 3200              	.L156:
1760:Drivers/STM32F7xx_HAL_Driver/Src/stm32f7xx_hal_i2c.c ****     }
1761:Drivers/STM32F7xx_HAL_Driver/Src/stm32f7xx_hal_i2c.c **** 
1762:Drivers/STM32F7xx_HAL_Driver/Src/stm32f7xx_hal_i2c.c ****     hi2c->State     = HAL_I2C_STATE_BUSY_TX;
 3201              		.loc 1 1762 0
 3202 0074 FB68     		ldr	r3, [r7, #12]
 3203 0076 2122     		movs	r2, #33
 3204 0078 83F84120 		strb	r2, [r3, #65]
1763:Drivers/STM32F7xx_HAL_Driver/Src/stm32f7xx_hal_i2c.c ****     hi2c->Mode      = HAL_I2C_MODE_MEM;
 3205              		.loc 1 1763 0
 3206 007c FB68     		ldr	r3, [r7, #12]
 3207 007e 4022     		movs	r2, #64
 3208 0080 83F84220 		strb	r2, [r3, #66]
1764:Drivers/STM32F7xx_HAL_Driver/Src/stm32f7xx_hal_i2c.c ****     hi2c->ErrorCode = HAL_I2C_ERROR_NONE;
 3209              		.loc 1 1764 0
 3210 0084 FB68     		ldr	r3, [r7, #12]
 3211 0086 0022     		movs	r2, #0
 3212 0088 5A64     		str	r2, [r3, #68]
1765:Drivers/STM32F7xx_HAL_Driver/Src/stm32f7xx_hal_i2c.c **** 
1766:Drivers/STM32F7xx_HAL_Driver/Src/stm32f7xx_hal_i2c.c ****     /* Prepare transfer parameters */
1767:Drivers/STM32F7xx_HAL_Driver/Src/stm32f7xx_hal_i2c.c ****     hi2c->pBuffPtr  = pData;
 3213              		.loc 1 1767 0
 3214 008a FB68     		ldr	r3, [r7, #12]
 3215 008c 3A6A     		ldr	r2, [r7, #32]
 3216 008e 5A62     		str	r2, [r3, #36]
1768:Drivers/STM32F7xx_HAL_Driver/Src/stm32f7xx_hal_i2c.c ****     hi2c->XferCount = Size;
 3217              		.loc 1 1768 0
 3218 0090 FB68     		ldr	r3, [r7, #12]
 3219 0092 BA8C     		ldrh	r2, [r7, #36]	@ movhi
 3220 0094 5A85     		strh	r2, [r3, #42]	@ movhi
ARM GAS  /var/folders/n8/cvzdcwlj0vl4g_wtyz1ffy300000gn/T//ccBPNZvy.s 			page 88


1769:Drivers/STM32F7xx_HAL_Driver/Src/stm32f7xx_hal_i2c.c ****     hi2c->XferISR   = NULL;
 3221              		.loc 1 1769 0
 3222 0096 FB68     		ldr	r3, [r7, #12]
 3223 0098 0022     		movs	r2, #0
 3224 009a 5A63     		str	r2, [r3, #52]
1770:Drivers/STM32F7xx_HAL_Driver/Src/stm32f7xx_hal_i2c.c **** 
1771:Drivers/STM32F7xx_HAL_Driver/Src/stm32f7xx_hal_i2c.c ****     /* Send Slave Address and Memory Address */
1772:Drivers/STM32F7xx_HAL_Driver/Src/stm32f7xx_hal_i2c.c ****     if (I2C_RequestMemoryWrite(hi2c, DevAddress, MemAddress, MemAddSize, Timeout, tickstart) != HAL
 3225              		.loc 1 1772 0
 3226 009c F888     		ldrh	r0, [r7, #6]
 3227 009e 3A89     		ldrh	r2, [r7, #8]
 3228 00a0 7989     		ldrh	r1, [r7, #10]
 3229 00a2 7B69     		ldr	r3, [r7, #20]
 3230 00a4 0193     		str	r3, [sp, #4]
 3231 00a6 BB6A     		ldr	r3, [r7, #40]
 3232 00a8 0093     		str	r3, [sp]
 3233 00aa 0346     		mov	r3, r0
 3234 00ac F868     		ldr	r0, [r7, #12]
 3235 00ae FFF7FEFF 		bl	I2C_RequestMemoryWrite
 3236 00b2 0346     		mov	r3, r0
 3237 00b4 002B     		cmp	r3, #0
 3238 00b6 0FD0     		beq	.L157
1773:Drivers/STM32F7xx_HAL_Driver/Src/stm32f7xx_hal_i2c.c ****     {
1774:Drivers/STM32F7xx_HAL_Driver/Src/stm32f7xx_hal_i2c.c ****       if (hi2c->ErrorCode == HAL_I2C_ERROR_AF)
 3239              		.loc 1 1774 0
 3240 00b8 FB68     		ldr	r3, [r7, #12]
 3241 00ba 5B6C     		ldr	r3, [r3, #68]
 3242 00bc 042B     		cmp	r3, #4
 3243 00be 05D1     		bne	.L158
1775:Drivers/STM32F7xx_HAL_Driver/Src/stm32f7xx_hal_i2c.c ****       {
1776:Drivers/STM32F7xx_HAL_Driver/Src/stm32f7xx_hal_i2c.c ****         /* Process Unlocked */
1777:Drivers/STM32F7xx_HAL_Driver/Src/stm32f7xx_hal_i2c.c ****         __HAL_UNLOCK(hi2c);
 3244              		.loc 1 1777 0
 3245 00c0 FB68     		ldr	r3, [r7, #12]
 3246 00c2 0022     		movs	r2, #0
 3247 00c4 83F84020 		strb	r2, [r3, #64]
1778:Drivers/STM32F7xx_HAL_Driver/Src/stm32f7xx_hal_i2c.c ****         return HAL_ERROR;
 3248              		.loc 1 1778 0
 3249 00c8 0123     		movs	r3, #1
 3250 00ca B9E0     		b	.L154
 3251              	.L158:
1779:Drivers/STM32F7xx_HAL_Driver/Src/stm32f7xx_hal_i2c.c ****       }
1780:Drivers/STM32F7xx_HAL_Driver/Src/stm32f7xx_hal_i2c.c ****       else
1781:Drivers/STM32F7xx_HAL_Driver/Src/stm32f7xx_hal_i2c.c ****       {
1782:Drivers/STM32F7xx_HAL_Driver/Src/stm32f7xx_hal_i2c.c ****         /* Process Unlocked */
1783:Drivers/STM32F7xx_HAL_Driver/Src/stm32f7xx_hal_i2c.c ****         __HAL_UNLOCK(hi2c);
 3252              		.loc 1 1783 0
 3253 00cc FB68     		ldr	r3, [r7, #12]
 3254 00ce 0022     		movs	r2, #0
 3255 00d0 83F84020 		strb	r2, [r3, #64]
1784:Drivers/STM32F7xx_HAL_Driver/Src/stm32f7xx_hal_i2c.c ****         return HAL_TIMEOUT;
 3256              		.loc 1 1784 0
 3257 00d4 0323     		movs	r3, #3
 3258 00d6 B3E0     		b	.L154
 3259              	.L157:
1785:Drivers/STM32F7xx_HAL_Driver/Src/stm32f7xx_hal_i2c.c ****       }
1786:Drivers/STM32F7xx_HAL_Driver/Src/stm32f7xx_hal_i2c.c ****     }
ARM GAS  /var/folders/n8/cvzdcwlj0vl4g_wtyz1ffy300000gn/T//ccBPNZvy.s 			page 89


1787:Drivers/STM32F7xx_HAL_Driver/Src/stm32f7xx_hal_i2c.c **** 
1788:Drivers/STM32F7xx_HAL_Driver/Src/stm32f7xx_hal_i2c.c ****     /* Set NBYTES to write and reload if hi2c->XferCount > MAX_NBYTE_SIZE */
1789:Drivers/STM32F7xx_HAL_Driver/Src/stm32f7xx_hal_i2c.c ****     if (hi2c->XferCount > MAX_NBYTE_SIZE)
 3260              		.loc 1 1789 0
 3261 00d8 FB68     		ldr	r3, [r7, #12]
 3262 00da 5B8D     		ldrh	r3, [r3, #42]	@ movhi
 3263 00dc 9BB2     		uxth	r3, r3
 3264 00de FF2B     		cmp	r3, #255
 3265 00e0 0ED9     		bls	.L159
1790:Drivers/STM32F7xx_HAL_Driver/Src/stm32f7xx_hal_i2c.c ****     {
1791:Drivers/STM32F7xx_HAL_Driver/Src/stm32f7xx_hal_i2c.c ****       hi2c->XferSize = MAX_NBYTE_SIZE;
 3266              		.loc 1 1791 0
 3267 00e2 FB68     		ldr	r3, [r7, #12]
 3268 00e4 FF22     		movs	r2, #255
 3269 00e6 1A85     		strh	r2, [r3, #40]	@ movhi
1792:Drivers/STM32F7xx_HAL_Driver/Src/stm32f7xx_hal_i2c.c ****       I2C_TransferConfig(hi2c, DevAddress, hi2c->XferSize, I2C_RELOAD_MODE, I2C_NO_STARTSTOP);
 3270              		.loc 1 1792 0
 3271 00e8 FB68     		ldr	r3, [r7, #12]
 3272 00ea 1B8D     		ldrh	r3, [r3, #40]
 3273 00ec DAB2     		uxtb	r2, r3
 3274 00ee 7989     		ldrh	r1, [r7, #10]
 3275 00f0 0023     		movs	r3, #0
 3276 00f2 0093     		str	r3, [sp]
 3277 00f4 4FF08073 		mov	r3, #16777216
 3278 00f8 F868     		ldr	r0, [r7, #12]
 3279 00fa FFF7FEFF 		bl	I2C_TransferConfig
 3280 00fe 0FE0     		b	.L166
 3281              	.L159:
1793:Drivers/STM32F7xx_HAL_Driver/Src/stm32f7xx_hal_i2c.c ****     }
1794:Drivers/STM32F7xx_HAL_Driver/Src/stm32f7xx_hal_i2c.c ****     else
1795:Drivers/STM32F7xx_HAL_Driver/Src/stm32f7xx_hal_i2c.c ****     {
1796:Drivers/STM32F7xx_HAL_Driver/Src/stm32f7xx_hal_i2c.c ****       hi2c->XferSize = hi2c->XferCount;
 3282              		.loc 1 1796 0
 3283 0100 FB68     		ldr	r3, [r7, #12]
 3284 0102 5B8D     		ldrh	r3, [r3, #42]	@ movhi
 3285 0104 9AB2     		uxth	r2, r3
 3286 0106 FB68     		ldr	r3, [r7, #12]
 3287 0108 1A85     		strh	r2, [r3, #40]	@ movhi
1797:Drivers/STM32F7xx_HAL_Driver/Src/stm32f7xx_hal_i2c.c ****       I2C_TransferConfig(hi2c, DevAddress, hi2c->XferSize, I2C_AUTOEND_MODE, I2C_NO_STARTSTOP);
 3288              		.loc 1 1797 0
 3289 010a FB68     		ldr	r3, [r7, #12]
 3290 010c 1B8D     		ldrh	r3, [r3, #40]
 3291 010e DAB2     		uxtb	r2, r3
 3292 0110 7989     		ldrh	r1, [r7, #10]
 3293 0112 0023     		movs	r3, #0
 3294 0114 0093     		str	r3, [sp]
 3295 0116 4FF00073 		mov	r3, #33554432
 3296 011a F868     		ldr	r0, [r7, #12]
 3297 011c FFF7FEFF 		bl	I2C_TransferConfig
 3298              	.L166:
1798:Drivers/STM32F7xx_HAL_Driver/Src/stm32f7xx_hal_i2c.c ****     }
1799:Drivers/STM32F7xx_HAL_Driver/Src/stm32f7xx_hal_i2c.c **** 
1800:Drivers/STM32F7xx_HAL_Driver/Src/stm32f7xx_hal_i2c.c ****     do
1801:Drivers/STM32F7xx_HAL_Driver/Src/stm32f7xx_hal_i2c.c ****     {
1802:Drivers/STM32F7xx_HAL_Driver/Src/stm32f7xx_hal_i2c.c ****       /* Wait until TXIS flag is set */
1803:Drivers/STM32F7xx_HAL_Driver/Src/stm32f7xx_hal_i2c.c ****       if (I2C_WaitOnTXISFlagUntilTimeout(hi2c, Timeout, tickstart) != HAL_OK)
 3299              		.loc 1 1803 0
ARM GAS  /var/folders/n8/cvzdcwlj0vl4g_wtyz1ffy300000gn/T//ccBPNZvy.s 			page 90


 3300 0120 7A69     		ldr	r2, [r7, #20]
 3301 0122 B96A     		ldr	r1, [r7, #40]
 3302 0124 F868     		ldr	r0, [r7, #12]
 3303 0126 FFF7FEFF 		bl	I2C_WaitOnTXISFlagUntilTimeout
 3304 012a 0346     		mov	r3, r0
 3305 012c 002B     		cmp	r3, #0
 3306 012e 07D0     		beq	.L161
1804:Drivers/STM32F7xx_HAL_Driver/Src/stm32f7xx_hal_i2c.c ****       {
1805:Drivers/STM32F7xx_HAL_Driver/Src/stm32f7xx_hal_i2c.c ****         if (hi2c->ErrorCode == HAL_I2C_ERROR_AF)
 3307              		.loc 1 1805 0
 3308 0130 FB68     		ldr	r3, [r7, #12]
 3309 0132 5B6C     		ldr	r3, [r3, #68]
 3310 0134 042B     		cmp	r3, #4
 3311 0136 01D1     		bne	.L162
1806:Drivers/STM32F7xx_HAL_Driver/Src/stm32f7xx_hal_i2c.c ****         {
1807:Drivers/STM32F7xx_HAL_Driver/Src/stm32f7xx_hal_i2c.c ****           return HAL_ERROR;
 3312              		.loc 1 1807 0
 3313 0138 0123     		movs	r3, #1
 3314 013a 81E0     		b	.L154
 3315              	.L162:
1808:Drivers/STM32F7xx_HAL_Driver/Src/stm32f7xx_hal_i2c.c ****         }
1809:Drivers/STM32F7xx_HAL_Driver/Src/stm32f7xx_hal_i2c.c ****         else
1810:Drivers/STM32F7xx_HAL_Driver/Src/stm32f7xx_hal_i2c.c ****         {
1811:Drivers/STM32F7xx_HAL_Driver/Src/stm32f7xx_hal_i2c.c ****           return HAL_TIMEOUT;
 3316              		.loc 1 1811 0
 3317 013c 0323     		movs	r3, #3
 3318 013e 7FE0     		b	.L154
 3319              	.L161:
1812:Drivers/STM32F7xx_HAL_Driver/Src/stm32f7xx_hal_i2c.c ****         }
1813:Drivers/STM32F7xx_HAL_Driver/Src/stm32f7xx_hal_i2c.c ****       }
1814:Drivers/STM32F7xx_HAL_Driver/Src/stm32f7xx_hal_i2c.c **** 
1815:Drivers/STM32F7xx_HAL_Driver/Src/stm32f7xx_hal_i2c.c ****       /* Write data to TXDR */
1816:Drivers/STM32F7xx_HAL_Driver/Src/stm32f7xx_hal_i2c.c ****       hi2c->Instance->TXDR = (*hi2c->pBuffPtr++);
 3320              		.loc 1 1816 0
 3321 0140 FB68     		ldr	r3, [r7, #12]
 3322 0142 5B6A     		ldr	r3, [r3, #36]
 3323 0144 591C     		adds	r1, r3, #1
 3324 0146 FA68     		ldr	r2, [r7, #12]
 3325 0148 5162     		str	r1, [r2, #36]
 3326 014a 1A78     		ldrb	r2, [r3]	@ zero_extendqisi2
 3327 014c FB68     		ldr	r3, [r7, #12]
 3328 014e 1B68     		ldr	r3, [r3]
 3329 0150 9A62     		str	r2, [r3, #40]
1817:Drivers/STM32F7xx_HAL_Driver/Src/stm32f7xx_hal_i2c.c ****       hi2c->XferCount--;
 3330              		.loc 1 1817 0
 3331 0152 FB68     		ldr	r3, [r7, #12]
 3332 0154 5B8D     		ldrh	r3, [r3, #42]	@ movhi
 3333 0156 9BB2     		uxth	r3, r3
 3334 0158 013B     		subs	r3, r3, #1
 3335 015a 9AB2     		uxth	r2, r3
 3336 015c FB68     		ldr	r3, [r7, #12]
 3337 015e 5A85     		strh	r2, [r3, #42]	@ movhi
1818:Drivers/STM32F7xx_HAL_Driver/Src/stm32f7xx_hal_i2c.c ****       hi2c->XferSize--;
 3338              		.loc 1 1818 0
 3339 0160 FB68     		ldr	r3, [r7, #12]
 3340 0162 1B8D     		ldrh	r3, [r3, #40]
 3341 0164 013B     		subs	r3, r3, #1
ARM GAS  /var/folders/n8/cvzdcwlj0vl4g_wtyz1ffy300000gn/T//ccBPNZvy.s 			page 91


 3342 0166 9AB2     		uxth	r2, r3
 3343 0168 FB68     		ldr	r3, [r7, #12]
 3344 016a 1A85     		strh	r2, [r3, #40]	@ movhi
1819:Drivers/STM32F7xx_HAL_Driver/Src/stm32f7xx_hal_i2c.c **** 
1820:Drivers/STM32F7xx_HAL_Driver/Src/stm32f7xx_hal_i2c.c ****       if ((hi2c->XferSize == 0U) && (hi2c->XferCount != 0U))
 3345              		.loc 1 1820 0
 3346 016c FB68     		ldr	r3, [r7, #12]
 3347 016e 1B8D     		ldrh	r3, [r3, #40]
 3348 0170 002B     		cmp	r3, #0
 3349 0172 35D1     		bne	.L163
 3350              		.loc 1 1820 0 is_stmt 0 discriminator 1
 3351 0174 FB68     		ldr	r3, [r7, #12]
 3352 0176 5B8D     		ldrh	r3, [r3, #42]	@ movhi
 3353 0178 9BB2     		uxth	r3, r3
 3354 017a 002B     		cmp	r3, #0
 3355 017c 30D0     		beq	.L163
1821:Drivers/STM32F7xx_HAL_Driver/Src/stm32f7xx_hal_i2c.c ****       {
1822:Drivers/STM32F7xx_HAL_Driver/Src/stm32f7xx_hal_i2c.c ****         /* Wait until TCR flag is set */
1823:Drivers/STM32F7xx_HAL_Driver/Src/stm32f7xx_hal_i2c.c ****         if (I2C_WaitOnFlagUntilTimeout(hi2c, I2C_FLAG_TCR, RESET, Timeout, tickstart) != HAL_OK)
 3356              		.loc 1 1823 0 is_stmt 1
 3357 017e 7B69     		ldr	r3, [r7, #20]
 3358 0180 0093     		str	r3, [sp]
 3359 0182 BB6A     		ldr	r3, [r7, #40]
 3360 0184 0022     		movs	r2, #0
 3361 0186 8021     		movs	r1, #128
 3362 0188 F868     		ldr	r0, [r7, #12]
 3363 018a FFF7FEFF 		bl	I2C_WaitOnFlagUntilTimeout
 3364 018e 0346     		mov	r3, r0
 3365 0190 002B     		cmp	r3, #0
 3366 0192 01D0     		beq	.L164
1824:Drivers/STM32F7xx_HAL_Driver/Src/stm32f7xx_hal_i2c.c ****         {
1825:Drivers/STM32F7xx_HAL_Driver/Src/stm32f7xx_hal_i2c.c ****           return HAL_TIMEOUT;
 3367              		.loc 1 1825 0
 3368 0194 0323     		movs	r3, #3
 3369 0196 53E0     		b	.L154
 3370              	.L164:
1826:Drivers/STM32F7xx_HAL_Driver/Src/stm32f7xx_hal_i2c.c ****         }
1827:Drivers/STM32F7xx_HAL_Driver/Src/stm32f7xx_hal_i2c.c **** 
1828:Drivers/STM32F7xx_HAL_Driver/Src/stm32f7xx_hal_i2c.c ****         if (hi2c->XferCount > MAX_NBYTE_SIZE)
 3371              		.loc 1 1828 0
 3372 0198 FB68     		ldr	r3, [r7, #12]
 3373 019a 5B8D     		ldrh	r3, [r3, #42]	@ movhi
 3374 019c 9BB2     		uxth	r3, r3
 3375 019e FF2B     		cmp	r3, #255
 3376 01a0 0ED9     		bls	.L165
1829:Drivers/STM32F7xx_HAL_Driver/Src/stm32f7xx_hal_i2c.c ****         {
1830:Drivers/STM32F7xx_HAL_Driver/Src/stm32f7xx_hal_i2c.c ****           hi2c->XferSize = MAX_NBYTE_SIZE;
 3377              		.loc 1 1830 0
 3378 01a2 FB68     		ldr	r3, [r7, #12]
 3379 01a4 FF22     		movs	r2, #255
 3380 01a6 1A85     		strh	r2, [r3, #40]	@ movhi
1831:Drivers/STM32F7xx_HAL_Driver/Src/stm32f7xx_hal_i2c.c ****           I2C_TransferConfig(hi2c, DevAddress, hi2c->XferSize, I2C_RELOAD_MODE, I2C_NO_STARTSTOP);
 3381              		.loc 1 1831 0
 3382 01a8 FB68     		ldr	r3, [r7, #12]
 3383 01aa 1B8D     		ldrh	r3, [r3, #40]
 3384 01ac DAB2     		uxtb	r2, r3
 3385 01ae 7989     		ldrh	r1, [r7, #10]
ARM GAS  /var/folders/n8/cvzdcwlj0vl4g_wtyz1ffy300000gn/T//ccBPNZvy.s 			page 92


 3386 01b0 0023     		movs	r3, #0
 3387 01b2 0093     		str	r3, [sp]
 3388 01b4 4FF08073 		mov	r3, #16777216
 3389 01b8 F868     		ldr	r0, [r7, #12]
 3390 01ba FFF7FEFF 		bl	I2C_TransferConfig
 3391 01be 0FE0     		b	.L163
 3392              	.L165:
1832:Drivers/STM32F7xx_HAL_Driver/Src/stm32f7xx_hal_i2c.c ****         }
1833:Drivers/STM32F7xx_HAL_Driver/Src/stm32f7xx_hal_i2c.c ****         else
1834:Drivers/STM32F7xx_HAL_Driver/Src/stm32f7xx_hal_i2c.c ****         {
1835:Drivers/STM32F7xx_HAL_Driver/Src/stm32f7xx_hal_i2c.c ****           hi2c->XferSize = hi2c->XferCount;
 3393              		.loc 1 1835 0
 3394 01c0 FB68     		ldr	r3, [r7, #12]
 3395 01c2 5B8D     		ldrh	r3, [r3, #42]	@ movhi
 3396 01c4 9AB2     		uxth	r2, r3
 3397 01c6 FB68     		ldr	r3, [r7, #12]
 3398 01c8 1A85     		strh	r2, [r3, #40]	@ movhi
1836:Drivers/STM32F7xx_HAL_Driver/Src/stm32f7xx_hal_i2c.c ****           I2C_TransferConfig(hi2c, DevAddress, hi2c->XferSize, I2C_AUTOEND_MODE, I2C_NO_STARTSTOP);
 3399              		.loc 1 1836 0
 3400 01ca FB68     		ldr	r3, [r7, #12]
 3401 01cc 1B8D     		ldrh	r3, [r3, #40]
 3402 01ce DAB2     		uxtb	r2, r3
 3403 01d0 7989     		ldrh	r1, [r7, #10]
 3404 01d2 0023     		movs	r3, #0
 3405 01d4 0093     		str	r3, [sp]
 3406 01d6 4FF00073 		mov	r3, #33554432
 3407 01da F868     		ldr	r0, [r7, #12]
 3408 01dc FFF7FEFF 		bl	I2C_TransferConfig
 3409              	.L163:
1837:Drivers/STM32F7xx_HAL_Driver/Src/stm32f7xx_hal_i2c.c ****         }
1838:Drivers/STM32F7xx_HAL_Driver/Src/stm32f7xx_hal_i2c.c ****       }
1839:Drivers/STM32F7xx_HAL_Driver/Src/stm32f7xx_hal_i2c.c **** 
1840:Drivers/STM32F7xx_HAL_Driver/Src/stm32f7xx_hal_i2c.c ****     }
1841:Drivers/STM32F7xx_HAL_Driver/Src/stm32f7xx_hal_i2c.c ****     while (hi2c->XferCount > 0U);
 3410              		.loc 1 1841 0
 3411 01e0 FB68     		ldr	r3, [r7, #12]
 3412 01e2 5B8D     		ldrh	r3, [r3, #42]	@ movhi
 3413 01e4 9BB2     		uxth	r3, r3
 3414 01e6 002B     		cmp	r3, #0
 3415 01e8 9AD1     		bne	.L166
1842:Drivers/STM32F7xx_HAL_Driver/Src/stm32f7xx_hal_i2c.c **** 
1843:Drivers/STM32F7xx_HAL_Driver/Src/stm32f7xx_hal_i2c.c ****     /* No need to Check TC flag, with AUTOEND mode the stop is automatically generated */
1844:Drivers/STM32F7xx_HAL_Driver/Src/stm32f7xx_hal_i2c.c ****     /* Wait until STOPF flag is reset */
1845:Drivers/STM32F7xx_HAL_Driver/Src/stm32f7xx_hal_i2c.c ****     if (I2C_WaitOnSTOPFlagUntilTimeout(hi2c, Timeout, tickstart) != HAL_OK)
 3416              		.loc 1 1845 0
 3417 01ea 7A69     		ldr	r2, [r7, #20]
 3418 01ec B96A     		ldr	r1, [r7, #40]
 3419 01ee F868     		ldr	r0, [r7, #12]
 3420 01f0 FFF7FEFF 		bl	I2C_WaitOnSTOPFlagUntilTimeout
 3421 01f4 0346     		mov	r3, r0
 3422 01f6 002B     		cmp	r3, #0
 3423 01f8 07D0     		beq	.L167
1846:Drivers/STM32F7xx_HAL_Driver/Src/stm32f7xx_hal_i2c.c ****     {
1847:Drivers/STM32F7xx_HAL_Driver/Src/stm32f7xx_hal_i2c.c ****       if (hi2c->ErrorCode == HAL_I2C_ERROR_AF)
 3424              		.loc 1 1847 0
 3425 01fa FB68     		ldr	r3, [r7, #12]
 3426 01fc 5B6C     		ldr	r3, [r3, #68]
ARM GAS  /var/folders/n8/cvzdcwlj0vl4g_wtyz1ffy300000gn/T//ccBPNZvy.s 			page 93


 3427 01fe 042B     		cmp	r3, #4
 3428 0200 01D1     		bne	.L168
1848:Drivers/STM32F7xx_HAL_Driver/Src/stm32f7xx_hal_i2c.c ****       {
1849:Drivers/STM32F7xx_HAL_Driver/Src/stm32f7xx_hal_i2c.c ****         return HAL_ERROR;
 3429              		.loc 1 1849 0
 3430 0202 0123     		movs	r3, #1
 3431 0204 1CE0     		b	.L154
 3432              	.L168:
1850:Drivers/STM32F7xx_HAL_Driver/Src/stm32f7xx_hal_i2c.c ****       }
1851:Drivers/STM32F7xx_HAL_Driver/Src/stm32f7xx_hal_i2c.c ****       else
1852:Drivers/STM32F7xx_HAL_Driver/Src/stm32f7xx_hal_i2c.c ****       {
1853:Drivers/STM32F7xx_HAL_Driver/Src/stm32f7xx_hal_i2c.c ****         return HAL_TIMEOUT;
 3433              		.loc 1 1853 0
 3434 0206 0323     		movs	r3, #3
 3435 0208 1AE0     		b	.L154
 3436              	.L167:
1854:Drivers/STM32F7xx_HAL_Driver/Src/stm32f7xx_hal_i2c.c ****       }
1855:Drivers/STM32F7xx_HAL_Driver/Src/stm32f7xx_hal_i2c.c ****     }
1856:Drivers/STM32F7xx_HAL_Driver/Src/stm32f7xx_hal_i2c.c **** 
1857:Drivers/STM32F7xx_HAL_Driver/Src/stm32f7xx_hal_i2c.c ****     /* Clear STOP Flag */
1858:Drivers/STM32F7xx_HAL_Driver/Src/stm32f7xx_hal_i2c.c ****     __HAL_I2C_CLEAR_FLAG(hi2c, I2C_FLAG_STOPF);
 3437              		.loc 1 1858 0
 3438 020a FB68     		ldr	r3, [r7, #12]
 3439 020c 1B68     		ldr	r3, [r3]
 3440 020e 2022     		movs	r2, #32
 3441 0210 DA61     		str	r2, [r3, #28]
1859:Drivers/STM32F7xx_HAL_Driver/Src/stm32f7xx_hal_i2c.c **** 
1860:Drivers/STM32F7xx_HAL_Driver/Src/stm32f7xx_hal_i2c.c ****     /* Clear Configuration Register 2 */
1861:Drivers/STM32F7xx_HAL_Driver/Src/stm32f7xx_hal_i2c.c ****     I2C_RESET_CR2(hi2c);
 3442              		.loc 1 1861 0
 3443 0212 FB68     		ldr	r3, [r7, #12]
 3444 0214 1B68     		ldr	r3, [r3]
 3445 0216 5968     		ldr	r1, [r3, #4]
 3446 0218 FB68     		ldr	r3, [r7, #12]
 3447 021a 1A68     		ldr	r2, [r3]
 3448 021c 0A4B     		ldr	r3, .L169
 3449 021e 0B40     		ands	r3, r3, r1
 3450 0220 5360     		str	r3, [r2, #4]
1862:Drivers/STM32F7xx_HAL_Driver/Src/stm32f7xx_hal_i2c.c **** 
1863:Drivers/STM32F7xx_HAL_Driver/Src/stm32f7xx_hal_i2c.c ****     hi2c->State = HAL_I2C_STATE_READY;
 3451              		.loc 1 1863 0
 3452 0222 FB68     		ldr	r3, [r7, #12]
 3453 0224 2022     		movs	r2, #32
 3454 0226 83F84120 		strb	r2, [r3, #65]
1864:Drivers/STM32F7xx_HAL_Driver/Src/stm32f7xx_hal_i2c.c ****     hi2c->Mode  = HAL_I2C_MODE_NONE;
 3455              		.loc 1 1864 0
 3456 022a FB68     		ldr	r3, [r7, #12]
 3457 022c 0022     		movs	r2, #0
 3458 022e 83F84220 		strb	r2, [r3, #66]
1865:Drivers/STM32F7xx_HAL_Driver/Src/stm32f7xx_hal_i2c.c **** 
1866:Drivers/STM32F7xx_HAL_Driver/Src/stm32f7xx_hal_i2c.c ****     /* Process Unlocked */
1867:Drivers/STM32F7xx_HAL_Driver/Src/stm32f7xx_hal_i2c.c ****     __HAL_UNLOCK(hi2c);
 3459              		.loc 1 1867 0
 3460 0232 FB68     		ldr	r3, [r7, #12]
 3461 0234 0022     		movs	r2, #0
 3462 0236 83F84020 		strb	r2, [r3, #64]
1868:Drivers/STM32F7xx_HAL_Driver/Src/stm32f7xx_hal_i2c.c **** 
ARM GAS  /var/folders/n8/cvzdcwlj0vl4g_wtyz1ffy300000gn/T//ccBPNZvy.s 			page 94


1869:Drivers/STM32F7xx_HAL_Driver/Src/stm32f7xx_hal_i2c.c ****     return HAL_OK;
 3463              		.loc 1 1869 0
 3464 023a 0023     		movs	r3, #0
 3465 023c 00E0     		b	.L154
 3466              	.L151:
1870:Drivers/STM32F7xx_HAL_Driver/Src/stm32f7xx_hal_i2c.c ****   }
1871:Drivers/STM32F7xx_HAL_Driver/Src/stm32f7xx_hal_i2c.c ****   else
1872:Drivers/STM32F7xx_HAL_Driver/Src/stm32f7xx_hal_i2c.c ****   {
1873:Drivers/STM32F7xx_HAL_Driver/Src/stm32f7xx_hal_i2c.c ****     return HAL_BUSY;
 3467              		.loc 1 1873 0
 3468 023e 0223     		movs	r3, #2
 3469              	.L154:
1874:Drivers/STM32F7xx_HAL_Driver/Src/stm32f7xx_hal_i2c.c ****   }
1875:Drivers/STM32F7xx_HAL_Driver/Src/stm32f7xx_hal_i2c.c **** }
 3470              		.loc 1 1875 0
 3471 0240 1846     		mov	r0, r3
 3472 0242 1837     		adds	r7, r7, #24
 3473              	.LCFI85:
 3474              		.cfi_def_cfa_offset 8
 3475 0244 BD46     		mov	sp, r7
 3476              	.LCFI86:
 3477              		.cfi_def_cfa_register 13
 3478              		@ sp needed
 3479 0246 80BD     		pop	{r7, pc}
 3480              	.L170:
 3481              		.align	2
 3482              	.L169:
 3483 0248 00E800FE 		.word	-33495040
 3484              		.cfi_endproc
 3485              	.LFE154:
 3487              		.section	.text.HAL_I2C_Mem_Read,"ax",%progbits
 3488              		.align	1
 3489              		.global	HAL_I2C_Mem_Read
 3490              		.syntax unified
 3491              		.thumb
 3492              		.thumb_func
 3493              		.fpu fpv5-sp-d16
 3495              	HAL_I2C_Mem_Read:
 3496              	.LFB155:
1876:Drivers/STM32F7xx_HAL_Driver/Src/stm32f7xx_hal_i2c.c **** 
1877:Drivers/STM32F7xx_HAL_Driver/Src/stm32f7xx_hal_i2c.c **** /**
1878:Drivers/STM32F7xx_HAL_Driver/Src/stm32f7xx_hal_i2c.c ****   * @brief  Read an amount of data in blocking mode from a specific memory address
1879:Drivers/STM32F7xx_HAL_Driver/Src/stm32f7xx_hal_i2c.c ****   * @param  hi2c Pointer to a I2C_HandleTypeDef structure that contains
1880:Drivers/STM32F7xx_HAL_Driver/Src/stm32f7xx_hal_i2c.c ****   *                the configuration information for the specified I2C.
1881:Drivers/STM32F7xx_HAL_Driver/Src/stm32f7xx_hal_i2c.c ****   * @param  DevAddress Target device address which contain device 7 or 10 bits address value
1882:Drivers/STM32F7xx_HAL_Driver/Src/stm32f7xx_hal_i2c.c ****   *         in datasheet must be shifted to the left before calling the interface
1883:Drivers/STM32F7xx_HAL_Driver/Src/stm32f7xx_hal_i2c.c ****   * @param  MemAddress Internal memory address
1884:Drivers/STM32F7xx_HAL_Driver/Src/stm32f7xx_hal_i2c.c ****   * @param  MemAddSize Size of internal memory address
1885:Drivers/STM32F7xx_HAL_Driver/Src/stm32f7xx_hal_i2c.c ****   * @param  pData Pointer to data buffer
1886:Drivers/STM32F7xx_HAL_Driver/Src/stm32f7xx_hal_i2c.c ****   * @param  Size Amount of data to be sent
1887:Drivers/STM32F7xx_HAL_Driver/Src/stm32f7xx_hal_i2c.c ****   * @param  Timeout Timeout duration
1888:Drivers/STM32F7xx_HAL_Driver/Src/stm32f7xx_hal_i2c.c ****   * @retval HAL status
1889:Drivers/STM32F7xx_HAL_Driver/Src/stm32f7xx_hal_i2c.c ****   */
1890:Drivers/STM32F7xx_HAL_Driver/Src/stm32f7xx_hal_i2c.c **** HAL_StatusTypeDef HAL_I2C_Mem_Read(I2C_HandleTypeDef *hi2c, uint16_t DevAddress, uint16_t MemAddres
1891:Drivers/STM32F7xx_HAL_Driver/Src/stm32f7xx_hal_i2c.c **** {
 3497              		.loc 1 1891 0
 3498              		.cfi_startproc
ARM GAS  /var/folders/n8/cvzdcwlj0vl4g_wtyz1ffy300000gn/T//ccBPNZvy.s 			page 95


 3499              		@ args = 12, pretend = 0, frame = 24
 3500              		@ frame_needed = 1, uses_anonymous_args = 0
 3501 0000 80B5     		push	{r7, lr}
 3502              	.LCFI87:
 3503              		.cfi_def_cfa_offset 8
 3504              		.cfi_offset 7, -8
 3505              		.cfi_offset 14, -4
 3506 0002 88B0     		sub	sp, sp, #32
 3507              	.LCFI88:
 3508              		.cfi_def_cfa_offset 40
 3509 0004 02AF     		add	r7, sp, #8
 3510              	.LCFI89:
 3511              		.cfi_def_cfa 7, 32
 3512 0006 F860     		str	r0, [r7, #12]
 3513 0008 0846     		mov	r0, r1
 3514 000a 1146     		mov	r1, r2
 3515 000c 1A46     		mov	r2, r3
 3516 000e 0346     		mov	r3, r0	@ movhi
 3517 0010 7B81     		strh	r3, [r7, #10]	@ movhi
 3518 0012 0B46     		mov	r3, r1	@ movhi
 3519 0014 3B81     		strh	r3, [r7, #8]	@ movhi
 3520 0016 1346     		mov	r3, r2	@ movhi
 3521 0018 FB80     		strh	r3, [r7, #6]	@ movhi
1892:Drivers/STM32F7xx_HAL_Driver/Src/stm32f7xx_hal_i2c.c ****   uint32_t tickstart = 0U;
 3522              		.loc 1 1892 0
 3523 001a 0023     		movs	r3, #0
 3524 001c 7B61     		str	r3, [r7, #20]
1893:Drivers/STM32F7xx_HAL_Driver/Src/stm32f7xx_hal_i2c.c **** 
1894:Drivers/STM32F7xx_HAL_Driver/Src/stm32f7xx_hal_i2c.c ****   /* Check the parameters */
1895:Drivers/STM32F7xx_HAL_Driver/Src/stm32f7xx_hal_i2c.c ****   assert_param(IS_I2C_MEMADD_SIZE(MemAddSize));
1896:Drivers/STM32F7xx_HAL_Driver/Src/stm32f7xx_hal_i2c.c **** 
1897:Drivers/STM32F7xx_HAL_Driver/Src/stm32f7xx_hal_i2c.c ****   if (hi2c->State == HAL_I2C_STATE_READY)
 3525              		.loc 1 1897 0
 3526 001e FB68     		ldr	r3, [r7, #12]
 3527 0020 93F84130 		ldrb	r3, [r3, #65]
 3528 0024 DBB2     		uxtb	r3, r3
 3529 0026 202B     		cmp	r3, #32
 3530 0028 40F00781 		bne	.L172
1898:Drivers/STM32F7xx_HAL_Driver/Src/stm32f7xx_hal_i2c.c ****   {
1899:Drivers/STM32F7xx_HAL_Driver/Src/stm32f7xx_hal_i2c.c ****     if ((pData == NULL) || (Size == 0U))
 3531              		.loc 1 1899 0
 3532 002c 3B6A     		ldr	r3, [r7, #32]
 3533 002e 002B     		cmp	r3, #0
 3534 0030 02D0     		beq	.L173
 3535              		.loc 1 1899 0 is_stmt 0 discriminator 1
 3536 0032 BB8C     		ldrh	r3, [r7, #36]
 3537 0034 002B     		cmp	r3, #0
 3538 0036 01D1     		bne	.L174
 3539              	.L173:
1900:Drivers/STM32F7xx_HAL_Driver/Src/stm32f7xx_hal_i2c.c ****     {
1901:Drivers/STM32F7xx_HAL_Driver/Src/stm32f7xx_hal_i2c.c ****       return  HAL_ERROR;
 3540              		.loc 1 1901 0 is_stmt 1
 3541 0038 0123     		movs	r3, #1
 3542 003a FFE0     		b	.L175
 3543              	.L174:
1902:Drivers/STM32F7xx_HAL_Driver/Src/stm32f7xx_hal_i2c.c ****     }
1903:Drivers/STM32F7xx_HAL_Driver/Src/stm32f7xx_hal_i2c.c **** 
ARM GAS  /var/folders/n8/cvzdcwlj0vl4g_wtyz1ffy300000gn/T//ccBPNZvy.s 			page 96


1904:Drivers/STM32F7xx_HAL_Driver/Src/stm32f7xx_hal_i2c.c ****     /* Process Locked */
1905:Drivers/STM32F7xx_HAL_Driver/Src/stm32f7xx_hal_i2c.c ****     __HAL_LOCK(hi2c);
 3544              		.loc 1 1905 0
 3545 003c FB68     		ldr	r3, [r7, #12]
 3546 003e 93F84030 		ldrb	r3, [r3, #64]	@ zero_extendqisi2
 3547 0042 012B     		cmp	r3, #1
 3548 0044 01D1     		bne	.L176
 3549              		.loc 1 1905 0 is_stmt 0 discriminator 1
 3550 0046 0223     		movs	r3, #2
 3551 0048 F8E0     		b	.L175
 3552              	.L176:
 3553              		.loc 1 1905 0 discriminator 2
 3554 004a FB68     		ldr	r3, [r7, #12]
 3555 004c 0122     		movs	r2, #1
 3556 004e 83F84020 		strb	r2, [r3, #64]
1906:Drivers/STM32F7xx_HAL_Driver/Src/stm32f7xx_hal_i2c.c **** 
1907:Drivers/STM32F7xx_HAL_Driver/Src/stm32f7xx_hal_i2c.c ****     /* Init tickstart for timeout management*/
1908:Drivers/STM32F7xx_HAL_Driver/Src/stm32f7xx_hal_i2c.c ****     tickstart = HAL_GetTick();
 3557              		.loc 1 1908 0 is_stmt 1 discriminator 2
 3558 0052 FFF7FEFF 		bl	HAL_GetTick
 3559 0056 7861     		str	r0, [r7, #20]
1909:Drivers/STM32F7xx_HAL_Driver/Src/stm32f7xx_hal_i2c.c **** 
1910:Drivers/STM32F7xx_HAL_Driver/Src/stm32f7xx_hal_i2c.c ****     if (I2C_WaitOnFlagUntilTimeout(hi2c, I2C_FLAG_BUSY, SET, I2C_TIMEOUT_BUSY, tickstart) != HAL_OK
 3560              		.loc 1 1910 0 discriminator 2
 3561 0058 7B69     		ldr	r3, [r7, #20]
 3562 005a 0093     		str	r3, [sp]
 3563 005c 1923     		movs	r3, #25
 3564 005e 0122     		movs	r2, #1
 3565 0060 4FF40041 		mov	r1, #32768
 3566 0064 F868     		ldr	r0, [r7, #12]
 3567 0066 FFF7FEFF 		bl	I2C_WaitOnFlagUntilTimeout
 3568 006a 0346     		mov	r3, r0
 3569 006c 002B     		cmp	r3, #0
 3570 006e 01D0     		beq	.L177
1911:Drivers/STM32F7xx_HAL_Driver/Src/stm32f7xx_hal_i2c.c ****     {
1912:Drivers/STM32F7xx_HAL_Driver/Src/stm32f7xx_hal_i2c.c ****       return HAL_TIMEOUT;
 3571              		.loc 1 1912 0
 3572 0070 0323     		movs	r3, #3
 3573 0072 E3E0     		b	.L175
 3574              	.L177:
1913:Drivers/STM32F7xx_HAL_Driver/Src/stm32f7xx_hal_i2c.c ****     }
1914:Drivers/STM32F7xx_HAL_Driver/Src/stm32f7xx_hal_i2c.c **** 
1915:Drivers/STM32F7xx_HAL_Driver/Src/stm32f7xx_hal_i2c.c ****     hi2c->State     = HAL_I2C_STATE_BUSY_RX;
 3575              		.loc 1 1915 0
 3576 0074 FB68     		ldr	r3, [r7, #12]
 3577 0076 2222     		movs	r2, #34
 3578 0078 83F84120 		strb	r2, [r3, #65]
1916:Drivers/STM32F7xx_HAL_Driver/Src/stm32f7xx_hal_i2c.c ****     hi2c->Mode      = HAL_I2C_MODE_MEM;
 3579              		.loc 1 1916 0
 3580 007c FB68     		ldr	r3, [r7, #12]
 3581 007e 4022     		movs	r2, #64
 3582 0080 83F84220 		strb	r2, [r3, #66]
1917:Drivers/STM32F7xx_HAL_Driver/Src/stm32f7xx_hal_i2c.c ****     hi2c->ErrorCode = HAL_I2C_ERROR_NONE;
 3583              		.loc 1 1917 0
 3584 0084 FB68     		ldr	r3, [r7, #12]
 3585 0086 0022     		movs	r2, #0
 3586 0088 5A64     		str	r2, [r3, #68]
ARM GAS  /var/folders/n8/cvzdcwlj0vl4g_wtyz1ffy300000gn/T//ccBPNZvy.s 			page 97


1918:Drivers/STM32F7xx_HAL_Driver/Src/stm32f7xx_hal_i2c.c **** 
1919:Drivers/STM32F7xx_HAL_Driver/Src/stm32f7xx_hal_i2c.c ****     /* Prepare transfer parameters */
1920:Drivers/STM32F7xx_HAL_Driver/Src/stm32f7xx_hal_i2c.c ****     hi2c->pBuffPtr  = pData;
 3587              		.loc 1 1920 0
 3588 008a FB68     		ldr	r3, [r7, #12]
 3589 008c 3A6A     		ldr	r2, [r7, #32]
 3590 008e 5A62     		str	r2, [r3, #36]
1921:Drivers/STM32F7xx_HAL_Driver/Src/stm32f7xx_hal_i2c.c ****     hi2c->XferCount = Size;
 3591              		.loc 1 1921 0
 3592 0090 FB68     		ldr	r3, [r7, #12]
 3593 0092 BA8C     		ldrh	r2, [r7, #36]	@ movhi
 3594 0094 5A85     		strh	r2, [r3, #42]	@ movhi
1922:Drivers/STM32F7xx_HAL_Driver/Src/stm32f7xx_hal_i2c.c ****     hi2c->XferISR   = NULL;
 3595              		.loc 1 1922 0
 3596 0096 FB68     		ldr	r3, [r7, #12]
 3597 0098 0022     		movs	r2, #0
 3598 009a 5A63     		str	r2, [r3, #52]
1923:Drivers/STM32F7xx_HAL_Driver/Src/stm32f7xx_hal_i2c.c **** 
1924:Drivers/STM32F7xx_HAL_Driver/Src/stm32f7xx_hal_i2c.c ****     /* Send Slave Address and Memory Address */
1925:Drivers/STM32F7xx_HAL_Driver/Src/stm32f7xx_hal_i2c.c ****     if (I2C_RequestMemoryRead(hi2c, DevAddress, MemAddress, MemAddSize, Timeout, tickstart) != HAL_
 3599              		.loc 1 1925 0
 3600 009c F888     		ldrh	r0, [r7, #6]
 3601 009e 3A89     		ldrh	r2, [r7, #8]
 3602 00a0 7989     		ldrh	r1, [r7, #10]
 3603 00a2 7B69     		ldr	r3, [r7, #20]
 3604 00a4 0193     		str	r3, [sp, #4]
 3605 00a6 BB6A     		ldr	r3, [r7, #40]
 3606 00a8 0093     		str	r3, [sp]
 3607 00aa 0346     		mov	r3, r0
 3608 00ac F868     		ldr	r0, [r7, #12]
 3609 00ae FFF7FEFF 		bl	I2C_RequestMemoryRead
 3610 00b2 0346     		mov	r3, r0
 3611 00b4 002B     		cmp	r3, #0
 3612 00b6 0FD0     		beq	.L178
1926:Drivers/STM32F7xx_HAL_Driver/Src/stm32f7xx_hal_i2c.c ****     {
1927:Drivers/STM32F7xx_HAL_Driver/Src/stm32f7xx_hal_i2c.c ****       if (hi2c->ErrorCode == HAL_I2C_ERROR_AF)
 3613              		.loc 1 1927 0
 3614 00b8 FB68     		ldr	r3, [r7, #12]
 3615 00ba 5B6C     		ldr	r3, [r3, #68]
 3616 00bc 042B     		cmp	r3, #4
 3617 00be 05D1     		bne	.L179
1928:Drivers/STM32F7xx_HAL_Driver/Src/stm32f7xx_hal_i2c.c ****       {
1929:Drivers/STM32F7xx_HAL_Driver/Src/stm32f7xx_hal_i2c.c ****         /* Process Unlocked */
1930:Drivers/STM32F7xx_HAL_Driver/Src/stm32f7xx_hal_i2c.c ****         __HAL_UNLOCK(hi2c);
 3618              		.loc 1 1930 0
 3619 00c0 FB68     		ldr	r3, [r7, #12]
 3620 00c2 0022     		movs	r2, #0
 3621 00c4 83F84020 		strb	r2, [r3, #64]
1931:Drivers/STM32F7xx_HAL_Driver/Src/stm32f7xx_hal_i2c.c ****         return HAL_ERROR;
 3622              		.loc 1 1931 0
 3623 00c8 0123     		movs	r3, #1
 3624 00ca B7E0     		b	.L175
 3625              	.L179:
1932:Drivers/STM32F7xx_HAL_Driver/Src/stm32f7xx_hal_i2c.c ****       }
1933:Drivers/STM32F7xx_HAL_Driver/Src/stm32f7xx_hal_i2c.c ****       else
1934:Drivers/STM32F7xx_HAL_Driver/Src/stm32f7xx_hal_i2c.c ****       {
1935:Drivers/STM32F7xx_HAL_Driver/Src/stm32f7xx_hal_i2c.c ****         /* Process Unlocked */
ARM GAS  /var/folders/n8/cvzdcwlj0vl4g_wtyz1ffy300000gn/T//ccBPNZvy.s 			page 98


1936:Drivers/STM32F7xx_HAL_Driver/Src/stm32f7xx_hal_i2c.c ****         __HAL_UNLOCK(hi2c);
 3626              		.loc 1 1936 0
 3627 00cc FB68     		ldr	r3, [r7, #12]
 3628 00ce 0022     		movs	r2, #0
 3629 00d0 83F84020 		strb	r2, [r3, #64]
1937:Drivers/STM32F7xx_HAL_Driver/Src/stm32f7xx_hal_i2c.c ****         return HAL_TIMEOUT;
 3630              		.loc 1 1937 0
 3631 00d4 0323     		movs	r3, #3
 3632 00d6 B1E0     		b	.L175
 3633              	.L178:
1938:Drivers/STM32F7xx_HAL_Driver/Src/stm32f7xx_hal_i2c.c ****       }
1939:Drivers/STM32F7xx_HAL_Driver/Src/stm32f7xx_hal_i2c.c ****     }
1940:Drivers/STM32F7xx_HAL_Driver/Src/stm32f7xx_hal_i2c.c **** 
1941:Drivers/STM32F7xx_HAL_Driver/Src/stm32f7xx_hal_i2c.c ****     /* Send Slave Address */
1942:Drivers/STM32F7xx_HAL_Driver/Src/stm32f7xx_hal_i2c.c ****     /* Set NBYTES to write and reload if hi2c->XferCount > MAX_NBYTE_SIZE and generate RESTART */
1943:Drivers/STM32F7xx_HAL_Driver/Src/stm32f7xx_hal_i2c.c ****     if (hi2c->XferCount > MAX_NBYTE_SIZE)
 3634              		.loc 1 1943 0
 3635 00d8 FB68     		ldr	r3, [r7, #12]
 3636 00da 5B8D     		ldrh	r3, [r3, #42]	@ movhi
 3637 00dc 9BB2     		uxth	r3, r3
 3638 00de FF2B     		cmp	r3, #255
 3639 00e0 0ED9     		bls	.L180
1944:Drivers/STM32F7xx_HAL_Driver/Src/stm32f7xx_hal_i2c.c ****     {
1945:Drivers/STM32F7xx_HAL_Driver/Src/stm32f7xx_hal_i2c.c ****       hi2c->XferSize = MAX_NBYTE_SIZE;
 3640              		.loc 1 1945 0
 3641 00e2 FB68     		ldr	r3, [r7, #12]
 3642 00e4 FF22     		movs	r2, #255
 3643 00e6 1A85     		strh	r2, [r3, #40]	@ movhi
1946:Drivers/STM32F7xx_HAL_Driver/Src/stm32f7xx_hal_i2c.c ****       I2C_TransferConfig(hi2c, DevAddress, hi2c->XferSize, I2C_RELOAD_MODE, I2C_GENERATE_START_READ
 3644              		.loc 1 1946 0
 3645 00e8 FB68     		ldr	r3, [r7, #12]
 3646 00ea 1B8D     		ldrh	r3, [r3, #40]
 3647 00ec DAB2     		uxtb	r2, r3
 3648 00ee 7989     		ldrh	r1, [r7, #10]
 3649 00f0 544B     		ldr	r3, .L189
 3650 00f2 0093     		str	r3, [sp]
 3651 00f4 4FF08073 		mov	r3, #16777216
 3652 00f8 F868     		ldr	r0, [r7, #12]
 3653 00fa FFF7FEFF 		bl	I2C_TransferConfig
 3654 00fe 0FE0     		b	.L186
 3655              	.L180:
1947:Drivers/STM32F7xx_HAL_Driver/Src/stm32f7xx_hal_i2c.c ****     }
1948:Drivers/STM32F7xx_HAL_Driver/Src/stm32f7xx_hal_i2c.c ****     else
1949:Drivers/STM32F7xx_HAL_Driver/Src/stm32f7xx_hal_i2c.c ****     {
1950:Drivers/STM32F7xx_HAL_Driver/Src/stm32f7xx_hal_i2c.c ****       hi2c->XferSize = hi2c->XferCount;
 3656              		.loc 1 1950 0
 3657 0100 FB68     		ldr	r3, [r7, #12]
 3658 0102 5B8D     		ldrh	r3, [r3, #42]	@ movhi
 3659 0104 9AB2     		uxth	r2, r3
 3660 0106 FB68     		ldr	r3, [r7, #12]
 3661 0108 1A85     		strh	r2, [r3, #40]	@ movhi
1951:Drivers/STM32F7xx_HAL_Driver/Src/stm32f7xx_hal_i2c.c ****       I2C_TransferConfig(hi2c, DevAddress, hi2c->XferSize, I2C_AUTOEND_MODE, I2C_GENERATE_START_REA
 3662              		.loc 1 1951 0
 3663 010a FB68     		ldr	r3, [r7, #12]
 3664 010c 1B8D     		ldrh	r3, [r3, #40]
 3665 010e DAB2     		uxtb	r2, r3
 3666 0110 7989     		ldrh	r1, [r7, #10]
ARM GAS  /var/folders/n8/cvzdcwlj0vl4g_wtyz1ffy300000gn/T//ccBPNZvy.s 			page 99


 3667 0112 4C4B     		ldr	r3, .L189
 3668 0114 0093     		str	r3, [sp]
 3669 0116 4FF00073 		mov	r3, #33554432
 3670 011a F868     		ldr	r0, [r7, #12]
 3671 011c FFF7FEFF 		bl	I2C_TransferConfig
 3672              	.L186:
1952:Drivers/STM32F7xx_HAL_Driver/Src/stm32f7xx_hal_i2c.c ****     }
1953:Drivers/STM32F7xx_HAL_Driver/Src/stm32f7xx_hal_i2c.c **** 
1954:Drivers/STM32F7xx_HAL_Driver/Src/stm32f7xx_hal_i2c.c ****     do
1955:Drivers/STM32F7xx_HAL_Driver/Src/stm32f7xx_hal_i2c.c ****     {
1956:Drivers/STM32F7xx_HAL_Driver/Src/stm32f7xx_hal_i2c.c ****       /* Wait until RXNE flag is set */
1957:Drivers/STM32F7xx_HAL_Driver/Src/stm32f7xx_hal_i2c.c ****       if (I2C_WaitOnFlagUntilTimeout(hi2c, I2C_FLAG_RXNE, RESET, Timeout, tickstart) != HAL_OK)
 3673              		.loc 1 1957 0
 3674 0120 7B69     		ldr	r3, [r7, #20]
 3675 0122 0093     		str	r3, [sp]
 3676 0124 BB6A     		ldr	r3, [r7, #40]
 3677 0126 0022     		movs	r2, #0
 3678 0128 0421     		movs	r1, #4
 3679 012a F868     		ldr	r0, [r7, #12]
 3680 012c FFF7FEFF 		bl	I2C_WaitOnFlagUntilTimeout
 3681 0130 0346     		mov	r3, r0
 3682 0132 002B     		cmp	r3, #0
 3683 0134 01D0     		beq	.L182
1958:Drivers/STM32F7xx_HAL_Driver/Src/stm32f7xx_hal_i2c.c ****       {
1959:Drivers/STM32F7xx_HAL_Driver/Src/stm32f7xx_hal_i2c.c ****         return HAL_TIMEOUT;
 3684              		.loc 1 1959 0
 3685 0136 0323     		movs	r3, #3
 3686 0138 80E0     		b	.L175
 3687              	.L182:
1960:Drivers/STM32F7xx_HAL_Driver/Src/stm32f7xx_hal_i2c.c ****       }
1961:Drivers/STM32F7xx_HAL_Driver/Src/stm32f7xx_hal_i2c.c **** 
1962:Drivers/STM32F7xx_HAL_Driver/Src/stm32f7xx_hal_i2c.c ****       /* Read data from RXDR */
1963:Drivers/STM32F7xx_HAL_Driver/Src/stm32f7xx_hal_i2c.c ****       (*hi2c->pBuffPtr++) = hi2c->Instance->RXDR;
 3688              		.loc 1 1963 0
 3689 013a FB68     		ldr	r3, [r7, #12]
 3690 013c 1B68     		ldr	r3, [r3]
 3691 013e 586A     		ldr	r0, [r3, #36]
 3692 0140 FB68     		ldr	r3, [r7, #12]
 3693 0142 5B6A     		ldr	r3, [r3, #36]
 3694 0144 591C     		adds	r1, r3, #1
 3695 0146 FA68     		ldr	r2, [r7, #12]
 3696 0148 5162     		str	r1, [r2, #36]
 3697 014a C2B2     		uxtb	r2, r0
 3698 014c 1A70     		strb	r2, [r3]
1964:Drivers/STM32F7xx_HAL_Driver/Src/stm32f7xx_hal_i2c.c ****       hi2c->XferSize--;
 3699              		.loc 1 1964 0
 3700 014e FB68     		ldr	r3, [r7, #12]
 3701 0150 1B8D     		ldrh	r3, [r3, #40]
 3702 0152 013B     		subs	r3, r3, #1
 3703 0154 9AB2     		uxth	r2, r3
 3704 0156 FB68     		ldr	r3, [r7, #12]
 3705 0158 1A85     		strh	r2, [r3, #40]	@ movhi
1965:Drivers/STM32F7xx_HAL_Driver/Src/stm32f7xx_hal_i2c.c ****       hi2c->XferCount--;
 3706              		.loc 1 1965 0
 3707 015a FB68     		ldr	r3, [r7, #12]
 3708 015c 5B8D     		ldrh	r3, [r3, #42]	@ movhi
 3709 015e 9BB2     		uxth	r3, r3
ARM GAS  /var/folders/n8/cvzdcwlj0vl4g_wtyz1ffy300000gn/T//ccBPNZvy.s 			page 100


 3710 0160 013B     		subs	r3, r3, #1
 3711 0162 9AB2     		uxth	r2, r3
 3712 0164 FB68     		ldr	r3, [r7, #12]
 3713 0166 5A85     		strh	r2, [r3, #42]	@ movhi
1966:Drivers/STM32F7xx_HAL_Driver/Src/stm32f7xx_hal_i2c.c **** 
1967:Drivers/STM32F7xx_HAL_Driver/Src/stm32f7xx_hal_i2c.c ****       if ((hi2c->XferSize == 0U) && (hi2c->XferCount != 0U))
 3714              		.loc 1 1967 0
 3715 0168 FB68     		ldr	r3, [r7, #12]
 3716 016a 1B8D     		ldrh	r3, [r3, #40]
 3717 016c 002B     		cmp	r3, #0
 3718 016e 35D1     		bne	.L183
 3719              		.loc 1 1967 0 is_stmt 0 discriminator 1
 3720 0170 FB68     		ldr	r3, [r7, #12]
 3721 0172 5B8D     		ldrh	r3, [r3, #42]	@ movhi
 3722 0174 9BB2     		uxth	r3, r3
 3723 0176 002B     		cmp	r3, #0
 3724 0178 30D0     		beq	.L183
1968:Drivers/STM32F7xx_HAL_Driver/Src/stm32f7xx_hal_i2c.c ****       {
1969:Drivers/STM32F7xx_HAL_Driver/Src/stm32f7xx_hal_i2c.c ****         /* Wait until TCR flag is set */
1970:Drivers/STM32F7xx_HAL_Driver/Src/stm32f7xx_hal_i2c.c ****         if (I2C_WaitOnFlagUntilTimeout(hi2c, I2C_FLAG_TCR, RESET, Timeout, tickstart) != HAL_OK)
 3725              		.loc 1 1970 0 is_stmt 1
 3726 017a 7B69     		ldr	r3, [r7, #20]
 3727 017c 0093     		str	r3, [sp]
 3728 017e BB6A     		ldr	r3, [r7, #40]
 3729 0180 0022     		movs	r2, #0
 3730 0182 8021     		movs	r1, #128
 3731 0184 F868     		ldr	r0, [r7, #12]
 3732 0186 FFF7FEFF 		bl	I2C_WaitOnFlagUntilTimeout
 3733 018a 0346     		mov	r3, r0
 3734 018c 002B     		cmp	r3, #0
 3735 018e 01D0     		beq	.L184
1971:Drivers/STM32F7xx_HAL_Driver/Src/stm32f7xx_hal_i2c.c ****         {
1972:Drivers/STM32F7xx_HAL_Driver/Src/stm32f7xx_hal_i2c.c ****           return HAL_TIMEOUT;
 3736              		.loc 1 1972 0
 3737 0190 0323     		movs	r3, #3
 3738 0192 53E0     		b	.L175
 3739              	.L184:
1973:Drivers/STM32F7xx_HAL_Driver/Src/stm32f7xx_hal_i2c.c ****         }
1974:Drivers/STM32F7xx_HAL_Driver/Src/stm32f7xx_hal_i2c.c **** 
1975:Drivers/STM32F7xx_HAL_Driver/Src/stm32f7xx_hal_i2c.c ****         if (hi2c->XferCount > MAX_NBYTE_SIZE)
 3740              		.loc 1 1975 0
 3741 0194 FB68     		ldr	r3, [r7, #12]
 3742 0196 5B8D     		ldrh	r3, [r3, #42]	@ movhi
 3743 0198 9BB2     		uxth	r3, r3
 3744 019a FF2B     		cmp	r3, #255
 3745 019c 0ED9     		bls	.L185
1976:Drivers/STM32F7xx_HAL_Driver/Src/stm32f7xx_hal_i2c.c ****         {
1977:Drivers/STM32F7xx_HAL_Driver/Src/stm32f7xx_hal_i2c.c ****           hi2c->XferSize = MAX_NBYTE_SIZE;
 3746              		.loc 1 1977 0
 3747 019e FB68     		ldr	r3, [r7, #12]
 3748 01a0 FF22     		movs	r2, #255
 3749 01a2 1A85     		strh	r2, [r3, #40]	@ movhi
1978:Drivers/STM32F7xx_HAL_Driver/Src/stm32f7xx_hal_i2c.c ****           I2C_TransferConfig(hi2c, DevAddress, hi2c->XferSize, I2C_RELOAD_MODE, I2C_NO_STARTSTOP);
 3750              		.loc 1 1978 0
 3751 01a4 FB68     		ldr	r3, [r7, #12]
 3752 01a6 1B8D     		ldrh	r3, [r3, #40]
 3753 01a8 DAB2     		uxtb	r2, r3
ARM GAS  /var/folders/n8/cvzdcwlj0vl4g_wtyz1ffy300000gn/T//ccBPNZvy.s 			page 101


 3754 01aa 7989     		ldrh	r1, [r7, #10]
 3755 01ac 0023     		movs	r3, #0
 3756 01ae 0093     		str	r3, [sp]
 3757 01b0 4FF08073 		mov	r3, #16777216
 3758 01b4 F868     		ldr	r0, [r7, #12]
 3759 01b6 FFF7FEFF 		bl	I2C_TransferConfig
 3760 01ba 0FE0     		b	.L183
 3761              	.L185:
1979:Drivers/STM32F7xx_HAL_Driver/Src/stm32f7xx_hal_i2c.c ****         }
1980:Drivers/STM32F7xx_HAL_Driver/Src/stm32f7xx_hal_i2c.c ****         else
1981:Drivers/STM32F7xx_HAL_Driver/Src/stm32f7xx_hal_i2c.c ****         {
1982:Drivers/STM32F7xx_HAL_Driver/Src/stm32f7xx_hal_i2c.c ****           hi2c->XferSize = hi2c->XferCount;
 3762              		.loc 1 1982 0
 3763 01bc FB68     		ldr	r3, [r7, #12]
 3764 01be 5B8D     		ldrh	r3, [r3, #42]	@ movhi
 3765 01c0 9AB2     		uxth	r2, r3
 3766 01c2 FB68     		ldr	r3, [r7, #12]
 3767 01c4 1A85     		strh	r2, [r3, #40]	@ movhi
1983:Drivers/STM32F7xx_HAL_Driver/Src/stm32f7xx_hal_i2c.c ****           I2C_TransferConfig(hi2c, DevAddress, hi2c->XferSize, I2C_AUTOEND_MODE, I2C_NO_STARTSTOP);
 3768              		.loc 1 1983 0
 3769 01c6 FB68     		ldr	r3, [r7, #12]
 3770 01c8 1B8D     		ldrh	r3, [r3, #40]
 3771 01ca DAB2     		uxtb	r2, r3
 3772 01cc 7989     		ldrh	r1, [r7, #10]
 3773 01ce 0023     		movs	r3, #0
 3774 01d0 0093     		str	r3, [sp]
 3775 01d2 4FF00073 		mov	r3, #33554432
 3776 01d6 F868     		ldr	r0, [r7, #12]
 3777 01d8 FFF7FEFF 		bl	I2C_TransferConfig
 3778              	.L183:
1984:Drivers/STM32F7xx_HAL_Driver/Src/stm32f7xx_hal_i2c.c ****         }
1985:Drivers/STM32F7xx_HAL_Driver/Src/stm32f7xx_hal_i2c.c ****       }
1986:Drivers/STM32F7xx_HAL_Driver/Src/stm32f7xx_hal_i2c.c ****     }
1987:Drivers/STM32F7xx_HAL_Driver/Src/stm32f7xx_hal_i2c.c ****     while (hi2c->XferCount > 0U);
 3779              		.loc 1 1987 0
 3780 01dc FB68     		ldr	r3, [r7, #12]
 3781 01de 5B8D     		ldrh	r3, [r3, #42]	@ movhi
 3782 01e0 9BB2     		uxth	r3, r3
 3783 01e2 002B     		cmp	r3, #0
 3784 01e4 9CD1     		bne	.L186
1988:Drivers/STM32F7xx_HAL_Driver/Src/stm32f7xx_hal_i2c.c **** 
1989:Drivers/STM32F7xx_HAL_Driver/Src/stm32f7xx_hal_i2c.c ****     /* No need to Check TC flag, with AUTOEND mode the stop is automatically generated */
1990:Drivers/STM32F7xx_HAL_Driver/Src/stm32f7xx_hal_i2c.c ****     /* Wait until STOPF flag is reset */
1991:Drivers/STM32F7xx_HAL_Driver/Src/stm32f7xx_hal_i2c.c ****     if (I2C_WaitOnSTOPFlagUntilTimeout(hi2c, Timeout, tickstart) != HAL_OK)
 3785              		.loc 1 1991 0
 3786 01e6 7A69     		ldr	r2, [r7, #20]
 3787 01e8 B96A     		ldr	r1, [r7, #40]
 3788 01ea F868     		ldr	r0, [r7, #12]
 3789 01ec FFF7FEFF 		bl	I2C_WaitOnSTOPFlagUntilTimeout
 3790 01f0 0346     		mov	r3, r0
 3791 01f2 002B     		cmp	r3, #0
 3792 01f4 07D0     		beq	.L187
1992:Drivers/STM32F7xx_HAL_Driver/Src/stm32f7xx_hal_i2c.c ****     {
1993:Drivers/STM32F7xx_HAL_Driver/Src/stm32f7xx_hal_i2c.c ****       if (hi2c->ErrorCode == HAL_I2C_ERROR_AF)
 3793              		.loc 1 1993 0
 3794 01f6 FB68     		ldr	r3, [r7, #12]
 3795 01f8 5B6C     		ldr	r3, [r3, #68]
ARM GAS  /var/folders/n8/cvzdcwlj0vl4g_wtyz1ffy300000gn/T//ccBPNZvy.s 			page 102


 3796 01fa 042B     		cmp	r3, #4
 3797 01fc 01D1     		bne	.L188
1994:Drivers/STM32F7xx_HAL_Driver/Src/stm32f7xx_hal_i2c.c ****       {
1995:Drivers/STM32F7xx_HAL_Driver/Src/stm32f7xx_hal_i2c.c ****         return HAL_ERROR;
 3798              		.loc 1 1995 0
 3799 01fe 0123     		movs	r3, #1
 3800 0200 1CE0     		b	.L175
 3801              	.L188:
1996:Drivers/STM32F7xx_HAL_Driver/Src/stm32f7xx_hal_i2c.c ****       }
1997:Drivers/STM32F7xx_HAL_Driver/Src/stm32f7xx_hal_i2c.c ****       else
1998:Drivers/STM32F7xx_HAL_Driver/Src/stm32f7xx_hal_i2c.c ****       {
1999:Drivers/STM32F7xx_HAL_Driver/Src/stm32f7xx_hal_i2c.c ****         return HAL_TIMEOUT;
 3802              		.loc 1 1999 0
 3803 0202 0323     		movs	r3, #3
 3804 0204 1AE0     		b	.L175
 3805              	.L187:
2000:Drivers/STM32F7xx_HAL_Driver/Src/stm32f7xx_hal_i2c.c ****       }
2001:Drivers/STM32F7xx_HAL_Driver/Src/stm32f7xx_hal_i2c.c ****     }
2002:Drivers/STM32F7xx_HAL_Driver/Src/stm32f7xx_hal_i2c.c **** 
2003:Drivers/STM32F7xx_HAL_Driver/Src/stm32f7xx_hal_i2c.c ****     /* Clear STOP Flag */
2004:Drivers/STM32F7xx_HAL_Driver/Src/stm32f7xx_hal_i2c.c ****     __HAL_I2C_CLEAR_FLAG(hi2c, I2C_FLAG_STOPF);
 3806              		.loc 1 2004 0
 3807 0206 FB68     		ldr	r3, [r7, #12]
 3808 0208 1B68     		ldr	r3, [r3]
 3809 020a 2022     		movs	r2, #32
 3810 020c DA61     		str	r2, [r3, #28]
2005:Drivers/STM32F7xx_HAL_Driver/Src/stm32f7xx_hal_i2c.c **** 
2006:Drivers/STM32F7xx_HAL_Driver/Src/stm32f7xx_hal_i2c.c ****     /* Clear Configuration Register 2 */
2007:Drivers/STM32F7xx_HAL_Driver/Src/stm32f7xx_hal_i2c.c ****     I2C_RESET_CR2(hi2c);
 3811              		.loc 1 2007 0
 3812 020e FB68     		ldr	r3, [r7, #12]
 3813 0210 1B68     		ldr	r3, [r3]
 3814 0212 5968     		ldr	r1, [r3, #4]
 3815 0214 FB68     		ldr	r3, [r7, #12]
 3816 0216 1A68     		ldr	r2, [r3]
 3817 0218 0B4B     		ldr	r3, .L189+4
 3818 021a 0B40     		ands	r3, r3, r1
 3819 021c 5360     		str	r3, [r2, #4]
2008:Drivers/STM32F7xx_HAL_Driver/Src/stm32f7xx_hal_i2c.c **** 
2009:Drivers/STM32F7xx_HAL_Driver/Src/stm32f7xx_hal_i2c.c ****     hi2c->State = HAL_I2C_STATE_READY;
 3820              		.loc 1 2009 0
 3821 021e FB68     		ldr	r3, [r7, #12]
 3822 0220 2022     		movs	r2, #32
 3823 0222 83F84120 		strb	r2, [r3, #65]
2010:Drivers/STM32F7xx_HAL_Driver/Src/stm32f7xx_hal_i2c.c ****     hi2c->Mode  = HAL_I2C_MODE_NONE;
 3824              		.loc 1 2010 0
 3825 0226 FB68     		ldr	r3, [r7, #12]
 3826 0228 0022     		movs	r2, #0
 3827 022a 83F84220 		strb	r2, [r3, #66]
2011:Drivers/STM32F7xx_HAL_Driver/Src/stm32f7xx_hal_i2c.c **** 
2012:Drivers/STM32F7xx_HAL_Driver/Src/stm32f7xx_hal_i2c.c ****     /* Process Unlocked */
2013:Drivers/STM32F7xx_HAL_Driver/Src/stm32f7xx_hal_i2c.c ****     __HAL_UNLOCK(hi2c);
 3828              		.loc 1 2013 0
 3829 022e FB68     		ldr	r3, [r7, #12]
 3830 0230 0022     		movs	r2, #0
 3831 0232 83F84020 		strb	r2, [r3, #64]
2014:Drivers/STM32F7xx_HAL_Driver/Src/stm32f7xx_hal_i2c.c **** 
ARM GAS  /var/folders/n8/cvzdcwlj0vl4g_wtyz1ffy300000gn/T//ccBPNZvy.s 			page 103


2015:Drivers/STM32F7xx_HAL_Driver/Src/stm32f7xx_hal_i2c.c ****     return HAL_OK;
 3832              		.loc 1 2015 0
 3833 0236 0023     		movs	r3, #0
 3834 0238 00E0     		b	.L175
 3835              	.L172:
2016:Drivers/STM32F7xx_HAL_Driver/Src/stm32f7xx_hal_i2c.c ****   }
2017:Drivers/STM32F7xx_HAL_Driver/Src/stm32f7xx_hal_i2c.c ****   else
2018:Drivers/STM32F7xx_HAL_Driver/Src/stm32f7xx_hal_i2c.c ****   {
2019:Drivers/STM32F7xx_HAL_Driver/Src/stm32f7xx_hal_i2c.c ****     return HAL_BUSY;
 3836              		.loc 1 2019 0
 3837 023a 0223     		movs	r3, #2
 3838              	.L175:
2020:Drivers/STM32F7xx_HAL_Driver/Src/stm32f7xx_hal_i2c.c ****   }
2021:Drivers/STM32F7xx_HAL_Driver/Src/stm32f7xx_hal_i2c.c **** }
 3839              		.loc 1 2021 0
 3840 023c 1846     		mov	r0, r3
 3841 023e 1837     		adds	r7, r7, #24
 3842              	.LCFI90:
 3843              		.cfi_def_cfa_offset 8
 3844 0240 BD46     		mov	sp, r7
 3845              	.LCFI91:
 3846              		.cfi_def_cfa_register 13
 3847              		@ sp needed
 3848 0242 80BD     		pop	{r7, pc}
 3849              	.L190:
 3850              		.align	2
 3851              	.L189:
 3852 0244 00240080 		.word	-2147474432
 3853 0248 00E800FE 		.word	-33495040
 3854              		.cfi_endproc
 3855              	.LFE155:
 3857              		.section	.text.HAL_I2C_Mem_Write_IT,"ax",%progbits
 3858              		.align	1
 3859              		.global	HAL_I2C_Mem_Write_IT
 3860              		.syntax unified
 3861              		.thumb
 3862              		.thumb_func
 3863              		.fpu fpv5-sp-d16
 3865              	HAL_I2C_Mem_Write_IT:
 3866              	.LFB156:
2022:Drivers/STM32F7xx_HAL_Driver/Src/stm32f7xx_hal_i2c.c **** /**
2023:Drivers/STM32F7xx_HAL_Driver/Src/stm32f7xx_hal_i2c.c ****   * @brief  Write an amount of data in non-blocking mode with Interrupt to a specific memory addres
2024:Drivers/STM32F7xx_HAL_Driver/Src/stm32f7xx_hal_i2c.c ****   * @param  hi2c Pointer to a I2C_HandleTypeDef structure that contains
2025:Drivers/STM32F7xx_HAL_Driver/Src/stm32f7xx_hal_i2c.c ****   *                the configuration information for the specified I2C.
2026:Drivers/STM32F7xx_HAL_Driver/Src/stm32f7xx_hal_i2c.c ****   * @param  DevAddress Target device address which contain device 7 or 10 bits address value
2027:Drivers/STM32F7xx_HAL_Driver/Src/stm32f7xx_hal_i2c.c ****   *         in datasheet must be shifted to the left before calling the interface
2028:Drivers/STM32F7xx_HAL_Driver/Src/stm32f7xx_hal_i2c.c ****   * @param  MemAddress Internal memory address
2029:Drivers/STM32F7xx_HAL_Driver/Src/stm32f7xx_hal_i2c.c ****   * @param  MemAddSize Size of internal memory address
2030:Drivers/STM32F7xx_HAL_Driver/Src/stm32f7xx_hal_i2c.c ****   * @param  pData Pointer to data buffer
2031:Drivers/STM32F7xx_HAL_Driver/Src/stm32f7xx_hal_i2c.c ****   * @param  Size Amount of data to be sent
2032:Drivers/STM32F7xx_HAL_Driver/Src/stm32f7xx_hal_i2c.c ****   * @retval HAL status
2033:Drivers/STM32F7xx_HAL_Driver/Src/stm32f7xx_hal_i2c.c ****   */
2034:Drivers/STM32F7xx_HAL_Driver/Src/stm32f7xx_hal_i2c.c **** HAL_StatusTypeDef HAL_I2C_Mem_Write_IT(I2C_HandleTypeDef *hi2c, uint16_t DevAddress, uint16_t MemAd
2035:Drivers/STM32F7xx_HAL_Driver/Src/stm32f7xx_hal_i2c.c **** {
 3867              		.loc 1 2035 0
 3868              		.cfi_startproc
 3869              		@ args = 8, pretend = 0, frame = 24
ARM GAS  /var/folders/n8/cvzdcwlj0vl4g_wtyz1ffy300000gn/T//ccBPNZvy.s 			page 104


 3870              		@ frame_needed = 1, uses_anonymous_args = 0
 3871 0000 80B5     		push	{r7, lr}
 3872              	.LCFI92:
 3873              		.cfi_def_cfa_offset 8
 3874              		.cfi_offset 7, -8
 3875              		.cfi_offset 14, -4
 3876 0002 88B0     		sub	sp, sp, #32
 3877              	.LCFI93:
 3878              		.cfi_def_cfa_offset 40
 3879 0004 02AF     		add	r7, sp, #8
 3880              	.LCFI94:
 3881              		.cfi_def_cfa 7, 32
 3882 0006 F860     		str	r0, [r7, #12]
 3883 0008 0846     		mov	r0, r1
 3884 000a 1146     		mov	r1, r2
 3885 000c 1A46     		mov	r2, r3
 3886 000e 0346     		mov	r3, r0	@ movhi
 3887 0010 7B81     		strh	r3, [r7, #10]	@ movhi
 3888 0012 0B46     		mov	r3, r1	@ movhi
 3889 0014 3B81     		strh	r3, [r7, #8]	@ movhi
 3890 0016 1346     		mov	r3, r2	@ movhi
 3891 0018 FB80     		strh	r3, [r7, #6]	@ movhi
2036:Drivers/STM32F7xx_HAL_Driver/Src/stm32f7xx_hal_i2c.c ****   uint32_t tickstart = 0U;
 3892              		.loc 1 2036 0
 3893 001a 0023     		movs	r3, #0
 3894 001c 3B61     		str	r3, [r7, #16]
2037:Drivers/STM32F7xx_HAL_Driver/Src/stm32f7xx_hal_i2c.c ****   uint32_t xfermode = 0U;
 3895              		.loc 1 2037 0
 3896 001e 0023     		movs	r3, #0
 3897 0020 7B61     		str	r3, [r7, #20]
2038:Drivers/STM32F7xx_HAL_Driver/Src/stm32f7xx_hal_i2c.c **** 
2039:Drivers/STM32F7xx_HAL_Driver/Src/stm32f7xx_hal_i2c.c ****   /* Check the parameters */
2040:Drivers/STM32F7xx_HAL_Driver/Src/stm32f7xx_hal_i2c.c ****   assert_param(IS_I2C_MEMADD_SIZE(MemAddSize));
2041:Drivers/STM32F7xx_HAL_Driver/Src/stm32f7xx_hal_i2c.c **** 
2042:Drivers/STM32F7xx_HAL_Driver/Src/stm32f7xx_hal_i2c.c ****   if (hi2c->State == HAL_I2C_STATE_READY)
 3898              		.loc 1 2042 0
 3899 0022 FB68     		ldr	r3, [r7, #12]
 3900 0024 93F84130 		ldrb	r3, [r3, #65]
 3901 0028 DBB2     		uxtb	r3, r3
 3902 002a 202B     		cmp	r3, #32
 3903 002c 7CD1     		bne	.L192
2043:Drivers/STM32F7xx_HAL_Driver/Src/stm32f7xx_hal_i2c.c ****   {
2044:Drivers/STM32F7xx_HAL_Driver/Src/stm32f7xx_hal_i2c.c ****     if ((pData == NULL) || (Size == 0U))
 3904              		.loc 1 2044 0
 3905 002e 3B6A     		ldr	r3, [r7, #32]
 3906 0030 002B     		cmp	r3, #0
 3907 0032 02D0     		beq	.L193
 3908              		.loc 1 2044 0 is_stmt 0 discriminator 1
 3909 0034 BB8C     		ldrh	r3, [r7, #36]
 3910 0036 002B     		cmp	r3, #0
 3911 0038 01D1     		bne	.L194
 3912              	.L193:
2045:Drivers/STM32F7xx_HAL_Driver/Src/stm32f7xx_hal_i2c.c ****     {
2046:Drivers/STM32F7xx_HAL_Driver/Src/stm32f7xx_hal_i2c.c ****       return  HAL_ERROR;
 3913              		.loc 1 2046 0 is_stmt 1
 3914 003a 0123     		movs	r3, #1
 3915 003c 75E0     		b	.L195
ARM GAS  /var/folders/n8/cvzdcwlj0vl4g_wtyz1ffy300000gn/T//ccBPNZvy.s 			page 105


 3916              	.L194:
2047:Drivers/STM32F7xx_HAL_Driver/Src/stm32f7xx_hal_i2c.c ****     }
2048:Drivers/STM32F7xx_HAL_Driver/Src/stm32f7xx_hal_i2c.c **** 
2049:Drivers/STM32F7xx_HAL_Driver/Src/stm32f7xx_hal_i2c.c ****     if (__HAL_I2C_GET_FLAG(hi2c, I2C_FLAG_BUSY) == SET)
 3917              		.loc 1 2049 0
 3918 003e FB68     		ldr	r3, [r7, #12]
 3919 0040 1B68     		ldr	r3, [r3]
 3920 0042 9B69     		ldr	r3, [r3, #24]
 3921 0044 03F40043 		and	r3, r3, #32768
 3922 0048 B3F5004F 		cmp	r3, #32768
 3923 004c 01D1     		bne	.L196
2050:Drivers/STM32F7xx_HAL_Driver/Src/stm32f7xx_hal_i2c.c ****     {
2051:Drivers/STM32F7xx_HAL_Driver/Src/stm32f7xx_hal_i2c.c ****       return HAL_BUSY;
 3924              		.loc 1 2051 0
 3925 004e 0223     		movs	r3, #2
 3926 0050 6BE0     		b	.L195
 3927              	.L196:
2052:Drivers/STM32F7xx_HAL_Driver/Src/stm32f7xx_hal_i2c.c ****     }
2053:Drivers/STM32F7xx_HAL_Driver/Src/stm32f7xx_hal_i2c.c **** 
2054:Drivers/STM32F7xx_HAL_Driver/Src/stm32f7xx_hal_i2c.c ****     /* Process Locked */
2055:Drivers/STM32F7xx_HAL_Driver/Src/stm32f7xx_hal_i2c.c ****     __HAL_LOCK(hi2c);
 3928              		.loc 1 2055 0
 3929 0052 FB68     		ldr	r3, [r7, #12]
 3930 0054 93F84030 		ldrb	r3, [r3, #64]	@ zero_extendqisi2
 3931 0058 012B     		cmp	r3, #1
 3932 005a 01D1     		bne	.L197
 3933              		.loc 1 2055 0 is_stmt 0 discriminator 1
 3934 005c 0223     		movs	r3, #2
 3935 005e 64E0     		b	.L195
 3936              	.L197:
 3937              		.loc 1 2055 0 discriminator 2
 3938 0060 FB68     		ldr	r3, [r7, #12]
 3939 0062 0122     		movs	r2, #1
 3940 0064 83F84020 		strb	r2, [r3, #64]
2056:Drivers/STM32F7xx_HAL_Driver/Src/stm32f7xx_hal_i2c.c **** 
2057:Drivers/STM32F7xx_HAL_Driver/Src/stm32f7xx_hal_i2c.c ****     /* Init tickstart for timeout management*/
2058:Drivers/STM32F7xx_HAL_Driver/Src/stm32f7xx_hal_i2c.c ****     tickstart = HAL_GetTick();
 3941              		.loc 1 2058 0 is_stmt 1 discriminator 2
 3942 0068 FFF7FEFF 		bl	HAL_GetTick
 3943 006c 3861     		str	r0, [r7, #16]
2059:Drivers/STM32F7xx_HAL_Driver/Src/stm32f7xx_hal_i2c.c **** 
2060:Drivers/STM32F7xx_HAL_Driver/Src/stm32f7xx_hal_i2c.c ****     hi2c->State       = HAL_I2C_STATE_BUSY_TX;
 3944              		.loc 1 2060 0 discriminator 2
 3945 006e FB68     		ldr	r3, [r7, #12]
 3946 0070 2122     		movs	r2, #33
 3947 0072 83F84120 		strb	r2, [r3, #65]
2061:Drivers/STM32F7xx_HAL_Driver/Src/stm32f7xx_hal_i2c.c ****     hi2c->Mode        = HAL_I2C_MODE_MEM;
 3948              		.loc 1 2061 0 discriminator 2
 3949 0076 FB68     		ldr	r3, [r7, #12]
 3950 0078 4022     		movs	r2, #64
 3951 007a 83F84220 		strb	r2, [r3, #66]
2062:Drivers/STM32F7xx_HAL_Driver/Src/stm32f7xx_hal_i2c.c ****     hi2c->ErrorCode   = HAL_I2C_ERROR_NONE;
 3952              		.loc 1 2062 0 discriminator 2
 3953 007e FB68     		ldr	r3, [r7, #12]
 3954 0080 0022     		movs	r2, #0
 3955 0082 5A64     		str	r2, [r3, #68]
2063:Drivers/STM32F7xx_HAL_Driver/Src/stm32f7xx_hal_i2c.c **** 
ARM GAS  /var/folders/n8/cvzdcwlj0vl4g_wtyz1ffy300000gn/T//ccBPNZvy.s 			page 106


2064:Drivers/STM32F7xx_HAL_Driver/Src/stm32f7xx_hal_i2c.c ****     /* Prepare transfer parameters */
2065:Drivers/STM32F7xx_HAL_Driver/Src/stm32f7xx_hal_i2c.c ****     hi2c->pBuffPtr    = pData;
 3956              		.loc 1 2065 0 discriminator 2
 3957 0084 FB68     		ldr	r3, [r7, #12]
 3958 0086 3A6A     		ldr	r2, [r7, #32]
 3959 0088 5A62     		str	r2, [r3, #36]
2066:Drivers/STM32F7xx_HAL_Driver/Src/stm32f7xx_hal_i2c.c ****     hi2c->XferCount   = Size;
 3960              		.loc 1 2066 0 discriminator 2
 3961 008a FB68     		ldr	r3, [r7, #12]
 3962 008c BA8C     		ldrh	r2, [r7, #36]	@ movhi
 3963 008e 5A85     		strh	r2, [r3, #42]	@ movhi
2067:Drivers/STM32F7xx_HAL_Driver/Src/stm32f7xx_hal_i2c.c ****     hi2c->XferOptions = I2C_NO_OPTION_FRAME;
 3964              		.loc 1 2067 0 discriminator 2
 3965 0090 FB68     		ldr	r3, [r7, #12]
 3966 0092 284A     		ldr	r2, .L202
 3967 0094 DA62     		str	r2, [r3, #44]
2068:Drivers/STM32F7xx_HAL_Driver/Src/stm32f7xx_hal_i2c.c ****     hi2c->XferISR     = I2C_Master_ISR_IT;
 3968              		.loc 1 2068 0 discriminator 2
 3969 0096 FB68     		ldr	r3, [r7, #12]
 3970 0098 274A     		ldr	r2, .L202+4
 3971 009a 5A63     		str	r2, [r3, #52]
2069:Drivers/STM32F7xx_HAL_Driver/Src/stm32f7xx_hal_i2c.c **** 
2070:Drivers/STM32F7xx_HAL_Driver/Src/stm32f7xx_hal_i2c.c ****     if (hi2c->XferCount > MAX_NBYTE_SIZE)
 3972              		.loc 1 2070 0 discriminator 2
 3973 009c FB68     		ldr	r3, [r7, #12]
 3974 009e 5B8D     		ldrh	r3, [r3, #42]	@ movhi
 3975 00a0 9BB2     		uxth	r3, r3
 3976 00a2 FF2B     		cmp	r3, #255
 3977 00a4 06D9     		bls	.L198
2071:Drivers/STM32F7xx_HAL_Driver/Src/stm32f7xx_hal_i2c.c ****     {
2072:Drivers/STM32F7xx_HAL_Driver/Src/stm32f7xx_hal_i2c.c ****       hi2c->XferSize = MAX_NBYTE_SIZE;
 3978              		.loc 1 2072 0
 3979 00a6 FB68     		ldr	r3, [r7, #12]
 3980 00a8 FF22     		movs	r2, #255
 3981 00aa 1A85     		strh	r2, [r3, #40]	@ movhi
2073:Drivers/STM32F7xx_HAL_Driver/Src/stm32f7xx_hal_i2c.c ****       xfermode = I2C_RELOAD_MODE;
 3982              		.loc 1 2073 0
 3983 00ac 4FF08073 		mov	r3, #16777216
 3984 00b0 7B61     		str	r3, [r7, #20]
 3985 00b2 07E0     		b	.L199
 3986              	.L198:
2074:Drivers/STM32F7xx_HAL_Driver/Src/stm32f7xx_hal_i2c.c ****     }
2075:Drivers/STM32F7xx_HAL_Driver/Src/stm32f7xx_hal_i2c.c ****     else
2076:Drivers/STM32F7xx_HAL_Driver/Src/stm32f7xx_hal_i2c.c ****     {
2077:Drivers/STM32F7xx_HAL_Driver/Src/stm32f7xx_hal_i2c.c ****       hi2c->XferSize = hi2c->XferCount;
 3987              		.loc 1 2077 0
 3988 00b4 FB68     		ldr	r3, [r7, #12]
 3989 00b6 5B8D     		ldrh	r3, [r3, #42]	@ movhi
 3990 00b8 9AB2     		uxth	r2, r3
 3991 00ba FB68     		ldr	r3, [r7, #12]
 3992 00bc 1A85     		strh	r2, [r3, #40]	@ movhi
2078:Drivers/STM32F7xx_HAL_Driver/Src/stm32f7xx_hal_i2c.c ****       xfermode = I2C_AUTOEND_MODE;
 3993              		.loc 1 2078 0
 3994 00be 4FF00073 		mov	r3, #33554432
 3995 00c2 7B61     		str	r3, [r7, #20]
 3996              	.L199:
2079:Drivers/STM32F7xx_HAL_Driver/Src/stm32f7xx_hal_i2c.c ****     }
ARM GAS  /var/folders/n8/cvzdcwlj0vl4g_wtyz1ffy300000gn/T//ccBPNZvy.s 			page 107


2080:Drivers/STM32F7xx_HAL_Driver/Src/stm32f7xx_hal_i2c.c **** 
2081:Drivers/STM32F7xx_HAL_Driver/Src/stm32f7xx_hal_i2c.c ****     /* Send Slave Address and Memory Address */
2082:Drivers/STM32F7xx_HAL_Driver/Src/stm32f7xx_hal_i2c.c ****     if (I2C_RequestMemoryWrite(hi2c, DevAddress, MemAddress, MemAddSize, I2C_TIMEOUT_FLAG, tickstar
 3997              		.loc 1 2082 0
 3998 00c4 F888     		ldrh	r0, [r7, #6]
 3999 00c6 3A89     		ldrh	r2, [r7, #8]
 4000 00c8 7989     		ldrh	r1, [r7, #10]
 4001 00ca 3B69     		ldr	r3, [r7, #16]
 4002 00cc 0193     		str	r3, [sp, #4]
 4003 00ce 1923     		movs	r3, #25
 4004 00d0 0093     		str	r3, [sp]
 4005 00d2 0346     		mov	r3, r0
 4006 00d4 F868     		ldr	r0, [r7, #12]
 4007 00d6 FFF7FEFF 		bl	I2C_RequestMemoryWrite
 4008 00da 0346     		mov	r3, r0
 4009 00dc 002B     		cmp	r3, #0
 4010 00de 0FD0     		beq	.L200
2083:Drivers/STM32F7xx_HAL_Driver/Src/stm32f7xx_hal_i2c.c ****     {
2084:Drivers/STM32F7xx_HAL_Driver/Src/stm32f7xx_hal_i2c.c ****       if (hi2c->ErrorCode == HAL_I2C_ERROR_AF)
 4011              		.loc 1 2084 0
 4012 00e0 FB68     		ldr	r3, [r7, #12]
 4013 00e2 5B6C     		ldr	r3, [r3, #68]
 4014 00e4 042B     		cmp	r3, #4
 4015 00e6 05D1     		bne	.L201
2085:Drivers/STM32F7xx_HAL_Driver/Src/stm32f7xx_hal_i2c.c ****       {
2086:Drivers/STM32F7xx_HAL_Driver/Src/stm32f7xx_hal_i2c.c ****         /* Process Unlocked */
2087:Drivers/STM32F7xx_HAL_Driver/Src/stm32f7xx_hal_i2c.c ****         __HAL_UNLOCK(hi2c);
 4016              		.loc 1 2087 0
 4017 00e8 FB68     		ldr	r3, [r7, #12]
 4018 00ea 0022     		movs	r2, #0
 4019 00ec 83F84020 		strb	r2, [r3, #64]
2088:Drivers/STM32F7xx_HAL_Driver/Src/stm32f7xx_hal_i2c.c ****         return HAL_ERROR;
 4020              		.loc 1 2088 0
 4021 00f0 0123     		movs	r3, #1
 4022 00f2 1AE0     		b	.L195
 4023              	.L201:
2089:Drivers/STM32F7xx_HAL_Driver/Src/stm32f7xx_hal_i2c.c ****       }
2090:Drivers/STM32F7xx_HAL_Driver/Src/stm32f7xx_hal_i2c.c ****       else
2091:Drivers/STM32F7xx_HAL_Driver/Src/stm32f7xx_hal_i2c.c ****       {
2092:Drivers/STM32F7xx_HAL_Driver/Src/stm32f7xx_hal_i2c.c ****         /* Process Unlocked */
2093:Drivers/STM32F7xx_HAL_Driver/Src/stm32f7xx_hal_i2c.c ****         __HAL_UNLOCK(hi2c);
 4024              		.loc 1 2093 0
 4025 00f4 FB68     		ldr	r3, [r7, #12]
 4026 00f6 0022     		movs	r2, #0
 4027 00f8 83F84020 		strb	r2, [r3, #64]
2094:Drivers/STM32F7xx_HAL_Driver/Src/stm32f7xx_hal_i2c.c ****         return HAL_TIMEOUT;
 4028              		.loc 1 2094 0
 4029 00fc 0323     		movs	r3, #3
 4030 00fe 14E0     		b	.L195
 4031              	.L200:
2095:Drivers/STM32F7xx_HAL_Driver/Src/stm32f7xx_hal_i2c.c ****       }
2096:Drivers/STM32F7xx_HAL_Driver/Src/stm32f7xx_hal_i2c.c ****     }
2097:Drivers/STM32F7xx_HAL_Driver/Src/stm32f7xx_hal_i2c.c **** 
2098:Drivers/STM32F7xx_HAL_Driver/Src/stm32f7xx_hal_i2c.c ****     /* Set NBYTES to write and reload if hi2c->XferCount > MAX_NBYTE_SIZE and generate RESTART */
2099:Drivers/STM32F7xx_HAL_Driver/Src/stm32f7xx_hal_i2c.c ****     I2C_TransferConfig(hi2c, DevAddress, hi2c->XferSize, xfermode, I2C_NO_STARTSTOP);
 4032              		.loc 1 2099 0
 4033 0100 FB68     		ldr	r3, [r7, #12]
ARM GAS  /var/folders/n8/cvzdcwlj0vl4g_wtyz1ffy300000gn/T//ccBPNZvy.s 			page 108


 4034 0102 1B8D     		ldrh	r3, [r3, #40]
 4035 0104 DAB2     		uxtb	r2, r3
 4036 0106 7989     		ldrh	r1, [r7, #10]
 4037 0108 0023     		movs	r3, #0
 4038 010a 0093     		str	r3, [sp]
 4039 010c 7B69     		ldr	r3, [r7, #20]
 4040 010e F868     		ldr	r0, [r7, #12]
 4041 0110 FFF7FEFF 		bl	I2C_TransferConfig
2100:Drivers/STM32F7xx_HAL_Driver/Src/stm32f7xx_hal_i2c.c **** 
2101:Drivers/STM32F7xx_HAL_Driver/Src/stm32f7xx_hal_i2c.c ****     /* Process Unlocked */
2102:Drivers/STM32F7xx_HAL_Driver/Src/stm32f7xx_hal_i2c.c ****     __HAL_UNLOCK(hi2c);
 4042              		.loc 1 2102 0
 4043 0114 FB68     		ldr	r3, [r7, #12]
 4044 0116 0022     		movs	r2, #0
 4045 0118 83F84020 		strb	r2, [r3, #64]
2103:Drivers/STM32F7xx_HAL_Driver/Src/stm32f7xx_hal_i2c.c **** 
2104:Drivers/STM32F7xx_HAL_Driver/Src/stm32f7xx_hal_i2c.c ****     /* Note : The I2C interrupts must be enabled after unlocking current process
2105:Drivers/STM32F7xx_HAL_Driver/Src/stm32f7xx_hal_i2c.c ****               to avoid the risk of I2C interrupt handle execution before current
2106:Drivers/STM32F7xx_HAL_Driver/Src/stm32f7xx_hal_i2c.c ****               process unlock */
2107:Drivers/STM32F7xx_HAL_Driver/Src/stm32f7xx_hal_i2c.c **** 
2108:Drivers/STM32F7xx_HAL_Driver/Src/stm32f7xx_hal_i2c.c ****     /* Enable ERR, TC, STOP, NACK, TXI interrupt */
2109:Drivers/STM32F7xx_HAL_Driver/Src/stm32f7xx_hal_i2c.c ****     /* possible to enable all of these */
2110:Drivers/STM32F7xx_HAL_Driver/Src/stm32f7xx_hal_i2c.c ****     /* I2C_IT_ERRI | I2C_IT_TCI| I2C_IT_STOPI| I2C_IT_NACKI | I2C_IT_ADDRI | I2C_IT_RXI | I2C_IT_TX
2111:Drivers/STM32F7xx_HAL_Driver/Src/stm32f7xx_hal_i2c.c ****     I2C_Enable_IRQ(hi2c, I2C_XFER_TX_IT);
 4046              		.loc 1 2111 0
 4047 011c 0121     		movs	r1, #1
 4048 011e F868     		ldr	r0, [r7, #12]
 4049 0120 FFF7FEFF 		bl	I2C_Enable_IRQ
2112:Drivers/STM32F7xx_HAL_Driver/Src/stm32f7xx_hal_i2c.c **** 
2113:Drivers/STM32F7xx_HAL_Driver/Src/stm32f7xx_hal_i2c.c ****     return HAL_OK;
 4050              		.loc 1 2113 0
 4051 0124 0023     		movs	r3, #0
 4052 0126 00E0     		b	.L195
 4053              	.L192:
2114:Drivers/STM32F7xx_HAL_Driver/Src/stm32f7xx_hal_i2c.c ****   }
2115:Drivers/STM32F7xx_HAL_Driver/Src/stm32f7xx_hal_i2c.c ****   else
2116:Drivers/STM32F7xx_HAL_Driver/Src/stm32f7xx_hal_i2c.c ****   {
2117:Drivers/STM32F7xx_HAL_Driver/Src/stm32f7xx_hal_i2c.c ****     return HAL_BUSY;
 4054              		.loc 1 2117 0
 4055 0128 0223     		movs	r3, #2
 4056              	.L195:
2118:Drivers/STM32F7xx_HAL_Driver/Src/stm32f7xx_hal_i2c.c ****   }
2119:Drivers/STM32F7xx_HAL_Driver/Src/stm32f7xx_hal_i2c.c **** }
 4057              		.loc 1 2119 0
 4058 012a 1846     		mov	r0, r3
 4059 012c 1837     		adds	r7, r7, #24
 4060              	.LCFI95:
 4061              		.cfi_def_cfa_offset 8
 4062 012e BD46     		mov	sp, r7
 4063              	.LCFI96:
 4064              		.cfi_def_cfa_register 13
 4065              		@ sp needed
 4066 0130 80BD     		pop	{r7, pc}
 4067              	.L203:
 4068 0132 00BF     		.align	2
 4069              	.L202:
 4070 0134 0000FFFF 		.word	-65536
ARM GAS  /var/folders/n8/cvzdcwlj0vl4g_wtyz1ffy300000gn/T//ccBPNZvy.s 			page 109


 4071 0138 00000000 		.word	I2C_Master_ISR_IT
 4072              		.cfi_endproc
 4073              	.LFE156:
 4075              		.section	.text.HAL_I2C_Mem_Read_IT,"ax",%progbits
 4076              		.align	1
 4077              		.global	HAL_I2C_Mem_Read_IT
 4078              		.syntax unified
 4079              		.thumb
 4080              		.thumb_func
 4081              		.fpu fpv5-sp-d16
 4083              	HAL_I2C_Mem_Read_IT:
 4084              	.LFB157:
2120:Drivers/STM32F7xx_HAL_Driver/Src/stm32f7xx_hal_i2c.c **** 
2121:Drivers/STM32F7xx_HAL_Driver/Src/stm32f7xx_hal_i2c.c **** /**
2122:Drivers/STM32F7xx_HAL_Driver/Src/stm32f7xx_hal_i2c.c ****   * @brief  Read an amount of data in non-blocking mode with Interrupt from a specific memory addre
2123:Drivers/STM32F7xx_HAL_Driver/Src/stm32f7xx_hal_i2c.c ****   * @param  hi2c Pointer to a I2C_HandleTypeDef structure that contains
2124:Drivers/STM32F7xx_HAL_Driver/Src/stm32f7xx_hal_i2c.c ****   *                the configuration information for the specified I2C.
2125:Drivers/STM32F7xx_HAL_Driver/Src/stm32f7xx_hal_i2c.c ****   * @param  DevAddress Target device address which contain device 7 or 10 bits address value
2126:Drivers/STM32F7xx_HAL_Driver/Src/stm32f7xx_hal_i2c.c ****   *         in datasheet must be shifted to the left before calling the interface
2127:Drivers/STM32F7xx_HAL_Driver/Src/stm32f7xx_hal_i2c.c ****   * @param  MemAddress Internal memory address
2128:Drivers/STM32F7xx_HAL_Driver/Src/stm32f7xx_hal_i2c.c ****   * @param  MemAddSize Size of internal memory address
2129:Drivers/STM32F7xx_HAL_Driver/Src/stm32f7xx_hal_i2c.c ****   * @param  pData Pointer to data buffer
2130:Drivers/STM32F7xx_HAL_Driver/Src/stm32f7xx_hal_i2c.c ****   * @param  Size Amount of data to be sent
2131:Drivers/STM32F7xx_HAL_Driver/Src/stm32f7xx_hal_i2c.c ****   * @retval HAL status
2132:Drivers/STM32F7xx_HAL_Driver/Src/stm32f7xx_hal_i2c.c ****   */
2133:Drivers/STM32F7xx_HAL_Driver/Src/stm32f7xx_hal_i2c.c **** HAL_StatusTypeDef HAL_I2C_Mem_Read_IT(I2C_HandleTypeDef *hi2c, uint16_t DevAddress, uint16_t MemAdd
2134:Drivers/STM32F7xx_HAL_Driver/Src/stm32f7xx_hal_i2c.c **** {
 4085              		.loc 1 2134 0
 4086              		.cfi_startproc
 4087              		@ args = 8, pretend = 0, frame = 24
 4088              		@ frame_needed = 1, uses_anonymous_args = 0
 4089 0000 80B5     		push	{r7, lr}
 4090              	.LCFI97:
 4091              		.cfi_def_cfa_offset 8
 4092              		.cfi_offset 7, -8
 4093              		.cfi_offset 14, -4
 4094 0002 88B0     		sub	sp, sp, #32
 4095              	.LCFI98:
 4096              		.cfi_def_cfa_offset 40
 4097 0004 02AF     		add	r7, sp, #8
 4098              	.LCFI99:
 4099              		.cfi_def_cfa 7, 32
 4100 0006 F860     		str	r0, [r7, #12]
 4101 0008 0846     		mov	r0, r1
 4102 000a 1146     		mov	r1, r2
 4103 000c 1A46     		mov	r2, r3
 4104 000e 0346     		mov	r3, r0	@ movhi
 4105 0010 7B81     		strh	r3, [r7, #10]	@ movhi
 4106 0012 0B46     		mov	r3, r1	@ movhi
 4107 0014 3B81     		strh	r3, [r7, #8]	@ movhi
 4108 0016 1346     		mov	r3, r2	@ movhi
 4109 0018 FB80     		strh	r3, [r7, #6]	@ movhi
2135:Drivers/STM32F7xx_HAL_Driver/Src/stm32f7xx_hal_i2c.c ****   uint32_t tickstart = 0U;
 4110              		.loc 1 2135 0
 4111 001a 0023     		movs	r3, #0
 4112 001c 3B61     		str	r3, [r7, #16]
2136:Drivers/STM32F7xx_HAL_Driver/Src/stm32f7xx_hal_i2c.c ****   uint32_t xfermode = 0U;
ARM GAS  /var/folders/n8/cvzdcwlj0vl4g_wtyz1ffy300000gn/T//ccBPNZvy.s 			page 110


 4113              		.loc 1 2136 0
 4114 001e 0023     		movs	r3, #0
 4115 0020 7B61     		str	r3, [r7, #20]
2137:Drivers/STM32F7xx_HAL_Driver/Src/stm32f7xx_hal_i2c.c **** 
2138:Drivers/STM32F7xx_HAL_Driver/Src/stm32f7xx_hal_i2c.c ****   /* Check the parameters */
2139:Drivers/STM32F7xx_HAL_Driver/Src/stm32f7xx_hal_i2c.c ****   assert_param(IS_I2C_MEMADD_SIZE(MemAddSize));
2140:Drivers/STM32F7xx_HAL_Driver/Src/stm32f7xx_hal_i2c.c **** 
2141:Drivers/STM32F7xx_HAL_Driver/Src/stm32f7xx_hal_i2c.c ****   if (hi2c->State == HAL_I2C_STATE_READY)
 4116              		.loc 1 2141 0
 4117 0022 FB68     		ldr	r3, [r7, #12]
 4118 0024 93F84130 		ldrb	r3, [r3, #65]
 4119 0028 DBB2     		uxtb	r3, r3
 4120 002a 202B     		cmp	r3, #32
 4121 002c 7CD1     		bne	.L205
2142:Drivers/STM32F7xx_HAL_Driver/Src/stm32f7xx_hal_i2c.c ****   {
2143:Drivers/STM32F7xx_HAL_Driver/Src/stm32f7xx_hal_i2c.c ****     if ((pData == NULL) || (Size == 0U))
 4122              		.loc 1 2143 0
 4123 002e 3B6A     		ldr	r3, [r7, #32]
 4124 0030 002B     		cmp	r3, #0
 4125 0032 02D0     		beq	.L206
 4126              		.loc 1 2143 0 is_stmt 0 discriminator 1
 4127 0034 BB8C     		ldrh	r3, [r7, #36]
 4128 0036 002B     		cmp	r3, #0
 4129 0038 01D1     		bne	.L207
 4130              	.L206:
2144:Drivers/STM32F7xx_HAL_Driver/Src/stm32f7xx_hal_i2c.c ****     {
2145:Drivers/STM32F7xx_HAL_Driver/Src/stm32f7xx_hal_i2c.c ****       return  HAL_ERROR;
 4131              		.loc 1 2145 0 is_stmt 1
 4132 003a 0123     		movs	r3, #1
 4133 003c 75E0     		b	.L208
 4134              	.L207:
2146:Drivers/STM32F7xx_HAL_Driver/Src/stm32f7xx_hal_i2c.c ****     }
2147:Drivers/STM32F7xx_HAL_Driver/Src/stm32f7xx_hal_i2c.c **** 
2148:Drivers/STM32F7xx_HAL_Driver/Src/stm32f7xx_hal_i2c.c ****     if (__HAL_I2C_GET_FLAG(hi2c, I2C_FLAG_BUSY) == SET)
 4135              		.loc 1 2148 0
 4136 003e FB68     		ldr	r3, [r7, #12]
 4137 0040 1B68     		ldr	r3, [r3]
 4138 0042 9B69     		ldr	r3, [r3, #24]
 4139 0044 03F40043 		and	r3, r3, #32768
 4140 0048 B3F5004F 		cmp	r3, #32768
 4141 004c 01D1     		bne	.L209
2149:Drivers/STM32F7xx_HAL_Driver/Src/stm32f7xx_hal_i2c.c ****     {
2150:Drivers/STM32F7xx_HAL_Driver/Src/stm32f7xx_hal_i2c.c ****       return HAL_BUSY;
 4142              		.loc 1 2150 0
 4143 004e 0223     		movs	r3, #2
 4144 0050 6BE0     		b	.L208
 4145              	.L209:
2151:Drivers/STM32F7xx_HAL_Driver/Src/stm32f7xx_hal_i2c.c ****     }
2152:Drivers/STM32F7xx_HAL_Driver/Src/stm32f7xx_hal_i2c.c **** 
2153:Drivers/STM32F7xx_HAL_Driver/Src/stm32f7xx_hal_i2c.c ****     /* Process Locked */
2154:Drivers/STM32F7xx_HAL_Driver/Src/stm32f7xx_hal_i2c.c ****     __HAL_LOCK(hi2c);
 4146              		.loc 1 2154 0
 4147 0052 FB68     		ldr	r3, [r7, #12]
 4148 0054 93F84030 		ldrb	r3, [r3, #64]	@ zero_extendqisi2
 4149 0058 012B     		cmp	r3, #1
 4150 005a 01D1     		bne	.L210
 4151              		.loc 1 2154 0 is_stmt 0 discriminator 1
ARM GAS  /var/folders/n8/cvzdcwlj0vl4g_wtyz1ffy300000gn/T//ccBPNZvy.s 			page 111


 4152 005c 0223     		movs	r3, #2
 4153 005e 64E0     		b	.L208
 4154              	.L210:
 4155              		.loc 1 2154 0 discriminator 2
 4156 0060 FB68     		ldr	r3, [r7, #12]
 4157 0062 0122     		movs	r2, #1
 4158 0064 83F84020 		strb	r2, [r3, #64]
2155:Drivers/STM32F7xx_HAL_Driver/Src/stm32f7xx_hal_i2c.c **** 
2156:Drivers/STM32F7xx_HAL_Driver/Src/stm32f7xx_hal_i2c.c ****     /* Init tickstart for timeout management*/
2157:Drivers/STM32F7xx_HAL_Driver/Src/stm32f7xx_hal_i2c.c ****     tickstart = HAL_GetTick();
 4159              		.loc 1 2157 0 is_stmt 1 discriminator 2
 4160 0068 FFF7FEFF 		bl	HAL_GetTick
 4161 006c 3861     		str	r0, [r7, #16]
2158:Drivers/STM32F7xx_HAL_Driver/Src/stm32f7xx_hal_i2c.c **** 
2159:Drivers/STM32F7xx_HAL_Driver/Src/stm32f7xx_hal_i2c.c ****     hi2c->State       = HAL_I2C_STATE_BUSY_RX;
 4162              		.loc 1 2159 0 discriminator 2
 4163 006e FB68     		ldr	r3, [r7, #12]
 4164 0070 2222     		movs	r2, #34
 4165 0072 83F84120 		strb	r2, [r3, #65]
2160:Drivers/STM32F7xx_HAL_Driver/Src/stm32f7xx_hal_i2c.c ****     hi2c->Mode        = HAL_I2C_MODE_MEM;
 4166              		.loc 1 2160 0 discriminator 2
 4167 0076 FB68     		ldr	r3, [r7, #12]
 4168 0078 4022     		movs	r2, #64
 4169 007a 83F84220 		strb	r2, [r3, #66]
2161:Drivers/STM32F7xx_HAL_Driver/Src/stm32f7xx_hal_i2c.c ****     hi2c->ErrorCode   = HAL_I2C_ERROR_NONE;
 4170              		.loc 1 2161 0 discriminator 2
 4171 007e FB68     		ldr	r3, [r7, #12]
 4172 0080 0022     		movs	r2, #0
 4173 0082 5A64     		str	r2, [r3, #68]
2162:Drivers/STM32F7xx_HAL_Driver/Src/stm32f7xx_hal_i2c.c **** 
2163:Drivers/STM32F7xx_HAL_Driver/Src/stm32f7xx_hal_i2c.c ****     /* Prepare transfer parameters */
2164:Drivers/STM32F7xx_HAL_Driver/Src/stm32f7xx_hal_i2c.c ****     hi2c->pBuffPtr    = pData;
 4174              		.loc 1 2164 0 discriminator 2
 4175 0084 FB68     		ldr	r3, [r7, #12]
 4176 0086 3A6A     		ldr	r2, [r7, #32]
 4177 0088 5A62     		str	r2, [r3, #36]
2165:Drivers/STM32F7xx_HAL_Driver/Src/stm32f7xx_hal_i2c.c ****     hi2c->XferCount   = Size;
 4178              		.loc 1 2165 0 discriminator 2
 4179 008a FB68     		ldr	r3, [r7, #12]
 4180 008c BA8C     		ldrh	r2, [r7, #36]	@ movhi
 4181 008e 5A85     		strh	r2, [r3, #42]	@ movhi
2166:Drivers/STM32F7xx_HAL_Driver/Src/stm32f7xx_hal_i2c.c ****     hi2c->XferOptions = I2C_NO_OPTION_FRAME;
 4182              		.loc 1 2166 0 discriminator 2
 4183 0090 FB68     		ldr	r3, [r7, #12]
 4184 0092 284A     		ldr	r2, .L215
 4185 0094 DA62     		str	r2, [r3, #44]
2167:Drivers/STM32F7xx_HAL_Driver/Src/stm32f7xx_hal_i2c.c ****     hi2c->XferISR     = I2C_Master_ISR_IT;
 4186              		.loc 1 2167 0 discriminator 2
 4187 0096 FB68     		ldr	r3, [r7, #12]
 4188 0098 274A     		ldr	r2, .L215+4
 4189 009a 5A63     		str	r2, [r3, #52]
2168:Drivers/STM32F7xx_HAL_Driver/Src/stm32f7xx_hal_i2c.c **** 
2169:Drivers/STM32F7xx_HAL_Driver/Src/stm32f7xx_hal_i2c.c ****     if (hi2c->XferCount > MAX_NBYTE_SIZE)
 4190              		.loc 1 2169 0 discriminator 2
 4191 009c FB68     		ldr	r3, [r7, #12]
 4192 009e 5B8D     		ldrh	r3, [r3, #42]	@ movhi
 4193 00a0 9BB2     		uxth	r3, r3
ARM GAS  /var/folders/n8/cvzdcwlj0vl4g_wtyz1ffy300000gn/T//ccBPNZvy.s 			page 112


 4194 00a2 FF2B     		cmp	r3, #255
 4195 00a4 06D9     		bls	.L211
2170:Drivers/STM32F7xx_HAL_Driver/Src/stm32f7xx_hal_i2c.c ****     {
2171:Drivers/STM32F7xx_HAL_Driver/Src/stm32f7xx_hal_i2c.c ****       hi2c->XferSize = MAX_NBYTE_SIZE;
 4196              		.loc 1 2171 0
 4197 00a6 FB68     		ldr	r3, [r7, #12]
 4198 00a8 FF22     		movs	r2, #255
 4199 00aa 1A85     		strh	r2, [r3, #40]	@ movhi
2172:Drivers/STM32F7xx_HAL_Driver/Src/stm32f7xx_hal_i2c.c ****       xfermode = I2C_RELOAD_MODE;
 4200              		.loc 1 2172 0
 4201 00ac 4FF08073 		mov	r3, #16777216
 4202 00b0 7B61     		str	r3, [r7, #20]
 4203 00b2 07E0     		b	.L212
 4204              	.L211:
2173:Drivers/STM32F7xx_HAL_Driver/Src/stm32f7xx_hal_i2c.c ****     }
2174:Drivers/STM32F7xx_HAL_Driver/Src/stm32f7xx_hal_i2c.c ****     else
2175:Drivers/STM32F7xx_HAL_Driver/Src/stm32f7xx_hal_i2c.c ****     {
2176:Drivers/STM32F7xx_HAL_Driver/Src/stm32f7xx_hal_i2c.c ****       hi2c->XferSize = hi2c->XferCount;
 4205              		.loc 1 2176 0
 4206 00b4 FB68     		ldr	r3, [r7, #12]
 4207 00b6 5B8D     		ldrh	r3, [r3, #42]	@ movhi
 4208 00b8 9AB2     		uxth	r2, r3
 4209 00ba FB68     		ldr	r3, [r7, #12]
 4210 00bc 1A85     		strh	r2, [r3, #40]	@ movhi
2177:Drivers/STM32F7xx_HAL_Driver/Src/stm32f7xx_hal_i2c.c ****       xfermode = I2C_AUTOEND_MODE;
 4211              		.loc 1 2177 0
 4212 00be 4FF00073 		mov	r3, #33554432
 4213 00c2 7B61     		str	r3, [r7, #20]
 4214              	.L212:
2178:Drivers/STM32F7xx_HAL_Driver/Src/stm32f7xx_hal_i2c.c ****     }
2179:Drivers/STM32F7xx_HAL_Driver/Src/stm32f7xx_hal_i2c.c **** 
2180:Drivers/STM32F7xx_HAL_Driver/Src/stm32f7xx_hal_i2c.c ****     /* Send Slave Address and Memory Address */
2181:Drivers/STM32F7xx_HAL_Driver/Src/stm32f7xx_hal_i2c.c ****     if (I2C_RequestMemoryRead(hi2c, DevAddress, MemAddress, MemAddSize, I2C_TIMEOUT_FLAG, tickstart
 4215              		.loc 1 2181 0
 4216 00c4 F888     		ldrh	r0, [r7, #6]
 4217 00c6 3A89     		ldrh	r2, [r7, #8]
 4218 00c8 7989     		ldrh	r1, [r7, #10]
 4219 00ca 3B69     		ldr	r3, [r7, #16]
 4220 00cc 0193     		str	r3, [sp, #4]
 4221 00ce 1923     		movs	r3, #25
 4222 00d0 0093     		str	r3, [sp]
 4223 00d2 0346     		mov	r3, r0
 4224 00d4 F868     		ldr	r0, [r7, #12]
 4225 00d6 FFF7FEFF 		bl	I2C_RequestMemoryRead
 4226 00da 0346     		mov	r3, r0
 4227 00dc 002B     		cmp	r3, #0
 4228 00de 0FD0     		beq	.L213
2182:Drivers/STM32F7xx_HAL_Driver/Src/stm32f7xx_hal_i2c.c ****     {
2183:Drivers/STM32F7xx_HAL_Driver/Src/stm32f7xx_hal_i2c.c ****       if (hi2c->ErrorCode == HAL_I2C_ERROR_AF)
 4229              		.loc 1 2183 0
 4230 00e0 FB68     		ldr	r3, [r7, #12]
 4231 00e2 5B6C     		ldr	r3, [r3, #68]
 4232 00e4 042B     		cmp	r3, #4
 4233 00e6 05D1     		bne	.L214
2184:Drivers/STM32F7xx_HAL_Driver/Src/stm32f7xx_hal_i2c.c ****       {
2185:Drivers/STM32F7xx_HAL_Driver/Src/stm32f7xx_hal_i2c.c ****         /* Process Unlocked */
2186:Drivers/STM32F7xx_HAL_Driver/Src/stm32f7xx_hal_i2c.c ****         __HAL_UNLOCK(hi2c);
ARM GAS  /var/folders/n8/cvzdcwlj0vl4g_wtyz1ffy300000gn/T//ccBPNZvy.s 			page 113


 4234              		.loc 1 2186 0
 4235 00e8 FB68     		ldr	r3, [r7, #12]
 4236 00ea 0022     		movs	r2, #0
 4237 00ec 83F84020 		strb	r2, [r3, #64]
2187:Drivers/STM32F7xx_HAL_Driver/Src/stm32f7xx_hal_i2c.c ****         return HAL_ERROR;
 4238              		.loc 1 2187 0
 4239 00f0 0123     		movs	r3, #1
 4240 00f2 1AE0     		b	.L208
 4241              	.L214:
2188:Drivers/STM32F7xx_HAL_Driver/Src/stm32f7xx_hal_i2c.c ****       }
2189:Drivers/STM32F7xx_HAL_Driver/Src/stm32f7xx_hal_i2c.c ****       else
2190:Drivers/STM32F7xx_HAL_Driver/Src/stm32f7xx_hal_i2c.c ****       {
2191:Drivers/STM32F7xx_HAL_Driver/Src/stm32f7xx_hal_i2c.c ****         /* Process Unlocked */
2192:Drivers/STM32F7xx_HAL_Driver/Src/stm32f7xx_hal_i2c.c ****         __HAL_UNLOCK(hi2c);
 4242              		.loc 1 2192 0
 4243 00f4 FB68     		ldr	r3, [r7, #12]
 4244 00f6 0022     		movs	r2, #0
 4245 00f8 83F84020 		strb	r2, [r3, #64]
2193:Drivers/STM32F7xx_HAL_Driver/Src/stm32f7xx_hal_i2c.c ****         return HAL_TIMEOUT;
 4246              		.loc 1 2193 0
 4247 00fc 0323     		movs	r3, #3
 4248 00fe 14E0     		b	.L208
 4249              	.L213:
2194:Drivers/STM32F7xx_HAL_Driver/Src/stm32f7xx_hal_i2c.c ****       }
2195:Drivers/STM32F7xx_HAL_Driver/Src/stm32f7xx_hal_i2c.c ****     }
2196:Drivers/STM32F7xx_HAL_Driver/Src/stm32f7xx_hal_i2c.c **** 
2197:Drivers/STM32F7xx_HAL_Driver/Src/stm32f7xx_hal_i2c.c ****     /* Set NBYTES to write and reload if hi2c->XferCount > MAX_NBYTE_SIZE and generate RESTART */
2198:Drivers/STM32F7xx_HAL_Driver/Src/stm32f7xx_hal_i2c.c ****     I2C_TransferConfig(hi2c, DevAddress, hi2c->XferSize, xfermode, I2C_GENERATE_START_READ);
 4250              		.loc 1 2198 0
 4251 0100 FB68     		ldr	r3, [r7, #12]
 4252 0102 1B8D     		ldrh	r3, [r3, #40]
 4253 0104 DAB2     		uxtb	r2, r3
 4254 0106 7989     		ldrh	r1, [r7, #10]
 4255 0108 0C4B     		ldr	r3, .L215+8
 4256 010a 0093     		str	r3, [sp]
 4257 010c 7B69     		ldr	r3, [r7, #20]
 4258 010e F868     		ldr	r0, [r7, #12]
 4259 0110 FFF7FEFF 		bl	I2C_TransferConfig
2199:Drivers/STM32F7xx_HAL_Driver/Src/stm32f7xx_hal_i2c.c **** 
2200:Drivers/STM32F7xx_HAL_Driver/Src/stm32f7xx_hal_i2c.c ****     /* Process Unlocked */
2201:Drivers/STM32F7xx_HAL_Driver/Src/stm32f7xx_hal_i2c.c ****     __HAL_UNLOCK(hi2c);
 4260              		.loc 1 2201 0
 4261 0114 FB68     		ldr	r3, [r7, #12]
 4262 0116 0022     		movs	r2, #0
 4263 0118 83F84020 		strb	r2, [r3, #64]
2202:Drivers/STM32F7xx_HAL_Driver/Src/stm32f7xx_hal_i2c.c **** 
2203:Drivers/STM32F7xx_HAL_Driver/Src/stm32f7xx_hal_i2c.c ****     /* Note : The I2C interrupts must be enabled after unlocking current process
2204:Drivers/STM32F7xx_HAL_Driver/Src/stm32f7xx_hal_i2c.c ****               to avoid the risk of I2C interrupt handle execution before current
2205:Drivers/STM32F7xx_HAL_Driver/Src/stm32f7xx_hal_i2c.c ****               process unlock */
2206:Drivers/STM32F7xx_HAL_Driver/Src/stm32f7xx_hal_i2c.c **** 
2207:Drivers/STM32F7xx_HAL_Driver/Src/stm32f7xx_hal_i2c.c ****     /* Enable ERR, TC, STOP, NACK, RXI interrupt */
2208:Drivers/STM32F7xx_HAL_Driver/Src/stm32f7xx_hal_i2c.c ****     /* possible to enable all of these */
2209:Drivers/STM32F7xx_HAL_Driver/Src/stm32f7xx_hal_i2c.c ****     /* I2C_IT_ERRI | I2C_IT_TCI| I2C_IT_STOPI| I2C_IT_NACKI | I2C_IT_ADDRI | I2C_IT_RXI | I2C_IT_TX
2210:Drivers/STM32F7xx_HAL_Driver/Src/stm32f7xx_hal_i2c.c ****     I2C_Enable_IRQ(hi2c, I2C_XFER_RX_IT);
 4264              		.loc 1 2210 0
 4265 011c 0221     		movs	r1, #2
 4266 011e F868     		ldr	r0, [r7, #12]
ARM GAS  /var/folders/n8/cvzdcwlj0vl4g_wtyz1ffy300000gn/T//ccBPNZvy.s 			page 114


 4267 0120 FFF7FEFF 		bl	I2C_Enable_IRQ
2211:Drivers/STM32F7xx_HAL_Driver/Src/stm32f7xx_hal_i2c.c **** 
2212:Drivers/STM32F7xx_HAL_Driver/Src/stm32f7xx_hal_i2c.c ****     return HAL_OK;
 4268              		.loc 1 2212 0
 4269 0124 0023     		movs	r3, #0
 4270 0126 00E0     		b	.L208
 4271              	.L205:
2213:Drivers/STM32F7xx_HAL_Driver/Src/stm32f7xx_hal_i2c.c ****   }
2214:Drivers/STM32F7xx_HAL_Driver/Src/stm32f7xx_hal_i2c.c ****   else
2215:Drivers/STM32F7xx_HAL_Driver/Src/stm32f7xx_hal_i2c.c ****   {
2216:Drivers/STM32F7xx_HAL_Driver/Src/stm32f7xx_hal_i2c.c ****     return HAL_BUSY;
 4272              		.loc 1 2216 0
 4273 0128 0223     		movs	r3, #2
 4274              	.L208:
2217:Drivers/STM32F7xx_HAL_Driver/Src/stm32f7xx_hal_i2c.c ****   }
2218:Drivers/STM32F7xx_HAL_Driver/Src/stm32f7xx_hal_i2c.c **** }
 4275              		.loc 1 2218 0
 4276 012a 1846     		mov	r0, r3
 4277 012c 1837     		adds	r7, r7, #24
 4278              	.LCFI100:
 4279              		.cfi_def_cfa_offset 8
 4280 012e BD46     		mov	sp, r7
 4281              	.LCFI101:
 4282              		.cfi_def_cfa_register 13
 4283              		@ sp needed
 4284 0130 80BD     		pop	{r7, pc}
 4285              	.L216:
 4286 0132 00BF     		.align	2
 4287              	.L215:
 4288 0134 0000FFFF 		.word	-65536
 4289 0138 00000000 		.word	I2C_Master_ISR_IT
 4290 013c 00240080 		.word	-2147474432
 4291              		.cfi_endproc
 4292              	.LFE157:
 4294              		.section	.text.HAL_I2C_Mem_Write_DMA,"ax",%progbits
 4295              		.align	1
 4296              		.global	HAL_I2C_Mem_Write_DMA
 4297              		.syntax unified
 4298              		.thumb
 4299              		.thumb_func
 4300              		.fpu fpv5-sp-d16
 4302              	HAL_I2C_Mem_Write_DMA:
 4303              	.LFB158:
2219:Drivers/STM32F7xx_HAL_Driver/Src/stm32f7xx_hal_i2c.c **** /**
2220:Drivers/STM32F7xx_HAL_Driver/Src/stm32f7xx_hal_i2c.c ****   * @brief  Write an amount of data in non-blocking mode with DMA to a specific memory address
2221:Drivers/STM32F7xx_HAL_Driver/Src/stm32f7xx_hal_i2c.c ****   * @param  hi2c Pointer to a I2C_HandleTypeDef structure that contains
2222:Drivers/STM32F7xx_HAL_Driver/Src/stm32f7xx_hal_i2c.c ****   *                the configuration information for the specified I2C.
2223:Drivers/STM32F7xx_HAL_Driver/Src/stm32f7xx_hal_i2c.c ****   * @param  DevAddress Target device address which contain device 7 or 10 bits address value
2224:Drivers/STM32F7xx_HAL_Driver/Src/stm32f7xx_hal_i2c.c ****   *         in datasheet must be shifted to the left before calling the interface
2225:Drivers/STM32F7xx_HAL_Driver/Src/stm32f7xx_hal_i2c.c ****   * @param  MemAddress Internal memory address
2226:Drivers/STM32F7xx_HAL_Driver/Src/stm32f7xx_hal_i2c.c ****   * @param  MemAddSize Size of internal memory address
2227:Drivers/STM32F7xx_HAL_Driver/Src/stm32f7xx_hal_i2c.c ****   * @param  pData Pointer to data buffer
2228:Drivers/STM32F7xx_HAL_Driver/Src/stm32f7xx_hal_i2c.c ****   * @param  Size Amount of data to be sent
2229:Drivers/STM32F7xx_HAL_Driver/Src/stm32f7xx_hal_i2c.c ****   * @retval HAL status
2230:Drivers/STM32F7xx_HAL_Driver/Src/stm32f7xx_hal_i2c.c ****   */
2231:Drivers/STM32F7xx_HAL_Driver/Src/stm32f7xx_hal_i2c.c **** HAL_StatusTypeDef HAL_I2C_Mem_Write_DMA(I2C_HandleTypeDef *hi2c, uint16_t DevAddress, uint16_t MemA
2232:Drivers/STM32F7xx_HAL_Driver/Src/stm32f7xx_hal_i2c.c **** {
ARM GAS  /var/folders/n8/cvzdcwlj0vl4g_wtyz1ffy300000gn/T//ccBPNZvy.s 			page 115


 4304              		.loc 1 2232 0
 4305              		.cfi_startproc
 4306              		@ args = 8, pretend = 0, frame = 24
 4307              		@ frame_needed = 1, uses_anonymous_args = 0
 4308 0000 80B5     		push	{r7, lr}
 4309              	.LCFI102:
 4310              		.cfi_def_cfa_offset 8
 4311              		.cfi_offset 7, -8
 4312              		.cfi_offset 14, -4
 4313 0002 88B0     		sub	sp, sp, #32
 4314              	.LCFI103:
 4315              		.cfi_def_cfa_offset 40
 4316 0004 02AF     		add	r7, sp, #8
 4317              	.LCFI104:
 4318              		.cfi_def_cfa 7, 32
 4319 0006 F860     		str	r0, [r7, #12]
 4320 0008 0846     		mov	r0, r1
 4321 000a 1146     		mov	r1, r2
 4322 000c 1A46     		mov	r2, r3
 4323 000e 0346     		mov	r3, r0	@ movhi
 4324 0010 7B81     		strh	r3, [r7, #10]	@ movhi
 4325 0012 0B46     		mov	r3, r1	@ movhi
 4326 0014 3B81     		strh	r3, [r7, #8]	@ movhi
 4327 0016 1346     		mov	r3, r2	@ movhi
 4328 0018 FB80     		strh	r3, [r7, #6]	@ movhi
2233:Drivers/STM32F7xx_HAL_Driver/Src/stm32f7xx_hal_i2c.c ****   uint32_t tickstart = 0U;
 4329              		.loc 1 2233 0
 4330 001a 0023     		movs	r3, #0
 4331 001c 3B61     		str	r3, [r7, #16]
2234:Drivers/STM32F7xx_HAL_Driver/Src/stm32f7xx_hal_i2c.c ****   uint32_t xfermode = 0U;
 4332              		.loc 1 2234 0
 4333 001e 0023     		movs	r3, #0
 4334 0020 7B61     		str	r3, [r7, #20]
2235:Drivers/STM32F7xx_HAL_Driver/Src/stm32f7xx_hal_i2c.c **** 
2236:Drivers/STM32F7xx_HAL_Driver/Src/stm32f7xx_hal_i2c.c ****   /* Check the parameters */
2237:Drivers/STM32F7xx_HAL_Driver/Src/stm32f7xx_hal_i2c.c ****   assert_param(IS_I2C_MEMADD_SIZE(MemAddSize));
2238:Drivers/STM32F7xx_HAL_Driver/Src/stm32f7xx_hal_i2c.c **** 
2239:Drivers/STM32F7xx_HAL_Driver/Src/stm32f7xx_hal_i2c.c ****   if (hi2c->State == HAL_I2C_STATE_READY)
 4335              		.loc 1 2239 0
 4336 0022 FB68     		ldr	r3, [r7, #12]
 4337 0024 93F84130 		ldrb	r3, [r3, #65]
 4338 0028 DBB2     		uxtb	r3, r3
 4339 002a 202B     		cmp	r3, #32
 4340 002c 40F0A980 		bne	.L218
2240:Drivers/STM32F7xx_HAL_Driver/Src/stm32f7xx_hal_i2c.c ****   {
2241:Drivers/STM32F7xx_HAL_Driver/Src/stm32f7xx_hal_i2c.c ****     if ((pData == NULL) || (Size == 0U))
 4341              		.loc 1 2241 0
 4342 0030 3B6A     		ldr	r3, [r7, #32]
 4343 0032 002B     		cmp	r3, #0
 4344 0034 02D0     		beq	.L219
 4345              		.loc 1 2241 0 is_stmt 0 discriminator 1
 4346 0036 BB8C     		ldrh	r3, [r7, #36]
 4347 0038 002B     		cmp	r3, #0
 4348 003a 01D1     		bne	.L220
 4349              	.L219:
2242:Drivers/STM32F7xx_HAL_Driver/Src/stm32f7xx_hal_i2c.c ****     {
2243:Drivers/STM32F7xx_HAL_Driver/Src/stm32f7xx_hal_i2c.c ****       return  HAL_ERROR;
ARM GAS  /var/folders/n8/cvzdcwlj0vl4g_wtyz1ffy300000gn/T//ccBPNZvy.s 			page 116


 4350              		.loc 1 2243 0 is_stmt 1
 4351 003c 0123     		movs	r3, #1
 4352 003e A1E0     		b	.L221
 4353              	.L220:
2244:Drivers/STM32F7xx_HAL_Driver/Src/stm32f7xx_hal_i2c.c ****     }
2245:Drivers/STM32F7xx_HAL_Driver/Src/stm32f7xx_hal_i2c.c **** 
2246:Drivers/STM32F7xx_HAL_Driver/Src/stm32f7xx_hal_i2c.c ****     if (__HAL_I2C_GET_FLAG(hi2c, I2C_FLAG_BUSY) == SET)
 4354              		.loc 1 2246 0
 4355 0040 FB68     		ldr	r3, [r7, #12]
 4356 0042 1B68     		ldr	r3, [r3]
 4357 0044 9B69     		ldr	r3, [r3, #24]
 4358 0046 03F40043 		and	r3, r3, #32768
 4359 004a B3F5004F 		cmp	r3, #32768
 4360 004e 01D1     		bne	.L222
2247:Drivers/STM32F7xx_HAL_Driver/Src/stm32f7xx_hal_i2c.c ****     {
2248:Drivers/STM32F7xx_HAL_Driver/Src/stm32f7xx_hal_i2c.c ****       return HAL_BUSY;
 4361              		.loc 1 2248 0
 4362 0050 0223     		movs	r3, #2
 4363 0052 97E0     		b	.L221
 4364              	.L222:
2249:Drivers/STM32F7xx_HAL_Driver/Src/stm32f7xx_hal_i2c.c ****     }
2250:Drivers/STM32F7xx_HAL_Driver/Src/stm32f7xx_hal_i2c.c **** 
2251:Drivers/STM32F7xx_HAL_Driver/Src/stm32f7xx_hal_i2c.c ****     /* Process Locked */
2252:Drivers/STM32F7xx_HAL_Driver/Src/stm32f7xx_hal_i2c.c ****     __HAL_LOCK(hi2c);
 4365              		.loc 1 2252 0
 4366 0054 FB68     		ldr	r3, [r7, #12]
 4367 0056 93F84030 		ldrb	r3, [r3, #64]	@ zero_extendqisi2
 4368 005a 012B     		cmp	r3, #1
 4369 005c 01D1     		bne	.L223
 4370              		.loc 1 2252 0 is_stmt 0 discriminator 1
 4371 005e 0223     		movs	r3, #2
 4372 0060 90E0     		b	.L221
 4373              	.L223:
 4374              		.loc 1 2252 0 discriminator 2
 4375 0062 FB68     		ldr	r3, [r7, #12]
 4376 0064 0122     		movs	r2, #1
 4377 0066 83F84020 		strb	r2, [r3, #64]
2253:Drivers/STM32F7xx_HAL_Driver/Src/stm32f7xx_hal_i2c.c **** 
2254:Drivers/STM32F7xx_HAL_Driver/Src/stm32f7xx_hal_i2c.c ****     /* Init tickstart for timeout management*/
2255:Drivers/STM32F7xx_HAL_Driver/Src/stm32f7xx_hal_i2c.c ****     tickstart = HAL_GetTick();
 4378              		.loc 1 2255 0 is_stmt 1 discriminator 2
 4379 006a FFF7FEFF 		bl	HAL_GetTick
 4380 006e 3861     		str	r0, [r7, #16]
2256:Drivers/STM32F7xx_HAL_Driver/Src/stm32f7xx_hal_i2c.c **** 
2257:Drivers/STM32F7xx_HAL_Driver/Src/stm32f7xx_hal_i2c.c ****     hi2c->State       = HAL_I2C_STATE_BUSY_TX;
 4381              		.loc 1 2257 0 discriminator 2
 4382 0070 FB68     		ldr	r3, [r7, #12]
 4383 0072 2122     		movs	r2, #33
 4384 0074 83F84120 		strb	r2, [r3, #65]
2258:Drivers/STM32F7xx_HAL_Driver/Src/stm32f7xx_hal_i2c.c ****     hi2c->Mode        = HAL_I2C_MODE_MEM;
 4385              		.loc 1 2258 0 discriminator 2
 4386 0078 FB68     		ldr	r3, [r7, #12]
 4387 007a 4022     		movs	r2, #64
 4388 007c 83F84220 		strb	r2, [r3, #66]
2259:Drivers/STM32F7xx_HAL_Driver/Src/stm32f7xx_hal_i2c.c ****     hi2c->ErrorCode   = HAL_I2C_ERROR_NONE;
 4389              		.loc 1 2259 0 discriminator 2
 4390 0080 FB68     		ldr	r3, [r7, #12]
ARM GAS  /var/folders/n8/cvzdcwlj0vl4g_wtyz1ffy300000gn/T//ccBPNZvy.s 			page 117


 4391 0082 0022     		movs	r2, #0
 4392 0084 5A64     		str	r2, [r3, #68]
2260:Drivers/STM32F7xx_HAL_Driver/Src/stm32f7xx_hal_i2c.c **** 
2261:Drivers/STM32F7xx_HAL_Driver/Src/stm32f7xx_hal_i2c.c ****     /* Prepare transfer parameters */
2262:Drivers/STM32F7xx_HAL_Driver/Src/stm32f7xx_hal_i2c.c ****     hi2c->pBuffPtr    = pData;
 4393              		.loc 1 2262 0 discriminator 2
 4394 0086 FB68     		ldr	r3, [r7, #12]
 4395 0088 3A6A     		ldr	r2, [r7, #32]
 4396 008a 5A62     		str	r2, [r3, #36]
2263:Drivers/STM32F7xx_HAL_Driver/Src/stm32f7xx_hal_i2c.c ****     hi2c->XferCount   = Size;
 4397              		.loc 1 2263 0 discriminator 2
 4398 008c FB68     		ldr	r3, [r7, #12]
 4399 008e BA8C     		ldrh	r2, [r7, #36]	@ movhi
 4400 0090 5A85     		strh	r2, [r3, #42]	@ movhi
2264:Drivers/STM32F7xx_HAL_Driver/Src/stm32f7xx_hal_i2c.c ****     hi2c->XferOptions = I2C_NO_OPTION_FRAME;
 4401              		.loc 1 2264 0 discriminator 2
 4402 0092 FB68     		ldr	r3, [r7, #12]
 4403 0094 3D4A     		ldr	r2, .L228
 4404 0096 DA62     		str	r2, [r3, #44]
2265:Drivers/STM32F7xx_HAL_Driver/Src/stm32f7xx_hal_i2c.c ****     hi2c->XferISR     = I2C_Master_ISR_DMA;
 4405              		.loc 1 2265 0 discriminator 2
 4406 0098 FB68     		ldr	r3, [r7, #12]
 4407 009a 3D4A     		ldr	r2, .L228+4
 4408 009c 5A63     		str	r2, [r3, #52]
2266:Drivers/STM32F7xx_HAL_Driver/Src/stm32f7xx_hal_i2c.c **** 
2267:Drivers/STM32F7xx_HAL_Driver/Src/stm32f7xx_hal_i2c.c ****     if (hi2c->XferCount > MAX_NBYTE_SIZE)
 4409              		.loc 1 2267 0 discriminator 2
 4410 009e FB68     		ldr	r3, [r7, #12]
 4411 00a0 5B8D     		ldrh	r3, [r3, #42]	@ movhi
 4412 00a2 9BB2     		uxth	r3, r3
 4413 00a4 FF2B     		cmp	r3, #255
 4414 00a6 06D9     		bls	.L224
2268:Drivers/STM32F7xx_HAL_Driver/Src/stm32f7xx_hal_i2c.c ****     {
2269:Drivers/STM32F7xx_HAL_Driver/Src/stm32f7xx_hal_i2c.c ****       hi2c->XferSize = MAX_NBYTE_SIZE;
 4415              		.loc 1 2269 0
 4416 00a8 FB68     		ldr	r3, [r7, #12]
 4417 00aa FF22     		movs	r2, #255
 4418 00ac 1A85     		strh	r2, [r3, #40]	@ movhi
2270:Drivers/STM32F7xx_HAL_Driver/Src/stm32f7xx_hal_i2c.c ****       xfermode = I2C_RELOAD_MODE;
 4419              		.loc 1 2270 0
 4420 00ae 4FF08073 		mov	r3, #16777216
 4421 00b2 7B61     		str	r3, [r7, #20]
 4422 00b4 07E0     		b	.L225
 4423              	.L224:
2271:Drivers/STM32F7xx_HAL_Driver/Src/stm32f7xx_hal_i2c.c ****     }
2272:Drivers/STM32F7xx_HAL_Driver/Src/stm32f7xx_hal_i2c.c ****     else
2273:Drivers/STM32F7xx_HAL_Driver/Src/stm32f7xx_hal_i2c.c ****     {
2274:Drivers/STM32F7xx_HAL_Driver/Src/stm32f7xx_hal_i2c.c ****       hi2c->XferSize = hi2c->XferCount;
 4424              		.loc 1 2274 0
 4425 00b6 FB68     		ldr	r3, [r7, #12]
 4426 00b8 5B8D     		ldrh	r3, [r3, #42]	@ movhi
 4427 00ba 9AB2     		uxth	r2, r3
 4428 00bc FB68     		ldr	r3, [r7, #12]
 4429 00be 1A85     		strh	r2, [r3, #40]	@ movhi
2275:Drivers/STM32F7xx_HAL_Driver/Src/stm32f7xx_hal_i2c.c ****       xfermode = I2C_AUTOEND_MODE;
 4430              		.loc 1 2275 0
 4431 00c0 4FF00073 		mov	r3, #33554432
ARM GAS  /var/folders/n8/cvzdcwlj0vl4g_wtyz1ffy300000gn/T//ccBPNZvy.s 			page 118


 4432 00c4 7B61     		str	r3, [r7, #20]
 4433              	.L225:
2276:Drivers/STM32F7xx_HAL_Driver/Src/stm32f7xx_hal_i2c.c ****     }
2277:Drivers/STM32F7xx_HAL_Driver/Src/stm32f7xx_hal_i2c.c **** 
2278:Drivers/STM32F7xx_HAL_Driver/Src/stm32f7xx_hal_i2c.c ****     /* Send Slave Address and Memory Address */
2279:Drivers/STM32F7xx_HAL_Driver/Src/stm32f7xx_hal_i2c.c ****     if (I2C_RequestMemoryWrite(hi2c, DevAddress, MemAddress, MemAddSize, I2C_TIMEOUT_FLAG, tickstar
 4434              		.loc 1 2279 0
 4435 00c6 F888     		ldrh	r0, [r7, #6]
 4436 00c8 3A89     		ldrh	r2, [r7, #8]
 4437 00ca 7989     		ldrh	r1, [r7, #10]
 4438 00cc 3B69     		ldr	r3, [r7, #16]
 4439 00ce 0193     		str	r3, [sp, #4]
 4440 00d0 1923     		movs	r3, #25
 4441 00d2 0093     		str	r3, [sp]
 4442 00d4 0346     		mov	r3, r0
 4443 00d6 F868     		ldr	r0, [r7, #12]
 4444 00d8 FFF7FEFF 		bl	I2C_RequestMemoryWrite
 4445 00dc 0346     		mov	r3, r0
 4446 00de 002B     		cmp	r3, #0
 4447 00e0 0FD0     		beq	.L226
2280:Drivers/STM32F7xx_HAL_Driver/Src/stm32f7xx_hal_i2c.c ****     {
2281:Drivers/STM32F7xx_HAL_Driver/Src/stm32f7xx_hal_i2c.c ****       if (hi2c->ErrorCode == HAL_I2C_ERROR_AF)
 4448              		.loc 1 2281 0
 4449 00e2 FB68     		ldr	r3, [r7, #12]
 4450 00e4 5B6C     		ldr	r3, [r3, #68]
 4451 00e6 042B     		cmp	r3, #4
 4452 00e8 05D1     		bne	.L227
2282:Drivers/STM32F7xx_HAL_Driver/Src/stm32f7xx_hal_i2c.c ****       {
2283:Drivers/STM32F7xx_HAL_Driver/Src/stm32f7xx_hal_i2c.c ****         /* Process Unlocked */
2284:Drivers/STM32F7xx_HAL_Driver/Src/stm32f7xx_hal_i2c.c ****         __HAL_UNLOCK(hi2c);
 4453              		.loc 1 2284 0
 4454 00ea FB68     		ldr	r3, [r7, #12]
 4455 00ec 0022     		movs	r2, #0
 4456 00ee 83F84020 		strb	r2, [r3, #64]
2285:Drivers/STM32F7xx_HAL_Driver/Src/stm32f7xx_hal_i2c.c ****         return HAL_ERROR;
 4457              		.loc 1 2285 0
 4458 00f2 0123     		movs	r3, #1
 4459 00f4 46E0     		b	.L221
 4460              	.L227:
2286:Drivers/STM32F7xx_HAL_Driver/Src/stm32f7xx_hal_i2c.c ****       }
2287:Drivers/STM32F7xx_HAL_Driver/Src/stm32f7xx_hal_i2c.c ****       else
2288:Drivers/STM32F7xx_HAL_Driver/Src/stm32f7xx_hal_i2c.c ****       {
2289:Drivers/STM32F7xx_HAL_Driver/Src/stm32f7xx_hal_i2c.c ****         /* Process Unlocked */
2290:Drivers/STM32F7xx_HAL_Driver/Src/stm32f7xx_hal_i2c.c ****         __HAL_UNLOCK(hi2c);
 4461              		.loc 1 2290 0
 4462 00f6 FB68     		ldr	r3, [r7, #12]
 4463 00f8 0022     		movs	r2, #0
 4464 00fa 83F84020 		strb	r2, [r3, #64]
2291:Drivers/STM32F7xx_HAL_Driver/Src/stm32f7xx_hal_i2c.c ****         return HAL_TIMEOUT;
 4465              		.loc 1 2291 0
 4466 00fe 0323     		movs	r3, #3
 4467 0100 40E0     		b	.L221
 4468              	.L226:
2292:Drivers/STM32F7xx_HAL_Driver/Src/stm32f7xx_hal_i2c.c ****       }
2293:Drivers/STM32F7xx_HAL_Driver/Src/stm32f7xx_hal_i2c.c ****     }
2294:Drivers/STM32F7xx_HAL_Driver/Src/stm32f7xx_hal_i2c.c **** 
2295:Drivers/STM32F7xx_HAL_Driver/Src/stm32f7xx_hal_i2c.c ****     /* Set the I2C DMA transfer complete callback */
ARM GAS  /var/folders/n8/cvzdcwlj0vl4g_wtyz1ffy300000gn/T//ccBPNZvy.s 			page 119


2296:Drivers/STM32F7xx_HAL_Driver/Src/stm32f7xx_hal_i2c.c ****     hi2c->hdmatx->XferCpltCallback = I2C_DMAMasterTransmitCplt;
 4469              		.loc 1 2296 0
 4470 0102 FB68     		ldr	r3, [r7, #12]
 4471 0104 9B6B     		ldr	r3, [r3, #56]
 4472 0106 234A     		ldr	r2, .L228+8
 4473 0108 DA63     		str	r2, [r3, #60]
2297:Drivers/STM32F7xx_HAL_Driver/Src/stm32f7xx_hal_i2c.c **** 
2298:Drivers/STM32F7xx_HAL_Driver/Src/stm32f7xx_hal_i2c.c ****     /* Set the DMA error callback */
2299:Drivers/STM32F7xx_HAL_Driver/Src/stm32f7xx_hal_i2c.c ****     hi2c->hdmatx->XferErrorCallback = I2C_DMAError;
 4474              		.loc 1 2299 0
 4475 010a FB68     		ldr	r3, [r7, #12]
 4476 010c 9B6B     		ldr	r3, [r3, #56]
 4477 010e 224A     		ldr	r2, .L228+12
 4478 0110 DA64     		str	r2, [r3, #76]
2300:Drivers/STM32F7xx_HAL_Driver/Src/stm32f7xx_hal_i2c.c **** 
2301:Drivers/STM32F7xx_HAL_Driver/Src/stm32f7xx_hal_i2c.c ****     /* Set the unused DMA callbacks to NULL */
2302:Drivers/STM32F7xx_HAL_Driver/Src/stm32f7xx_hal_i2c.c ****     hi2c->hdmatx->XferHalfCpltCallback = NULL;
 4479              		.loc 1 2302 0
 4480 0112 FB68     		ldr	r3, [r7, #12]
 4481 0114 9B6B     		ldr	r3, [r3, #56]
 4482 0116 0022     		movs	r2, #0
 4483 0118 1A64     		str	r2, [r3, #64]
2303:Drivers/STM32F7xx_HAL_Driver/Src/stm32f7xx_hal_i2c.c ****     hi2c->hdmatx->XferAbortCallback = NULL;
 4484              		.loc 1 2303 0
 4485 011a FB68     		ldr	r3, [r7, #12]
 4486 011c 9B6B     		ldr	r3, [r3, #56]
 4487 011e 0022     		movs	r2, #0
 4488 0120 1A65     		str	r2, [r3, #80]
2304:Drivers/STM32F7xx_HAL_Driver/Src/stm32f7xx_hal_i2c.c **** 
2305:Drivers/STM32F7xx_HAL_Driver/Src/stm32f7xx_hal_i2c.c ****     /* Enable the DMA stream */
2306:Drivers/STM32F7xx_HAL_Driver/Src/stm32f7xx_hal_i2c.c ****     HAL_DMA_Start_IT(hi2c->hdmatx, (uint32_t)pData, (uint32_t)&hi2c->Instance->TXDR, hi2c->XferSize
 4489              		.loc 1 2306 0
 4490 0122 FB68     		ldr	r3, [r7, #12]
 4491 0124 986B     		ldr	r0, [r3, #56]
 4492 0126 396A     		ldr	r1, [r7, #32]
 4493 0128 FB68     		ldr	r3, [r7, #12]
 4494 012a 1B68     		ldr	r3, [r3]
 4495 012c 2833     		adds	r3, r3, #40
 4496 012e 1A46     		mov	r2, r3
 4497 0130 FB68     		ldr	r3, [r7, #12]
 4498 0132 1B8D     		ldrh	r3, [r3, #40]
 4499 0134 FFF7FEFF 		bl	HAL_DMA_Start_IT
2307:Drivers/STM32F7xx_HAL_Driver/Src/stm32f7xx_hal_i2c.c **** 
2308:Drivers/STM32F7xx_HAL_Driver/Src/stm32f7xx_hal_i2c.c ****     /* Send Slave Address */
2309:Drivers/STM32F7xx_HAL_Driver/Src/stm32f7xx_hal_i2c.c ****     /* Set NBYTES to write and reload if hi2c->XferCount > MAX_NBYTE_SIZE and generate RESTART */
2310:Drivers/STM32F7xx_HAL_Driver/Src/stm32f7xx_hal_i2c.c ****     I2C_TransferConfig(hi2c, DevAddress, hi2c->XferSize, xfermode, I2C_NO_STARTSTOP);
 4500              		.loc 1 2310 0
 4501 0138 FB68     		ldr	r3, [r7, #12]
 4502 013a 1B8D     		ldrh	r3, [r3, #40]
 4503 013c DAB2     		uxtb	r2, r3
 4504 013e 7989     		ldrh	r1, [r7, #10]
 4505 0140 0023     		movs	r3, #0
 4506 0142 0093     		str	r3, [sp]
 4507 0144 7B69     		ldr	r3, [r7, #20]
 4508 0146 F868     		ldr	r0, [r7, #12]
 4509 0148 FFF7FEFF 		bl	I2C_TransferConfig
2311:Drivers/STM32F7xx_HAL_Driver/Src/stm32f7xx_hal_i2c.c **** 
ARM GAS  /var/folders/n8/cvzdcwlj0vl4g_wtyz1ffy300000gn/T//ccBPNZvy.s 			page 120


2312:Drivers/STM32F7xx_HAL_Driver/Src/stm32f7xx_hal_i2c.c ****     /* Update XferCount value */
2313:Drivers/STM32F7xx_HAL_Driver/Src/stm32f7xx_hal_i2c.c ****     hi2c->XferCount -= hi2c->XferSize;
 4510              		.loc 1 2313 0
 4511 014c FB68     		ldr	r3, [r7, #12]
 4512 014e 5B8D     		ldrh	r3, [r3, #42]	@ movhi
 4513 0150 9AB2     		uxth	r2, r3
 4514 0152 FB68     		ldr	r3, [r7, #12]
 4515 0154 1B8D     		ldrh	r3, [r3, #40]
 4516 0156 D31A     		subs	r3, r2, r3
 4517 0158 9AB2     		uxth	r2, r3
 4518 015a FB68     		ldr	r3, [r7, #12]
 4519 015c 5A85     		strh	r2, [r3, #42]	@ movhi
2314:Drivers/STM32F7xx_HAL_Driver/Src/stm32f7xx_hal_i2c.c **** 
2315:Drivers/STM32F7xx_HAL_Driver/Src/stm32f7xx_hal_i2c.c ****     /* Process Unlocked */
2316:Drivers/STM32F7xx_HAL_Driver/Src/stm32f7xx_hal_i2c.c ****     __HAL_UNLOCK(hi2c);
 4520              		.loc 1 2316 0
 4521 015e FB68     		ldr	r3, [r7, #12]
 4522 0160 0022     		movs	r2, #0
 4523 0162 83F84020 		strb	r2, [r3, #64]
2317:Drivers/STM32F7xx_HAL_Driver/Src/stm32f7xx_hal_i2c.c **** 
2318:Drivers/STM32F7xx_HAL_Driver/Src/stm32f7xx_hal_i2c.c ****     /* Note : The I2C interrupts must be enabled after unlocking current process
2319:Drivers/STM32F7xx_HAL_Driver/Src/stm32f7xx_hal_i2c.c ****               to avoid the risk of I2C interrupt handle execution before current
2320:Drivers/STM32F7xx_HAL_Driver/Src/stm32f7xx_hal_i2c.c ****               process unlock */
2321:Drivers/STM32F7xx_HAL_Driver/Src/stm32f7xx_hal_i2c.c ****     /* Enable ERR and NACK interrupts */
2322:Drivers/STM32F7xx_HAL_Driver/Src/stm32f7xx_hal_i2c.c ****     I2C_Enable_IRQ(hi2c, I2C_XFER_ERROR_IT);
 4524              		.loc 1 2322 0
 4525 0166 1121     		movs	r1, #17
 4526 0168 F868     		ldr	r0, [r7, #12]
 4527 016a FFF7FEFF 		bl	I2C_Enable_IRQ
2323:Drivers/STM32F7xx_HAL_Driver/Src/stm32f7xx_hal_i2c.c **** 
2324:Drivers/STM32F7xx_HAL_Driver/Src/stm32f7xx_hal_i2c.c ****     /* Enable DMA Request */
2325:Drivers/STM32F7xx_HAL_Driver/Src/stm32f7xx_hal_i2c.c ****     hi2c->Instance->CR1 |= I2C_CR1_TXDMAEN;
 4528              		.loc 1 2325 0
 4529 016e FB68     		ldr	r3, [r7, #12]
 4530 0170 1B68     		ldr	r3, [r3]
 4531 0172 1A68     		ldr	r2, [r3]
 4532 0174 FB68     		ldr	r3, [r7, #12]
 4533 0176 1B68     		ldr	r3, [r3]
 4534 0178 42F48042 		orr	r2, r2, #16384
 4535 017c 1A60     		str	r2, [r3]
2326:Drivers/STM32F7xx_HAL_Driver/Src/stm32f7xx_hal_i2c.c **** 
2327:Drivers/STM32F7xx_HAL_Driver/Src/stm32f7xx_hal_i2c.c ****     return HAL_OK;
 4536              		.loc 1 2327 0
 4537 017e 0023     		movs	r3, #0
 4538 0180 00E0     		b	.L221
 4539              	.L218:
2328:Drivers/STM32F7xx_HAL_Driver/Src/stm32f7xx_hal_i2c.c ****   }
2329:Drivers/STM32F7xx_HAL_Driver/Src/stm32f7xx_hal_i2c.c ****   else
2330:Drivers/STM32F7xx_HAL_Driver/Src/stm32f7xx_hal_i2c.c ****   {
2331:Drivers/STM32F7xx_HAL_Driver/Src/stm32f7xx_hal_i2c.c ****     return HAL_BUSY;
 4540              		.loc 1 2331 0
 4541 0182 0223     		movs	r3, #2
 4542              	.L221:
2332:Drivers/STM32F7xx_HAL_Driver/Src/stm32f7xx_hal_i2c.c ****   }
2333:Drivers/STM32F7xx_HAL_Driver/Src/stm32f7xx_hal_i2c.c **** }
 4543              		.loc 1 2333 0
 4544 0184 1846     		mov	r0, r3
ARM GAS  /var/folders/n8/cvzdcwlj0vl4g_wtyz1ffy300000gn/T//ccBPNZvy.s 			page 121


 4545 0186 1837     		adds	r7, r7, #24
 4546              	.LCFI105:
 4547              		.cfi_def_cfa_offset 8
 4548 0188 BD46     		mov	sp, r7
 4549              	.LCFI106:
 4550              		.cfi_def_cfa_register 13
 4551              		@ sp needed
 4552 018a 80BD     		pop	{r7, pc}
 4553              	.L229:
 4554              		.align	2
 4555              	.L228:
 4556 018c 0000FFFF 		.word	-65536
 4557 0190 00000000 		.word	I2C_Master_ISR_DMA
 4558 0194 00000000 		.word	I2C_DMAMasterTransmitCplt
 4559 0198 00000000 		.word	I2C_DMAError
 4560              		.cfi_endproc
 4561              	.LFE158:
 4563              		.section	.text.HAL_I2C_Mem_Read_DMA,"ax",%progbits
 4564              		.align	1
 4565              		.global	HAL_I2C_Mem_Read_DMA
 4566              		.syntax unified
 4567              		.thumb
 4568              		.thumb_func
 4569              		.fpu fpv5-sp-d16
 4571              	HAL_I2C_Mem_Read_DMA:
 4572              	.LFB159:
2334:Drivers/STM32F7xx_HAL_Driver/Src/stm32f7xx_hal_i2c.c **** 
2335:Drivers/STM32F7xx_HAL_Driver/Src/stm32f7xx_hal_i2c.c **** /**
2336:Drivers/STM32F7xx_HAL_Driver/Src/stm32f7xx_hal_i2c.c ****   * @brief  Reads an amount of data in non-blocking mode with DMA from a specific memory address.
2337:Drivers/STM32F7xx_HAL_Driver/Src/stm32f7xx_hal_i2c.c ****   * @param  hi2c Pointer to a I2C_HandleTypeDef structure that contains
2338:Drivers/STM32F7xx_HAL_Driver/Src/stm32f7xx_hal_i2c.c ****   *                the configuration information for the specified I2C.
2339:Drivers/STM32F7xx_HAL_Driver/Src/stm32f7xx_hal_i2c.c ****   * @param  DevAddress Target device address which contain device 7 or 10 bits address value
2340:Drivers/STM32F7xx_HAL_Driver/Src/stm32f7xx_hal_i2c.c ****   *         in datasheet must be shifted to the left before calling the interface
2341:Drivers/STM32F7xx_HAL_Driver/Src/stm32f7xx_hal_i2c.c ****   * @param  MemAddress Internal memory address
2342:Drivers/STM32F7xx_HAL_Driver/Src/stm32f7xx_hal_i2c.c ****   * @param  MemAddSize Size of internal memory address
2343:Drivers/STM32F7xx_HAL_Driver/Src/stm32f7xx_hal_i2c.c ****   * @param  pData Pointer to data buffer
2344:Drivers/STM32F7xx_HAL_Driver/Src/stm32f7xx_hal_i2c.c ****   * @param  Size Amount of data to be read
2345:Drivers/STM32F7xx_HAL_Driver/Src/stm32f7xx_hal_i2c.c ****   * @retval HAL status
2346:Drivers/STM32F7xx_HAL_Driver/Src/stm32f7xx_hal_i2c.c ****   */
2347:Drivers/STM32F7xx_HAL_Driver/Src/stm32f7xx_hal_i2c.c **** HAL_StatusTypeDef HAL_I2C_Mem_Read_DMA(I2C_HandleTypeDef *hi2c, uint16_t DevAddress, uint16_t MemAd
2348:Drivers/STM32F7xx_HAL_Driver/Src/stm32f7xx_hal_i2c.c **** {
 4573              		.loc 1 2348 0
 4574              		.cfi_startproc
 4575              		@ args = 8, pretend = 0, frame = 24
 4576              		@ frame_needed = 1, uses_anonymous_args = 0
 4577 0000 80B5     		push	{r7, lr}
 4578              	.LCFI107:
 4579              		.cfi_def_cfa_offset 8
 4580              		.cfi_offset 7, -8
 4581              		.cfi_offset 14, -4
 4582 0002 88B0     		sub	sp, sp, #32
 4583              	.LCFI108:
 4584              		.cfi_def_cfa_offset 40
 4585 0004 02AF     		add	r7, sp, #8
 4586              	.LCFI109:
 4587              		.cfi_def_cfa 7, 32
 4588 0006 F860     		str	r0, [r7, #12]
ARM GAS  /var/folders/n8/cvzdcwlj0vl4g_wtyz1ffy300000gn/T//ccBPNZvy.s 			page 122


 4589 0008 0846     		mov	r0, r1
 4590 000a 1146     		mov	r1, r2
 4591 000c 1A46     		mov	r2, r3
 4592 000e 0346     		mov	r3, r0	@ movhi
 4593 0010 7B81     		strh	r3, [r7, #10]	@ movhi
 4594 0012 0B46     		mov	r3, r1	@ movhi
 4595 0014 3B81     		strh	r3, [r7, #8]	@ movhi
 4596 0016 1346     		mov	r3, r2	@ movhi
 4597 0018 FB80     		strh	r3, [r7, #6]	@ movhi
2349:Drivers/STM32F7xx_HAL_Driver/Src/stm32f7xx_hal_i2c.c ****   uint32_t tickstart = 0U;
 4598              		.loc 1 2349 0
 4599 001a 0023     		movs	r3, #0
 4600 001c 3B61     		str	r3, [r7, #16]
2350:Drivers/STM32F7xx_HAL_Driver/Src/stm32f7xx_hal_i2c.c ****   uint32_t xfermode = 0U;
 4601              		.loc 1 2350 0
 4602 001e 0023     		movs	r3, #0
 4603 0020 7B61     		str	r3, [r7, #20]
2351:Drivers/STM32F7xx_HAL_Driver/Src/stm32f7xx_hal_i2c.c **** 
2352:Drivers/STM32F7xx_HAL_Driver/Src/stm32f7xx_hal_i2c.c ****   /* Check the parameters */
2353:Drivers/STM32F7xx_HAL_Driver/Src/stm32f7xx_hal_i2c.c ****   assert_param(IS_I2C_MEMADD_SIZE(MemAddSize));
2354:Drivers/STM32F7xx_HAL_Driver/Src/stm32f7xx_hal_i2c.c **** 
2355:Drivers/STM32F7xx_HAL_Driver/Src/stm32f7xx_hal_i2c.c ****   if (hi2c->State == HAL_I2C_STATE_READY)
 4604              		.loc 1 2355 0
 4605 0022 FB68     		ldr	r3, [r7, #12]
 4606 0024 93F84130 		ldrb	r3, [r3, #65]
 4607 0028 DBB2     		uxtb	r3, r3
 4608 002a 202B     		cmp	r3, #32
 4609 002c 40F0A980 		bne	.L231
2356:Drivers/STM32F7xx_HAL_Driver/Src/stm32f7xx_hal_i2c.c ****   {
2357:Drivers/STM32F7xx_HAL_Driver/Src/stm32f7xx_hal_i2c.c ****     if ((pData == NULL) || (Size == 0U))
 4610              		.loc 1 2357 0
 4611 0030 3B6A     		ldr	r3, [r7, #32]
 4612 0032 002B     		cmp	r3, #0
 4613 0034 02D0     		beq	.L232
 4614              		.loc 1 2357 0 is_stmt 0 discriminator 1
 4615 0036 BB8C     		ldrh	r3, [r7, #36]
 4616 0038 002B     		cmp	r3, #0
 4617 003a 01D1     		bne	.L233
 4618              	.L232:
2358:Drivers/STM32F7xx_HAL_Driver/Src/stm32f7xx_hal_i2c.c ****     {
2359:Drivers/STM32F7xx_HAL_Driver/Src/stm32f7xx_hal_i2c.c ****       return  HAL_ERROR;
 4619              		.loc 1 2359 0 is_stmt 1
 4620 003c 0123     		movs	r3, #1
 4621 003e A1E0     		b	.L234
 4622              	.L233:
2360:Drivers/STM32F7xx_HAL_Driver/Src/stm32f7xx_hal_i2c.c ****     }
2361:Drivers/STM32F7xx_HAL_Driver/Src/stm32f7xx_hal_i2c.c **** 
2362:Drivers/STM32F7xx_HAL_Driver/Src/stm32f7xx_hal_i2c.c ****     if (__HAL_I2C_GET_FLAG(hi2c, I2C_FLAG_BUSY) == SET)
 4623              		.loc 1 2362 0
 4624 0040 FB68     		ldr	r3, [r7, #12]
 4625 0042 1B68     		ldr	r3, [r3]
 4626 0044 9B69     		ldr	r3, [r3, #24]
 4627 0046 03F40043 		and	r3, r3, #32768
 4628 004a B3F5004F 		cmp	r3, #32768
 4629 004e 01D1     		bne	.L235
2363:Drivers/STM32F7xx_HAL_Driver/Src/stm32f7xx_hal_i2c.c ****     {
2364:Drivers/STM32F7xx_HAL_Driver/Src/stm32f7xx_hal_i2c.c ****       return HAL_BUSY;
ARM GAS  /var/folders/n8/cvzdcwlj0vl4g_wtyz1ffy300000gn/T//ccBPNZvy.s 			page 123


 4630              		.loc 1 2364 0
 4631 0050 0223     		movs	r3, #2
 4632 0052 97E0     		b	.L234
 4633              	.L235:
2365:Drivers/STM32F7xx_HAL_Driver/Src/stm32f7xx_hal_i2c.c ****     }
2366:Drivers/STM32F7xx_HAL_Driver/Src/stm32f7xx_hal_i2c.c **** 
2367:Drivers/STM32F7xx_HAL_Driver/Src/stm32f7xx_hal_i2c.c ****     /* Process Locked */
2368:Drivers/STM32F7xx_HAL_Driver/Src/stm32f7xx_hal_i2c.c ****     __HAL_LOCK(hi2c);
 4634              		.loc 1 2368 0
 4635 0054 FB68     		ldr	r3, [r7, #12]
 4636 0056 93F84030 		ldrb	r3, [r3, #64]	@ zero_extendqisi2
 4637 005a 012B     		cmp	r3, #1
 4638 005c 01D1     		bne	.L236
 4639              		.loc 1 2368 0 is_stmt 0 discriminator 1
 4640 005e 0223     		movs	r3, #2
 4641 0060 90E0     		b	.L234
 4642              	.L236:
 4643              		.loc 1 2368 0 discriminator 2
 4644 0062 FB68     		ldr	r3, [r7, #12]
 4645 0064 0122     		movs	r2, #1
 4646 0066 83F84020 		strb	r2, [r3, #64]
2369:Drivers/STM32F7xx_HAL_Driver/Src/stm32f7xx_hal_i2c.c **** 
2370:Drivers/STM32F7xx_HAL_Driver/Src/stm32f7xx_hal_i2c.c ****     /* Init tickstart for timeout management*/
2371:Drivers/STM32F7xx_HAL_Driver/Src/stm32f7xx_hal_i2c.c ****     tickstart = HAL_GetTick();
 4647              		.loc 1 2371 0 is_stmt 1 discriminator 2
 4648 006a FFF7FEFF 		bl	HAL_GetTick
 4649 006e 3861     		str	r0, [r7, #16]
2372:Drivers/STM32F7xx_HAL_Driver/Src/stm32f7xx_hal_i2c.c **** 
2373:Drivers/STM32F7xx_HAL_Driver/Src/stm32f7xx_hal_i2c.c ****     hi2c->State       = HAL_I2C_STATE_BUSY_RX;
 4650              		.loc 1 2373 0 discriminator 2
 4651 0070 FB68     		ldr	r3, [r7, #12]
 4652 0072 2222     		movs	r2, #34
 4653 0074 83F84120 		strb	r2, [r3, #65]
2374:Drivers/STM32F7xx_HAL_Driver/Src/stm32f7xx_hal_i2c.c ****     hi2c->Mode        = HAL_I2C_MODE_MEM;
 4654              		.loc 1 2374 0 discriminator 2
 4655 0078 FB68     		ldr	r3, [r7, #12]
 4656 007a 4022     		movs	r2, #64
 4657 007c 83F84220 		strb	r2, [r3, #66]
2375:Drivers/STM32F7xx_HAL_Driver/Src/stm32f7xx_hal_i2c.c ****     hi2c->ErrorCode   = HAL_I2C_ERROR_NONE;
 4658              		.loc 1 2375 0 discriminator 2
 4659 0080 FB68     		ldr	r3, [r7, #12]
 4660 0082 0022     		movs	r2, #0
 4661 0084 5A64     		str	r2, [r3, #68]
2376:Drivers/STM32F7xx_HAL_Driver/Src/stm32f7xx_hal_i2c.c **** 
2377:Drivers/STM32F7xx_HAL_Driver/Src/stm32f7xx_hal_i2c.c ****     /* Prepare transfer parameters */
2378:Drivers/STM32F7xx_HAL_Driver/Src/stm32f7xx_hal_i2c.c ****     hi2c->pBuffPtr    = pData;
 4662              		.loc 1 2378 0 discriminator 2
 4663 0086 FB68     		ldr	r3, [r7, #12]
 4664 0088 3A6A     		ldr	r2, [r7, #32]
 4665 008a 5A62     		str	r2, [r3, #36]
2379:Drivers/STM32F7xx_HAL_Driver/Src/stm32f7xx_hal_i2c.c ****     hi2c->XferCount   = Size;
 4666              		.loc 1 2379 0 discriminator 2
 4667 008c FB68     		ldr	r3, [r7, #12]
 4668 008e BA8C     		ldrh	r2, [r7, #36]	@ movhi
 4669 0090 5A85     		strh	r2, [r3, #42]	@ movhi
2380:Drivers/STM32F7xx_HAL_Driver/Src/stm32f7xx_hal_i2c.c ****     hi2c->XferOptions = I2C_NO_OPTION_FRAME;
 4670              		.loc 1 2380 0 discriminator 2
ARM GAS  /var/folders/n8/cvzdcwlj0vl4g_wtyz1ffy300000gn/T//ccBPNZvy.s 			page 124


 4671 0092 FB68     		ldr	r3, [r7, #12]
 4672 0094 3D4A     		ldr	r2, .L241
 4673 0096 DA62     		str	r2, [r3, #44]
2381:Drivers/STM32F7xx_HAL_Driver/Src/stm32f7xx_hal_i2c.c ****     hi2c->XferISR     = I2C_Master_ISR_DMA;
 4674              		.loc 1 2381 0 discriminator 2
 4675 0098 FB68     		ldr	r3, [r7, #12]
 4676 009a 3D4A     		ldr	r2, .L241+4
 4677 009c 5A63     		str	r2, [r3, #52]
2382:Drivers/STM32F7xx_HAL_Driver/Src/stm32f7xx_hal_i2c.c **** 
2383:Drivers/STM32F7xx_HAL_Driver/Src/stm32f7xx_hal_i2c.c ****     if (hi2c->XferCount > MAX_NBYTE_SIZE)
 4678              		.loc 1 2383 0 discriminator 2
 4679 009e FB68     		ldr	r3, [r7, #12]
 4680 00a0 5B8D     		ldrh	r3, [r3, #42]	@ movhi
 4681 00a2 9BB2     		uxth	r3, r3
 4682 00a4 FF2B     		cmp	r3, #255
 4683 00a6 06D9     		bls	.L237
2384:Drivers/STM32F7xx_HAL_Driver/Src/stm32f7xx_hal_i2c.c ****     {
2385:Drivers/STM32F7xx_HAL_Driver/Src/stm32f7xx_hal_i2c.c ****       hi2c->XferSize = MAX_NBYTE_SIZE;
 4684              		.loc 1 2385 0
 4685 00a8 FB68     		ldr	r3, [r7, #12]
 4686 00aa FF22     		movs	r2, #255
 4687 00ac 1A85     		strh	r2, [r3, #40]	@ movhi
2386:Drivers/STM32F7xx_HAL_Driver/Src/stm32f7xx_hal_i2c.c ****       xfermode = I2C_RELOAD_MODE;
 4688              		.loc 1 2386 0
 4689 00ae 4FF08073 		mov	r3, #16777216
 4690 00b2 7B61     		str	r3, [r7, #20]
 4691 00b4 07E0     		b	.L238
 4692              	.L237:
2387:Drivers/STM32F7xx_HAL_Driver/Src/stm32f7xx_hal_i2c.c ****     }
2388:Drivers/STM32F7xx_HAL_Driver/Src/stm32f7xx_hal_i2c.c ****     else
2389:Drivers/STM32F7xx_HAL_Driver/Src/stm32f7xx_hal_i2c.c ****     {
2390:Drivers/STM32F7xx_HAL_Driver/Src/stm32f7xx_hal_i2c.c ****       hi2c->XferSize = hi2c->XferCount;
 4693              		.loc 1 2390 0
 4694 00b6 FB68     		ldr	r3, [r7, #12]
 4695 00b8 5B8D     		ldrh	r3, [r3, #42]	@ movhi
 4696 00ba 9AB2     		uxth	r2, r3
 4697 00bc FB68     		ldr	r3, [r7, #12]
 4698 00be 1A85     		strh	r2, [r3, #40]	@ movhi
2391:Drivers/STM32F7xx_HAL_Driver/Src/stm32f7xx_hal_i2c.c ****       xfermode = I2C_AUTOEND_MODE;
 4699              		.loc 1 2391 0
 4700 00c0 4FF00073 		mov	r3, #33554432
 4701 00c4 7B61     		str	r3, [r7, #20]
 4702              	.L238:
2392:Drivers/STM32F7xx_HAL_Driver/Src/stm32f7xx_hal_i2c.c ****     }
2393:Drivers/STM32F7xx_HAL_Driver/Src/stm32f7xx_hal_i2c.c **** 
2394:Drivers/STM32F7xx_HAL_Driver/Src/stm32f7xx_hal_i2c.c ****     /* Send Slave Address and Memory Address */
2395:Drivers/STM32F7xx_HAL_Driver/Src/stm32f7xx_hal_i2c.c ****     if (I2C_RequestMemoryRead(hi2c, DevAddress, MemAddress, MemAddSize, I2C_TIMEOUT_FLAG, tickstart
 4703              		.loc 1 2395 0
 4704 00c6 F888     		ldrh	r0, [r7, #6]
 4705 00c8 3A89     		ldrh	r2, [r7, #8]
 4706 00ca 7989     		ldrh	r1, [r7, #10]
 4707 00cc 3B69     		ldr	r3, [r7, #16]
 4708 00ce 0193     		str	r3, [sp, #4]
 4709 00d0 1923     		movs	r3, #25
 4710 00d2 0093     		str	r3, [sp]
 4711 00d4 0346     		mov	r3, r0
 4712 00d6 F868     		ldr	r0, [r7, #12]
ARM GAS  /var/folders/n8/cvzdcwlj0vl4g_wtyz1ffy300000gn/T//ccBPNZvy.s 			page 125


 4713 00d8 FFF7FEFF 		bl	I2C_RequestMemoryRead
 4714 00dc 0346     		mov	r3, r0
 4715 00de 002B     		cmp	r3, #0
 4716 00e0 0FD0     		beq	.L239
2396:Drivers/STM32F7xx_HAL_Driver/Src/stm32f7xx_hal_i2c.c ****     {
2397:Drivers/STM32F7xx_HAL_Driver/Src/stm32f7xx_hal_i2c.c ****       if (hi2c->ErrorCode == HAL_I2C_ERROR_AF)
 4717              		.loc 1 2397 0
 4718 00e2 FB68     		ldr	r3, [r7, #12]
 4719 00e4 5B6C     		ldr	r3, [r3, #68]
 4720 00e6 042B     		cmp	r3, #4
 4721 00e8 05D1     		bne	.L240
2398:Drivers/STM32F7xx_HAL_Driver/Src/stm32f7xx_hal_i2c.c ****       {
2399:Drivers/STM32F7xx_HAL_Driver/Src/stm32f7xx_hal_i2c.c ****         /* Process Unlocked */
2400:Drivers/STM32F7xx_HAL_Driver/Src/stm32f7xx_hal_i2c.c ****         __HAL_UNLOCK(hi2c);
 4722              		.loc 1 2400 0
 4723 00ea FB68     		ldr	r3, [r7, #12]
 4724 00ec 0022     		movs	r2, #0
 4725 00ee 83F84020 		strb	r2, [r3, #64]
2401:Drivers/STM32F7xx_HAL_Driver/Src/stm32f7xx_hal_i2c.c ****         return HAL_ERROR;
 4726              		.loc 1 2401 0
 4727 00f2 0123     		movs	r3, #1
 4728 00f4 46E0     		b	.L234
 4729              	.L240:
2402:Drivers/STM32F7xx_HAL_Driver/Src/stm32f7xx_hal_i2c.c ****       }
2403:Drivers/STM32F7xx_HAL_Driver/Src/stm32f7xx_hal_i2c.c ****       else
2404:Drivers/STM32F7xx_HAL_Driver/Src/stm32f7xx_hal_i2c.c ****       {
2405:Drivers/STM32F7xx_HAL_Driver/Src/stm32f7xx_hal_i2c.c ****         /* Process Unlocked */
2406:Drivers/STM32F7xx_HAL_Driver/Src/stm32f7xx_hal_i2c.c ****         __HAL_UNLOCK(hi2c);
 4730              		.loc 1 2406 0
 4731 00f6 FB68     		ldr	r3, [r7, #12]
 4732 00f8 0022     		movs	r2, #0
 4733 00fa 83F84020 		strb	r2, [r3, #64]
2407:Drivers/STM32F7xx_HAL_Driver/Src/stm32f7xx_hal_i2c.c ****         return HAL_TIMEOUT;
 4734              		.loc 1 2407 0
 4735 00fe 0323     		movs	r3, #3
 4736 0100 40E0     		b	.L234
 4737              	.L239:
2408:Drivers/STM32F7xx_HAL_Driver/Src/stm32f7xx_hal_i2c.c ****       }
2409:Drivers/STM32F7xx_HAL_Driver/Src/stm32f7xx_hal_i2c.c ****     }
2410:Drivers/STM32F7xx_HAL_Driver/Src/stm32f7xx_hal_i2c.c **** 
2411:Drivers/STM32F7xx_HAL_Driver/Src/stm32f7xx_hal_i2c.c ****     /* Set the I2C DMA transfer complete callback */
2412:Drivers/STM32F7xx_HAL_Driver/Src/stm32f7xx_hal_i2c.c ****     hi2c->hdmarx->XferCpltCallback = I2C_DMAMasterReceiveCplt;
 4738              		.loc 1 2412 0
 4739 0102 FB68     		ldr	r3, [r7, #12]
 4740 0104 DB6B     		ldr	r3, [r3, #60]
 4741 0106 234A     		ldr	r2, .L241+8
 4742 0108 DA63     		str	r2, [r3, #60]
2413:Drivers/STM32F7xx_HAL_Driver/Src/stm32f7xx_hal_i2c.c **** 
2414:Drivers/STM32F7xx_HAL_Driver/Src/stm32f7xx_hal_i2c.c ****     /* Set the DMA error callback */
2415:Drivers/STM32F7xx_HAL_Driver/Src/stm32f7xx_hal_i2c.c ****     hi2c->hdmarx->XferErrorCallback = I2C_DMAError;
 4743              		.loc 1 2415 0
 4744 010a FB68     		ldr	r3, [r7, #12]
 4745 010c DB6B     		ldr	r3, [r3, #60]
 4746 010e 224A     		ldr	r2, .L241+12
 4747 0110 DA64     		str	r2, [r3, #76]
2416:Drivers/STM32F7xx_HAL_Driver/Src/stm32f7xx_hal_i2c.c **** 
2417:Drivers/STM32F7xx_HAL_Driver/Src/stm32f7xx_hal_i2c.c ****     /* Set the unused DMA callbacks to NULL */
ARM GAS  /var/folders/n8/cvzdcwlj0vl4g_wtyz1ffy300000gn/T//ccBPNZvy.s 			page 126


2418:Drivers/STM32F7xx_HAL_Driver/Src/stm32f7xx_hal_i2c.c ****     hi2c->hdmarx->XferHalfCpltCallback = NULL;
 4748              		.loc 1 2418 0
 4749 0112 FB68     		ldr	r3, [r7, #12]
 4750 0114 DB6B     		ldr	r3, [r3, #60]
 4751 0116 0022     		movs	r2, #0
 4752 0118 1A64     		str	r2, [r3, #64]
2419:Drivers/STM32F7xx_HAL_Driver/Src/stm32f7xx_hal_i2c.c ****     hi2c->hdmarx->XferAbortCallback = NULL;
 4753              		.loc 1 2419 0
 4754 011a FB68     		ldr	r3, [r7, #12]
 4755 011c DB6B     		ldr	r3, [r3, #60]
 4756 011e 0022     		movs	r2, #0
 4757 0120 1A65     		str	r2, [r3, #80]
2420:Drivers/STM32F7xx_HAL_Driver/Src/stm32f7xx_hal_i2c.c **** 
2421:Drivers/STM32F7xx_HAL_Driver/Src/stm32f7xx_hal_i2c.c ****     /* Enable the DMA stream */
2422:Drivers/STM32F7xx_HAL_Driver/Src/stm32f7xx_hal_i2c.c ****     HAL_DMA_Start_IT(hi2c->hdmarx, (uint32_t)&hi2c->Instance->RXDR, (uint32_t)pData, hi2c->XferSize
 4758              		.loc 1 2422 0
 4759 0122 FB68     		ldr	r3, [r7, #12]
 4760 0124 D86B     		ldr	r0, [r3, #60]
 4761 0126 FB68     		ldr	r3, [r7, #12]
 4762 0128 1B68     		ldr	r3, [r3]
 4763 012a 2433     		adds	r3, r3, #36
 4764 012c 1946     		mov	r1, r3
 4765 012e 3A6A     		ldr	r2, [r7, #32]
 4766 0130 FB68     		ldr	r3, [r7, #12]
 4767 0132 1B8D     		ldrh	r3, [r3, #40]
 4768 0134 FFF7FEFF 		bl	HAL_DMA_Start_IT
2423:Drivers/STM32F7xx_HAL_Driver/Src/stm32f7xx_hal_i2c.c **** 
2424:Drivers/STM32F7xx_HAL_Driver/Src/stm32f7xx_hal_i2c.c ****     /* Set NBYTES to write and reload if hi2c->XferCount > MAX_NBYTE_SIZE and generate RESTART */
2425:Drivers/STM32F7xx_HAL_Driver/Src/stm32f7xx_hal_i2c.c ****     I2C_TransferConfig(hi2c, DevAddress, hi2c->XferSize, xfermode, I2C_GENERATE_START_READ);
 4769              		.loc 1 2425 0
 4770 0138 FB68     		ldr	r3, [r7, #12]
 4771 013a 1B8D     		ldrh	r3, [r3, #40]
 4772 013c DAB2     		uxtb	r2, r3
 4773 013e 7989     		ldrh	r1, [r7, #10]
 4774 0140 164B     		ldr	r3, .L241+16
 4775 0142 0093     		str	r3, [sp]
 4776 0144 7B69     		ldr	r3, [r7, #20]
 4777 0146 F868     		ldr	r0, [r7, #12]
 4778 0148 FFF7FEFF 		bl	I2C_TransferConfig
2426:Drivers/STM32F7xx_HAL_Driver/Src/stm32f7xx_hal_i2c.c **** 
2427:Drivers/STM32F7xx_HAL_Driver/Src/stm32f7xx_hal_i2c.c ****     /* Update XferCount value */
2428:Drivers/STM32F7xx_HAL_Driver/Src/stm32f7xx_hal_i2c.c ****     hi2c->XferCount -= hi2c->XferSize;
 4779              		.loc 1 2428 0
 4780 014c FB68     		ldr	r3, [r7, #12]
 4781 014e 5B8D     		ldrh	r3, [r3, #42]	@ movhi
 4782 0150 9AB2     		uxth	r2, r3
 4783 0152 FB68     		ldr	r3, [r7, #12]
 4784 0154 1B8D     		ldrh	r3, [r3, #40]
 4785 0156 D31A     		subs	r3, r2, r3
 4786 0158 9AB2     		uxth	r2, r3
 4787 015a FB68     		ldr	r3, [r7, #12]
 4788 015c 5A85     		strh	r2, [r3, #42]	@ movhi
2429:Drivers/STM32F7xx_HAL_Driver/Src/stm32f7xx_hal_i2c.c **** 
2430:Drivers/STM32F7xx_HAL_Driver/Src/stm32f7xx_hal_i2c.c ****     /* Process Unlocked */
2431:Drivers/STM32F7xx_HAL_Driver/Src/stm32f7xx_hal_i2c.c ****     __HAL_UNLOCK(hi2c);
 4789              		.loc 1 2431 0
 4790 015e FB68     		ldr	r3, [r7, #12]
ARM GAS  /var/folders/n8/cvzdcwlj0vl4g_wtyz1ffy300000gn/T//ccBPNZvy.s 			page 127


 4791 0160 0022     		movs	r2, #0
 4792 0162 83F84020 		strb	r2, [r3, #64]
2432:Drivers/STM32F7xx_HAL_Driver/Src/stm32f7xx_hal_i2c.c **** 
2433:Drivers/STM32F7xx_HAL_Driver/Src/stm32f7xx_hal_i2c.c ****     /* Enable DMA Request */
2434:Drivers/STM32F7xx_HAL_Driver/Src/stm32f7xx_hal_i2c.c ****     hi2c->Instance->CR1 |= I2C_CR1_RXDMAEN;
 4793              		.loc 1 2434 0
 4794 0166 FB68     		ldr	r3, [r7, #12]
 4795 0168 1B68     		ldr	r3, [r3]
 4796 016a 1A68     		ldr	r2, [r3]
 4797 016c FB68     		ldr	r3, [r7, #12]
 4798 016e 1B68     		ldr	r3, [r3]
 4799 0170 42F40042 		orr	r2, r2, #32768
 4800 0174 1A60     		str	r2, [r3]
2435:Drivers/STM32F7xx_HAL_Driver/Src/stm32f7xx_hal_i2c.c **** 
2436:Drivers/STM32F7xx_HAL_Driver/Src/stm32f7xx_hal_i2c.c ****     /* Note : The I2C interrupts must be enabled after unlocking current process
2437:Drivers/STM32F7xx_HAL_Driver/Src/stm32f7xx_hal_i2c.c ****               to avoid the risk of I2C interrupt handle execution before current
2438:Drivers/STM32F7xx_HAL_Driver/Src/stm32f7xx_hal_i2c.c ****               process unlock */
2439:Drivers/STM32F7xx_HAL_Driver/Src/stm32f7xx_hal_i2c.c ****     /* Enable ERR and NACK interrupts */
2440:Drivers/STM32F7xx_HAL_Driver/Src/stm32f7xx_hal_i2c.c ****     I2C_Enable_IRQ(hi2c, I2C_XFER_ERROR_IT);
 4801              		.loc 1 2440 0
 4802 0176 1121     		movs	r1, #17
 4803 0178 F868     		ldr	r0, [r7, #12]
 4804 017a FFF7FEFF 		bl	I2C_Enable_IRQ
2441:Drivers/STM32F7xx_HAL_Driver/Src/stm32f7xx_hal_i2c.c **** 
2442:Drivers/STM32F7xx_HAL_Driver/Src/stm32f7xx_hal_i2c.c ****     return HAL_OK;
 4805              		.loc 1 2442 0
 4806 017e 0023     		movs	r3, #0
 4807 0180 00E0     		b	.L234
 4808              	.L231:
2443:Drivers/STM32F7xx_HAL_Driver/Src/stm32f7xx_hal_i2c.c ****   }
2444:Drivers/STM32F7xx_HAL_Driver/Src/stm32f7xx_hal_i2c.c ****   else
2445:Drivers/STM32F7xx_HAL_Driver/Src/stm32f7xx_hal_i2c.c ****   {
2446:Drivers/STM32F7xx_HAL_Driver/Src/stm32f7xx_hal_i2c.c ****     return HAL_BUSY;
 4809              		.loc 1 2446 0
 4810 0182 0223     		movs	r3, #2
 4811              	.L234:
2447:Drivers/STM32F7xx_HAL_Driver/Src/stm32f7xx_hal_i2c.c ****   }
2448:Drivers/STM32F7xx_HAL_Driver/Src/stm32f7xx_hal_i2c.c **** }
 4812              		.loc 1 2448 0
 4813 0184 1846     		mov	r0, r3
 4814 0186 1837     		adds	r7, r7, #24
 4815              	.LCFI110:
 4816              		.cfi_def_cfa_offset 8
 4817 0188 BD46     		mov	sp, r7
 4818              	.LCFI111:
 4819              		.cfi_def_cfa_register 13
 4820              		@ sp needed
 4821 018a 80BD     		pop	{r7, pc}
 4822              	.L242:
 4823              		.align	2
 4824              	.L241:
 4825 018c 0000FFFF 		.word	-65536
 4826 0190 00000000 		.word	I2C_Master_ISR_DMA
 4827 0194 00000000 		.word	I2C_DMAMasterReceiveCplt
 4828 0198 00000000 		.word	I2C_DMAError
 4829 019c 00240080 		.word	-2147474432
 4830              		.cfi_endproc
ARM GAS  /var/folders/n8/cvzdcwlj0vl4g_wtyz1ffy300000gn/T//ccBPNZvy.s 			page 128


 4831              	.LFE159:
 4833              		.section	.text.HAL_I2C_IsDeviceReady,"ax",%progbits
 4834              		.align	1
 4835              		.global	HAL_I2C_IsDeviceReady
 4836              		.syntax unified
 4837              		.thumb
 4838              		.thumb_func
 4839              		.fpu fpv5-sp-d16
 4841              	HAL_I2C_IsDeviceReady:
 4842              	.LFB160:
2449:Drivers/STM32F7xx_HAL_Driver/Src/stm32f7xx_hal_i2c.c **** 
2450:Drivers/STM32F7xx_HAL_Driver/Src/stm32f7xx_hal_i2c.c **** /**
2451:Drivers/STM32F7xx_HAL_Driver/Src/stm32f7xx_hal_i2c.c ****   * @brief  Checks if target device is ready for communication.
2452:Drivers/STM32F7xx_HAL_Driver/Src/stm32f7xx_hal_i2c.c ****   * @note   This function is used with Memory devices
2453:Drivers/STM32F7xx_HAL_Driver/Src/stm32f7xx_hal_i2c.c ****   * @param  hi2c Pointer to a I2C_HandleTypeDef structure that contains
2454:Drivers/STM32F7xx_HAL_Driver/Src/stm32f7xx_hal_i2c.c ****   *                the configuration information for the specified I2C.
2455:Drivers/STM32F7xx_HAL_Driver/Src/stm32f7xx_hal_i2c.c ****   * @param  DevAddress Target device address which contain device 7 or 10 bits address value
2456:Drivers/STM32F7xx_HAL_Driver/Src/stm32f7xx_hal_i2c.c ****   *         in datasheet must be shifted to the left before calling the interface
2457:Drivers/STM32F7xx_HAL_Driver/Src/stm32f7xx_hal_i2c.c ****   * @param  Trials Number of trials
2458:Drivers/STM32F7xx_HAL_Driver/Src/stm32f7xx_hal_i2c.c ****   * @param  Timeout Timeout duration
2459:Drivers/STM32F7xx_HAL_Driver/Src/stm32f7xx_hal_i2c.c ****   * @retval HAL status
2460:Drivers/STM32F7xx_HAL_Driver/Src/stm32f7xx_hal_i2c.c ****   */
2461:Drivers/STM32F7xx_HAL_Driver/Src/stm32f7xx_hal_i2c.c **** HAL_StatusTypeDef HAL_I2C_IsDeviceReady(I2C_HandleTypeDef *hi2c, uint16_t DevAddress, uint32_t Tria
2462:Drivers/STM32F7xx_HAL_Driver/Src/stm32f7xx_hal_i2c.c **** {
 4843              		.loc 1 2462 0
 4844              		.cfi_startproc
 4845              		@ args = 0, pretend = 0, frame = 24
 4846              		@ frame_needed = 1, uses_anonymous_args = 0
 4847 0000 80B5     		push	{r7, lr}
 4848              	.LCFI112:
 4849              		.cfi_def_cfa_offset 8
 4850              		.cfi_offset 7, -8
 4851              		.cfi_offset 14, -4
 4852 0002 88B0     		sub	sp, sp, #32
 4853              	.LCFI113:
 4854              		.cfi_def_cfa_offset 40
 4855 0004 02AF     		add	r7, sp, #8
 4856              	.LCFI114:
 4857              		.cfi_def_cfa 7, 32
 4858 0006 F860     		str	r0, [r7, #12]
 4859 0008 7A60     		str	r2, [r7, #4]
 4860 000a 3B60     		str	r3, [r7]
 4861 000c 0B46     		mov	r3, r1	@ movhi
 4862 000e 7B81     		strh	r3, [r7, #10]	@ movhi
2463:Drivers/STM32F7xx_HAL_Driver/Src/stm32f7xx_hal_i2c.c ****   uint32_t tickstart = 0U;
 4863              		.loc 1 2463 0
 4864 0010 0023     		movs	r3, #0
 4865 0012 7B61     		str	r3, [r7, #20]
2464:Drivers/STM32F7xx_HAL_Driver/Src/stm32f7xx_hal_i2c.c **** 
2465:Drivers/STM32F7xx_HAL_Driver/Src/stm32f7xx_hal_i2c.c ****   __IO uint32_t I2C_Trials = 0U;
 4866              		.loc 1 2465 0
 4867 0014 0023     		movs	r3, #0
 4868 0016 3B61     		str	r3, [r7, #16]
2466:Drivers/STM32F7xx_HAL_Driver/Src/stm32f7xx_hal_i2c.c **** 
2467:Drivers/STM32F7xx_HAL_Driver/Src/stm32f7xx_hal_i2c.c ****   if (hi2c->State == HAL_I2C_STATE_READY)
 4869              		.loc 1 2467 0
 4870 0018 FB68     		ldr	r3, [r7, #12]
ARM GAS  /var/folders/n8/cvzdcwlj0vl4g_wtyz1ffy300000gn/T//ccBPNZvy.s 			page 129


 4871 001a 93F84130 		ldrb	r3, [r3, #65]
 4872 001e DBB2     		uxtb	r3, r3
 4873 0020 202B     		cmp	r3, #32
 4874 0022 40F0C480 		bne	.L244
2468:Drivers/STM32F7xx_HAL_Driver/Src/stm32f7xx_hal_i2c.c ****   {
2469:Drivers/STM32F7xx_HAL_Driver/Src/stm32f7xx_hal_i2c.c ****     if (__HAL_I2C_GET_FLAG(hi2c, I2C_FLAG_BUSY) == SET)
 4875              		.loc 1 2469 0
 4876 0026 FB68     		ldr	r3, [r7, #12]
 4877 0028 1B68     		ldr	r3, [r3]
 4878 002a 9B69     		ldr	r3, [r3, #24]
 4879 002c 03F40043 		and	r3, r3, #32768
 4880 0030 B3F5004F 		cmp	r3, #32768
 4881 0034 01D1     		bne	.L245
2470:Drivers/STM32F7xx_HAL_Driver/Src/stm32f7xx_hal_i2c.c ****     {
2471:Drivers/STM32F7xx_HAL_Driver/Src/stm32f7xx_hal_i2c.c ****       return HAL_BUSY;
 4882              		.loc 1 2471 0
 4883 0036 0223     		movs	r3, #2
 4884 0038 BAE0     		b	.L246
 4885              	.L245:
2472:Drivers/STM32F7xx_HAL_Driver/Src/stm32f7xx_hal_i2c.c ****     }
2473:Drivers/STM32F7xx_HAL_Driver/Src/stm32f7xx_hal_i2c.c **** 
2474:Drivers/STM32F7xx_HAL_Driver/Src/stm32f7xx_hal_i2c.c ****     /* Process Locked */
2475:Drivers/STM32F7xx_HAL_Driver/Src/stm32f7xx_hal_i2c.c ****     __HAL_LOCK(hi2c);
 4886              		.loc 1 2475 0
 4887 003a FB68     		ldr	r3, [r7, #12]
 4888 003c 93F84030 		ldrb	r3, [r3, #64]	@ zero_extendqisi2
 4889 0040 012B     		cmp	r3, #1
 4890 0042 01D1     		bne	.L247
 4891              		.loc 1 2475 0 is_stmt 0 discriminator 1
 4892 0044 0223     		movs	r3, #2
 4893 0046 B3E0     		b	.L246
 4894              	.L247:
 4895              		.loc 1 2475 0 discriminator 2
 4896 0048 FB68     		ldr	r3, [r7, #12]
 4897 004a 0122     		movs	r2, #1
 4898 004c 83F84020 		strb	r2, [r3, #64]
2476:Drivers/STM32F7xx_HAL_Driver/Src/stm32f7xx_hal_i2c.c **** 
2477:Drivers/STM32F7xx_HAL_Driver/Src/stm32f7xx_hal_i2c.c ****     hi2c->State = HAL_I2C_STATE_BUSY;
 4899              		.loc 1 2477 0 is_stmt 1 discriminator 2
 4900 0050 FB68     		ldr	r3, [r7, #12]
 4901 0052 2422     		movs	r2, #36
 4902 0054 83F84120 		strb	r2, [r3, #65]
2478:Drivers/STM32F7xx_HAL_Driver/Src/stm32f7xx_hal_i2c.c ****     hi2c->ErrorCode = HAL_I2C_ERROR_NONE;
 4903              		.loc 1 2478 0 discriminator 2
 4904 0058 FB68     		ldr	r3, [r7, #12]
 4905 005a 0022     		movs	r2, #0
 4906 005c 5A64     		str	r2, [r3, #68]
 4907              	.L259:
2479:Drivers/STM32F7xx_HAL_Driver/Src/stm32f7xx_hal_i2c.c **** 
2480:Drivers/STM32F7xx_HAL_Driver/Src/stm32f7xx_hal_i2c.c ****     do
2481:Drivers/STM32F7xx_HAL_Driver/Src/stm32f7xx_hal_i2c.c ****     {
2482:Drivers/STM32F7xx_HAL_Driver/Src/stm32f7xx_hal_i2c.c ****       /* Generate Start */
2483:Drivers/STM32F7xx_HAL_Driver/Src/stm32f7xx_hal_i2c.c ****       hi2c->Instance->CR2 = I2C_GENERATE_START(hi2c->Init.AddressingMode, DevAddress);
 4908              		.loc 1 2483 0
 4909 005e FB68     		ldr	r3, [r7, #12]
 4910 0060 DB68     		ldr	r3, [r3, #12]
 4911 0062 012B     		cmp	r3, #1
ARM GAS  /var/folders/n8/cvzdcwlj0vl4g_wtyz1ffy300000gn/T//ccBPNZvy.s 			page 130


 4912 0064 05D1     		bne	.L248
 4913              		.loc 1 2483 0 is_stmt 0 discriminator 1
 4914 0066 7B89     		ldrh	r3, [r7, #10]
 4915 0068 C3F30902 		ubfx	r2, r3, #0, #10
 4916 006c 524B     		ldr	r3, .L260
 4917 006e 1343     		orrs	r3, r3, r2
 4918 0070 04E0     		b	.L249
 4919              	.L248:
 4920              		.loc 1 2483 0 discriminator 2
 4921 0072 7B89     		ldrh	r3, [r7, #10]
 4922 0074 C3F30903 		ubfx	r3, r3, #0, #10
 4923 0078 43F42053 		orr	r3, r3, #10240
 4924              	.L249:
 4925              		.loc 1 2483 0 discriminator 4
 4926 007c FA68     		ldr	r2, [r7, #12]
 4927 007e 1268     		ldr	r2, [r2]
 4928 0080 5360     		str	r3, [r2, #4]
2484:Drivers/STM32F7xx_HAL_Driver/Src/stm32f7xx_hal_i2c.c **** 
2485:Drivers/STM32F7xx_HAL_Driver/Src/stm32f7xx_hal_i2c.c ****       /* No need to Check TC flag, with AUTOEND mode the stop is automatically generated */
2486:Drivers/STM32F7xx_HAL_Driver/Src/stm32f7xx_hal_i2c.c ****       /* Wait until STOPF flag is set or a NACK flag is set*/
2487:Drivers/STM32F7xx_HAL_Driver/Src/stm32f7xx_hal_i2c.c ****       tickstart = HAL_GetTick();
 4929              		.loc 1 2487 0 is_stmt 1 discriminator 4
 4930 0082 FFF7FEFF 		bl	HAL_GetTick
 4931 0086 7861     		str	r0, [r7, #20]
2488:Drivers/STM32F7xx_HAL_Driver/Src/stm32f7xx_hal_i2c.c ****       while ((__HAL_I2C_GET_FLAG(hi2c, I2C_FLAG_STOPF) == RESET) && (__HAL_I2C_GET_FLAG(hi2c, I2C_F
 4932              		.loc 1 2488 0 discriminator 4
 4933 0088 18E0     		b	.L250
 4934              	.L253:
2489:Drivers/STM32F7xx_HAL_Driver/Src/stm32f7xx_hal_i2c.c ****       {
2490:Drivers/STM32F7xx_HAL_Driver/Src/stm32f7xx_hal_i2c.c ****         if (Timeout != HAL_MAX_DELAY)
 4935              		.loc 1 2490 0
 4936 008a 3B68     		ldr	r3, [r7]
 4937 008c B3F1FF3F 		cmp	r3, #-1
 4938 0090 14D0     		beq	.L250
2491:Drivers/STM32F7xx_HAL_Driver/Src/stm32f7xx_hal_i2c.c ****         {
2492:Drivers/STM32F7xx_HAL_Driver/Src/stm32f7xx_hal_i2c.c ****           if ((Timeout == 0U) || ((HAL_GetTick() - tickstart) > Timeout))
 4939              		.loc 1 2492 0
 4940 0092 3B68     		ldr	r3, [r7]
 4941 0094 002B     		cmp	r3, #0
 4942 0096 07D0     		beq	.L251
 4943              		.loc 1 2492 0 is_stmt 0 discriminator 1
 4944 0098 FFF7FEFF 		bl	HAL_GetTick
 4945 009c 0246     		mov	r2, r0
 4946 009e 7B69     		ldr	r3, [r7, #20]
 4947 00a0 D31A     		subs	r3, r2, r3
 4948 00a2 3A68     		ldr	r2, [r7]
 4949 00a4 9A42     		cmp	r2, r3
 4950 00a6 09D2     		bcs	.L250
 4951              	.L251:
2493:Drivers/STM32F7xx_HAL_Driver/Src/stm32f7xx_hal_i2c.c ****           {
2494:Drivers/STM32F7xx_HAL_Driver/Src/stm32f7xx_hal_i2c.c ****             /* Device is ready */
2495:Drivers/STM32F7xx_HAL_Driver/Src/stm32f7xx_hal_i2c.c ****             hi2c->State = HAL_I2C_STATE_READY;
 4952              		.loc 1 2495 0 is_stmt 1
 4953 00a8 FB68     		ldr	r3, [r7, #12]
 4954 00aa 2022     		movs	r2, #32
 4955 00ac 83F84120 		strb	r2, [r3, #65]
2496:Drivers/STM32F7xx_HAL_Driver/Src/stm32f7xx_hal_i2c.c ****             /* Process Unlocked */
ARM GAS  /var/folders/n8/cvzdcwlj0vl4g_wtyz1ffy300000gn/T//ccBPNZvy.s 			page 131


2497:Drivers/STM32F7xx_HAL_Driver/Src/stm32f7xx_hal_i2c.c ****             __HAL_UNLOCK(hi2c);
 4956              		.loc 1 2497 0
 4957 00b0 FB68     		ldr	r3, [r7, #12]
 4958 00b2 0022     		movs	r2, #0
 4959 00b4 83F84020 		strb	r2, [r3, #64]
2498:Drivers/STM32F7xx_HAL_Driver/Src/stm32f7xx_hal_i2c.c ****             return HAL_TIMEOUT;
 4960              		.loc 1 2498 0
 4961 00b8 0323     		movs	r3, #3
 4962 00ba 79E0     		b	.L246
 4963              	.L250:
2488:Drivers/STM32F7xx_HAL_Driver/Src/stm32f7xx_hal_i2c.c ****       {
 4964              		.loc 1 2488 0
 4965 00bc FB68     		ldr	r3, [r7, #12]
 4966 00be 1B68     		ldr	r3, [r3]
 4967 00c0 9B69     		ldr	r3, [r3, #24]
 4968 00c2 03F02003 		and	r3, r3, #32
 4969 00c6 202B     		cmp	r3, #32
 4970 00c8 0CD0     		beq	.L252
2488:Drivers/STM32F7xx_HAL_Driver/Src/stm32f7xx_hal_i2c.c ****       {
 4971              		.loc 1 2488 0 is_stmt 0 discriminator 1
 4972 00ca FB68     		ldr	r3, [r7, #12]
 4973 00cc 1B68     		ldr	r3, [r3]
 4974 00ce 9B69     		ldr	r3, [r3, #24]
 4975 00d0 03F01003 		and	r3, r3, #16
 4976 00d4 102B     		cmp	r3, #16
 4977 00d6 05D0     		beq	.L252
2488:Drivers/STM32F7xx_HAL_Driver/Src/stm32f7xx_hal_i2c.c ****       {
 4978              		.loc 1 2488 0 discriminator 2
 4979 00d8 FB68     		ldr	r3, [r7, #12]
 4980 00da 93F84130 		ldrb	r3, [r3, #65]
 4981 00de DBB2     		uxtb	r3, r3
 4982 00e0 A02B     		cmp	r3, #160
 4983 00e2 D2D1     		bne	.L253
 4984              	.L252:
2499:Drivers/STM32F7xx_HAL_Driver/Src/stm32f7xx_hal_i2c.c ****           }
2500:Drivers/STM32F7xx_HAL_Driver/Src/stm32f7xx_hal_i2c.c ****         }
2501:Drivers/STM32F7xx_HAL_Driver/Src/stm32f7xx_hal_i2c.c ****       }
2502:Drivers/STM32F7xx_HAL_Driver/Src/stm32f7xx_hal_i2c.c **** 
2503:Drivers/STM32F7xx_HAL_Driver/Src/stm32f7xx_hal_i2c.c ****       /* Check if the NACKF flag has not been set */
2504:Drivers/STM32F7xx_HAL_Driver/Src/stm32f7xx_hal_i2c.c ****       if (__HAL_I2C_GET_FLAG(hi2c, I2C_FLAG_AF) == RESET)
 4985              		.loc 1 2504 0 is_stmt 1
 4986 00e4 FB68     		ldr	r3, [r7, #12]
 4987 00e6 1B68     		ldr	r3, [r3]
 4988 00e8 9B69     		ldr	r3, [r3, #24]
 4989 00ea 03F01003 		and	r3, r3, #16
 4990 00ee 102B     		cmp	r3, #16
 4991 00f0 1AD0     		beq	.L254
2505:Drivers/STM32F7xx_HAL_Driver/Src/stm32f7xx_hal_i2c.c ****       {
2506:Drivers/STM32F7xx_HAL_Driver/Src/stm32f7xx_hal_i2c.c ****         /* Wait until STOPF flag is reset */
2507:Drivers/STM32F7xx_HAL_Driver/Src/stm32f7xx_hal_i2c.c ****         if (I2C_WaitOnFlagUntilTimeout(hi2c, I2C_FLAG_STOPF, RESET, Timeout, tickstart) != HAL_OK)
 4992              		.loc 1 2507 0
 4993 00f2 7B69     		ldr	r3, [r7, #20]
 4994 00f4 0093     		str	r3, [sp]
 4995 00f6 3B68     		ldr	r3, [r7]
 4996 00f8 0022     		movs	r2, #0
 4997 00fa 2021     		movs	r1, #32
 4998 00fc F868     		ldr	r0, [r7, #12]
ARM GAS  /var/folders/n8/cvzdcwlj0vl4g_wtyz1ffy300000gn/T//ccBPNZvy.s 			page 132


 4999 00fe FFF7FEFF 		bl	I2C_WaitOnFlagUntilTimeout
 5000 0102 0346     		mov	r3, r0
 5001 0104 002B     		cmp	r3, #0
 5002 0106 01D0     		beq	.L255
2508:Drivers/STM32F7xx_HAL_Driver/Src/stm32f7xx_hal_i2c.c ****         {
2509:Drivers/STM32F7xx_HAL_Driver/Src/stm32f7xx_hal_i2c.c ****           return HAL_TIMEOUT;
 5003              		.loc 1 2509 0
 5004 0108 0323     		movs	r3, #3
 5005 010a 51E0     		b	.L246
 5006              	.L255:
2510:Drivers/STM32F7xx_HAL_Driver/Src/stm32f7xx_hal_i2c.c ****         }
2511:Drivers/STM32F7xx_HAL_Driver/Src/stm32f7xx_hal_i2c.c **** 
2512:Drivers/STM32F7xx_HAL_Driver/Src/stm32f7xx_hal_i2c.c ****         /* Clear STOP Flag */
2513:Drivers/STM32F7xx_HAL_Driver/Src/stm32f7xx_hal_i2c.c ****         __HAL_I2C_CLEAR_FLAG(hi2c, I2C_FLAG_STOPF);
 5007              		.loc 1 2513 0
 5008 010c FB68     		ldr	r3, [r7, #12]
 5009 010e 1B68     		ldr	r3, [r3]
 5010 0110 2022     		movs	r2, #32
 5011 0112 DA61     		str	r2, [r3, #28]
2514:Drivers/STM32F7xx_HAL_Driver/Src/stm32f7xx_hal_i2c.c **** 
2515:Drivers/STM32F7xx_HAL_Driver/Src/stm32f7xx_hal_i2c.c ****         /* Device is ready */
2516:Drivers/STM32F7xx_HAL_Driver/Src/stm32f7xx_hal_i2c.c ****         hi2c->State = HAL_I2C_STATE_READY;
 5012              		.loc 1 2516 0
 5013 0114 FB68     		ldr	r3, [r7, #12]
 5014 0116 2022     		movs	r2, #32
 5015 0118 83F84120 		strb	r2, [r3, #65]
2517:Drivers/STM32F7xx_HAL_Driver/Src/stm32f7xx_hal_i2c.c **** 
2518:Drivers/STM32F7xx_HAL_Driver/Src/stm32f7xx_hal_i2c.c ****         /* Process Unlocked */
2519:Drivers/STM32F7xx_HAL_Driver/Src/stm32f7xx_hal_i2c.c ****         __HAL_UNLOCK(hi2c);
 5016              		.loc 1 2519 0
 5017 011c FB68     		ldr	r3, [r7, #12]
 5018 011e 0022     		movs	r2, #0
 5019 0120 83F84020 		strb	r2, [r3, #64]
2520:Drivers/STM32F7xx_HAL_Driver/Src/stm32f7xx_hal_i2c.c **** 
2521:Drivers/STM32F7xx_HAL_Driver/Src/stm32f7xx_hal_i2c.c ****         return HAL_OK;
 5020              		.loc 1 2521 0
 5021 0124 0023     		movs	r3, #0
 5022 0126 43E0     		b	.L246
 5023              	.L254:
2522:Drivers/STM32F7xx_HAL_Driver/Src/stm32f7xx_hal_i2c.c ****       }
2523:Drivers/STM32F7xx_HAL_Driver/Src/stm32f7xx_hal_i2c.c ****       else
2524:Drivers/STM32F7xx_HAL_Driver/Src/stm32f7xx_hal_i2c.c ****       {
2525:Drivers/STM32F7xx_HAL_Driver/Src/stm32f7xx_hal_i2c.c ****         /* Wait until STOPF flag is reset */
2526:Drivers/STM32F7xx_HAL_Driver/Src/stm32f7xx_hal_i2c.c ****         if (I2C_WaitOnFlagUntilTimeout(hi2c, I2C_FLAG_STOPF, RESET, Timeout, tickstart) != HAL_OK)
 5024              		.loc 1 2526 0
 5025 0128 7B69     		ldr	r3, [r7, #20]
 5026 012a 0093     		str	r3, [sp]
 5027 012c 3B68     		ldr	r3, [r7]
 5028 012e 0022     		movs	r2, #0
 5029 0130 2021     		movs	r1, #32
 5030 0132 F868     		ldr	r0, [r7, #12]
 5031 0134 FFF7FEFF 		bl	I2C_WaitOnFlagUntilTimeout
 5032 0138 0346     		mov	r3, r0
 5033 013a 002B     		cmp	r3, #0
 5034 013c 01D0     		beq	.L256
2527:Drivers/STM32F7xx_HAL_Driver/Src/stm32f7xx_hal_i2c.c ****         {
2528:Drivers/STM32F7xx_HAL_Driver/Src/stm32f7xx_hal_i2c.c ****           return HAL_TIMEOUT;
ARM GAS  /var/folders/n8/cvzdcwlj0vl4g_wtyz1ffy300000gn/T//ccBPNZvy.s 			page 133


 5035              		.loc 1 2528 0
 5036 013e 0323     		movs	r3, #3
 5037 0140 36E0     		b	.L246
 5038              	.L256:
2529:Drivers/STM32F7xx_HAL_Driver/Src/stm32f7xx_hal_i2c.c ****         }
2530:Drivers/STM32F7xx_HAL_Driver/Src/stm32f7xx_hal_i2c.c **** 
2531:Drivers/STM32F7xx_HAL_Driver/Src/stm32f7xx_hal_i2c.c ****         /* Clear NACK Flag */
2532:Drivers/STM32F7xx_HAL_Driver/Src/stm32f7xx_hal_i2c.c ****         __HAL_I2C_CLEAR_FLAG(hi2c, I2C_FLAG_AF);
 5039              		.loc 1 2532 0
 5040 0142 FB68     		ldr	r3, [r7, #12]
 5041 0144 1B68     		ldr	r3, [r3]
 5042 0146 1022     		movs	r2, #16
 5043 0148 DA61     		str	r2, [r3, #28]
2533:Drivers/STM32F7xx_HAL_Driver/Src/stm32f7xx_hal_i2c.c **** 
2534:Drivers/STM32F7xx_HAL_Driver/Src/stm32f7xx_hal_i2c.c ****         /* Clear STOP Flag, auto generated with autoend*/
2535:Drivers/STM32F7xx_HAL_Driver/Src/stm32f7xx_hal_i2c.c ****         __HAL_I2C_CLEAR_FLAG(hi2c, I2C_FLAG_STOPF);
 5044              		.loc 1 2535 0
 5045 014a FB68     		ldr	r3, [r7, #12]
 5046 014c 1B68     		ldr	r3, [r3]
 5047 014e 2022     		movs	r2, #32
 5048 0150 DA61     		str	r2, [r3, #28]
2536:Drivers/STM32F7xx_HAL_Driver/Src/stm32f7xx_hal_i2c.c ****       }
2537:Drivers/STM32F7xx_HAL_Driver/Src/stm32f7xx_hal_i2c.c **** 
2538:Drivers/STM32F7xx_HAL_Driver/Src/stm32f7xx_hal_i2c.c ****       /* Check if the maximum allowed number of trials has been reached */
2539:Drivers/STM32F7xx_HAL_Driver/Src/stm32f7xx_hal_i2c.c ****       if (I2C_Trials++ == Trials)
 5049              		.loc 1 2539 0
 5050 0152 3B69     		ldr	r3, [r7, #16]
 5051 0154 5A1C     		adds	r2, r3, #1
 5052 0156 3A61     		str	r2, [r7, #16]
 5053 0158 7A68     		ldr	r2, [r7, #4]
 5054 015a 9A42     		cmp	r2, r3
 5055 015c 18D1     		bne	.L257
2540:Drivers/STM32F7xx_HAL_Driver/Src/stm32f7xx_hal_i2c.c ****       {
2541:Drivers/STM32F7xx_HAL_Driver/Src/stm32f7xx_hal_i2c.c ****         /* Generate Stop */
2542:Drivers/STM32F7xx_HAL_Driver/Src/stm32f7xx_hal_i2c.c ****         hi2c->Instance->CR2 |= I2C_CR2_STOP;
 5056              		.loc 1 2542 0
 5057 015e FB68     		ldr	r3, [r7, #12]
 5058 0160 1B68     		ldr	r3, [r3]
 5059 0162 5A68     		ldr	r2, [r3, #4]
 5060 0164 FB68     		ldr	r3, [r7, #12]
 5061 0166 1B68     		ldr	r3, [r3]
 5062 0168 42F48042 		orr	r2, r2, #16384
 5063 016c 5A60     		str	r2, [r3, #4]
2543:Drivers/STM32F7xx_HAL_Driver/Src/stm32f7xx_hal_i2c.c **** 
2544:Drivers/STM32F7xx_HAL_Driver/Src/stm32f7xx_hal_i2c.c ****         /* Wait until STOPF flag is reset */
2545:Drivers/STM32F7xx_HAL_Driver/Src/stm32f7xx_hal_i2c.c ****         if (I2C_WaitOnFlagUntilTimeout(hi2c, I2C_FLAG_STOPF, RESET, Timeout, tickstart) != HAL_OK)
 5064              		.loc 1 2545 0
 5065 016e 7B69     		ldr	r3, [r7, #20]
 5066 0170 0093     		str	r3, [sp]
 5067 0172 3B68     		ldr	r3, [r7]
 5068 0174 0022     		movs	r2, #0
 5069 0176 2021     		movs	r1, #32
 5070 0178 F868     		ldr	r0, [r7, #12]
 5071 017a FFF7FEFF 		bl	I2C_WaitOnFlagUntilTimeout
 5072 017e 0346     		mov	r3, r0
 5073 0180 002B     		cmp	r3, #0
 5074 0182 01D0     		beq	.L258
ARM GAS  /var/folders/n8/cvzdcwlj0vl4g_wtyz1ffy300000gn/T//ccBPNZvy.s 			page 134


2546:Drivers/STM32F7xx_HAL_Driver/Src/stm32f7xx_hal_i2c.c ****         {
2547:Drivers/STM32F7xx_HAL_Driver/Src/stm32f7xx_hal_i2c.c ****           return HAL_TIMEOUT;
 5075              		.loc 1 2547 0
 5076 0184 0323     		movs	r3, #3
 5077 0186 13E0     		b	.L246
 5078              	.L258:
2548:Drivers/STM32F7xx_HAL_Driver/Src/stm32f7xx_hal_i2c.c ****         }
2549:Drivers/STM32F7xx_HAL_Driver/Src/stm32f7xx_hal_i2c.c **** 
2550:Drivers/STM32F7xx_HAL_Driver/Src/stm32f7xx_hal_i2c.c ****         /* Clear STOP Flag */
2551:Drivers/STM32F7xx_HAL_Driver/Src/stm32f7xx_hal_i2c.c ****         __HAL_I2C_CLEAR_FLAG(hi2c, I2C_FLAG_STOPF);
 5079              		.loc 1 2551 0
 5080 0188 FB68     		ldr	r3, [r7, #12]
 5081 018a 1B68     		ldr	r3, [r3]
 5082 018c 2022     		movs	r2, #32
 5083 018e DA61     		str	r2, [r3, #28]
 5084              	.L257:
2552:Drivers/STM32F7xx_HAL_Driver/Src/stm32f7xx_hal_i2c.c ****       }
2553:Drivers/STM32F7xx_HAL_Driver/Src/stm32f7xx_hal_i2c.c ****     }
2554:Drivers/STM32F7xx_HAL_Driver/Src/stm32f7xx_hal_i2c.c ****     while (I2C_Trials < Trials);
 5085              		.loc 1 2554 0
 5086 0190 3B69     		ldr	r3, [r7, #16]
 5087 0192 7A68     		ldr	r2, [r7, #4]
 5088 0194 9A42     		cmp	r2, r3
 5089 0196 3FF662AF 		bhi	.L259
2555:Drivers/STM32F7xx_HAL_Driver/Src/stm32f7xx_hal_i2c.c **** 
2556:Drivers/STM32F7xx_HAL_Driver/Src/stm32f7xx_hal_i2c.c ****     hi2c->State = HAL_I2C_STATE_READY;
 5090              		.loc 1 2556 0
 5091 019a FB68     		ldr	r3, [r7, #12]
 5092 019c 2022     		movs	r2, #32
 5093 019e 83F84120 		strb	r2, [r3, #65]
2557:Drivers/STM32F7xx_HAL_Driver/Src/stm32f7xx_hal_i2c.c **** 
2558:Drivers/STM32F7xx_HAL_Driver/Src/stm32f7xx_hal_i2c.c ****     /* Process Unlocked */
2559:Drivers/STM32F7xx_HAL_Driver/Src/stm32f7xx_hal_i2c.c ****     __HAL_UNLOCK(hi2c);
 5094              		.loc 1 2559 0
 5095 01a2 FB68     		ldr	r3, [r7, #12]
 5096 01a4 0022     		movs	r2, #0
 5097 01a6 83F84020 		strb	r2, [r3, #64]
2560:Drivers/STM32F7xx_HAL_Driver/Src/stm32f7xx_hal_i2c.c **** 
2561:Drivers/STM32F7xx_HAL_Driver/Src/stm32f7xx_hal_i2c.c ****     return HAL_TIMEOUT;
 5098              		.loc 1 2561 0
 5099 01aa 0323     		movs	r3, #3
 5100 01ac 00E0     		b	.L246
 5101              	.L244:
2562:Drivers/STM32F7xx_HAL_Driver/Src/stm32f7xx_hal_i2c.c ****   }
2563:Drivers/STM32F7xx_HAL_Driver/Src/stm32f7xx_hal_i2c.c ****   else
2564:Drivers/STM32F7xx_HAL_Driver/Src/stm32f7xx_hal_i2c.c ****   {
2565:Drivers/STM32F7xx_HAL_Driver/Src/stm32f7xx_hal_i2c.c ****     return HAL_BUSY;
 5102              		.loc 1 2565 0
 5103 01ae 0223     		movs	r3, #2
 5104              	.L246:
2566:Drivers/STM32F7xx_HAL_Driver/Src/stm32f7xx_hal_i2c.c ****   }
2567:Drivers/STM32F7xx_HAL_Driver/Src/stm32f7xx_hal_i2c.c **** }
 5105              		.loc 1 2567 0
 5106 01b0 1846     		mov	r0, r3
 5107 01b2 1837     		adds	r7, r7, #24
 5108              	.LCFI115:
 5109              		.cfi_def_cfa_offset 8
ARM GAS  /var/folders/n8/cvzdcwlj0vl4g_wtyz1ffy300000gn/T//ccBPNZvy.s 			page 135


 5110 01b4 BD46     		mov	sp, r7
 5111              	.LCFI116:
 5112              		.cfi_def_cfa_register 13
 5113              		@ sp needed
 5114 01b6 80BD     		pop	{r7, pc}
 5115              	.L261:
 5116              		.align	2
 5117              	.L260:
 5118 01b8 00200002 		.word	33562624
 5119              		.cfi_endproc
 5120              	.LFE160:
 5122              		.section	.text.HAL_I2C_Master_Sequential_Transmit_IT,"ax",%progbits
 5123              		.align	1
 5124              		.global	HAL_I2C_Master_Sequential_Transmit_IT
 5125              		.syntax unified
 5126              		.thumb
 5127              		.thumb_func
 5128              		.fpu fpv5-sp-d16
 5130              	HAL_I2C_Master_Sequential_Transmit_IT:
 5131              	.LFB161:
2568:Drivers/STM32F7xx_HAL_Driver/Src/stm32f7xx_hal_i2c.c **** 
2569:Drivers/STM32F7xx_HAL_Driver/Src/stm32f7xx_hal_i2c.c **** /**
2570:Drivers/STM32F7xx_HAL_Driver/Src/stm32f7xx_hal_i2c.c ****   * @brief  Sequential transmit in master I2C mode an amount of data in non-blocking mode with Inte
2571:Drivers/STM32F7xx_HAL_Driver/Src/stm32f7xx_hal_i2c.c ****   * @note   This interface allow to manage repeated start condition when a direction change during 
2572:Drivers/STM32F7xx_HAL_Driver/Src/stm32f7xx_hal_i2c.c ****   * @param  hi2c Pointer to a I2C_HandleTypeDef structure that contains
2573:Drivers/STM32F7xx_HAL_Driver/Src/stm32f7xx_hal_i2c.c ****   *                the configuration information for the specified I2C.
2574:Drivers/STM32F7xx_HAL_Driver/Src/stm32f7xx_hal_i2c.c ****   * @param  DevAddress Target device address which contain device 7 or 10 bits address value
2575:Drivers/STM32F7xx_HAL_Driver/Src/stm32f7xx_hal_i2c.c ****   *         in datasheet must be shifted to the left before calling the interface
2576:Drivers/STM32F7xx_HAL_Driver/Src/stm32f7xx_hal_i2c.c ****   * @param  pData Pointer to data buffer
2577:Drivers/STM32F7xx_HAL_Driver/Src/stm32f7xx_hal_i2c.c ****   * @param  Size Amount of data to be sent
2578:Drivers/STM32F7xx_HAL_Driver/Src/stm32f7xx_hal_i2c.c ****   * @param  XferOptions Options of Transfer, value of @ref I2C_XFEROPTIONS
2579:Drivers/STM32F7xx_HAL_Driver/Src/stm32f7xx_hal_i2c.c ****   * @retval HAL status
2580:Drivers/STM32F7xx_HAL_Driver/Src/stm32f7xx_hal_i2c.c ****   */
2581:Drivers/STM32F7xx_HAL_Driver/Src/stm32f7xx_hal_i2c.c **** HAL_StatusTypeDef HAL_I2C_Master_Sequential_Transmit_IT(I2C_HandleTypeDef *hi2c, uint16_t DevAddres
2582:Drivers/STM32F7xx_HAL_Driver/Src/stm32f7xx_hal_i2c.c **** {
 5132              		.loc 1 2582 0
 5133              		.cfi_startproc
 5134              		@ args = 4, pretend = 0, frame = 24
 5135              		@ frame_needed = 1, uses_anonymous_args = 0
 5136 0000 80B5     		push	{r7, lr}
 5137              	.LCFI117:
 5138              		.cfi_def_cfa_offset 8
 5139              		.cfi_offset 7, -8
 5140              		.cfi_offset 14, -4
 5141 0002 88B0     		sub	sp, sp, #32
 5142              	.LCFI118:
 5143              		.cfi_def_cfa_offset 40
 5144 0004 02AF     		add	r7, sp, #8
 5145              	.LCFI119:
 5146              		.cfi_def_cfa 7, 32
 5147 0006 F860     		str	r0, [r7, #12]
 5148 0008 7A60     		str	r2, [r7, #4]
 5149 000a 1A46     		mov	r2, r3
 5150 000c 0B46     		mov	r3, r1	@ movhi
 5151 000e 7B81     		strh	r3, [r7, #10]	@ movhi
 5152 0010 1346     		mov	r3, r2	@ movhi
 5153 0012 3B81     		strh	r3, [r7, #8]	@ movhi
ARM GAS  /var/folders/n8/cvzdcwlj0vl4g_wtyz1ffy300000gn/T//ccBPNZvy.s 			page 136


2583:Drivers/STM32F7xx_HAL_Driver/Src/stm32f7xx_hal_i2c.c ****   uint32_t xfermode = 0U;
 5154              		.loc 1 2583 0
 5155 0014 0023     		movs	r3, #0
 5156 0016 7B61     		str	r3, [r7, #20]
2584:Drivers/STM32F7xx_HAL_Driver/Src/stm32f7xx_hal_i2c.c ****   uint32_t xferrequest = I2C_GENERATE_START_WRITE;
 5157              		.loc 1 2584 0
 5158 0018 2E4B     		ldr	r3, .L269
 5159 001a 3B61     		str	r3, [r7, #16]
2585:Drivers/STM32F7xx_HAL_Driver/Src/stm32f7xx_hal_i2c.c **** 
2586:Drivers/STM32F7xx_HAL_Driver/Src/stm32f7xx_hal_i2c.c ****   /* Check the parameters */
2587:Drivers/STM32F7xx_HAL_Driver/Src/stm32f7xx_hal_i2c.c ****   assert_param(IS_I2C_TRANSFER_OPTIONS_REQUEST(XferOptions));
2588:Drivers/STM32F7xx_HAL_Driver/Src/stm32f7xx_hal_i2c.c **** 
2589:Drivers/STM32F7xx_HAL_Driver/Src/stm32f7xx_hal_i2c.c ****   if (hi2c->State == HAL_I2C_STATE_READY)
 5160              		.loc 1 2589 0
 5161 001c FB68     		ldr	r3, [r7, #12]
 5162 001e 93F84130 		ldrb	r3, [r3, #65]
 5163 0022 DBB2     		uxtb	r3, r3
 5164 0024 202B     		cmp	r3, #32
 5165 0026 4FD1     		bne	.L263
2590:Drivers/STM32F7xx_HAL_Driver/Src/stm32f7xx_hal_i2c.c ****   {
2591:Drivers/STM32F7xx_HAL_Driver/Src/stm32f7xx_hal_i2c.c ****     /* Process Locked */
2592:Drivers/STM32F7xx_HAL_Driver/Src/stm32f7xx_hal_i2c.c ****     __HAL_LOCK(hi2c);
 5166              		.loc 1 2592 0
 5167 0028 FB68     		ldr	r3, [r7, #12]
 5168 002a 93F84030 		ldrb	r3, [r3, #64]	@ zero_extendqisi2
 5169 002e 012B     		cmp	r3, #1
 5170 0030 01D1     		bne	.L264
 5171              		.loc 1 2592 0 is_stmt 0 discriminator 1
 5172 0032 0223     		movs	r3, #2
 5173 0034 49E0     		b	.L265
 5174              	.L264:
 5175              		.loc 1 2592 0 discriminator 2
 5176 0036 FB68     		ldr	r3, [r7, #12]
 5177 0038 0122     		movs	r2, #1
 5178 003a 83F84020 		strb	r2, [r3, #64]
2593:Drivers/STM32F7xx_HAL_Driver/Src/stm32f7xx_hal_i2c.c **** 
2594:Drivers/STM32F7xx_HAL_Driver/Src/stm32f7xx_hal_i2c.c ****     hi2c->State     = HAL_I2C_STATE_BUSY_TX;
 5179              		.loc 1 2594 0 is_stmt 1 discriminator 2
 5180 003e FB68     		ldr	r3, [r7, #12]
 5181 0040 2122     		movs	r2, #33
 5182 0042 83F84120 		strb	r2, [r3, #65]
2595:Drivers/STM32F7xx_HAL_Driver/Src/stm32f7xx_hal_i2c.c ****     hi2c->Mode      = HAL_I2C_MODE_MASTER;
 5183              		.loc 1 2595 0 discriminator 2
 5184 0046 FB68     		ldr	r3, [r7, #12]
 5185 0048 1022     		movs	r2, #16
 5186 004a 83F84220 		strb	r2, [r3, #66]
2596:Drivers/STM32F7xx_HAL_Driver/Src/stm32f7xx_hal_i2c.c ****     hi2c->ErrorCode = HAL_I2C_ERROR_NONE;
 5187              		.loc 1 2596 0 discriminator 2
 5188 004e FB68     		ldr	r3, [r7, #12]
 5189 0050 0022     		movs	r2, #0
 5190 0052 5A64     		str	r2, [r3, #68]
2597:Drivers/STM32F7xx_HAL_Driver/Src/stm32f7xx_hal_i2c.c **** 
2598:Drivers/STM32F7xx_HAL_Driver/Src/stm32f7xx_hal_i2c.c ****     /* Prepare transfer parameters */
2599:Drivers/STM32F7xx_HAL_Driver/Src/stm32f7xx_hal_i2c.c ****     hi2c->pBuffPtr    = pData;
 5191              		.loc 1 2599 0 discriminator 2
 5192 0054 FB68     		ldr	r3, [r7, #12]
 5193 0056 7A68     		ldr	r2, [r7, #4]
ARM GAS  /var/folders/n8/cvzdcwlj0vl4g_wtyz1ffy300000gn/T//ccBPNZvy.s 			page 137


 5194 0058 5A62     		str	r2, [r3, #36]
2600:Drivers/STM32F7xx_HAL_Driver/Src/stm32f7xx_hal_i2c.c ****     hi2c->XferCount   = Size;
 5195              		.loc 1 2600 0 discriminator 2
 5196 005a FB68     		ldr	r3, [r7, #12]
 5197 005c 3A89     		ldrh	r2, [r7, #8]	@ movhi
 5198 005e 5A85     		strh	r2, [r3, #42]	@ movhi
2601:Drivers/STM32F7xx_HAL_Driver/Src/stm32f7xx_hal_i2c.c ****     hi2c->XferOptions = XferOptions;
 5199              		.loc 1 2601 0 discriminator 2
 5200 0060 FB68     		ldr	r3, [r7, #12]
 5201 0062 3A6A     		ldr	r2, [r7, #32]
 5202 0064 DA62     		str	r2, [r3, #44]
2602:Drivers/STM32F7xx_HAL_Driver/Src/stm32f7xx_hal_i2c.c ****     hi2c->XferISR     = I2C_Master_ISR_IT;
 5203              		.loc 1 2602 0 discriminator 2
 5204 0066 FB68     		ldr	r3, [r7, #12]
 5205 0068 1B4A     		ldr	r2, .L269+4
 5206 006a 5A63     		str	r2, [r3, #52]
2603:Drivers/STM32F7xx_HAL_Driver/Src/stm32f7xx_hal_i2c.c **** 
2604:Drivers/STM32F7xx_HAL_Driver/Src/stm32f7xx_hal_i2c.c ****     /* If size > MAX_NBYTE_SIZE, use reload mode */
2605:Drivers/STM32F7xx_HAL_Driver/Src/stm32f7xx_hal_i2c.c ****     if (hi2c->XferCount > MAX_NBYTE_SIZE)
 5207              		.loc 1 2605 0 discriminator 2
 5208 006c FB68     		ldr	r3, [r7, #12]
 5209 006e 5B8D     		ldrh	r3, [r3, #42]	@ movhi
 5210 0070 9BB2     		uxth	r3, r3
 5211 0072 FF2B     		cmp	r3, #255
 5212 0074 06D9     		bls	.L266
2606:Drivers/STM32F7xx_HAL_Driver/Src/stm32f7xx_hal_i2c.c ****     {
2607:Drivers/STM32F7xx_HAL_Driver/Src/stm32f7xx_hal_i2c.c ****       hi2c->XferSize = MAX_NBYTE_SIZE;
 5213              		.loc 1 2607 0
 5214 0076 FB68     		ldr	r3, [r7, #12]
 5215 0078 FF22     		movs	r2, #255
 5216 007a 1A85     		strh	r2, [r3, #40]	@ movhi
2608:Drivers/STM32F7xx_HAL_Driver/Src/stm32f7xx_hal_i2c.c ****       xfermode = I2C_RELOAD_MODE;
 5217              		.loc 1 2608 0
 5218 007c 4FF08073 		mov	r3, #16777216
 5219 0080 7B61     		str	r3, [r7, #20]
 5220 0082 07E0     		b	.L267
 5221              	.L266:
2609:Drivers/STM32F7xx_HAL_Driver/Src/stm32f7xx_hal_i2c.c ****     }
2610:Drivers/STM32F7xx_HAL_Driver/Src/stm32f7xx_hal_i2c.c ****     else
2611:Drivers/STM32F7xx_HAL_Driver/Src/stm32f7xx_hal_i2c.c ****     {
2612:Drivers/STM32F7xx_HAL_Driver/Src/stm32f7xx_hal_i2c.c ****       hi2c->XferSize = hi2c->XferCount;
 5222              		.loc 1 2612 0
 5223 0084 FB68     		ldr	r3, [r7, #12]
 5224 0086 5B8D     		ldrh	r3, [r3, #42]	@ movhi
 5225 0088 9AB2     		uxth	r2, r3
 5226 008a FB68     		ldr	r3, [r7, #12]
 5227 008c 1A85     		strh	r2, [r3, #40]	@ movhi
2613:Drivers/STM32F7xx_HAL_Driver/Src/stm32f7xx_hal_i2c.c ****       xfermode = hi2c->XferOptions;
 5228              		.loc 1 2613 0
 5229 008e FB68     		ldr	r3, [r7, #12]
 5230 0090 DB6A     		ldr	r3, [r3, #44]
 5231 0092 7B61     		str	r3, [r7, #20]
 5232              	.L267:
2614:Drivers/STM32F7xx_HAL_Driver/Src/stm32f7xx_hal_i2c.c ****     }
2615:Drivers/STM32F7xx_HAL_Driver/Src/stm32f7xx_hal_i2c.c **** 
2616:Drivers/STM32F7xx_HAL_Driver/Src/stm32f7xx_hal_i2c.c ****     /* If transfer direction not change, do not generate Restart Condition */
2617:Drivers/STM32F7xx_HAL_Driver/Src/stm32f7xx_hal_i2c.c ****     /* Mean Previous state is same as current state */
ARM GAS  /var/folders/n8/cvzdcwlj0vl4g_wtyz1ffy300000gn/T//ccBPNZvy.s 			page 138


2618:Drivers/STM32F7xx_HAL_Driver/Src/stm32f7xx_hal_i2c.c ****     if (hi2c->PreviousState == I2C_STATE_MASTER_BUSY_TX)
 5233              		.loc 1 2618 0
 5234 0094 FB68     		ldr	r3, [r7, #12]
 5235 0096 1B6B     		ldr	r3, [r3, #48]
 5236 0098 112B     		cmp	r3, #17
 5237 009a 01D1     		bne	.L268
2619:Drivers/STM32F7xx_HAL_Driver/Src/stm32f7xx_hal_i2c.c ****     {
2620:Drivers/STM32F7xx_HAL_Driver/Src/stm32f7xx_hal_i2c.c ****       xferrequest = I2C_NO_STARTSTOP;
 5238              		.loc 1 2620 0
 5239 009c 0023     		movs	r3, #0
 5240 009e 3B61     		str	r3, [r7, #16]
 5241              	.L268:
2621:Drivers/STM32F7xx_HAL_Driver/Src/stm32f7xx_hal_i2c.c ****     }
2622:Drivers/STM32F7xx_HAL_Driver/Src/stm32f7xx_hal_i2c.c **** 
2623:Drivers/STM32F7xx_HAL_Driver/Src/stm32f7xx_hal_i2c.c ****     /* Send Slave Address and set NBYTES to write */
2624:Drivers/STM32F7xx_HAL_Driver/Src/stm32f7xx_hal_i2c.c ****     I2C_TransferConfig(hi2c, DevAddress, hi2c->XferSize, xfermode, xferrequest);
 5242              		.loc 1 2624 0
 5243 00a0 FB68     		ldr	r3, [r7, #12]
 5244 00a2 1B8D     		ldrh	r3, [r3, #40]
 5245 00a4 DAB2     		uxtb	r2, r3
 5246 00a6 7989     		ldrh	r1, [r7, #10]
 5247 00a8 3B69     		ldr	r3, [r7, #16]
 5248 00aa 0093     		str	r3, [sp]
 5249 00ac 7B69     		ldr	r3, [r7, #20]
 5250 00ae F868     		ldr	r0, [r7, #12]
 5251 00b0 FFF7FEFF 		bl	I2C_TransferConfig
2625:Drivers/STM32F7xx_HAL_Driver/Src/stm32f7xx_hal_i2c.c **** 
2626:Drivers/STM32F7xx_HAL_Driver/Src/stm32f7xx_hal_i2c.c ****     /* Process Unlocked */
2627:Drivers/STM32F7xx_HAL_Driver/Src/stm32f7xx_hal_i2c.c ****     __HAL_UNLOCK(hi2c);
 5252              		.loc 1 2627 0
 5253 00b4 FB68     		ldr	r3, [r7, #12]
 5254 00b6 0022     		movs	r2, #0
 5255 00b8 83F84020 		strb	r2, [r3, #64]
2628:Drivers/STM32F7xx_HAL_Driver/Src/stm32f7xx_hal_i2c.c **** 
2629:Drivers/STM32F7xx_HAL_Driver/Src/stm32f7xx_hal_i2c.c ****     /* Note : The I2C interrupts must be enabled after unlocking current process
2630:Drivers/STM32F7xx_HAL_Driver/Src/stm32f7xx_hal_i2c.c ****               to avoid the risk of I2C interrupt handle execution before current
2631:Drivers/STM32F7xx_HAL_Driver/Src/stm32f7xx_hal_i2c.c ****               process unlock */
2632:Drivers/STM32F7xx_HAL_Driver/Src/stm32f7xx_hal_i2c.c ****     I2C_Enable_IRQ(hi2c, I2C_XFER_TX_IT);
 5256              		.loc 1 2632 0
 5257 00bc 0121     		movs	r1, #1
 5258 00be F868     		ldr	r0, [r7, #12]
 5259 00c0 FFF7FEFF 		bl	I2C_Enable_IRQ
2633:Drivers/STM32F7xx_HAL_Driver/Src/stm32f7xx_hal_i2c.c **** 
2634:Drivers/STM32F7xx_HAL_Driver/Src/stm32f7xx_hal_i2c.c ****     return HAL_OK;
 5260              		.loc 1 2634 0
 5261 00c4 0023     		movs	r3, #0
 5262 00c6 00E0     		b	.L265
 5263              	.L263:
2635:Drivers/STM32F7xx_HAL_Driver/Src/stm32f7xx_hal_i2c.c ****   }
2636:Drivers/STM32F7xx_HAL_Driver/Src/stm32f7xx_hal_i2c.c ****   else
2637:Drivers/STM32F7xx_HAL_Driver/Src/stm32f7xx_hal_i2c.c ****   {
2638:Drivers/STM32F7xx_HAL_Driver/Src/stm32f7xx_hal_i2c.c ****     return HAL_BUSY;
 5264              		.loc 1 2638 0
 5265 00c8 0223     		movs	r3, #2
 5266              	.L265:
2639:Drivers/STM32F7xx_HAL_Driver/Src/stm32f7xx_hal_i2c.c ****   }
2640:Drivers/STM32F7xx_HAL_Driver/Src/stm32f7xx_hal_i2c.c **** }
ARM GAS  /var/folders/n8/cvzdcwlj0vl4g_wtyz1ffy300000gn/T//ccBPNZvy.s 			page 139


 5267              		.loc 1 2640 0
 5268 00ca 1846     		mov	r0, r3
 5269 00cc 1837     		adds	r7, r7, #24
 5270              	.LCFI120:
 5271              		.cfi_def_cfa_offset 8
 5272 00ce BD46     		mov	sp, r7
 5273              	.LCFI121:
 5274              		.cfi_def_cfa_register 13
 5275              		@ sp needed
 5276 00d0 80BD     		pop	{r7, pc}
 5277              	.L270:
 5278 00d2 00BF     		.align	2
 5279              	.L269:
 5280 00d4 00200080 		.word	-2147475456
 5281 00d8 00000000 		.word	I2C_Master_ISR_IT
 5282              		.cfi_endproc
 5283              	.LFE161:
 5285              		.section	.text.HAL_I2C_Master_Sequential_Receive_IT,"ax",%progbits
 5286              		.align	1
 5287              		.global	HAL_I2C_Master_Sequential_Receive_IT
 5288              		.syntax unified
 5289              		.thumb
 5290              		.thumb_func
 5291              		.fpu fpv5-sp-d16
 5293              	HAL_I2C_Master_Sequential_Receive_IT:
 5294              	.LFB162:
2641:Drivers/STM32F7xx_HAL_Driver/Src/stm32f7xx_hal_i2c.c **** 
2642:Drivers/STM32F7xx_HAL_Driver/Src/stm32f7xx_hal_i2c.c **** /**
2643:Drivers/STM32F7xx_HAL_Driver/Src/stm32f7xx_hal_i2c.c ****   * @brief  Sequential receive in master I2C mode an amount of data in non-blocking mode with Inter
2644:Drivers/STM32F7xx_HAL_Driver/Src/stm32f7xx_hal_i2c.c ****   * @note   This interface allow to manage repeated start condition when a direction change during 
2645:Drivers/STM32F7xx_HAL_Driver/Src/stm32f7xx_hal_i2c.c ****   * @param  hi2c Pointer to a I2C_HandleTypeDef structure that contains
2646:Drivers/STM32F7xx_HAL_Driver/Src/stm32f7xx_hal_i2c.c ****   *                the configuration information for the specified I2C.
2647:Drivers/STM32F7xx_HAL_Driver/Src/stm32f7xx_hal_i2c.c ****   * @param  DevAddress Target device address which contain device 7 or 10 bits address value
2648:Drivers/STM32F7xx_HAL_Driver/Src/stm32f7xx_hal_i2c.c ****   *         in datasheet must be shifted to the left before calling the interface
2649:Drivers/STM32F7xx_HAL_Driver/Src/stm32f7xx_hal_i2c.c ****   * @param  pData Pointer to data buffer
2650:Drivers/STM32F7xx_HAL_Driver/Src/stm32f7xx_hal_i2c.c ****   * @param  Size Amount of data to be sent
2651:Drivers/STM32F7xx_HAL_Driver/Src/stm32f7xx_hal_i2c.c ****   * @param  XferOptions Options of Transfer, value of @ref I2C_XFEROPTIONS
2652:Drivers/STM32F7xx_HAL_Driver/Src/stm32f7xx_hal_i2c.c ****   * @retval HAL status
2653:Drivers/STM32F7xx_HAL_Driver/Src/stm32f7xx_hal_i2c.c ****   */
2654:Drivers/STM32F7xx_HAL_Driver/Src/stm32f7xx_hal_i2c.c **** HAL_StatusTypeDef HAL_I2C_Master_Sequential_Receive_IT(I2C_HandleTypeDef *hi2c, uint16_t DevAddress
2655:Drivers/STM32F7xx_HAL_Driver/Src/stm32f7xx_hal_i2c.c **** {
 5295              		.loc 1 2655 0
 5296              		.cfi_startproc
 5297              		@ args = 4, pretend = 0, frame = 24
 5298              		@ frame_needed = 1, uses_anonymous_args = 0
 5299 0000 80B5     		push	{r7, lr}
 5300              	.LCFI122:
 5301              		.cfi_def_cfa_offset 8
 5302              		.cfi_offset 7, -8
 5303              		.cfi_offset 14, -4
 5304 0002 88B0     		sub	sp, sp, #32
 5305              	.LCFI123:
 5306              		.cfi_def_cfa_offset 40
 5307 0004 02AF     		add	r7, sp, #8
 5308              	.LCFI124:
 5309              		.cfi_def_cfa 7, 32
 5310 0006 F860     		str	r0, [r7, #12]
ARM GAS  /var/folders/n8/cvzdcwlj0vl4g_wtyz1ffy300000gn/T//ccBPNZvy.s 			page 140


 5311 0008 7A60     		str	r2, [r7, #4]
 5312 000a 1A46     		mov	r2, r3
 5313 000c 0B46     		mov	r3, r1	@ movhi
 5314 000e 7B81     		strh	r3, [r7, #10]	@ movhi
 5315 0010 1346     		mov	r3, r2	@ movhi
 5316 0012 3B81     		strh	r3, [r7, #8]	@ movhi
2656:Drivers/STM32F7xx_HAL_Driver/Src/stm32f7xx_hal_i2c.c ****   uint32_t xfermode = 0U;
 5317              		.loc 1 2656 0
 5318 0014 0023     		movs	r3, #0
 5319 0016 7B61     		str	r3, [r7, #20]
2657:Drivers/STM32F7xx_HAL_Driver/Src/stm32f7xx_hal_i2c.c ****   uint32_t xferrequest = I2C_GENERATE_START_READ;
 5320              		.loc 1 2657 0
 5321 0018 2E4B     		ldr	r3, .L278
 5322 001a 3B61     		str	r3, [r7, #16]
2658:Drivers/STM32F7xx_HAL_Driver/Src/stm32f7xx_hal_i2c.c **** 
2659:Drivers/STM32F7xx_HAL_Driver/Src/stm32f7xx_hal_i2c.c ****   /* Check the parameters */
2660:Drivers/STM32F7xx_HAL_Driver/Src/stm32f7xx_hal_i2c.c ****   assert_param(IS_I2C_TRANSFER_OPTIONS_REQUEST(XferOptions));
2661:Drivers/STM32F7xx_HAL_Driver/Src/stm32f7xx_hal_i2c.c **** 
2662:Drivers/STM32F7xx_HAL_Driver/Src/stm32f7xx_hal_i2c.c ****   if (hi2c->State == HAL_I2C_STATE_READY)
 5323              		.loc 1 2662 0
 5324 001c FB68     		ldr	r3, [r7, #12]
 5325 001e 93F84130 		ldrb	r3, [r3, #65]
 5326 0022 DBB2     		uxtb	r3, r3
 5327 0024 202B     		cmp	r3, #32
 5328 0026 4FD1     		bne	.L272
2663:Drivers/STM32F7xx_HAL_Driver/Src/stm32f7xx_hal_i2c.c ****   {
2664:Drivers/STM32F7xx_HAL_Driver/Src/stm32f7xx_hal_i2c.c ****     /* Process Locked */
2665:Drivers/STM32F7xx_HAL_Driver/Src/stm32f7xx_hal_i2c.c ****     __HAL_LOCK(hi2c);
 5329              		.loc 1 2665 0
 5330 0028 FB68     		ldr	r3, [r7, #12]
 5331 002a 93F84030 		ldrb	r3, [r3, #64]	@ zero_extendqisi2
 5332 002e 012B     		cmp	r3, #1
 5333 0030 01D1     		bne	.L273
 5334              		.loc 1 2665 0 is_stmt 0 discriminator 1
 5335 0032 0223     		movs	r3, #2
 5336 0034 49E0     		b	.L274
 5337              	.L273:
 5338              		.loc 1 2665 0 discriminator 2
 5339 0036 FB68     		ldr	r3, [r7, #12]
 5340 0038 0122     		movs	r2, #1
 5341 003a 83F84020 		strb	r2, [r3, #64]
2666:Drivers/STM32F7xx_HAL_Driver/Src/stm32f7xx_hal_i2c.c **** 
2667:Drivers/STM32F7xx_HAL_Driver/Src/stm32f7xx_hal_i2c.c ****     hi2c->State     = HAL_I2C_STATE_BUSY_RX;
 5342              		.loc 1 2667 0 is_stmt 1 discriminator 2
 5343 003e FB68     		ldr	r3, [r7, #12]
 5344 0040 2222     		movs	r2, #34
 5345 0042 83F84120 		strb	r2, [r3, #65]
2668:Drivers/STM32F7xx_HAL_Driver/Src/stm32f7xx_hal_i2c.c ****     hi2c->Mode      = HAL_I2C_MODE_MASTER;
 5346              		.loc 1 2668 0 discriminator 2
 5347 0046 FB68     		ldr	r3, [r7, #12]
 5348 0048 1022     		movs	r2, #16
 5349 004a 83F84220 		strb	r2, [r3, #66]
2669:Drivers/STM32F7xx_HAL_Driver/Src/stm32f7xx_hal_i2c.c ****     hi2c->ErrorCode = HAL_I2C_ERROR_NONE;
 5350              		.loc 1 2669 0 discriminator 2
 5351 004e FB68     		ldr	r3, [r7, #12]
 5352 0050 0022     		movs	r2, #0
 5353 0052 5A64     		str	r2, [r3, #68]
ARM GAS  /var/folders/n8/cvzdcwlj0vl4g_wtyz1ffy300000gn/T//ccBPNZvy.s 			page 141


2670:Drivers/STM32F7xx_HAL_Driver/Src/stm32f7xx_hal_i2c.c **** 
2671:Drivers/STM32F7xx_HAL_Driver/Src/stm32f7xx_hal_i2c.c ****     /* Prepare transfer parameters */
2672:Drivers/STM32F7xx_HAL_Driver/Src/stm32f7xx_hal_i2c.c ****     hi2c->pBuffPtr    = pData;
 5354              		.loc 1 2672 0 discriminator 2
 5355 0054 FB68     		ldr	r3, [r7, #12]
 5356 0056 7A68     		ldr	r2, [r7, #4]
 5357 0058 5A62     		str	r2, [r3, #36]
2673:Drivers/STM32F7xx_HAL_Driver/Src/stm32f7xx_hal_i2c.c ****     hi2c->XferCount   = Size;
 5358              		.loc 1 2673 0 discriminator 2
 5359 005a FB68     		ldr	r3, [r7, #12]
 5360 005c 3A89     		ldrh	r2, [r7, #8]	@ movhi
 5361 005e 5A85     		strh	r2, [r3, #42]	@ movhi
2674:Drivers/STM32F7xx_HAL_Driver/Src/stm32f7xx_hal_i2c.c ****     hi2c->XferOptions = XferOptions;
 5362              		.loc 1 2674 0 discriminator 2
 5363 0060 FB68     		ldr	r3, [r7, #12]
 5364 0062 3A6A     		ldr	r2, [r7, #32]
 5365 0064 DA62     		str	r2, [r3, #44]
2675:Drivers/STM32F7xx_HAL_Driver/Src/stm32f7xx_hal_i2c.c ****     hi2c->XferISR     = I2C_Master_ISR_IT;
 5366              		.loc 1 2675 0 discriminator 2
 5367 0066 FB68     		ldr	r3, [r7, #12]
 5368 0068 1B4A     		ldr	r2, .L278+4
 5369 006a 5A63     		str	r2, [r3, #52]
2676:Drivers/STM32F7xx_HAL_Driver/Src/stm32f7xx_hal_i2c.c **** 
2677:Drivers/STM32F7xx_HAL_Driver/Src/stm32f7xx_hal_i2c.c ****     /* If hi2c->XferCount > MAX_NBYTE_SIZE, use reload mode */
2678:Drivers/STM32F7xx_HAL_Driver/Src/stm32f7xx_hal_i2c.c ****     if (hi2c->XferCount > MAX_NBYTE_SIZE)
 5370              		.loc 1 2678 0 discriminator 2
 5371 006c FB68     		ldr	r3, [r7, #12]
 5372 006e 5B8D     		ldrh	r3, [r3, #42]	@ movhi
 5373 0070 9BB2     		uxth	r3, r3
 5374 0072 FF2B     		cmp	r3, #255
 5375 0074 06D9     		bls	.L275
2679:Drivers/STM32F7xx_HAL_Driver/Src/stm32f7xx_hal_i2c.c ****     {
2680:Drivers/STM32F7xx_HAL_Driver/Src/stm32f7xx_hal_i2c.c ****       hi2c->XferSize = MAX_NBYTE_SIZE;
 5376              		.loc 1 2680 0
 5377 0076 FB68     		ldr	r3, [r7, #12]
 5378 0078 FF22     		movs	r2, #255
 5379 007a 1A85     		strh	r2, [r3, #40]	@ movhi
2681:Drivers/STM32F7xx_HAL_Driver/Src/stm32f7xx_hal_i2c.c ****       xfermode = I2C_RELOAD_MODE;
 5380              		.loc 1 2681 0
 5381 007c 4FF08073 		mov	r3, #16777216
 5382 0080 7B61     		str	r3, [r7, #20]
 5383 0082 07E0     		b	.L276
 5384              	.L275:
2682:Drivers/STM32F7xx_HAL_Driver/Src/stm32f7xx_hal_i2c.c ****     }
2683:Drivers/STM32F7xx_HAL_Driver/Src/stm32f7xx_hal_i2c.c ****     else
2684:Drivers/STM32F7xx_HAL_Driver/Src/stm32f7xx_hal_i2c.c ****     {
2685:Drivers/STM32F7xx_HAL_Driver/Src/stm32f7xx_hal_i2c.c ****       hi2c->XferSize = hi2c->XferCount;
 5385              		.loc 1 2685 0
 5386 0084 FB68     		ldr	r3, [r7, #12]
 5387 0086 5B8D     		ldrh	r3, [r3, #42]	@ movhi
 5388 0088 9AB2     		uxth	r2, r3
 5389 008a FB68     		ldr	r3, [r7, #12]
 5390 008c 1A85     		strh	r2, [r3, #40]	@ movhi
2686:Drivers/STM32F7xx_HAL_Driver/Src/stm32f7xx_hal_i2c.c ****       xfermode = hi2c->XferOptions;
 5391              		.loc 1 2686 0
 5392 008e FB68     		ldr	r3, [r7, #12]
 5393 0090 DB6A     		ldr	r3, [r3, #44]
ARM GAS  /var/folders/n8/cvzdcwlj0vl4g_wtyz1ffy300000gn/T//ccBPNZvy.s 			page 142


 5394 0092 7B61     		str	r3, [r7, #20]
 5395              	.L276:
2687:Drivers/STM32F7xx_HAL_Driver/Src/stm32f7xx_hal_i2c.c ****     }
2688:Drivers/STM32F7xx_HAL_Driver/Src/stm32f7xx_hal_i2c.c **** 
2689:Drivers/STM32F7xx_HAL_Driver/Src/stm32f7xx_hal_i2c.c ****     /* If transfer direction not change, do not generate Restart Condition */
2690:Drivers/STM32F7xx_HAL_Driver/Src/stm32f7xx_hal_i2c.c ****     /* Mean Previous state is same as current state */
2691:Drivers/STM32F7xx_HAL_Driver/Src/stm32f7xx_hal_i2c.c ****     if (hi2c->PreviousState == I2C_STATE_MASTER_BUSY_RX)
 5396              		.loc 1 2691 0
 5397 0094 FB68     		ldr	r3, [r7, #12]
 5398 0096 1B6B     		ldr	r3, [r3, #48]
 5399 0098 122B     		cmp	r3, #18
 5400 009a 01D1     		bne	.L277
2692:Drivers/STM32F7xx_HAL_Driver/Src/stm32f7xx_hal_i2c.c ****     {
2693:Drivers/STM32F7xx_HAL_Driver/Src/stm32f7xx_hal_i2c.c ****       xferrequest = I2C_NO_STARTSTOP;
 5401              		.loc 1 2693 0
 5402 009c 0023     		movs	r3, #0
 5403 009e 3B61     		str	r3, [r7, #16]
 5404              	.L277:
2694:Drivers/STM32F7xx_HAL_Driver/Src/stm32f7xx_hal_i2c.c ****     }
2695:Drivers/STM32F7xx_HAL_Driver/Src/stm32f7xx_hal_i2c.c **** 
2696:Drivers/STM32F7xx_HAL_Driver/Src/stm32f7xx_hal_i2c.c ****     /* Send Slave Address and set NBYTES to read */
2697:Drivers/STM32F7xx_HAL_Driver/Src/stm32f7xx_hal_i2c.c ****     I2C_TransferConfig(hi2c, DevAddress, hi2c->XferSize, xfermode, xferrequest);
 5405              		.loc 1 2697 0
 5406 00a0 FB68     		ldr	r3, [r7, #12]
 5407 00a2 1B8D     		ldrh	r3, [r3, #40]
 5408 00a4 DAB2     		uxtb	r2, r3
 5409 00a6 7989     		ldrh	r1, [r7, #10]
 5410 00a8 3B69     		ldr	r3, [r7, #16]
 5411 00aa 0093     		str	r3, [sp]
 5412 00ac 7B69     		ldr	r3, [r7, #20]
 5413 00ae F868     		ldr	r0, [r7, #12]
 5414 00b0 FFF7FEFF 		bl	I2C_TransferConfig
2698:Drivers/STM32F7xx_HAL_Driver/Src/stm32f7xx_hal_i2c.c **** 
2699:Drivers/STM32F7xx_HAL_Driver/Src/stm32f7xx_hal_i2c.c ****     /* Process Unlocked */
2700:Drivers/STM32F7xx_HAL_Driver/Src/stm32f7xx_hal_i2c.c ****     __HAL_UNLOCK(hi2c);
 5415              		.loc 1 2700 0
 5416 00b4 FB68     		ldr	r3, [r7, #12]
 5417 00b6 0022     		movs	r2, #0
 5418 00b8 83F84020 		strb	r2, [r3, #64]
2701:Drivers/STM32F7xx_HAL_Driver/Src/stm32f7xx_hal_i2c.c **** 
2702:Drivers/STM32F7xx_HAL_Driver/Src/stm32f7xx_hal_i2c.c ****     /* Note : The I2C interrupts must be enabled after unlocking current process
2703:Drivers/STM32F7xx_HAL_Driver/Src/stm32f7xx_hal_i2c.c ****               to avoid the risk of I2C interrupt handle execution before current
2704:Drivers/STM32F7xx_HAL_Driver/Src/stm32f7xx_hal_i2c.c ****               process unlock */
2705:Drivers/STM32F7xx_HAL_Driver/Src/stm32f7xx_hal_i2c.c ****     I2C_Enable_IRQ(hi2c, I2C_XFER_RX_IT);
 5419              		.loc 1 2705 0
 5420 00bc 0221     		movs	r1, #2
 5421 00be F868     		ldr	r0, [r7, #12]
 5422 00c0 FFF7FEFF 		bl	I2C_Enable_IRQ
2706:Drivers/STM32F7xx_HAL_Driver/Src/stm32f7xx_hal_i2c.c **** 
2707:Drivers/STM32F7xx_HAL_Driver/Src/stm32f7xx_hal_i2c.c ****     return HAL_OK;
 5423              		.loc 1 2707 0
 5424 00c4 0023     		movs	r3, #0
 5425 00c6 00E0     		b	.L274
 5426              	.L272:
2708:Drivers/STM32F7xx_HAL_Driver/Src/stm32f7xx_hal_i2c.c ****   }
2709:Drivers/STM32F7xx_HAL_Driver/Src/stm32f7xx_hal_i2c.c ****   else
2710:Drivers/STM32F7xx_HAL_Driver/Src/stm32f7xx_hal_i2c.c ****   {
ARM GAS  /var/folders/n8/cvzdcwlj0vl4g_wtyz1ffy300000gn/T//ccBPNZvy.s 			page 143


2711:Drivers/STM32F7xx_HAL_Driver/Src/stm32f7xx_hal_i2c.c ****     return HAL_BUSY;
 5427              		.loc 1 2711 0
 5428 00c8 0223     		movs	r3, #2
 5429              	.L274:
2712:Drivers/STM32F7xx_HAL_Driver/Src/stm32f7xx_hal_i2c.c ****   }
2713:Drivers/STM32F7xx_HAL_Driver/Src/stm32f7xx_hal_i2c.c **** }
 5430              		.loc 1 2713 0
 5431 00ca 1846     		mov	r0, r3
 5432 00cc 1837     		adds	r7, r7, #24
 5433              	.LCFI125:
 5434              		.cfi_def_cfa_offset 8
 5435 00ce BD46     		mov	sp, r7
 5436              	.LCFI126:
 5437              		.cfi_def_cfa_register 13
 5438              		@ sp needed
 5439 00d0 80BD     		pop	{r7, pc}
 5440              	.L279:
 5441 00d2 00BF     		.align	2
 5442              	.L278:
 5443 00d4 00240080 		.word	-2147474432
 5444 00d8 00000000 		.word	I2C_Master_ISR_IT
 5445              		.cfi_endproc
 5446              	.LFE162:
 5448              		.section	.text.HAL_I2C_Slave_Sequential_Transmit_IT,"ax",%progbits
 5449              		.align	1
 5450              		.global	HAL_I2C_Slave_Sequential_Transmit_IT
 5451              		.syntax unified
 5452              		.thumb
 5453              		.thumb_func
 5454              		.fpu fpv5-sp-d16
 5456              	HAL_I2C_Slave_Sequential_Transmit_IT:
 5457              	.LFB163:
2714:Drivers/STM32F7xx_HAL_Driver/Src/stm32f7xx_hal_i2c.c **** 
2715:Drivers/STM32F7xx_HAL_Driver/Src/stm32f7xx_hal_i2c.c **** /**
2716:Drivers/STM32F7xx_HAL_Driver/Src/stm32f7xx_hal_i2c.c ****   * @brief  Sequential transmit in slave/device I2C mode an amount of data in non-blocking mode wit
2717:Drivers/STM32F7xx_HAL_Driver/Src/stm32f7xx_hal_i2c.c ****   * @note   This interface allow to manage repeated start condition when a direction change during 
2718:Drivers/STM32F7xx_HAL_Driver/Src/stm32f7xx_hal_i2c.c ****   * @param  hi2c Pointer to a I2C_HandleTypeDef structure that contains
2719:Drivers/STM32F7xx_HAL_Driver/Src/stm32f7xx_hal_i2c.c ****   *                the configuration information for the specified I2C.
2720:Drivers/STM32F7xx_HAL_Driver/Src/stm32f7xx_hal_i2c.c ****   * @param  pData Pointer to data buffer
2721:Drivers/STM32F7xx_HAL_Driver/Src/stm32f7xx_hal_i2c.c ****   * @param  Size Amount of data to be sent
2722:Drivers/STM32F7xx_HAL_Driver/Src/stm32f7xx_hal_i2c.c ****   * @param  XferOptions Options of Transfer, value of @ref I2C_XFEROPTIONS
2723:Drivers/STM32F7xx_HAL_Driver/Src/stm32f7xx_hal_i2c.c ****   * @retval HAL status
2724:Drivers/STM32F7xx_HAL_Driver/Src/stm32f7xx_hal_i2c.c ****   */
2725:Drivers/STM32F7xx_HAL_Driver/Src/stm32f7xx_hal_i2c.c **** HAL_StatusTypeDef HAL_I2C_Slave_Sequential_Transmit_IT(I2C_HandleTypeDef *hi2c, uint8_t *pData, uin
2726:Drivers/STM32F7xx_HAL_Driver/Src/stm32f7xx_hal_i2c.c **** {
 5458              		.loc 1 2726 0
 5459              		.cfi_startproc
 5460              		@ args = 0, pretend = 0, frame = 16
 5461              		@ frame_needed = 1, uses_anonymous_args = 0
 5462 0000 80B5     		push	{r7, lr}
 5463              	.LCFI127:
 5464              		.cfi_def_cfa_offset 8
 5465              		.cfi_offset 7, -8
 5466              		.cfi_offset 14, -4
 5467 0002 84B0     		sub	sp, sp, #16
 5468              	.LCFI128:
 5469              		.cfi_def_cfa_offset 24
ARM GAS  /var/folders/n8/cvzdcwlj0vl4g_wtyz1ffy300000gn/T//ccBPNZvy.s 			page 144


 5470 0004 00AF     		add	r7, sp, #0
 5471              	.LCFI129:
 5472              		.cfi_def_cfa_register 7
 5473 0006 F860     		str	r0, [r7, #12]
 5474 0008 B960     		str	r1, [r7, #8]
 5475 000a 3B60     		str	r3, [r7]
 5476 000c 1346     		mov	r3, r2	@ movhi
 5477 000e FB80     		strh	r3, [r7, #6]	@ movhi
2727:Drivers/STM32F7xx_HAL_Driver/Src/stm32f7xx_hal_i2c.c ****   /* Check the parameters */
2728:Drivers/STM32F7xx_HAL_Driver/Src/stm32f7xx_hal_i2c.c ****   assert_param(IS_I2C_TRANSFER_OPTIONS_REQUEST(XferOptions));
2729:Drivers/STM32F7xx_HAL_Driver/Src/stm32f7xx_hal_i2c.c **** 
2730:Drivers/STM32F7xx_HAL_Driver/Src/stm32f7xx_hal_i2c.c ****   if ((hi2c->State & HAL_I2C_STATE_LISTEN) == HAL_I2C_STATE_LISTEN)
 5478              		.loc 1 2730 0
 5479 0010 FB68     		ldr	r3, [r7, #12]
 5480 0012 93F84130 		ldrb	r3, [r3, #65]
 5481 0016 DBB2     		uxtb	r3, r3
 5482 0018 03F02803 		and	r3, r3, #40
 5483 001c 282B     		cmp	r3, #40
 5484 001e 5AD1     		bne	.L281
2731:Drivers/STM32F7xx_HAL_Driver/Src/stm32f7xx_hal_i2c.c ****   {
2732:Drivers/STM32F7xx_HAL_Driver/Src/stm32f7xx_hal_i2c.c ****     if ((pData == NULL) || (Size == 0U))
 5485              		.loc 1 2732 0
 5486 0020 BB68     		ldr	r3, [r7, #8]
 5487 0022 002B     		cmp	r3, #0
 5488 0024 02D0     		beq	.L282
 5489              		.loc 1 2732 0 is_stmt 0 discriminator 1
 5490 0026 FB88     		ldrh	r3, [r7, #6]
 5491 0028 002B     		cmp	r3, #0
 5492 002a 01D1     		bne	.L283
 5493              	.L282:
2733:Drivers/STM32F7xx_HAL_Driver/Src/stm32f7xx_hal_i2c.c ****     {
2734:Drivers/STM32F7xx_HAL_Driver/Src/stm32f7xx_hal_i2c.c ****       return  HAL_ERROR;
 5494              		.loc 1 2734 0 is_stmt 1
 5495 002c 0123     		movs	r3, #1
 5496 002e 53E0     		b	.L284
 5497              	.L283:
2735:Drivers/STM32F7xx_HAL_Driver/Src/stm32f7xx_hal_i2c.c ****     }
2736:Drivers/STM32F7xx_HAL_Driver/Src/stm32f7xx_hal_i2c.c **** 
2737:Drivers/STM32F7xx_HAL_Driver/Src/stm32f7xx_hal_i2c.c ****     /* Disable Interrupts, to prevent preemption during treatment in case of multicall */
2738:Drivers/STM32F7xx_HAL_Driver/Src/stm32f7xx_hal_i2c.c ****     I2C_Disable_IRQ(hi2c, I2C_XFER_LISTEN_IT | I2C_XFER_TX_IT);
 5498              		.loc 1 2738 0
 5499 0030 0521     		movs	r1, #5
 5500 0032 F868     		ldr	r0, [r7, #12]
 5501 0034 FFF7FEFF 		bl	I2C_Disable_IRQ
2739:Drivers/STM32F7xx_HAL_Driver/Src/stm32f7xx_hal_i2c.c **** 
2740:Drivers/STM32F7xx_HAL_Driver/Src/stm32f7xx_hal_i2c.c ****     /* Process Locked */
2741:Drivers/STM32F7xx_HAL_Driver/Src/stm32f7xx_hal_i2c.c ****     __HAL_LOCK(hi2c);
 5502              		.loc 1 2741 0
 5503 0038 FB68     		ldr	r3, [r7, #12]
 5504 003a 93F84030 		ldrb	r3, [r3, #64]	@ zero_extendqisi2
 5505 003e 012B     		cmp	r3, #1
 5506 0040 01D1     		bne	.L285
 5507              		.loc 1 2741 0 is_stmt 0 discriminator 1
 5508 0042 0223     		movs	r3, #2
 5509 0044 48E0     		b	.L284
 5510              	.L285:
 5511              		.loc 1 2741 0 discriminator 2
ARM GAS  /var/folders/n8/cvzdcwlj0vl4g_wtyz1ffy300000gn/T//ccBPNZvy.s 			page 145


 5512 0046 FB68     		ldr	r3, [r7, #12]
 5513 0048 0122     		movs	r2, #1
 5514 004a 83F84020 		strb	r2, [r3, #64]
2742:Drivers/STM32F7xx_HAL_Driver/Src/stm32f7xx_hal_i2c.c **** 
2743:Drivers/STM32F7xx_HAL_Driver/Src/stm32f7xx_hal_i2c.c ****     /* I2C cannot manage full duplex exchange so disable previous IT enabled if any */
2744:Drivers/STM32F7xx_HAL_Driver/Src/stm32f7xx_hal_i2c.c ****     /* and then toggle the HAL slave RX state to TX state */
2745:Drivers/STM32F7xx_HAL_Driver/Src/stm32f7xx_hal_i2c.c ****     if (hi2c->State == HAL_I2C_STATE_BUSY_RX_LISTEN)
 5515              		.loc 1 2745 0 is_stmt 1 discriminator 2
 5516 004e FB68     		ldr	r3, [r7, #12]
 5517 0050 93F84130 		ldrb	r3, [r3, #65]
 5518 0054 DBB2     		uxtb	r3, r3
 5519 0056 2A2B     		cmp	r3, #42
 5520 0058 03D1     		bne	.L286
2746:Drivers/STM32F7xx_HAL_Driver/Src/stm32f7xx_hal_i2c.c ****     {
2747:Drivers/STM32F7xx_HAL_Driver/Src/stm32f7xx_hal_i2c.c ****       /* Disable associated Interrupts */
2748:Drivers/STM32F7xx_HAL_Driver/Src/stm32f7xx_hal_i2c.c ****       I2C_Disable_IRQ(hi2c, I2C_XFER_RX_IT);
 5521              		.loc 1 2748 0
 5522 005a 0221     		movs	r1, #2
 5523 005c F868     		ldr	r0, [r7, #12]
 5524 005e FFF7FEFF 		bl	I2C_Disable_IRQ
 5525              	.L286:
2749:Drivers/STM32F7xx_HAL_Driver/Src/stm32f7xx_hal_i2c.c ****     }
2750:Drivers/STM32F7xx_HAL_Driver/Src/stm32f7xx_hal_i2c.c **** 
2751:Drivers/STM32F7xx_HAL_Driver/Src/stm32f7xx_hal_i2c.c ****     hi2c->State     = HAL_I2C_STATE_BUSY_TX_LISTEN;
 5526              		.loc 1 2751 0
 5527 0062 FB68     		ldr	r3, [r7, #12]
 5528 0064 2922     		movs	r2, #41
 5529 0066 83F84120 		strb	r2, [r3, #65]
2752:Drivers/STM32F7xx_HAL_Driver/Src/stm32f7xx_hal_i2c.c ****     hi2c->Mode      = HAL_I2C_MODE_SLAVE;
 5530              		.loc 1 2752 0
 5531 006a FB68     		ldr	r3, [r7, #12]
 5532 006c 2022     		movs	r2, #32
 5533 006e 83F84220 		strb	r2, [r3, #66]
2753:Drivers/STM32F7xx_HAL_Driver/Src/stm32f7xx_hal_i2c.c ****     hi2c->ErrorCode = HAL_I2C_ERROR_NONE;
 5534              		.loc 1 2753 0
 5535 0072 FB68     		ldr	r3, [r7, #12]
 5536 0074 0022     		movs	r2, #0
 5537 0076 5A64     		str	r2, [r3, #68]
2754:Drivers/STM32F7xx_HAL_Driver/Src/stm32f7xx_hal_i2c.c **** 
2755:Drivers/STM32F7xx_HAL_Driver/Src/stm32f7xx_hal_i2c.c ****     /* Enable Address Acknowledge */
2756:Drivers/STM32F7xx_HAL_Driver/Src/stm32f7xx_hal_i2c.c ****     hi2c->Instance->CR2 &= ~I2C_CR2_NACK;
 5538              		.loc 1 2756 0
 5539 0078 FB68     		ldr	r3, [r7, #12]
 5540 007a 1B68     		ldr	r3, [r3]
 5541 007c 5A68     		ldr	r2, [r3, #4]
 5542 007e FB68     		ldr	r3, [r7, #12]
 5543 0080 1B68     		ldr	r3, [r3]
 5544 0082 22F40042 		bic	r2, r2, #32768
 5545 0086 5A60     		str	r2, [r3, #4]
2757:Drivers/STM32F7xx_HAL_Driver/Src/stm32f7xx_hal_i2c.c **** 
2758:Drivers/STM32F7xx_HAL_Driver/Src/stm32f7xx_hal_i2c.c ****     /* Prepare transfer parameters */
2759:Drivers/STM32F7xx_HAL_Driver/Src/stm32f7xx_hal_i2c.c ****     hi2c->pBuffPtr    = pData;
 5546              		.loc 1 2759 0
 5547 0088 FB68     		ldr	r3, [r7, #12]
 5548 008a BA68     		ldr	r2, [r7, #8]
 5549 008c 5A62     		str	r2, [r3, #36]
2760:Drivers/STM32F7xx_HAL_Driver/Src/stm32f7xx_hal_i2c.c ****     hi2c->XferCount   = Size;
ARM GAS  /var/folders/n8/cvzdcwlj0vl4g_wtyz1ffy300000gn/T//ccBPNZvy.s 			page 146


 5550              		.loc 1 2760 0
 5551 008e FB68     		ldr	r3, [r7, #12]
 5552 0090 FA88     		ldrh	r2, [r7, #6]	@ movhi
 5553 0092 5A85     		strh	r2, [r3, #42]	@ movhi
2761:Drivers/STM32F7xx_HAL_Driver/Src/stm32f7xx_hal_i2c.c ****     hi2c->XferSize    = hi2c->XferCount;
 5554              		.loc 1 2761 0
 5555 0094 FB68     		ldr	r3, [r7, #12]
 5556 0096 5B8D     		ldrh	r3, [r3, #42]	@ movhi
 5557 0098 9AB2     		uxth	r2, r3
 5558 009a FB68     		ldr	r3, [r7, #12]
 5559 009c 1A85     		strh	r2, [r3, #40]	@ movhi
2762:Drivers/STM32F7xx_HAL_Driver/Src/stm32f7xx_hal_i2c.c ****     hi2c->XferOptions = XferOptions;
 5560              		.loc 1 2762 0
 5561 009e FB68     		ldr	r3, [r7, #12]
 5562 00a0 3A68     		ldr	r2, [r7]
 5563 00a2 DA62     		str	r2, [r3, #44]
2763:Drivers/STM32F7xx_HAL_Driver/Src/stm32f7xx_hal_i2c.c ****     hi2c->XferISR     = I2C_Slave_ISR_IT;
 5564              		.loc 1 2763 0
 5565 00a4 FB68     		ldr	r3, [r7, #12]
 5566 00a6 0E4A     		ldr	r2, .L288
 5567 00a8 5A63     		str	r2, [r3, #52]
2764:Drivers/STM32F7xx_HAL_Driver/Src/stm32f7xx_hal_i2c.c **** 
2765:Drivers/STM32F7xx_HAL_Driver/Src/stm32f7xx_hal_i2c.c ****     if (I2C_GET_DIR(hi2c) == I2C_DIRECTION_RECEIVE)
 5568              		.loc 1 2765 0
 5569 00aa FB68     		ldr	r3, [r7, #12]
 5570 00ac 1B68     		ldr	r3, [r3]
 5571 00ae 9B69     		ldr	r3, [r3, #24]
 5572 00b0 1B0C     		lsrs	r3, r3, #16
 5573 00b2 03F00103 		and	r3, r3, #1
 5574 00b6 012B     		cmp	r3, #1
 5575 00b8 03D1     		bne	.L287
2766:Drivers/STM32F7xx_HAL_Driver/Src/stm32f7xx_hal_i2c.c ****     {
2767:Drivers/STM32F7xx_HAL_Driver/Src/stm32f7xx_hal_i2c.c ****       /* Clear ADDR flag after prepare the transfer parameters */
2768:Drivers/STM32F7xx_HAL_Driver/Src/stm32f7xx_hal_i2c.c ****       /* This action will generate an acknowledge to the Master */
2769:Drivers/STM32F7xx_HAL_Driver/Src/stm32f7xx_hal_i2c.c ****       __HAL_I2C_CLEAR_FLAG(hi2c, I2C_FLAG_ADDR);
 5576              		.loc 1 2769 0
 5577 00ba FB68     		ldr	r3, [r7, #12]
 5578 00bc 1B68     		ldr	r3, [r3]
 5579 00be 0822     		movs	r2, #8
 5580 00c0 DA61     		str	r2, [r3, #28]
 5581              	.L287:
2770:Drivers/STM32F7xx_HAL_Driver/Src/stm32f7xx_hal_i2c.c ****     }
2771:Drivers/STM32F7xx_HAL_Driver/Src/stm32f7xx_hal_i2c.c **** 
2772:Drivers/STM32F7xx_HAL_Driver/Src/stm32f7xx_hal_i2c.c ****     /* Process Unlocked */
2773:Drivers/STM32F7xx_HAL_Driver/Src/stm32f7xx_hal_i2c.c ****     __HAL_UNLOCK(hi2c);
 5582              		.loc 1 2773 0
 5583 00c2 FB68     		ldr	r3, [r7, #12]
 5584 00c4 0022     		movs	r2, #0
 5585 00c6 83F84020 		strb	r2, [r3, #64]
2774:Drivers/STM32F7xx_HAL_Driver/Src/stm32f7xx_hal_i2c.c **** 
2775:Drivers/STM32F7xx_HAL_Driver/Src/stm32f7xx_hal_i2c.c ****     /* Note : The I2C interrupts must be enabled after unlocking current process
2776:Drivers/STM32F7xx_HAL_Driver/Src/stm32f7xx_hal_i2c.c ****     to avoid the risk of I2C interrupt handle execution before current
2777:Drivers/STM32F7xx_HAL_Driver/Src/stm32f7xx_hal_i2c.c ****     process unlock */
2778:Drivers/STM32F7xx_HAL_Driver/Src/stm32f7xx_hal_i2c.c ****     /* REnable ADDR interrupt */
2779:Drivers/STM32F7xx_HAL_Driver/Src/stm32f7xx_hal_i2c.c ****     I2C_Enable_IRQ(hi2c, I2C_XFER_TX_IT | I2C_XFER_LISTEN_IT);
 5586              		.loc 1 2779 0
 5587 00ca 0521     		movs	r1, #5
ARM GAS  /var/folders/n8/cvzdcwlj0vl4g_wtyz1ffy300000gn/T//ccBPNZvy.s 			page 147


 5588 00cc F868     		ldr	r0, [r7, #12]
 5589 00ce FFF7FEFF 		bl	I2C_Enable_IRQ
2780:Drivers/STM32F7xx_HAL_Driver/Src/stm32f7xx_hal_i2c.c **** 
2781:Drivers/STM32F7xx_HAL_Driver/Src/stm32f7xx_hal_i2c.c ****     return HAL_OK;
 5590              		.loc 1 2781 0
 5591 00d2 0023     		movs	r3, #0
 5592 00d4 00E0     		b	.L284
 5593              	.L281:
2782:Drivers/STM32F7xx_HAL_Driver/Src/stm32f7xx_hal_i2c.c ****   }
2783:Drivers/STM32F7xx_HAL_Driver/Src/stm32f7xx_hal_i2c.c ****   else
2784:Drivers/STM32F7xx_HAL_Driver/Src/stm32f7xx_hal_i2c.c ****   {
2785:Drivers/STM32F7xx_HAL_Driver/Src/stm32f7xx_hal_i2c.c ****     return HAL_ERROR;
 5594              		.loc 1 2785 0
 5595 00d6 0123     		movs	r3, #1
 5596              	.L284:
2786:Drivers/STM32F7xx_HAL_Driver/Src/stm32f7xx_hal_i2c.c ****   }
2787:Drivers/STM32F7xx_HAL_Driver/Src/stm32f7xx_hal_i2c.c **** }
 5597              		.loc 1 2787 0
 5598 00d8 1846     		mov	r0, r3
 5599 00da 1037     		adds	r7, r7, #16
 5600              	.LCFI130:
 5601              		.cfi_def_cfa_offset 8
 5602 00dc BD46     		mov	sp, r7
 5603              	.LCFI131:
 5604              		.cfi_def_cfa_register 13
 5605              		@ sp needed
 5606 00de 80BD     		pop	{r7, pc}
 5607              	.L289:
 5608              		.align	2
 5609              	.L288:
 5610 00e0 00000000 		.word	I2C_Slave_ISR_IT
 5611              		.cfi_endproc
 5612              	.LFE163:
 5614              		.section	.text.HAL_I2C_Slave_Sequential_Receive_IT,"ax",%progbits
 5615              		.align	1
 5616              		.global	HAL_I2C_Slave_Sequential_Receive_IT
 5617              		.syntax unified
 5618              		.thumb
 5619              		.thumb_func
 5620              		.fpu fpv5-sp-d16
 5622              	HAL_I2C_Slave_Sequential_Receive_IT:
 5623              	.LFB164:
2788:Drivers/STM32F7xx_HAL_Driver/Src/stm32f7xx_hal_i2c.c **** 
2789:Drivers/STM32F7xx_HAL_Driver/Src/stm32f7xx_hal_i2c.c **** /**
2790:Drivers/STM32F7xx_HAL_Driver/Src/stm32f7xx_hal_i2c.c ****   * @brief  Sequential receive in slave/device I2C mode an amount of data in non-blocking mode with
2791:Drivers/STM32F7xx_HAL_Driver/Src/stm32f7xx_hal_i2c.c ****   * @note   This interface allow to manage repeated start condition when a direction change during 
2792:Drivers/STM32F7xx_HAL_Driver/Src/stm32f7xx_hal_i2c.c ****   * @param  hi2c Pointer to a I2C_HandleTypeDef structure that contains
2793:Drivers/STM32F7xx_HAL_Driver/Src/stm32f7xx_hal_i2c.c ****   *                the configuration information for the specified I2C.
2794:Drivers/STM32F7xx_HAL_Driver/Src/stm32f7xx_hal_i2c.c ****   * @param  pData Pointer to data buffer
2795:Drivers/STM32F7xx_HAL_Driver/Src/stm32f7xx_hal_i2c.c ****   * @param  Size Amount of data to be sent
2796:Drivers/STM32F7xx_HAL_Driver/Src/stm32f7xx_hal_i2c.c ****   * @param  XferOptions Options of Transfer, value of @ref I2C_XFEROPTIONS
2797:Drivers/STM32F7xx_HAL_Driver/Src/stm32f7xx_hal_i2c.c ****   * @retval HAL status
2798:Drivers/STM32F7xx_HAL_Driver/Src/stm32f7xx_hal_i2c.c ****   */
2799:Drivers/STM32F7xx_HAL_Driver/Src/stm32f7xx_hal_i2c.c **** HAL_StatusTypeDef HAL_I2C_Slave_Sequential_Receive_IT(I2C_HandleTypeDef *hi2c, uint8_t *pData, uint
2800:Drivers/STM32F7xx_HAL_Driver/Src/stm32f7xx_hal_i2c.c **** {
 5624              		.loc 1 2800 0
 5625              		.cfi_startproc
ARM GAS  /var/folders/n8/cvzdcwlj0vl4g_wtyz1ffy300000gn/T//ccBPNZvy.s 			page 148


 5626              		@ args = 0, pretend = 0, frame = 16
 5627              		@ frame_needed = 1, uses_anonymous_args = 0
 5628 0000 80B5     		push	{r7, lr}
 5629              	.LCFI132:
 5630              		.cfi_def_cfa_offset 8
 5631              		.cfi_offset 7, -8
 5632              		.cfi_offset 14, -4
 5633 0002 84B0     		sub	sp, sp, #16
 5634              	.LCFI133:
 5635              		.cfi_def_cfa_offset 24
 5636 0004 00AF     		add	r7, sp, #0
 5637              	.LCFI134:
 5638              		.cfi_def_cfa_register 7
 5639 0006 F860     		str	r0, [r7, #12]
 5640 0008 B960     		str	r1, [r7, #8]
 5641 000a 3B60     		str	r3, [r7]
 5642 000c 1346     		mov	r3, r2	@ movhi
 5643 000e FB80     		strh	r3, [r7, #6]	@ movhi
2801:Drivers/STM32F7xx_HAL_Driver/Src/stm32f7xx_hal_i2c.c ****   /* Check the parameters */
2802:Drivers/STM32F7xx_HAL_Driver/Src/stm32f7xx_hal_i2c.c ****   assert_param(IS_I2C_TRANSFER_OPTIONS_REQUEST(XferOptions));
2803:Drivers/STM32F7xx_HAL_Driver/Src/stm32f7xx_hal_i2c.c **** 
2804:Drivers/STM32F7xx_HAL_Driver/Src/stm32f7xx_hal_i2c.c ****   if ((hi2c->State & HAL_I2C_STATE_LISTEN) == HAL_I2C_STATE_LISTEN)
 5644              		.loc 1 2804 0
 5645 0010 FB68     		ldr	r3, [r7, #12]
 5646 0012 93F84130 		ldrb	r3, [r3, #65]
 5647 0016 DBB2     		uxtb	r3, r3
 5648 0018 03F02803 		and	r3, r3, #40
 5649 001c 282B     		cmp	r3, #40
 5650 001e 59D1     		bne	.L291
2805:Drivers/STM32F7xx_HAL_Driver/Src/stm32f7xx_hal_i2c.c ****   {
2806:Drivers/STM32F7xx_HAL_Driver/Src/stm32f7xx_hal_i2c.c ****     if ((pData == NULL) || (Size == 0U))
 5651              		.loc 1 2806 0
 5652 0020 BB68     		ldr	r3, [r7, #8]
 5653 0022 002B     		cmp	r3, #0
 5654 0024 02D0     		beq	.L292
 5655              		.loc 1 2806 0 is_stmt 0 discriminator 1
 5656 0026 FB88     		ldrh	r3, [r7, #6]
 5657 0028 002B     		cmp	r3, #0
 5658 002a 01D1     		bne	.L293
 5659              	.L292:
2807:Drivers/STM32F7xx_HAL_Driver/Src/stm32f7xx_hal_i2c.c ****     {
2808:Drivers/STM32F7xx_HAL_Driver/Src/stm32f7xx_hal_i2c.c ****       return  HAL_ERROR;
 5660              		.loc 1 2808 0 is_stmt 1
 5661 002c 0123     		movs	r3, #1
 5662 002e 52E0     		b	.L294
 5663              	.L293:
2809:Drivers/STM32F7xx_HAL_Driver/Src/stm32f7xx_hal_i2c.c ****     }
2810:Drivers/STM32F7xx_HAL_Driver/Src/stm32f7xx_hal_i2c.c **** 
2811:Drivers/STM32F7xx_HAL_Driver/Src/stm32f7xx_hal_i2c.c ****     /* Disable Interrupts, to prevent preemption during treatment in case of multicall */
2812:Drivers/STM32F7xx_HAL_Driver/Src/stm32f7xx_hal_i2c.c ****     I2C_Disable_IRQ(hi2c, I2C_XFER_LISTEN_IT | I2C_XFER_RX_IT);
 5664              		.loc 1 2812 0
 5665 0030 0621     		movs	r1, #6
 5666 0032 F868     		ldr	r0, [r7, #12]
 5667 0034 FFF7FEFF 		bl	I2C_Disable_IRQ
2813:Drivers/STM32F7xx_HAL_Driver/Src/stm32f7xx_hal_i2c.c **** 
2814:Drivers/STM32F7xx_HAL_Driver/Src/stm32f7xx_hal_i2c.c ****     /* Process Locked */
2815:Drivers/STM32F7xx_HAL_Driver/Src/stm32f7xx_hal_i2c.c ****     __HAL_LOCK(hi2c);
ARM GAS  /var/folders/n8/cvzdcwlj0vl4g_wtyz1ffy300000gn/T//ccBPNZvy.s 			page 149


 5668              		.loc 1 2815 0
 5669 0038 FB68     		ldr	r3, [r7, #12]
 5670 003a 93F84030 		ldrb	r3, [r3, #64]	@ zero_extendqisi2
 5671 003e 012B     		cmp	r3, #1
 5672 0040 01D1     		bne	.L295
 5673              		.loc 1 2815 0 is_stmt 0 discriminator 1
 5674 0042 0223     		movs	r3, #2
 5675 0044 47E0     		b	.L294
 5676              	.L295:
 5677              		.loc 1 2815 0 discriminator 2
 5678 0046 FB68     		ldr	r3, [r7, #12]
 5679 0048 0122     		movs	r2, #1
 5680 004a 83F84020 		strb	r2, [r3, #64]
2816:Drivers/STM32F7xx_HAL_Driver/Src/stm32f7xx_hal_i2c.c **** 
2817:Drivers/STM32F7xx_HAL_Driver/Src/stm32f7xx_hal_i2c.c ****     /* I2C cannot manage full duplex exchange so disable previous IT enabled if any */
2818:Drivers/STM32F7xx_HAL_Driver/Src/stm32f7xx_hal_i2c.c ****     /* and then toggle the HAL slave TX state to RX state */
2819:Drivers/STM32F7xx_HAL_Driver/Src/stm32f7xx_hal_i2c.c ****     if (hi2c->State == HAL_I2C_STATE_BUSY_TX_LISTEN)
 5681              		.loc 1 2819 0 is_stmt 1 discriminator 2
 5682 004e FB68     		ldr	r3, [r7, #12]
 5683 0050 93F84130 		ldrb	r3, [r3, #65]
 5684 0054 DBB2     		uxtb	r3, r3
 5685 0056 292B     		cmp	r3, #41
 5686 0058 03D1     		bne	.L296
2820:Drivers/STM32F7xx_HAL_Driver/Src/stm32f7xx_hal_i2c.c ****     {
2821:Drivers/STM32F7xx_HAL_Driver/Src/stm32f7xx_hal_i2c.c ****       /* Disable associated Interrupts */
2822:Drivers/STM32F7xx_HAL_Driver/Src/stm32f7xx_hal_i2c.c ****       I2C_Disable_IRQ(hi2c, I2C_XFER_TX_IT);
 5687              		.loc 1 2822 0
 5688 005a 0121     		movs	r1, #1
 5689 005c F868     		ldr	r0, [r7, #12]
 5690 005e FFF7FEFF 		bl	I2C_Disable_IRQ
 5691              	.L296:
2823:Drivers/STM32F7xx_HAL_Driver/Src/stm32f7xx_hal_i2c.c ****     }
2824:Drivers/STM32F7xx_HAL_Driver/Src/stm32f7xx_hal_i2c.c **** 
2825:Drivers/STM32F7xx_HAL_Driver/Src/stm32f7xx_hal_i2c.c ****     hi2c->State     = HAL_I2C_STATE_BUSY_RX_LISTEN;
 5692              		.loc 1 2825 0
 5693 0062 FB68     		ldr	r3, [r7, #12]
 5694 0064 2A22     		movs	r2, #42
 5695 0066 83F84120 		strb	r2, [r3, #65]
2826:Drivers/STM32F7xx_HAL_Driver/Src/stm32f7xx_hal_i2c.c ****     hi2c->Mode      = HAL_I2C_MODE_SLAVE;
 5696              		.loc 1 2826 0
 5697 006a FB68     		ldr	r3, [r7, #12]
 5698 006c 2022     		movs	r2, #32
 5699 006e 83F84220 		strb	r2, [r3, #66]
2827:Drivers/STM32F7xx_HAL_Driver/Src/stm32f7xx_hal_i2c.c ****     hi2c->ErrorCode = HAL_I2C_ERROR_NONE;
 5700              		.loc 1 2827 0
 5701 0072 FB68     		ldr	r3, [r7, #12]
 5702 0074 0022     		movs	r2, #0
 5703 0076 5A64     		str	r2, [r3, #68]
2828:Drivers/STM32F7xx_HAL_Driver/Src/stm32f7xx_hal_i2c.c **** 
2829:Drivers/STM32F7xx_HAL_Driver/Src/stm32f7xx_hal_i2c.c ****     /* Enable Address Acknowledge */
2830:Drivers/STM32F7xx_HAL_Driver/Src/stm32f7xx_hal_i2c.c ****     hi2c->Instance->CR2 &= ~I2C_CR2_NACK;
 5704              		.loc 1 2830 0
 5705 0078 FB68     		ldr	r3, [r7, #12]
 5706 007a 1B68     		ldr	r3, [r3]
 5707 007c 5A68     		ldr	r2, [r3, #4]
 5708 007e FB68     		ldr	r3, [r7, #12]
 5709 0080 1B68     		ldr	r3, [r3]
ARM GAS  /var/folders/n8/cvzdcwlj0vl4g_wtyz1ffy300000gn/T//ccBPNZvy.s 			page 150


 5710 0082 22F40042 		bic	r2, r2, #32768
 5711 0086 5A60     		str	r2, [r3, #4]
2831:Drivers/STM32F7xx_HAL_Driver/Src/stm32f7xx_hal_i2c.c **** 
2832:Drivers/STM32F7xx_HAL_Driver/Src/stm32f7xx_hal_i2c.c ****     /* Prepare transfer parameters */
2833:Drivers/STM32F7xx_HAL_Driver/Src/stm32f7xx_hal_i2c.c ****     hi2c->pBuffPtr    = pData;
 5712              		.loc 1 2833 0
 5713 0088 FB68     		ldr	r3, [r7, #12]
 5714 008a BA68     		ldr	r2, [r7, #8]
 5715 008c 5A62     		str	r2, [r3, #36]
2834:Drivers/STM32F7xx_HAL_Driver/Src/stm32f7xx_hal_i2c.c ****     hi2c->XferCount   = Size;
 5716              		.loc 1 2834 0
 5717 008e FB68     		ldr	r3, [r7, #12]
 5718 0090 FA88     		ldrh	r2, [r7, #6]	@ movhi
 5719 0092 5A85     		strh	r2, [r3, #42]	@ movhi
2835:Drivers/STM32F7xx_HAL_Driver/Src/stm32f7xx_hal_i2c.c ****     hi2c->XferSize    = hi2c->XferCount;
 5720              		.loc 1 2835 0
 5721 0094 FB68     		ldr	r3, [r7, #12]
 5722 0096 5B8D     		ldrh	r3, [r3, #42]	@ movhi
 5723 0098 9AB2     		uxth	r2, r3
 5724 009a FB68     		ldr	r3, [r7, #12]
 5725 009c 1A85     		strh	r2, [r3, #40]	@ movhi
2836:Drivers/STM32F7xx_HAL_Driver/Src/stm32f7xx_hal_i2c.c ****     hi2c->XferOptions = XferOptions;
 5726              		.loc 1 2836 0
 5727 009e FB68     		ldr	r3, [r7, #12]
 5728 00a0 3A68     		ldr	r2, [r7]
 5729 00a2 DA62     		str	r2, [r3, #44]
2837:Drivers/STM32F7xx_HAL_Driver/Src/stm32f7xx_hal_i2c.c ****     hi2c->XferISR     = I2C_Slave_ISR_IT;
 5730              		.loc 1 2837 0
 5731 00a4 FB68     		ldr	r3, [r7, #12]
 5732 00a6 0E4A     		ldr	r2, .L298
 5733 00a8 5A63     		str	r2, [r3, #52]
2838:Drivers/STM32F7xx_HAL_Driver/Src/stm32f7xx_hal_i2c.c **** 
2839:Drivers/STM32F7xx_HAL_Driver/Src/stm32f7xx_hal_i2c.c ****     if (I2C_GET_DIR(hi2c) == I2C_DIRECTION_TRANSMIT)
 5734              		.loc 1 2839 0
 5735 00aa FB68     		ldr	r3, [r7, #12]
 5736 00ac 1B68     		ldr	r3, [r3]
 5737 00ae 9B69     		ldr	r3, [r3, #24]
 5738 00b0 03F48033 		and	r3, r3, #65536
 5739 00b4 002B     		cmp	r3, #0
 5740 00b6 03D1     		bne	.L297
2840:Drivers/STM32F7xx_HAL_Driver/Src/stm32f7xx_hal_i2c.c ****     {
2841:Drivers/STM32F7xx_HAL_Driver/Src/stm32f7xx_hal_i2c.c ****       /* Clear ADDR flag after prepare the transfer parameters */
2842:Drivers/STM32F7xx_HAL_Driver/Src/stm32f7xx_hal_i2c.c ****       /* This action will generate an acknowledge to the Master */
2843:Drivers/STM32F7xx_HAL_Driver/Src/stm32f7xx_hal_i2c.c ****       __HAL_I2C_CLEAR_FLAG(hi2c, I2C_FLAG_ADDR);
 5741              		.loc 1 2843 0
 5742 00b8 FB68     		ldr	r3, [r7, #12]
 5743 00ba 1B68     		ldr	r3, [r3]
 5744 00bc 0822     		movs	r2, #8
 5745 00be DA61     		str	r2, [r3, #28]
 5746              	.L297:
2844:Drivers/STM32F7xx_HAL_Driver/Src/stm32f7xx_hal_i2c.c ****     }
2845:Drivers/STM32F7xx_HAL_Driver/Src/stm32f7xx_hal_i2c.c **** 
2846:Drivers/STM32F7xx_HAL_Driver/Src/stm32f7xx_hal_i2c.c ****     /* Process Unlocked */
2847:Drivers/STM32F7xx_HAL_Driver/Src/stm32f7xx_hal_i2c.c ****     __HAL_UNLOCK(hi2c);
 5747              		.loc 1 2847 0
 5748 00c0 FB68     		ldr	r3, [r7, #12]
 5749 00c2 0022     		movs	r2, #0
ARM GAS  /var/folders/n8/cvzdcwlj0vl4g_wtyz1ffy300000gn/T//ccBPNZvy.s 			page 151


 5750 00c4 83F84020 		strb	r2, [r3, #64]
2848:Drivers/STM32F7xx_HAL_Driver/Src/stm32f7xx_hal_i2c.c **** 
2849:Drivers/STM32F7xx_HAL_Driver/Src/stm32f7xx_hal_i2c.c ****     /* Note : The I2C interrupts must be enabled after unlocking current process
2850:Drivers/STM32F7xx_HAL_Driver/Src/stm32f7xx_hal_i2c.c ****     to avoid the risk of I2C interrupt handle execution before current
2851:Drivers/STM32F7xx_HAL_Driver/Src/stm32f7xx_hal_i2c.c ****     process unlock */
2852:Drivers/STM32F7xx_HAL_Driver/Src/stm32f7xx_hal_i2c.c ****     /* REnable ADDR interrupt */
2853:Drivers/STM32F7xx_HAL_Driver/Src/stm32f7xx_hal_i2c.c ****     I2C_Enable_IRQ(hi2c, I2C_XFER_RX_IT | I2C_XFER_LISTEN_IT);
 5751              		.loc 1 2853 0
 5752 00c8 0621     		movs	r1, #6
 5753 00ca F868     		ldr	r0, [r7, #12]
 5754 00cc FFF7FEFF 		bl	I2C_Enable_IRQ
2854:Drivers/STM32F7xx_HAL_Driver/Src/stm32f7xx_hal_i2c.c **** 
2855:Drivers/STM32F7xx_HAL_Driver/Src/stm32f7xx_hal_i2c.c ****     return HAL_OK;
 5755              		.loc 1 2855 0
 5756 00d0 0023     		movs	r3, #0
 5757 00d2 00E0     		b	.L294
 5758              	.L291:
2856:Drivers/STM32F7xx_HAL_Driver/Src/stm32f7xx_hal_i2c.c ****   }
2857:Drivers/STM32F7xx_HAL_Driver/Src/stm32f7xx_hal_i2c.c ****   else
2858:Drivers/STM32F7xx_HAL_Driver/Src/stm32f7xx_hal_i2c.c ****   {
2859:Drivers/STM32F7xx_HAL_Driver/Src/stm32f7xx_hal_i2c.c ****     return HAL_ERROR;
 5759              		.loc 1 2859 0
 5760 00d4 0123     		movs	r3, #1
 5761              	.L294:
2860:Drivers/STM32F7xx_HAL_Driver/Src/stm32f7xx_hal_i2c.c ****   }
2861:Drivers/STM32F7xx_HAL_Driver/Src/stm32f7xx_hal_i2c.c **** }
 5762              		.loc 1 2861 0
 5763 00d6 1846     		mov	r0, r3
 5764 00d8 1037     		adds	r7, r7, #16
 5765              	.LCFI135:
 5766              		.cfi_def_cfa_offset 8
 5767 00da BD46     		mov	sp, r7
 5768              	.LCFI136:
 5769              		.cfi_def_cfa_register 13
 5770              		@ sp needed
 5771 00dc 80BD     		pop	{r7, pc}
 5772              	.L299:
 5773 00de 00BF     		.align	2
 5774              	.L298:
 5775 00e0 00000000 		.word	I2C_Slave_ISR_IT
 5776              		.cfi_endproc
 5777              	.LFE164:
 5779              		.section	.text.HAL_I2C_EnableListen_IT,"ax",%progbits
 5780              		.align	1
 5781              		.global	HAL_I2C_EnableListen_IT
 5782              		.syntax unified
 5783              		.thumb
 5784              		.thumb_func
 5785              		.fpu fpv5-sp-d16
 5787              	HAL_I2C_EnableListen_IT:
 5788              	.LFB165:
2862:Drivers/STM32F7xx_HAL_Driver/Src/stm32f7xx_hal_i2c.c **** 
2863:Drivers/STM32F7xx_HAL_Driver/Src/stm32f7xx_hal_i2c.c **** /**
2864:Drivers/STM32F7xx_HAL_Driver/Src/stm32f7xx_hal_i2c.c ****   * @brief  Enable the Address listen mode with Interrupt.
2865:Drivers/STM32F7xx_HAL_Driver/Src/stm32f7xx_hal_i2c.c ****   * @param  hi2c Pointer to a I2C_HandleTypeDef structure that contains
2866:Drivers/STM32F7xx_HAL_Driver/Src/stm32f7xx_hal_i2c.c ****   *                the configuration information for the specified I2C.
2867:Drivers/STM32F7xx_HAL_Driver/Src/stm32f7xx_hal_i2c.c ****   * @retval HAL status
ARM GAS  /var/folders/n8/cvzdcwlj0vl4g_wtyz1ffy300000gn/T//ccBPNZvy.s 			page 152


2868:Drivers/STM32F7xx_HAL_Driver/Src/stm32f7xx_hal_i2c.c ****   */
2869:Drivers/STM32F7xx_HAL_Driver/Src/stm32f7xx_hal_i2c.c **** HAL_StatusTypeDef HAL_I2C_EnableListen_IT(I2C_HandleTypeDef *hi2c)
2870:Drivers/STM32F7xx_HAL_Driver/Src/stm32f7xx_hal_i2c.c **** {
 5789              		.loc 1 2870 0
 5790              		.cfi_startproc
 5791              		@ args = 0, pretend = 0, frame = 8
 5792              		@ frame_needed = 1, uses_anonymous_args = 0
 5793 0000 80B5     		push	{r7, lr}
 5794              	.LCFI137:
 5795              		.cfi_def_cfa_offset 8
 5796              		.cfi_offset 7, -8
 5797              		.cfi_offset 14, -4
 5798 0002 82B0     		sub	sp, sp, #8
 5799              	.LCFI138:
 5800              		.cfi_def_cfa_offset 16
 5801 0004 00AF     		add	r7, sp, #0
 5802              	.LCFI139:
 5803              		.cfi_def_cfa_register 7
 5804 0006 7860     		str	r0, [r7, #4]
2871:Drivers/STM32F7xx_HAL_Driver/Src/stm32f7xx_hal_i2c.c ****   if (hi2c->State == HAL_I2C_STATE_READY)
 5805              		.loc 1 2871 0
 5806 0008 7B68     		ldr	r3, [r7, #4]
 5807 000a 93F84130 		ldrb	r3, [r3, #65]
 5808 000e DBB2     		uxtb	r3, r3
 5809 0010 202B     		cmp	r3, #32
 5810 0012 0CD1     		bne	.L301
2872:Drivers/STM32F7xx_HAL_Driver/Src/stm32f7xx_hal_i2c.c ****   {
2873:Drivers/STM32F7xx_HAL_Driver/Src/stm32f7xx_hal_i2c.c ****     hi2c->State = HAL_I2C_STATE_LISTEN;
 5811              		.loc 1 2873 0
 5812 0014 7B68     		ldr	r3, [r7, #4]
 5813 0016 2822     		movs	r2, #40
 5814 0018 83F84120 		strb	r2, [r3, #65]
2874:Drivers/STM32F7xx_HAL_Driver/Src/stm32f7xx_hal_i2c.c ****     hi2c->XferISR = I2C_Slave_ISR_IT;
 5815              		.loc 1 2874 0
 5816 001c 7B68     		ldr	r3, [r7, #4]
 5817 001e 064A     		ldr	r2, .L303
 5818 0020 5A63     		str	r2, [r3, #52]
2875:Drivers/STM32F7xx_HAL_Driver/Src/stm32f7xx_hal_i2c.c **** 
2876:Drivers/STM32F7xx_HAL_Driver/Src/stm32f7xx_hal_i2c.c ****     /* Enable the Address Match interrupt */
2877:Drivers/STM32F7xx_HAL_Driver/Src/stm32f7xx_hal_i2c.c ****     I2C_Enable_IRQ(hi2c, I2C_XFER_LISTEN_IT);
 5819              		.loc 1 2877 0
 5820 0022 0421     		movs	r1, #4
 5821 0024 7868     		ldr	r0, [r7, #4]
 5822 0026 FFF7FEFF 		bl	I2C_Enable_IRQ
2878:Drivers/STM32F7xx_HAL_Driver/Src/stm32f7xx_hal_i2c.c **** 
2879:Drivers/STM32F7xx_HAL_Driver/Src/stm32f7xx_hal_i2c.c ****     return HAL_OK;
 5823              		.loc 1 2879 0
 5824 002a 0023     		movs	r3, #0
 5825 002c 00E0     		b	.L302
 5826              	.L301:
2880:Drivers/STM32F7xx_HAL_Driver/Src/stm32f7xx_hal_i2c.c ****   }
2881:Drivers/STM32F7xx_HAL_Driver/Src/stm32f7xx_hal_i2c.c ****   else
2882:Drivers/STM32F7xx_HAL_Driver/Src/stm32f7xx_hal_i2c.c ****   {
2883:Drivers/STM32F7xx_HAL_Driver/Src/stm32f7xx_hal_i2c.c ****     return HAL_BUSY;
 5827              		.loc 1 2883 0
 5828 002e 0223     		movs	r3, #2
 5829              	.L302:
ARM GAS  /var/folders/n8/cvzdcwlj0vl4g_wtyz1ffy300000gn/T//ccBPNZvy.s 			page 153


2884:Drivers/STM32F7xx_HAL_Driver/Src/stm32f7xx_hal_i2c.c ****   }
2885:Drivers/STM32F7xx_HAL_Driver/Src/stm32f7xx_hal_i2c.c **** }
 5830              		.loc 1 2885 0
 5831 0030 1846     		mov	r0, r3
 5832 0032 0837     		adds	r7, r7, #8
 5833              	.LCFI140:
 5834              		.cfi_def_cfa_offset 8
 5835 0034 BD46     		mov	sp, r7
 5836              	.LCFI141:
 5837              		.cfi_def_cfa_register 13
 5838              		@ sp needed
 5839 0036 80BD     		pop	{r7, pc}
 5840              	.L304:
 5841              		.align	2
 5842              	.L303:
 5843 0038 00000000 		.word	I2C_Slave_ISR_IT
 5844              		.cfi_endproc
 5845              	.LFE165:
 5847              		.section	.text.HAL_I2C_DisableListen_IT,"ax",%progbits
 5848              		.align	1
 5849              		.global	HAL_I2C_DisableListen_IT
 5850              		.syntax unified
 5851              		.thumb
 5852              		.thumb_func
 5853              		.fpu fpv5-sp-d16
 5855              	HAL_I2C_DisableListen_IT:
 5856              	.LFB166:
2886:Drivers/STM32F7xx_HAL_Driver/Src/stm32f7xx_hal_i2c.c **** 
2887:Drivers/STM32F7xx_HAL_Driver/Src/stm32f7xx_hal_i2c.c **** /**
2888:Drivers/STM32F7xx_HAL_Driver/Src/stm32f7xx_hal_i2c.c ****   * @brief  Disable the Address listen mode with Interrupt.
2889:Drivers/STM32F7xx_HAL_Driver/Src/stm32f7xx_hal_i2c.c ****   * @param  hi2c Pointer to a I2C_HandleTypeDef structure that contains
2890:Drivers/STM32F7xx_HAL_Driver/Src/stm32f7xx_hal_i2c.c ****   *                the configuration information for the specified I2C
2891:Drivers/STM32F7xx_HAL_Driver/Src/stm32f7xx_hal_i2c.c ****   * @retval HAL status
2892:Drivers/STM32F7xx_HAL_Driver/Src/stm32f7xx_hal_i2c.c ****   */
2893:Drivers/STM32F7xx_HAL_Driver/Src/stm32f7xx_hal_i2c.c **** HAL_StatusTypeDef HAL_I2C_DisableListen_IT(I2C_HandleTypeDef *hi2c)
2894:Drivers/STM32F7xx_HAL_Driver/Src/stm32f7xx_hal_i2c.c **** {
 5857              		.loc 1 2894 0
 5858              		.cfi_startproc
 5859              		@ args = 0, pretend = 0, frame = 16
 5860              		@ frame_needed = 1, uses_anonymous_args = 0
 5861 0000 80B5     		push	{r7, lr}
 5862              	.LCFI142:
 5863              		.cfi_def_cfa_offset 8
 5864              		.cfi_offset 7, -8
 5865              		.cfi_offset 14, -4
 5866 0002 84B0     		sub	sp, sp, #16
 5867              	.LCFI143:
 5868              		.cfi_def_cfa_offset 24
 5869 0004 00AF     		add	r7, sp, #0
 5870              	.LCFI144:
 5871              		.cfi_def_cfa_register 7
 5872 0006 7860     		str	r0, [r7, #4]
2895:Drivers/STM32F7xx_HAL_Driver/Src/stm32f7xx_hal_i2c.c ****   /* Declaration of tmp to prevent undefined behavior of volatile usage */
2896:Drivers/STM32F7xx_HAL_Driver/Src/stm32f7xx_hal_i2c.c ****   uint32_t tmp;
2897:Drivers/STM32F7xx_HAL_Driver/Src/stm32f7xx_hal_i2c.c **** 
2898:Drivers/STM32F7xx_HAL_Driver/Src/stm32f7xx_hal_i2c.c ****   /* Disable Address listen mode only if a transfer is not ongoing */
2899:Drivers/STM32F7xx_HAL_Driver/Src/stm32f7xx_hal_i2c.c ****   if (hi2c->State == HAL_I2C_STATE_LISTEN)
ARM GAS  /var/folders/n8/cvzdcwlj0vl4g_wtyz1ffy300000gn/T//ccBPNZvy.s 			page 154


 5873              		.loc 1 2899 0
 5874 0008 7B68     		ldr	r3, [r7, #4]
 5875 000a 93F84130 		ldrb	r3, [r3, #65]
 5876 000e DBB2     		uxtb	r3, r3
 5877 0010 282B     		cmp	r3, #40
 5878 0012 20D1     		bne	.L306
2900:Drivers/STM32F7xx_HAL_Driver/Src/stm32f7xx_hal_i2c.c ****   {
2901:Drivers/STM32F7xx_HAL_Driver/Src/stm32f7xx_hal_i2c.c ****     tmp = (uint32_t)(hi2c->State) & I2C_STATE_MSK;
 5879              		.loc 1 2901 0
 5880 0014 7B68     		ldr	r3, [r7, #4]
 5881 0016 93F84130 		ldrb	r3, [r3, #65]
 5882 001a DBB2     		uxtb	r3, r3
 5883 001c 03F00303 		and	r3, r3, #3
 5884 0020 FB60     		str	r3, [r7, #12]
2902:Drivers/STM32F7xx_HAL_Driver/Src/stm32f7xx_hal_i2c.c ****     hi2c->PreviousState = tmp | (uint32_t)(hi2c->Mode);
 5885              		.loc 1 2902 0
 5886 0022 7B68     		ldr	r3, [r7, #4]
 5887 0024 93F84230 		ldrb	r3, [r3, #66]
 5888 0028 DBB2     		uxtb	r3, r3
 5889 002a 1A46     		mov	r2, r3
 5890 002c FB68     		ldr	r3, [r7, #12]
 5891 002e 1A43     		orrs	r2, r2, r3
 5892 0030 7B68     		ldr	r3, [r7, #4]
 5893 0032 1A63     		str	r2, [r3, #48]
2903:Drivers/STM32F7xx_HAL_Driver/Src/stm32f7xx_hal_i2c.c ****     hi2c->State = HAL_I2C_STATE_READY;
 5894              		.loc 1 2903 0
 5895 0034 7B68     		ldr	r3, [r7, #4]
 5896 0036 2022     		movs	r2, #32
 5897 0038 83F84120 		strb	r2, [r3, #65]
2904:Drivers/STM32F7xx_HAL_Driver/Src/stm32f7xx_hal_i2c.c ****     hi2c->Mode = HAL_I2C_MODE_NONE;
 5898              		.loc 1 2904 0
 5899 003c 7B68     		ldr	r3, [r7, #4]
 5900 003e 0022     		movs	r2, #0
 5901 0040 83F84220 		strb	r2, [r3, #66]
2905:Drivers/STM32F7xx_HAL_Driver/Src/stm32f7xx_hal_i2c.c ****     hi2c->XferISR = NULL;
 5902              		.loc 1 2905 0
 5903 0044 7B68     		ldr	r3, [r7, #4]
 5904 0046 0022     		movs	r2, #0
 5905 0048 5A63     		str	r2, [r3, #52]
2906:Drivers/STM32F7xx_HAL_Driver/Src/stm32f7xx_hal_i2c.c **** 
2907:Drivers/STM32F7xx_HAL_Driver/Src/stm32f7xx_hal_i2c.c ****     /* Disable the Address Match interrupt */
2908:Drivers/STM32F7xx_HAL_Driver/Src/stm32f7xx_hal_i2c.c ****     I2C_Disable_IRQ(hi2c, I2C_XFER_LISTEN_IT);
 5906              		.loc 1 2908 0
 5907 004a 0421     		movs	r1, #4
 5908 004c 7868     		ldr	r0, [r7, #4]
 5909 004e FFF7FEFF 		bl	I2C_Disable_IRQ
2909:Drivers/STM32F7xx_HAL_Driver/Src/stm32f7xx_hal_i2c.c **** 
2910:Drivers/STM32F7xx_HAL_Driver/Src/stm32f7xx_hal_i2c.c ****     return HAL_OK;
 5910              		.loc 1 2910 0
 5911 0052 0023     		movs	r3, #0
 5912 0054 00E0     		b	.L307
 5913              	.L306:
2911:Drivers/STM32F7xx_HAL_Driver/Src/stm32f7xx_hal_i2c.c ****   }
2912:Drivers/STM32F7xx_HAL_Driver/Src/stm32f7xx_hal_i2c.c ****   else
2913:Drivers/STM32F7xx_HAL_Driver/Src/stm32f7xx_hal_i2c.c ****   {
2914:Drivers/STM32F7xx_HAL_Driver/Src/stm32f7xx_hal_i2c.c ****     return HAL_BUSY;
 5914              		.loc 1 2914 0
ARM GAS  /var/folders/n8/cvzdcwlj0vl4g_wtyz1ffy300000gn/T//ccBPNZvy.s 			page 155


 5915 0056 0223     		movs	r3, #2
 5916              	.L307:
2915:Drivers/STM32F7xx_HAL_Driver/Src/stm32f7xx_hal_i2c.c ****   }
2916:Drivers/STM32F7xx_HAL_Driver/Src/stm32f7xx_hal_i2c.c **** }
 5917              		.loc 1 2916 0
 5918 0058 1846     		mov	r0, r3
 5919 005a 1037     		adds	r7, r7, #16
 5920              	.LCFI145:
 5921              		.cfi_def_cfa_offset 8
 5922 005c BD46     		mov	sp, r7
 5923              	.LCFI146:
 5924              		.cfi_def_cfa_register 13
 5925              		@ sp needed
 5926 005e 80BD     		pop	{r7, pc}
 5927              		.cfi_endproc
 5928              	.LFE166:
 5930              		.section	.text.HAL_I2C_Master_Abort_IT,"ax",%progbits
 5931              		.align	1
 5932              		.global	HAL_I2C_Master_Abort_IT
 5933              		.syntax unified
 5934              		.thumb
 5935              		.thumb_func
 5936              		.fpu fpv5-sp-d16
 5938              	HAL_I2C_Master_Abort_IT:
 5939              	.LFB167:
2917:Drivers/STM32F7xx_HAL_Driver/Src/stm32f7xx_hal_i2c.c **** 
2918:Drivers/STM32F7xx_HAL_Driver/Src/stm32f7xx_hal_i2c.c **** /**
2919:Drivers/STM32F7xx_HAL_Driver/Src/stm32f7xx_hal_i2c.c ****   * @brief  Abort a master I2C IT or DMA process communication with Interrupt.
2920:Drivers/STM32F7xx_HAL_Driver/Src/stm32f7xx_hal_i2c.c ****   * @param  hi2c Pointer to a I2C_HandleTypeDef structure that contains
2921:Drivers/STM32F7xx_HAL_Driver/Src/stm32f7xx_hal_i2c.c ****   *                the configuration information for the specified I2C.
2922:Drivers/STM32F7xx_HAL_Driver/Src/stm32f7xx_hal_i2c.c ****   * @param  DevAddress Target device address which contain device 7 or 10 bits address value
2923:Drivers/STM32F7xx_HAL_Driver/Src/stm32f7xx_hal_i2c.c ****   *         in datasheet must be shifted to the left before calling the interface
2924:Drivers/STM32F7xx_HAL_Driver/Src/stm32f7xx_hal_i2c.c ****   * @retval HAL status
2925:Drivers/STM32F7xx_HAL_Driver/Src/stm32f7xx_hal_i2c.c ****   */
2926:Drivers/STM32F7xx_HAL_Driver/Src/stm32f7xx_hal_i2c.c **** HAL_StatusTypeDef HAL_I2C_Master_Abort_IT(I2C_HandleTypeDef *hi2c, uint16_t DevAddress)
2927:Drivers/STM32F7xx_HAL_Driver/Src/stm32f7xx_hal_i2c.c **** {
 5940              		.loc 1 2927 0
 5941              		.cfi_startproc
 5942              		@ args = 0, pretend = 0, frame = 8
 5943              		@ frame_needed = 1, uses_anonymous_args = 0
 5944 0000 80B5     		push	{r7, lr}
 5945              	.LCFI147:
 5946              		.cfi_def_cfa_offset 8
 5947              		.cfi_offset 7, -8
 5948              		.cfi_offset 14, -4
 5949 0002 84B0     		sub	sp, sp, #16
 5950              	.LCFI148:
 5951              		.cfi_def_cfa_offset 24
 5952 0004 02AF     		add	r7, sp, #8
 5953              	.LCFI149:
 5954              		.cfi_def_cfa 7, 16
 5955 0006 7860     		str	r0, [r7, #4]
 5956 0008 0B46     		mov	r3, r1
 5957 000a 7B80     		strh	r3, [r7, #2]	@ movhi
2928:Drivers/STM32F7xx_HAL_Driver/Src/stm32f7xx_hal_i2c.c ****   if (hi2c->Mode == HAL_I2C_MODE_MASTER)
 5958              		.loc 1 2928 0
 5959 000c 7B68     		ldr	r3, [r7, #4]
ARM GAS  /var/folders/n8/cvzdcwlj0vl4g_wtyz1ffy300000gn/T//ccBPNZvy.s 			page 156


 5960 000e 93F84230 		ldrb	r3, [r3, #66]
 5961 0012 DBB2     		uxtb	r3, r3
 5962 0014 102B     		cmp	r3, #16
 5963 0016 29D1     		bne	.L309
2929:Drivers/STM32F7xx_HAL_Driver/Src/stm32f7xx_hal_i2c.c ****   {
2930:Drivers/STM32F7xx_HAL_Driver/Src/stm32f7xx_hal_i2c.c ****     /* Process Locked */
2931:Drivers/STM32F7xx_HAL_Driver/Src/stm32f7xx_hal_i2c.c ****     __HAL_LOCK(hi2c);
 5964              		.loc 1 2931 0
 5965 0018 7B68     		ldr	r3, [r7, #4]
 5966 001a 93F84030 		ldrb	r3, [r3, #64]	@ zero_extendqisi2
 5967 001e 012B     		cmp	r3, #1
 5968 0020 01D1     		bne	.L310
 5969              		.loc 1 2931 0 is_stmt 0 discriminator 1
 5970 0022 0223     		movs	r3, #2
 5971 0024 23E0     		b	.L311
 5972              	.L310:
 5973              		.loc 1 2931 0 discriminator 2
 5974 0026 7B68     		ldr	r3, [r7, #4]
 5975 0028 0122     		movs	r2, #1
 5976 002a 83F84020 		strb	r2, [r3, #64]
2932:Drivers/STM32F7xx_HAL_Driver/Src/stm32f7xx_hal_i2c.c **** 
2933:Drivers/STM32F7xx_HAL_Driver/Src/stm32f7xx_hal_i2c.c ****     /* Disable Interrupts */
2934:Drivers/STM32F7xx_HAL_Driver/Src/stm32f7xx_hal_i2c.c ****     I2C_Disable_IRQ(hi2c, I2C_XFER_RX_IT);
 5977              		.loc 1 2934 0 is_stmt 1 discriminator 2
 5978 002e 0221     		movs	r1, #2
 5979 0030 7868     		ldr	r0, [r7, #4]
 5980 0032 FFF7FEFF 		bl	I2C_Disable_IRQ
2935:Drivers/STM32F7xx_HAL_Driver/Src/stm32f7xx_hal_i2c.c ****     I2C_Disable_IRQ(hi2c, I2C_XFER_TX_IT);
 5981              		.loc 1 2935 0 discriminator 2
 5982 0036 0121     		movs	r1, #1
 5983 0038 7868     		ldr	r0, [r7, #4]
 5984 003a FFF7FEFF 		bl	I2C_Disable_IRQ
2936:Drivers/STM32F7xx_HAL_Driver/Src/stm32f7xx_hal_i2c.c **** 
2937:Drivers/STM32F7xx_HAL_Driver/Src/stm32f7xx_hal_i2c.c ****     /* Set State at HAL_I2C_STATE_ABORT */
2938:Drivers/STM32F7xx_HAL_Driver/Src/stm32f7xx_hal_i2c.c ****     hi2c->State = HAL_I2C_STATE_ABORT;
 5985              		.loc 1 2938 0 discriminator 2
 5986 003e 7B68     		ldr	r3, [r7, #4]
 5987 0040 6022     		movs	r2, #96
 5988 0042 83F84120 		strb	r2, [r3, #65]
2939:Drivers/STM32F7xx_HAL_Driver/Src/stm32f7xx_hal_i2c.c **** 
2940:Drivers/STM32F7xx_HAL_Driver/Src/stm32f7xx_hal_i2c.c ****     /* Set NBYTES to 1 to generate a dummy read on I2C peripheral */
2941:Drivers/STM32F7xx_HAL_Driver/Src/stm32f7xx_hal_i2c.c ****     /* Set AUTOEND mode, this will generate a NACK then STOP condition to abort the current transfe
2942:Drivers/STM32F7xx_HAL_Driver/Src/stm32f7xx_hal_i2c.c ****     I2C_TransferConfig(hi2c, DevAddress, 1, I2C_AUTOEND_MODE, I2C_GENERATE_STOP);
 5989              		.loc 1 2942 0 discriminator 2
 5990 0046 7988     		ldrh	r1, [r7, #2]
 5991 0048 0B4B     		ldr	r3, .L312
 5992 004a 0093     		str	r3, [sp]
 5993 004c 4FF00073 		mov	r3, #33554432
 5994 0050 0122     		movs	r2, #1
 5995 0052 7868     		ldr	r0, [r7, #4]
 5996 0054 FFF7FEFF 		bl	I2C_TransferConfig
2943:Drivers/STM32F7xx_HAL_Driver/Src/stm32f7xx_hal_i2c.c **** 
2944:Drivers/STM32F7xx_HAL_Driver/Src/stm32f7xx_hal_i2c.c ****     /* Process Unlocked */
2945:Drivers/STM32F7xx_HAL_Driver/Src/stm32f7xx_hal_i2c.c ****     __HAL_UNLOCK(hi2c);
 5997              		.loc 1 2945 0 discriminator 2
 5998 0058 7B68     		ldr	r3, [r7, #4]
 5999 005a 0022     		movs	r2, #0
ARM GAS  /var/folders/n8/cvzdcwlj0vl4g_wtyz1ffy300000gn/T//ccBPNZvy.s 			page 157


 6000 005c 83F84020 		strb	r2, [r3, #64]
2946:Drivers/STM32F7xx_HAL_Driver/Src/stm32f7xx_hal_i2c.c **** 
2947:Drivers/STM32F7xx_HAL_Driver/Src/stm32f7xx_hal_i2c.c ****     /* Note : The I2C interrupts must be enabled after unlocking current process
2948:Drivers/STM32F7xx_HAL_Driver/Src/stm32f7xx_hal_i2c.c ****               to avoid the risk of I2C interrupt handle execution before current
2949:Drivers/STM32F7xx_HAL_Driver/Src/stm32f7xx_hal_i2c.c ****               process unlock */
2950:Drivers/STM32F7xx_HAL_Driver/Src/stm32f7xx_hal_i2c.c ****     I2C_Enable_IRQ(hi2c, I2C_XFER_CPLT_IT);
 6001              		.loc 1 2950 0 discriminator 2
 6002 0060 1221     		movs	r1, #18
 6003 0062 7868     		ldr	r0, [r7, #4]
 6004 0064 FFF7FEFF 		bl	I2C_Enable_IRQ
2951:Drivers/STM32F7xx_HAL_Driver/Src/stm32f7xx_hal_i2c.c **** 
2952:Drivers/STM32F7xx_HAL_Driver/Src/stm32f7xx_hal_i2c.c ****     return HAL_OK;
 6005              		.loc 1 2952 0 discriminator 2
 6006 0068 0023     		movs	r3, #0
 6007 006a 00E0     		b	.L311
 6008              	.L309:
2953:Drivers/STM32F7xx_HAL_Driver/Src/stm32f7xx_hal_i2c.c ****   }
2954:Drivers/STM32F7xx_HAL_Driver/Src/stm32f7xx_hal_i2c.c ****   else
2955:Drivers/STM32F7xx_HAL_Driver/Src/stm32f7xx_hal_i2c.c ****   {
2956:Drivers/STM32F7xx_HAL_Driver/Src/stm32f7xx_hal_i2c.c ****     /* Wrong usage of abort function */
2957:Drivers/STM32F7xx_HAL_Driver/Src/stm32f7xx_hal_i2c.c ****     /* This function should be used only in case of abort monitored by master device */
2958:Drivers/STM32F7xx_HAL_Driver/Src/stm32f7xx_hal_i2c.c ****     return HAL_ERROR;
 6009              		.loc 1 2958 0
 6010 006c 0123     		movs	r3, #1
 6011              	.L311:
2959:Drivers/STM32F7xx_HAL_Driver/Src/stm32f7xx_hal_i2c.c ****   }
2960:Drivers/STM32F7xx_HAL_Driver/Src/stm32f7xx_hal_i2c.c **** }
 6012              		.loc 1 2960 0
 6013 006e 1846     		mov	r0, r3
 6014 0070 0837     		adds	r7, r7, #8
 6015              	.LCFI150:
 6016              		.cfi_def_cfa_offset 8
 6017 0072 BD46     		mov	sp, r7
 6018              	.LCFI151:
 6019              		.cfi_def_cfa_register 13
 6020              		@ sp needed
 6021 0074 80BD     		pop	{r7, pc}
 6022              	.L313:
 6023 0076 00BF     		.align	2
 6024              	.L312:
 6025 0078 00400080 		.word	-2147467264
 6026              		.cfi_endproc
 6027              	.LFE167:
 6029              		.section	.text.HAL_I2C_EV_IRQHandler,"ax",%progbits
 6030              		.align	1
 6031              		.global	HAL_I2C_EV_IRQHandler
 6032              		.syntax unified
 6033              		.thumb
 6034              		.thumb_func
 6035              		.fpu fpv5-sp-d16
 6037              	HAL_I2C_EV_IRQHandler:
 6038              	.LFB168:
2961:Drivers/STM32F7xx_HAL_Driver/Src/stm32f7xx_hal_i2c.c **** 
2962:Drivers/STM32F7xx_HAL_Driver/Src/stm32f7xx_hal_i2c.c **** /**
2963:Drivers/STM32F7xx_HAL_Driver/Src/stm32f7xx_hal_i2c.c ****   * @}
2964:Drivers/STM32F7xx_HAL_Driver/Src/stm32f7xx_hal_i2c.c ****   */
2965:Drivers/STM32F7xx_HAL_Driver/Src/stm32f7xx_hal_i2c.c **** 
ARM GAS  /var/folders/n8/cvzdcwlj0vl4g_wtyz1ffy300000gn/T//ccBPNZvy.s 			page 158


2966:Drivers/STM32F7xx_HAL_Driver/Src/stm32f7xx_hal_i2c.c **** /** @defgroup I2C_IRQ_Handler_and_Callbacks IRQ Handler and Callbacks
2967:Drivers/STM32F7xx_HAL_Driver/Src/stm32f7xx_hal_i2c.c ****  * @{
2968:Drivers/STM32F7xx_HAL_Driver/Src/stm32f7xx_hal_i2c.c ****  */
2969:Drivers/STM32F7xx_HAL_Driver/Src/stm32f7xx_hal_i2c.c **** 
2970:Drivers/STM32F7xx_HAL_Driver/Src/stm32f7xx_hal_i2c.c **** /**
2971:Drivers/STM32F7xx_HAL_Driver/Src/stm32f7xx_hal_i2c.c ****   * @brief  This function handles I2C event interrupt request.
2972:Drivers/STM32F7xx_HAL_Driver/Src/stm32f7xx_hal_i2c.c ****   * @param  hi2c Pointer to a I2C_HandleTypeDef structure that contains
2973:Drivers/STM32F7xx_HAL_Driver/Src/stm32f7xx_hal_i2c.c ****   *                the configuration information for the specified I2C.
2974:Drivers/STM32F7xx_HAL_Driver/Src/stm32f7xx_hal_i2c.c ****   * @retval None
2975:Drivers/STM32F7xx_HAL_Driver/Src/stm32f7xx_hal_i2c.c ****   */
2976:Drivers/STM32F7xx_HAL_Driver/Src/stm32f7xx_hal_i2c.c **** void HAL_I2C_EV_IRQHandler(I2C_HandleTypeDef *hi2c)
2977:Drivers/STM32F7xx_HAL_Driver/Src/stm32f7xx_hal_i2c.c **** {
 6039              		.loc 1 2977 0
 6040              		.cfi_startproc
 6041              		@ args = 0, pretend = 0, frame = 16
 6042              		@ frame_needed = 1, uses_anonymous_args = 0
 6043 0000 80B5     		push	{r7, lr}
 6044              	.LCFI152:
 6045              		.cfi_def_cfa_offset 8
 6046              		.cfi_offset 7, -8
 6047              		.cfi_offset 14, -4
 6048 0002 84B0     		sub	sp, sp, #16
 6049              	.LCFI153:
 6050              		.cfi_def_cfa_offset 24
 6051 0004 00AF     		add	r7, sp, #0
 6052              	.LCFI154:
 6053              		.cfi_def_cfa_register 7
 6054 0006 7860     		str	r0, [r7, #4]
2978:Drivers/STM32F7xx_HAL_Driver/Src/stm32f7xx_hal_i2c.c ****   /* Get current IT Flags and IT sources value */
2979:Drivers/STM32F7xx_HAL_Driver/Src/stm32f7xx_hal_i2c.c ****   uint32_t itflags   = READ_REG(hi2c->Instance->ISR);
 6055              		.loc 1 2979 0
 6056 0008 7B68     		ldr	r3, [r7, #4]
 6057 000a 1B68     		ldr	r3, [r3]
 6058 000c 9B69     		ldr	r3, [r3, #24]
 6059 000e FB60     		str	r3, [r7, #12]
2980:Drivers/STM32F7xx_HAL_Driver/Src/stm32f7xx_hal_i2c.c ****   uint32_t itsources = READ_REG(hi2c->Instance->CR1);
 6060              		.loc 1 2980 0
 6061 0010 7B68     		ldr	r3, [r7, #4]
 6062 0012 1B68     		ldr	r3, [r3]
 6063 0014 1B68     		ldr	r3, [r3]
 6064 0016 BB60     		str	r3, [r7, #8]
2981:Drivers/STM32F7xx_HAL_Driver/Src/stm32f7xx_hal_i2c.c **** 
2982:Drivers/STM32F7xx_HAL_Driver/Src/stm32f7xx_hal_i2c.c ****   /* I2C events treatment -------------------------------------*/
2983:Drivers/STM32F7xx_HAL_Driver/Src/stm32f7xx_hal_i2c.c ****   if (hi2c->XferISR != NULL)
 6065              		.loc 1 2983 0
 6066 0018 7B68     		ldr	r3, [r7, #4]
 6067 001a 5B6B     		ldr	r3, [r3, #52]
 6068 001c 002B     		cmp	r3, #0
 6069 001e 05D0     		beq	.L316
2984:Drivers/STM32F7xx_HAL_Driver/Src/stm32f7xx_hal_i2c.c ****   {
2985:Drivers/STM32F7xx_HAL_Driver/Src/stm32f7xx_hal_i2c.c ****     hi2c->XferISR(hi2c, itflags, itsources);
 6070              		.loc 1 2985 0
 6071 0020 7B68     		ldr	r3, [r7, #4]
 6072 0022 5B6B     		ldr	r3, [r3, #52]
 6073 0024 BA68     		ldr	r2, [r7, #8]
 6074 0026 F968     		ldr	r1, [r7, #12]
 6075 0028 7868     		ldr	r0, [r7, #4]
ARM GAS  /var/folders/n8/cvzdcwlj0vl4g_wtyz1ffy300000gn/T//ccBPNZvy.s 			page 159


 6076 002a 9847     		blx	r3
 6077              	.LVL0:
 6078              	.L316:
2986:Drivers/STM32F7xx_HAL_Driver/Src/stm32f7xx_hal_i2c.c ****   }
2987:Drivers/STM32F7xx_HAL_Driver/Src/stm32f7xx_hal_i2c.c **** }
 6079              		.loc 1 2987 0
 6080 002c 00BF     		nop
 6081 002e 1037     		adds	r7, r7, #16
 6082              	.LCFI155:
 6083              		.cfi_def_cfa_offset 8
 6084 0030 BD46     		mov	sp, r7
 6085              	.LCFI156:
 6086              		.cfi_def_cfa_register 13
 6087              		@ sp needed
 6088 0032 80BD     		pop	{r7, pc}
 6089              		.cfi_endproc
 6090              	.LFE168:
 6092              		.section	.text.HAL_I2C_ER_IRQHandler,"ax",%progbits
 6093              		.align	1
 6094              		.global	HAL_I2C_ER_IRQHandler
 6095              		.syntax unified
 6096              		.thumb
 6097              		.thumb_func
 6098              		.fpu fpv5-sp-d16
 6100              	HAL_I2C_ER_IRQHandler:
 6101              	.LFB169:
2988:Drivers/STM32F7xx_HAL_Driver/Src/stm32f7xx_hal_i2c.c **** 
2989:Drivers/STM32F7xx_HAL_Driver/Src/stm32f7xx_hal_i2c.c **** /**
2990:Drivers/STM32F7xx_HAL_Driver/Src/stm32f7xx_hal_i2c.c ****   * @brief  This function handles I2C error interrupt request.
2991:Drivers/STM32F7xx_HAL_Driver/Src/stm32f7xx_hal_i2c.c ****   * @param  hi2c Pointer to a I2C_HandleTypeDef structure that contains
2992:Drivers/STM32F7xx_HAL_Driver/Src/stm32f7xx_hal_i2c.c ****   *                the configuration information for the specified I2C.
2993:Drivers/STM32F7xx_HAL_Driver/Src/stm32f7xx_hal_i2c.c ****   * @retval None
2994:Drivers/STM32F7xx_HAL_Driver/Src/stm32f7xx_hal_i2c.c ****   */
2995:Drivers/STM32F7xx_HAL_Driver/Src/stm32f7xx_hal_i2c.c **** void HAL_I2C_ER_IRQHandler(I2C_HandleTypeDef *hi2c)
2996:Drivers/STM32F7xx_HAL_Driver/Src/stm32f7xx_hal_i2c.c **** {
 6102              		.loc 1 2996 0
 6103              		.cfi_startproc
 6104              		@ args = 0, pretend = 0, frame = 16
 6105              		@ frame_needed = 1, uses_anonymous_args = 0
 6106 0000 80B5     		push	{r7, lr}
 6107              	.LCFI157:
 6108              		.cfi_def_cfa_offset 8
 6109              		.cfi_offset 7, -8
 6110              		.cfi_offset 14, -4
 6111 0002 84B0     		sub	sp, sp, #16
 6112              	.LCFI158:
 6113              		.cfi_def_cfa_offset 24
 6114 0004 00AF     		add	r7, sp, #0
 6115              	.LCFI159:
 6116              		.cfi_def_cfa_register 7
 6117 0006 7860     		str	r0, [r7, #4]
2997:Drivers/STM32F7xx_HAL_Driver/Src/stm32f7xx_hal_i2c.c ****   uint32_t itflags   = READ_REG(hi2c->Instance->ISR);
 6118              		.loc 1 2997 0
 6119 0008 7B68     		ldr	r3, [r7, #4]
 6120 000a 1B68     		ldr	r3, [r3]
 6121 000c 9B69     		ldr	r3, [r3, #24]
 6122 000e FB60     		str	r3, [r7, #12]
ARM GAS  /var/folders/n8/cvzdcwlj0vl4g_wtyz1ffy300000gn/T//ccBPNZvy.s 			page 160


2998:Drivers/STM32F7xx_HAL_Driver/Src/stm32f7xx_hal_i2c.c ****   uint32_t itsources = READ_REG(hi2c->Instance->CR1);
 6123              		.loc 1 2998 0
 6124 0010 7B68     		ldr	r3, [r7, #4]
 6125 0012 1B68     		ldr	r3, [r3]
 6126 0014 1B68     		ldr	r3, [r3]
 6127 0016 BB60     		str	r3, [r7, #8]
2999:Drivers/STM32F7xx_HAL_Driver/Src/stm32f7xx_hal_i2c.c **** 
3000:Drivers/STM32F7xx_HAL_Driver/Src/stm32f7xx_hal_i2c.c ****   /* I2C Bus error interrupt occurred ------------------------------------*/
3001:Drivers/STM32F7xx_HAL_Driver/Src/stm32f7xx_hal_i2c.c ****   if (((itflags & I2C_FLAG_BERR) != RESET) && ((itsources & I2C_IT_ERRI) != RESET))
 6128              		.loc 1 3001 0
 6129 0018 FB68     		ldr	r3, [r7, #12]
 6130 001a 03F48073 		and	r3, r3, #256
 6131 001e 002B     		cmp	r3, #0
 6132 0020 0FD0     		beq	.L318
 6133              		.loc 1 3001 0 is_stmt 0 discriminator 1
 6134 0022 BB68     		ldr	r3, [r7, #8]
 6135 0024 03F08003 		and	r3, r3, #128
 6136 0028 002B     		cmp	r3, #0
 6137 002a 0AD0     		beq	.L318
3002:Drivers/STM32F7xx_HAL_Driver/Src/stm32f7xx_hal_i2c.c ****   {
3003:Drivers/STM32F7xx_HAL_Driver/Src/stm32f7xx_hal_i2c.c ****     hi2c->ErrorCode |= HAL_I2C_ERROR_BERR;
 6138              		.loc 1 3003 0 is_stmt 1
 6139 002c 7B68     		ldr	r3, [r7, #4]
 6140 002e 5B6C     		ldr	r3, [r3, #68]
 6141 0030 43F00102 		orr	r2, r3, #1
 6142 0034 7B68     		ldr	r3, [r7, #4]
 6143 0036 5A64     		str	r2, [r3, #68]
3004:Drivers/STM32F7xx_HAL_Driver/Src/stm32f7xx_hal_i2c.c **** 
3005:Drivers/STM32F7xx_HAL_Driver/Src/stm32f7xx_hal_i2c.c ****     /* Clear BERR flag */
3006:Drivers/STM32F7xx_HAL_Driver/Src/stm32f7xx_hal_i2c.c ****     __HAL_I2C_CLEAR_FLAG(hi2c, I2C_FLAG_BERR);
 6144              		.loc 1 3006 0
 6145 0038 7B68     		ldr	r3, [r7, #4]
 6146 003a 1B68     		ldr	r3, [r3]
 6147 003c 4FF48072 		mov	r2, #256
 6148 0040 DA61     		str	r2, [r3, #28]
 6149              	.L318:
3007:Drivers/STM32F7xx_HAL_Driver/Src/stm32f7xx_hal_i2c.c ****   }
3008:Drivers/STM32F7xx_HAL_Driver/Src/stm32f7xx_hal_i2c.c **** 
3009:Drivers/STM32F7xx_HAL_Driver/Src/stm32f7xx_hal_i2c.c ****   /* I2C Over-Run/Under-Run interrupt occurred ----------------------------------------*/
3010:Drivers/STM32F7xx_HAL_Driver/Src/stm32f7xx_hal_i2c.c ****   if (((itflags & I2C_FLAG_OVR) != RESET) && ((itsources & I2C_IT_ERRI) != RESET))
 6150              		.loc 1 3010 0
 6151 0042 FB68     		ldr	r3, [r7, #12]
 6152 0044 03F48063 		and	r3, r3, #1024
 6153 0048 002B     		cmp	r3, #0
 6154 004a 0FD0     		beq	.L319
 6155              		.loc 1 3010 0 is_stmt 0 discriminator 1
 6156 004c BB68     		ldr	r3, [r7, #8]
 6157 004e 03F08003 		and	r3, r3, #128
 6158 0052 002B     		cmp	r3, #0
 6159 0054 0AD0     		beq	.L319
3011:Drivers/STM32F7xx_HAL_Driver/Src/stm32f7xx_hal_i2c.c ****   {
3012:Drivers/STM32F7xx_HAL_Driver/Src/stm32f7xx_hal_i2c.c ****     hi2c->ErrorCode |= HAL_I2C_ERROR_OVR;
 6160              		.loc 1 3012 0 is_stmt 1
 6161 0056 7B68     		ldr	r3, [r7, #4]
 6162 0058 5B6C     		ldr	r3, [r3, #68]
 6163 005a 43F00802 		orr	r2, r3, #8
 6164 005e 7B68     		ldr	r3, [r7, #4]
ARM GAS  /var/folders/n8/cvzdcwlj0vl4g_wtyz1ffy300000gn/T//ccBPNZvy.s 			page 161


 6165 0060 5A64     		str	r2, [r3, #68]
3013:Drivers/STM32F7xx_HAL_Driver/Src/stm32f7xx_hal_i2c.c **** 
3014:Drivers/STM32F7xx_HAL_Driver/Src/stm32f7xx_hal_i2c.c ****     /* Clear OVR flag */
3015:Drivers/STM32F7xx_HAL_Driver/Src/stm32f7xx_hal_i2c.c ****     __HAL_I2C_CLEAR_FLAG(hi2c, I2C_FLAG_OVR);
 6166              		.loc 1 3015 0
 6167 0062 7B68     		ldr	r3, [r7, #4]
 6168 0064 1B68     		ldr	r3, [r3]
 6169 0066 4FF48062 		mov	r2, #1024
 6170 006a DA61     		str	r2, [r3, #28]
 6171              	.L319:
3016:Drivers/STM32F7xx_HAL_Driver/Src/stm32f7xx_hal_i2c.c ****   }
3017:Drivers/STM32F7xx_HAL_Driver/Src/stm32f7xx_hal_i2c.c **** 
3018:Drivers/STM32F7xx_HAL_Driver/Src/stm32f7xx_hal_i2c.c ****   /* I2C Arbitration Loss error interrupt occurred -------------------------------------*/
3019:Drivers/STM32F7xx_HAL_Driver/Src/stm32f7xx_hal_i2c.c ****   if (((itflags & I2C_FLAG_ARLO) != RESET) && ((itsources & I2C_IT_ERRI) != RESET))
 6172              		.loc 1 3019 0
 6173 006c FB68     		ldr	r3, [r7, #12]
 6174 006e 03F40073 		and	r3, r3, #512
 6175 0072 002B     		cmp	r3, #0
 6176 0074 0FD0     		beq	.L320
 6177              		.loc 1 3019 0 is_stmt 0 discriminator 1
 6178 0076 BB68     		ldr	r3, [r7, #8]
 6179 0078 03F08003 		and	r3, r3, #128
 6180 007c 002B     		cmp	r3, #0
 6181 007e 0AD0     		beq	.L320
3020:Drivers/STM32F7xx_HAL_Driver/Src/stm32f7xx_hal_i2c.c ****   {
3021:Drivers/STM32F7xx_HAL_Driver/Src/stm32f7xx_hal_i2c.c ****     hi2c->ErrorCode |= HAL_I2C_ERROR_ARLO;
 6182              		.loc 1 3021 0 is_stmt 1
 6183 0080 7B68     		ldr	r3, [r7, #4]
 6184 0082 5B6C     		ldr	r3, [r3, #68]
 6185 0084 43F00202 		orr	r2, r3, #2
 6186 0088 7B68     		ldr	r3, [r7, #4]
 6187 008a 5A64     		str	r2, [r3, #68]
3022:Drivers/STM32F7xx_HAL_Driver/Src/stm32f7xx_hal_i2c.c **** 
3023:Drivers/STM32F7xx_HAL_Driver/Src/stm32f7xx_hal_i2c.c ****     /* Clear ARLO flag */
3024:Drivers/STM32F7xx_HAL_Driver/Src/stm32f7xx_hal_i2c.c ****     __HAL_I2C_CLEAR_FLAG(hi2c, I2C_FLAG_ARLO);
 6188              		.loc 1 3024 0
 6189 008c 7B68     		ldr	r3, [r7, #4]
 6190 008e 1B68     		ldr	r3, [r3]
 6191 0090 4FF40072 		mov	r2, #512
 6192 0094 DA61     		str	r2, [r3, #28]
 6193              	.L320:
3025:Drivers/STM32F7xx_HAL_Driver/Src/stm32f7xx_hal_i2c.c ****   }
3026:Drivers/STM32F7xx_HAL_Driver/Src/stm32f7xx_hal_i2c.c **** 
3027:Drivers/STM32F7xx_HAL_Driver/Src/stm32f7xx_hal_i2c.c ****   /* Call the Error Callback in case of Error detected */
3028:Drivers/STM32F7xx_HAL_Driver/Src/stm32f7xx_hal_i2c.c ****   if ((hi2c->ErrorCode & (HAL_I2C_ERROR_BERR | HAL_I2C_ERROR_OVR | HAL_I2C_ERROR_ARLO)) !=  HAL_I2C
 6194              		.loc 1 3028 0
 6195 0096 7B68     		ldr	r3, [r7, #4]
 6196 0098 5B6C     		ldr	r3, [r3, #68]
 6197 009a 03F00B03 		and	r3, r3, #11
 6198 009e 002B     		cmp	r3, #0
 6199 00a0 05D0     		beq	.L322
3029:Drivers/STM32F7xx_HAL_Driver/Src/stm32f7xx_hal_i2c.c ****   {
3030:Drivers/STM32F7xx_HAL_Driver/Src/stm32f7xx_hal_i2c.c ****     I2C_ITError(hi2c, hi2c->ErrorCode);
 6200              		.loc 1 3030 0
 6201 00a2 7B68     		ldr	r3, [r7, #4]
 6202 00a4 5B6C     		ldr	r3, [r3, #68]
 6203 00a6 1946     		mov	r1, r3
ARM GAS  /var/folders/n8/cvzdcwlj0vl4g_wtyz1ffy300000gn/T//ccBPNZvy.s 			page 162


 6204 00a8 7868     		ldr	r0, [r7, #4]
 6205 00aa FFF7FEFF 		bl	I2C_ITError
 6206              	.L322:
3031:Drivers/STM32F7xx_HAL_Driver/Src/stm32f7xx_hal_i2c.c ****   }
3032:Drivers/STM32F7xx_HAL_Driver/Src/stm32f7xx_hal_i2c.c **** }
 6207              		.loc 1 3032 0
 6208 00ae 00BF     		nop
 6209 00b0 1037     		adds	r7, r7, #16
 6210              	.LCFI160:
 6211              		.cfi_def_cfa_offset 8
 6212 00b2 BD46     		mov	sp, r7
 6213              	.LCFI161:
 6214              		.cfi_def_cfa_register 13
 6215              		@ sp needed
 6216 00b4 80BD     		pop	{r7, pc}
 6217              		.cfi_endproc
 6218              	.LFE169:
 6220              		.section	.text.HAL_I2C_MasterTxCpltCallback,"ax",%progbits
 6221              		.align	1
 6222              		.weak	HAL_I2C_MasterTxCpltCallback
 6223              		.syntax unified
 6224              		.thumb
 6225              		.thumb_func
 6226              		.fpu fpv5-sp-d16
 6228              	HAL_I2C_MasterTxCpltCallback:
 6229              	.LFB170:
3033:Drivers/STM32F7xx_HAL_Driver/Src/stm32f7xx_hal_i2c.c **** 
3034:Drivers/STM32F7xx_HAL_Driver/Src/stm32f7xx_hal_i2c.c **** /**
3035:Drivers/STM32F7xx_HAL_Driver/Src/stm32f7xx_hal_i2c.c ****   * @brief  Master Tx Transfer completed callback.
3036:Drivers/STM32F7xx_HAL_Driver/Src/stm32f7xx_hal_i2c.c ****   * @param  hi2c Pointer to a I2C_HandleTypeDef structure that contains
3037:Drivers/STM32F7xx_HAL_Driver/Src/stm32f7xx_hal_i2c.c ****   *                the configuration information for the specified I2C.
3038:Drivers/STM32F7xx_HAL_Driver/Src/stm32f7xx_hal_i2c.c ****   * @retval None
3039:Drivers/STM32F7xx_HAL_Driver/Src/stm32f7xx_hal_i2c.c ****   */
3040:Drivers/STM32F7xx_HAL_Driver/Src/stm32f7xx_hal_i2c.c **** __weak void HAL_I2C_MasterTxCpltCallback(I2C_HandleTypeDef *hi2c)
3041:Drivers/STM32F7xx_HAL_Driver/Src/stm32f7xx_hal_i2c.c **** {
 6230              		.loc 1 3041 0
 6231              		.cfi_startproc
 6232              		@ args = 0, pretend = 0, frame = 8
 6233              		@ frame_needed = 1, uses_anonymous_args = 0
 6234              		@ link register save eliminated.
 6235 0000 80B4     		push	{r7}
 6236              	.LCFI162:
 6237              		.cfi_def_cfa_offset 4
 6238              		.cfi_offset 7, -4
 6239 0002 83B0     		sub	sp, sp, #12
 6240              	.LCFI163:
 6241              		.cfi_def_cfa_offset 16
 6242 0004 00AF     		add	r7, sp, #0
 6243              	.LCFI164:
 6244              		.cfi_def_cfa_register 7
 6245 0006 7860     		str	r0, [r7, #4]
3042:Drivers/STM32F7xx_HAL_Driver/Src/stm32f7xx_hal_i2c.c ****   /* Prevent unused argument(s) compilation warning */
3043:Drivers/STM32F7xx_HAL_Driver/Src/stm32f7xx_hal_i2c.c ****   UNUSED(hi2c);
3044:Drivers/STM32F7xx_HAL_Driver/Src/stm32f7xx_hal_i2c.c **** 
3045:Drivers/STM32F7xx_HAL_Driver/Src/stm32f7xx_hal_i2c.c ****   /* NOTE : This function should not be modified, when the callback is needed,
3046:Drivers/STM32F7xx_HAL_Driver/Src/stm32f7xx_hal_i2c.c ****             the HAL_I2C_MasterTxCpltCallback could be implemented in the user file
3047:Drivers/STM32F7xx_HAL_Driver/Src/stm32f7xx_hal_i2c.c ****    */
ARM GAS  /var/folders/n8/cvzdcwlj0vl4g_wtyz1ffy300000gn/T//ccBPNZvy.s 			page 163


3048:Drivers/STM32F7xx_HAL_Driver/Src/stm32f7xx_hal_i2c.c **** }
 6246              		.loc 1 3048 0
 6247 0008 00BF     		nop
 6248 000a 0C37     		adds	r7, r7, #12
 6249              	.LCFI165:
 6250              		.cfi_def_cfa_offset 4
 6251 000c BD46     		mov	sp, r7
 6252              	.LCFI166:
 6253              		.cfi_def_cfa_register 13
 6254              		@ sp needed
 6255 000e 5DF8047B 		ldr	r7, [sp], #4
 6256              	.LCFI167:
 6257              		.cfi_restore 7
 6258              		.cfi_def_cfa_offset 0
 6259 0012 7047     		bx	lr
 6260              		.cfi_endproc
 6261              	.LFE170:
 6263              		.section	.text.HAL_I2C_MasterRxCpltCallback,"ax",%progbits
 6264              		.align	1
 6265              		.weak	HAL_I2C_MasterRxCpltCallback
 6266              		.syntax unified
 6267              		.thumb
 6268              		.thumb_func
 6269              		.fpu fpv5-sp-d16
 6271              	HAL_I2C_MasterRxCpltCallback:
 6272              	.LFB171:
3049:Drivers/STM32F7xx_HAL_Driver/Src/stm32f7xx_hal_i2c.c **** 
3050:Drivers/STM32F7xx_HAL_Driver/Src/stm32f7xx_hal_i2c.c **** /**
3051:Drivers/STM32F7xx_HAL_Driver/Src/stm32f7xx_hal_i2c.c ****   * @brief  Master Rx Transfer completed callback.
3052:Drivers/STM32F7xx_HAL_Driver/Src/stm32f7xx_hal_i2c.c ****   * @param  hi2c Pointer to a I2C_HandleTypeDef structure that contains
3053:Drivers/STM32F7xx_HAL_Driver/Src/stm32f7xx_hal_i2c.c ****   *                the configuration information for the specified I2C.
3054:Drivers/STM32F7xx_HAL_Driver/Src/stm32f7xx_hal_i2c.c ****   * @retval None
3055:Drivers/STM32F7xx_HAL_Driver/Src/stm32f7xx_hal_i2c.c ****   */
3056:Drivers/STM32F7xx_HAL_Driver/Src/stm32f7xx_hal_i2c.c **** __weak void HAL_I2C_MasterRxCpltCallback(I2C_HandleTypeDef *hi2c)
3057:Drivers/STM32F7xx_HAL_Driver/Src/stm32f7xx_hal_i2c.c **** {
 6273              		.loc 1 3057 0
 6274              		.cfi_startproc
 6275              		@ args = 0, pretend = 0, frame = 8
 6276              		@ frame_needed = 1, uses_anonymous_args = 0
 6277              		@ link register save eliminated.
 6278 0000 80B4     		push	{r7}
 6279              	.LCFI168:
 6280              		.cfi_def_cfa_offset 4
 6281              		.cfi_offset 7, -4
 6282 0002 83B0     		sub	sp, sp, #12
 6283              	.LCFI169:
 6284              		.cfi_def_cfa_offset 16
 6285 0004 00AF     		add	r7, sp, #0
 6286              	.LCFI170:
 6287              		.cfi_def_cfa_register 7
 6288 0006 7860     		str	r0, [r7, #4]
3058:Drivers/STM32F7xx_HAL_Driver/Src/stm32f7xx_hal_i2c.c ****   /* Prevent unused argument(s) compilation warning */
3059:Drivers/STM32F7xx_HAL_Driver/Src/stm32f7xx_hal_i2c.c ****   UNUSED(hi2c);
3060:Drivers/STM32F7xx_HAL_Driver/Src/stm32f7xx_hal_i2c.c **** 
3061:Drivers/STM32F7xx_HAL_Driver/Src/stm32f7xx_hal_i2c.c ****   /* NOTE : This function should not be modified, when the callback is needed,
3062:Drivers/STM32F7xx_HAL_Driver/Src/stm32f7xx_hal_i2c.c ****             the HAL_I2C_MasterRxCpltCallback could be implemented in the user file
3063:Drivers/STM32F7xx_HAL_Driver/Src/stm32f7xx_hal_i2c.c ****    */
ARM GAS  /var/folders/n8/cvzdcwlj0vl4g_wtyz1ffy300000gn/T//ccBPNZvy.s 			page 164


3064:Drivers/STM32F7xx_HAL_Driver/Src/stm32f7xx_hal_i2c.c **** }
 6289              		.loc 1 3064 0
 6290 0008 00BF     		nop
 6291 000a 0C37     		adds	r7, r7, #12
 6292              	.LCFI171:
 6293              		.cfi_def_cfa_offset 4
 6294 000c BD46     		mov	sp, r7
 6295              	.LCFI172:
 6296              		.cfi_def_cfa_register 13
 6297              		@ sp needed
 6298 000e 5DF8047B 		ldr	r7, [sp], #4
 6299              	.LCFI173:
 6300              		.cfi_restore 7
 6301              		.cfi_def_cfa_offset 0
 6302 0012 7047     		bx	lr
 6303              		.cfi_endproc
 6304              	.LFE171:
 6306              		.section	.text.HAL_I2C_SlaveTxCpltCallback,"ax",%progbits
 6307              		.align	1
 6308              		.weak	HAL_I2C_SlaveTxCpltCallback
 6309              		.syntax unified
 6310              		.thumb
 6311              		.thumb_func
 6312              		.fpu fpv5-sp-d16
 6314              	HAL_I2C_SlaveTxCpltCallback:
 6315              	.LFB172:
3065:Drivers/STM32F7xx_HAL_Driver/Src/stm32f7xx_hal_i2c.c **** 
3066:Drivers/STM32F7xx_HAL_Driver/Src/stm32f7xx_hal_i2c.c **** /** @brief  Slave Tx Transfer completed callback.
3067:Drivers/STM32F7xx_HAL_Driver/Src/stm32f7xx_hal_i2c.c ****   * @param  hi2c Pointer to a I2C_HandleTypeDef structure that contains
3068:Drivers/STM32F7xx_HAL_Driver/Src/stm32f7xx_hal_i2c.c ****   *                the configuration information for the specified I2C.
3069:Drivers/STM32F7xx_HAL_Driver/Src/stm32f7xx_hal_i2c.c ****   * @retval None
3070:Drivers/STM32F7xx_HAL_Driver/Src/stm32f7xx_hal_i2c.c ****   */
3071:Drivers/STM32F7xx_HAL_Driver/Src/stm32f7xx_hal_i2c.c **** __weak void HAL_I2C_SlaveTxCpltCallback(I2C_HandleTypeDef *hi2c)
3072:Drivers/STM32F7xx_HAL_Driver/Src/stm32f7xx_hal_i2c.c **** {
 6316              		.loc 1 3072 0
 6317              		.cfi_startproc
 6318              		@ args = 0, pretend = 0, frame = 8
 6319              		@ frame_needed = 1, uses_anonymous_args = 0
 6320              		@ link register save eliminated.
 6321 0000 80B4     		push	{r7}
 6322              	.LCFI174:
 6323              		.cfi_def_cfa_offset 4
 6324              		.cfi_offset 7, -4
 6325 0002 83B0     		sub	sp, sp, #12
 6326              	.LCFI175:
 6327              		.cfi_def_cfa_offset 16
 6328 0004 00AF     		add	r7, sp, #0
 6329              	.LCFI176:
 6330              		.cfi_def_cfa_register 7
 6331 0006 7860     		str	r0, [r7, #4]
3073:Drivers/STM32F7xx_HAL_Driver/Src/stm32f7xx_hal_i2c.c ****   /* Prevent unused argument(s) compilation warning */
3074:Drivers/STM32F7xx_HAL_Driver/Src/stm32f7xx_hal_i2c.c ****   UNUSED(hi2c);
3075:Drivers/STM32F7xx_HAL_Driver/Src/stm32f7xx_hal_i2c.c **** 
3076:Drivers/STM32F7xx_HAL_Driver/Src/stm32f7xx_hal_i2c.c ****   /* NOTE : This function should not be modified, when the callback is needed,
3077:Drivers/STM32F7xx_HAL_Driver/Src/stm32f7xx_hal_i2c.c ****             the HAL_I2C_SlaveTxCpltCallback could be implemented in the user file
3078:Drivers/STM32F7xx_HAL_Driver/Src/stm32f7xx_hal_i2c.c ****    */
3079:Drivers/STM32F7xx_HAL_Driver/Src/stm32f7xx_hal_i2c.c **** }
ARM GAS  /var/folders/n8/cvzdcwlj0vl4g_wtyz1ffy300000gn/T//ccBPNZvy.s 			page 165


 6332              		.loc 1 3079 0
 6333 0008 00BF     		nop
 6334 000a 0C37     		adds	r7, r7, #12
 6335              	.LCFI177:
 6336              		.cfi_def_cfa_offset 4
 6337 000c BD46     		mov	sp, r7
 6338              	.LCFI178:
 6339              		.cfi_def_cfa_register 13
 6340              		@ sp needed
 6341 000e 5DF8047B 		ldr	r7, [sp], #4
 6342              	.LCFI179:
 6343              		.cfi_restore 7
 6344              		.cfi_def_cfa_offset 0
 6345 0012 7047     		bx	lr
 6346              		.cfi_endproc
 6347              	.LFE172:
 6349              		.section	.text.HAL_I2C_SlaveRxCpltCallback,"ax",%progbits
 6350              		.align	1
 6351              		.weak	HAL_I2C_SlaveRxCpltCallback
 6352              		.syntax unified
 6353              		.thumb
 6354              		.thumb_func
 6355              		.fpu fpv5-sp-d16
 6357              	HAL_I2C_SlaveRxCpltCallback:
 6358              	.LFB173:
3080:Drivers/STM32F7xx_HAL_Driver/Src/stm32f7xx_hal_i2c.c **** 
3081:Drivers/STM32F7xx_HAL_Driver/Src/stm32f7xx_hal_i2c.c **** /**
3082:Drivers/STM32F7xx_HAL_Driver/Src/stm32f7xx_hal_i2c.c ****   * @brief  Slave Rx Transfer completed callback.
3083:Drivers/STM32F7xx_HAL_Driver/Src/stm32f7xx_hal_i2c.c ****   * @param  hi2c Pointer to a I2C_HandleTypeDef structure that contains
3084:Drivers/STM32F7xx_HAL_Driver/Src/stm32f7xx_hal_i2c.c ****   *                the configuration information for the specified I2C.
3085:Drivers/STM32F7xx_HAL_Driver/Src/stm32f7xx_hal_i2c.c ****   * @retval None
3086:Drivers/STM32F7xx_HAL_Driver/Src/stm32f7xx_hal_i2c.c ****   */
3087:Drivers/STM32F7xx_HAL_Driver/Src/stm32f7xx_hal_i2c.c **** __weak void HAL_I2C_SlaveRxCpltCallback(I2C_HandleTypeDef *hi2c)
3088:Drivers/STM32F7xx_HAL_Driver/Src/stm32f7xx_hal_i2c.c **** {
 6359              		.loc 1 3088 0
 6360              		.cfi_startproc
 6361              		@ args = 0, pretend = 0, frame = 8
 6362              		@ frame_needed = 1, uses_anonymous_args = 0
 6363              		@ link register save eliminated.
 6364 0000 80B4     		push	{r7}
 6365              	.LCFI180:
 6366              		.cfi_def_cfa_offset 4
 6367              		.cfi_offset 7, -4
 6368 0002 83B0     		sub	sp, sp, #12
 6369              	.LCFI181:
 6370              		.cfi_def_cfa_offset 16
 6371 0004 00AF     		add	r7, sp, #0
 6372              	.LCFI182:
 6373              		.cfi_def_cfa_register 7
 6374 0006 7860     		str	r0, [r7, #4]
3089:Drivers/STM32F7xx_HAL_Driver/Src/stm32f7xx_hal_i2c.c ****   /* Prevent unused argument(s) compilation warning */
3090:Drivers/STM32F7xx_HAL_Driver/Src/stm32f7xx_hal_i2c.c ****   UNUSED(hi2c);
3091:Drivers/STM32F7xx_HAL_Driver/Src/stm32f7xx_hal_i2c.c **** 
3092:Drivers/STM32F7xx_HAL_Driver/Src/stm32f7xx_hal_i2c.c ****   /* NOTE : This function should not be modified, when the callback is needed,
3093:Drivers/STM32F7xx_HAL_Driver/Src/stm32f7xx_hal_i2c.c ****             the HAL_I2C_SlaveRxCpltCallback could be implemented in the user file
3094:Drivers/STM32F7xx_HAL_Driver/Src/stm32f7xx_hal_i2c.c ****    */
3095:Drivers/STM32F7xx_HAL_Driver/Src/stm32f7xx_hal_i2c.c **** }
ARM GAS  /var/folders/n8/cvzdcwlj0vl4g_wtyz1ffy300000gn/T//ccBPNZvy.s 			page 166


 6375              		.loc 1 3095 0
 6376 0008 00BF     		nop
 6377 000a 0C37     		adds	r7, r7, #12
 6378              	.LCFI183:
 6379              		.cfi_def_cfa_offset 4
 6380 000c BD46     		mov	sp, r7
 6381              	.LCFI184:
 6382              		.cfi_def_cfa_register 13
 6383              		@ sp needed
 6384 000e 5DF8047B 		ldr	r7, [sp], #4
 6385              	.LCFI185:
 6386              		.cfi_restore 7
 6387              		.cfi_def_cfa_offset 0
 6388 0012 7047     		bx	lr
 6389              		.cfi_endproc
 6390              	.LFE173:
 6392              		.section	.text.HAL_I2C_AddrCallback,"ax",%progbits
 6393              		.align	1
 6394              		.weak	HAL_I2C_AddrCallback
 6395              		.syntax unified
 6396              		.thumb
 6397              		.thumb_func
 6398              		.fpu fpv5-sp-d16
 6400              	HAL_I2C_AddrCallback:
 6401              	.LFB174:
3096:Drivers/STM32F7xx_HAL_Driver/Src/stm32f7xx_hal_i2c.c **** 
3097:Drivers/STM32F7xx_HAL_Driver/Src/stm32f7xx_hal_i2c.c **** /**
3098:Drivers/STM32F7xx_HAL_Driver/Src/stm32f7xx_hal_i2c.c ****   * @brief  Slave Address Match callback.
3099:Drivers/STM32F7xx_HAL_Driver/Src/stm32f7xx_hal_i2c.c ****   * @param  hi2c Pointer to a I2C_HandleTypeDef structure that contains
3100:Drivers/STM32F7xx_HAL_Driver/Src/stm32f7xx_hal_i2c.c ****   *                the configuration information for the specified I2C.
3101:Drivers/STM32F7xx_HAL_Driver/Src/stm32f7xx_hal_i2c.c ****   * @param  TransferDirection Master request Transfer Direction (Write/Read), value of @ref I2C_XFE
3102:Drivers/STM32F7xx_HAL_Driver/Src/stm32f7xx_hal_i2c.c ****   * @param  AddrMatchCode Address Match Code
3103:Drivers/STM32F7xx_HAL_Driver/Src/stm32f7xx_hal_i2c.c ****   * @retval None
3104:Drivers/STM32F7xx_HAL_Driver/Src/stm32f7xx_hal_i2c.c ****   */
3105:Drivers/STM32F7xx_HAL_Driver/Src/stm32f7xx_hal_i2c.c **** __weak void HAL_I2C_AddrCallback(I2C_HandleTypeDef *hi2c, uint8_t TransferDirection, uint16_t AddrM
3106:Drivers/STM32F7xx_HAL_Driver/Src/stm32f7xx_hal_i2c.c **** {
 6402              		.loc 1 3106 0
 6403              		.cfi_startproc
 6404              		@ args = 0, pretend = 0, frame = 8
 6405              		@ frame_needed = 1, uses_anonymous_args = 0
 6406              		@ link register save eliminated.
 6407 0000 80B4     		push	{r7}
 6408              	.LCFI186:
 6409              		.cfi_def_cfa_offset 4
 6410              		.cfi_offset 7, -4
 6411 0002 83B0     		sub	sp, sp, #12
 6412              	.LCFI187:
 6413              		.cfi_def_cfa_offset 16
 6414 0004 00AF     		add	r7, sp, #0
 6415              	.LCFI188:
 6416              		.cfi_def_cfa_register 7
 6417 0006 7860     		str	r0, [r7, #4]
 6418 0008 0B46     		mov	r3, r1
 6419 000a FB70     		strb	r3, [r7, #3]
 6420 000c 1346     		mov	r3, r2	@ movhi
 6421 000e 3B80     		strh	r3, [r7]	@ movhi
3107:Drivers/STM32F7xx_HAL_Driver/Src/stm32f7xx_hal_i2c.c ****   /* Prevent unused argument(s) compilation warning */
ARM GAS  /var/folders/n8/cvzdcwlj0vl4g_wtyz1ffy300000gn/T//ccBPNZvy.s 			page 167


3108:Drivers/STM32F7xx_HAL_Driver/Src/stm32f7xx_hal_i2c.c ****   UNUSED(hi2c);
3109:Drivers/STM32F7xx_HAL_Driver/Src/stm32f7xx_hal_i2c.c ****   UNUSED(TransferDirection);
3110:Drivers/STM32F7xx_HAL_Driver/Src/stm32f7xx_hal_i2c.c ****   UNUSED(AddrMatchCode);
3111:Drivers/STM32F7xx_HAL_Driver/Src/stm32f7xx_hal_i2c.c **** 
3112:Drivers/STM32F7xx_HAL_Driver/Src/stm32f7xx_hal_i2c.c ****   /* NOTE : This function should not be modified, when the callback is needed,
3113:Drivers/STM32F7xx_HAL_Driver/Src/stm32f7xx_hal_i2c.c ****             the HAL_I2C_AddrCallback() could be implemented in the user file
3114:Drivers/STM32F7xx_HAL_Driver/Src/stm32f7xx_hal_i2c.c ****    */
3115:Drivers/STM32F7xx_HAL_Driver/Src/stm32f7xx_hal_i2c.c **** }
 6422              		.loc 1 3115 0
 6423 0010 00BF     		nop
 6424 0012 0C37     		adds	r7, r7, #12
 6425              	.LCFI189:
 6426              		.cfi_def_cfa_offset 4
 6427 0014 BD46     		mov	sp, r7
 6428              	.LCFI190:
 6429              		.cfi_def_cfa_register 13
 6430              		@ sp needed
 6431 0016 5DF8047B 		ldr	r7, [sp], #4
 6432              	.LCFI191:
 6433              		.cfi_restore 7
 6434              		.cfi_def_cfa_offset 0
 6435 001a 7047     		bx	lr
 6436              		.cfi_endproc
 6437              	.LFE174:
 6439              		.section	.text.HAL_I2C_ListenCpltCallback,"ax",%progbits
 6440              		.align	1
 6441              		.weak	HAL_I2C_ListenCpltCallback
 6442              		.syntax unified
 6443              		.thumb
 6444              		.thumb_func
 6445              		.fpu fpv5-sp-d16
 6447              	HAL_I2C_ListenCpltCallback:
 6448              	.LFB175:
3116:Drivers/STM32F7xx_HAL_Driver/Src/stm32f7xx_hal_i2c.c **** 
3117:Drivers/STM32F7xx_HAL_Driver/Src/stm32f7xx_hal_i2c.c **** /**
3118:Drivers/STM32F7xx_HAL_Driver/Src/stm32f7xx_hal_i2c.c ****   * @brief  Listen Complete callback.
3119:Drivers/STM32F7xx_HAL_Driver/Src/stm32f7xx_hal_i2c.c ****   * @param  hi2c Pointer to a I2C_HandleTypeDef structure that contains
3120:Drivers/STM32F7xx_HAL_Driver/Src/stm32f7xx_hal_i2c.c ****   *                the configuration information for the specified I2C.
3121:Drivers/STM32F7xx_HAL_Driver/Src/stm32f7xx_hal_i2c.c ****   * @retval None
3122:Drivers/STM32F7xx_HAL_Driver/Src/stm32f7xx_hal_i2c.c ****   */
3123:Drivers/STM32F7xx_HAL_Driver/Src/stm32f7xx_hal_i2c.c **** __weak void HAL_I2C_ListenCpltCallback(I2C_HandleTypeDef *hi2c)
3124:Drivers/STM32F7xx_HAL_Driver/Src/stm32f7xx_hal_i2c.c **** {
 6449              		.loc 1 3124 0
 6450              		.cfi_startproc
 6451              		@ args = 0, pretend = 0, frame = 8
 6452              		@ frame_needed = 1, uses_anonymous_args = 0
 6453              		@ link register save eliminated.
 6454 0000 80B4     		push	{r7}
 6455              	.LCFI192:
 6456              		.cfi_def_cfa_offset 4
 6457              		.cfi_offset 7, -4
 6458 0002 83B0     		sub	sp, sp, #12
 6459              	.LCFI193:
 6460              		.cfi_def_cfa_offset 16
 6461 0004 00AF     		add	r7, sp, #0
 6462              	.LCFI194:
 6463              		.cfi_def_cfa_register 7
ARM GAS  /var/folders/n8/cvzdcwlj0vl4g_wtyz1ffy300000gn/T//ccBPNZvy.s 			page 168


 6464 0006 7860     		str	r0, [r7, #4]
3125:Drivers/STM32F7xx_HAL_Driver/Src/stm32f7xx_hal_i2c.c ****   /* Prevent unused argument(s) compilation warning */
3126:Drivers/STM32F7xx_HAL_Driver/Src/stm32f7xx_hal_i2c.c ****   UNUSED(hi2c);
3127:Drivers/STM32F7xx_HAL_Driver/Src/stm32f7xx_hal_i2c.c **** 
3128:Drivers/STM32F7xx_HAL_Driver/Src/stm32f7xx_hal_i2c.c ****   /* NOTE : This function should not be modified, when the callback is needed,
3129:Drivers/STM32F7xx_HAL_Driver/Src/stm32f7xx_hal_i2c.c ****             the HAL_I2C_ListenCpltCallback() could be implemented in the user file
3130:Drivers/STM32F7xx_HAL_Driver/Src/stm32f7xx_hal_i2c.c ****    */
3131:Drivers/STM32F7xx_HAL_Driver/Src/stm32f7xx_hal_i2c.c **** }
 6465              		.loc 1 3131 0
 6466 0008 00BF     		nop
 6467 000a 0C37     		adds	r7, r7, #12
 6468              	.LCFI195:
 6469              		.cfi_def_cfa_offset 4
 6470 000c BD46     		mov	sp, r7
 6471              	.LCFI196:
 6472              		.cfi_def_cfa_register 13
 6473              		@ sp needed
 6474 000e 5DF8047B 		ldr	r7, [sp], #4
 6475              	.LCFI197:
 6476              		.cfi_restore 7
 6477              		.cfi_def_cfa_offset 0
 6478 0012 7047     		bx	lr
 6479              		.cfi_endproc
 6480              	.LFE175:
 6482              		.section	.text.HAL_I2C_MemTxCpltCallback,"ax",%progbits
 6483              		.align	1
 6484              		.weak	HAL_I2C_MemTxCpltCallback
 6485              		.syntax unified
 6486              		.thumb
 6487              		.thumb_func
 6488              		.fpu fpv5-sp-d16
 6490              	HAL_I2C_MemTxCpltCallback:
 6491              	.LFB176:
3132:Drivers/STM32F7xx_HAL_Driver/Src/stm32f7xx_hal_i2c.c **** 
3133:Drivers/STM32F7xx_HAL_Driver/Src/stm32f7xx_hal_i2c.c **** /**
3134:Drivers/STM32F7xx_HAL_Driver/Src/stm32f7xx_hal_i2c.c ****   * @brief  Memory Tx Transfer completed callback.
3135:Drivers/STM32F7xx_HAL_Driver/Src/stm32f7xx_hal_i2c.c ****   * @param  hi2c Pointer to a I2C_HandleTypeDef structure that contains
3136:Drivers/STM32F7xx_HAL_Driver/Src/stm32f7xx_hal_i2c.c ****   *                the configuration information for the specified I2C.
3137:Drivers/STM32F7xx_HAL_Driver/Src/stm32f7xx_hal_i2c.c ****   * @retval None
3138:Drivers/STM32F7xx_HAL_Driver/Src/stm32f7xx_hal_i2c.c ****   */
3139:Drivers/STM32F7xx_HAL_Driver/Src/stm32f7xx_hal_i2c.c **** __weak void HAL_I2C_MemTxCpltCallback(I2C_HandleTypeDef *hi2c)
3140:Drivers/STM32F7xx_HAL_Driver/Src/stm32f7xx_hal_i2c.c **** {
 6492              		.loc 1 3140 0
 6493              		.cfi_startproc
 6494              		@ args = 0, pretend = 0, frame = 8
 6495              		@ frame_needed = 1, uses_anonymous_args = 0
 6496              		@ link register save eliminated.
 6497 0000 80B4     		push	{r7}
 6498              	.LCFI198:
 6499              		.cfi_def_cfa_offset 4
 6500              		.cfi_offset 7, -4
 6501 0002 83B0     		sub	sp, sp, #12
 6502              	.LCFI199:
 6503              		.cfi_def_cfa_offset 16
 6504 0004 00AF     		add	r7, sp, #0
 6505              	.LCFI200:
 6506              		.cfi_def_cfa_register 7
ARM GAS  /var/folders/n8/cvzdcwlj0vl4g_wtyz1ffy300000gn/T//ccBPNZvy.s 			page 169


 6507 0006 7860     		str	r0, [r7, #4]
3141:Drivers/STM32F7xx_HAL_Driver/Src/stm32f7xx_hal_i2c.c ****   /* Prevent unused argument(s) compilation warning */
3142:Drivers/STM32F7xx_HAL_Driver/Src/stm32f7xx_hal_i2c.c ****   UNUSED(hi2c);
3143:Drivers/STM32F7xx_HAL_Driver/Src/stm32f7xx_hal_i2c.c **** 
3144:Drivers/STM32F7xx_HAL_Driver/Src/stm32f7xx_hal_i2c.c ****   /* NOTE : This function should not be modified, when the callback is needed,
3145:Drivers/STM32F7xx_HAL_Driver/Src/stm32f7xx_hal_i2c.c ****             the HAL_I2C_MemTxCpltCallback could be implemented in the user file
3146:Drivers/STM32F7xx_HAL_Driver/Src/stm32f7xx_hal_i2c.c ****    */
3147:Drivers/STM32F7xx_HAL_Driver/Src/stm32f7xx_hal_i2c.c **** }
 6508              		.loc 1 3147 0
 6509 0008 00BF     		nop
 6510 000a 0C37     		adds	r7, r7, #12
 6511              	.LCFI201:
 6512              		.cfi_def_cfa_offset 4
 6513 000c BD46     		mov	sp, r7
 6514              	.LCFI202:
 6515              		.cfi_def_cfa_register 13
 6516              		@ sp needed
 6517 000e 5DF8047B 		ldr	r7, [sp], #4
 6518              	.LCFI203:
 6519              		.cfi_restore 7
 6520              		.cfi_def_cfa_offset 0
 6521 0012 7047     		bx	lr
 6522              		.cfi_endproc
 6523              	.LFE176:
 6525              		.section	.text.HAL_I2C_MemRxCpltCallback,"ax",%progbits
 6526              		.align	1
 6527              		.weak	HAL_I2C_MemRxCpltCallback
 6528              		.syntax unified
 6529              		.thumb
 6530              		.thumb_func
 6531              		.fpu fpv5-sp-d16
 6533              	HAL_I2C_MemRxCpltCallback:
 6534              	.LFB177:
3148:Drivers/STM32F7xx_HAL_Driver/Src/stm32f7xx_hal_i2c.c **** 
3149:Drivers/STM32F7xx_HAL_Driver/Src/stm32f7xx_hal_i2c.c **** /**
3150:Drivers/STM32F7xx_HAL_Driver/Src/stm32f7xx_hal_i2c.c ****   * @brief  Memory Rx Transfer completed callback.
3151:Drivers/STM32F7xx_HAL_Driver/Src/stm32f7xx_hal_i2c.c ****   * @param  hi2c Pointer to a I2C_HandleTypeDef structure that contains
3152:Drivers/STM32F7xx_HAL_Driver/Src/stm32f7xx_hal_i2c.c ****   *                the configuration information for the specified I2C.
3153:Drivers/STM32F7xx_HAL_Driver/Src/stm32f7xx_hal_i2c.c ****   * @retval None
3154:Drivers/STM32F7xx_HAL_Driver/Src/stm32f7xx_hal_i2c.c ****   */
3155:Drivers/STM32F7xx_HAL_Driver/Src/stm32f7xx_hal_i2c.c **** __weak void HAL_I2C_MemRxCpltCallback(I2C_HandleTypeDef *hi2c)
3156:Drivers/STM32F7xx_HAL_Driver/Src/stm32f7xx_hal_i2c.c **** {
 6535              		.loc 1 3156 0
 6536              		.cfi_startproc
 6537              		@ args = 0, pretend = 0, frame = 8
 6538              		@ frame_needed = 1, uses_anonymous_args = 0
 6539              		@ link register save eliminated.
 6540 0000 80B4     		push	{r7}
 6541              	.LCFI204:
 6542              		.cfi_def_cfa_offset 4
 6543              		.cfi_offset 7, -4
 6544 0002 83B0     		sub	sp, sp, #12
 6545              	.LCFI205:
 6546              		.cfi_def_cfa_offset 16
 6547 0004 00AF     		add	r7, sp, #0
 6548              	.LCFI206:
 6549              		.cfi_def_cfa_register 7
ARM GAS  /var/folders/n8/cvzdcwlj0vl4g_wtyz1ffy300000gn/T//ccBPNZvy.s 			page 170


 6550 0006 7860     		str	r0, [r7, #4]
3157:Drivers/STM32F7xx_HAL_Driver/Src/stm32f7xx_hal_i2c.c ****   /* Prevent unused argument(s) compilation warning */
3158:Drivers/STM32F7xx_HAL_Driver/Src/stm32f7xx_hal_i2c.c ****   UNUSED(hi2c);
3159:Drivers/STM32F7xx_HAL_Driver/Src/stm32f7xx_hal_i2c.c **** 
3160:Drivers/STM32F7xx_HAL_Driver/Src/stm32f7xx_hal_i2c.c ****   /* NOTE : This function should not be modified, when the callback is needed,
3161:Drivers/STM32F7xx_HAL_Driver/Src/stm32f7xx_hal_i2c.c ****             the HAL_I2C_MemRxCpltCallback could be implemented in the user file
3162:Drivers/STM32F7xx_HAL_Driver/Src/stm32f7xx_hal_i2c.c ****    */
3163:Drivers/STM32F7xx_HAL_Driver/Src/stm32f7xx_hal_i2c.c **** }
 6551              		.loc 1 3163 0
 6552 0008 00BF     		nop
 6553 000a 0C37     		adds	r7, r7, #12
 6554              	.LCFI207:
 6555              		.cfi_def_cfa_offset 4
 6556 000c BD46     		mov	sp, r7
 6557              	.LCFI208:
 6558              		.cfi_def_cfa_register 13
 6559              		@ sp needed
 6560 000e 5DF8047B 		ldr	r7, [sp], #4
 6561              	.LCFI209:
 6562              		.cfi_restore 7
 6563              		.cfi_def_cfa_offset 0
 6564 0012 7047     		bx	lr
 6565              		.cfi_endproc
 6566              	.LFE177:
 6568              		.section	.text.HAL_I2C_ErrorCallback,"ax",%progbits
 6569              		.align	1
 6570              		.weak	HAL_I2C_ErrorCallback
 6571              		.syntax unified
 6572              		.thumb
 6573              		.thumb_func
 6574              		.fpu fpv5-sp-d16
 6576              	HAL_I2C_ErrorCallback:
 6577              	.LFB178:
3164:Drivers/STM32F7xx_HAL_Driver/Src/stm32f7xx_hal_i2c.c **** 
3165:Drivers/STM32F7xx_HAL_Driver/Src/stm32f7xx_hal_i2c.c **** /**
3166:Drivers/STM32F7xx_HAL_Driver/Src/stm32f7xx_hal_i2c.c ****   * @brief  I2C error callback.
3167:Drivers/STM32F7xx_HAL_Driver/Src/stm32f7xx_hal_i2c.c ****   * @param  hi2c Pointer to a I2C_HandleTypeDef structure that contains
3168:Drivers/STM32F7xx_HAL_Driver/Src/stm32f7xx_hal_i2c.c ****   *                the configuration information for the specified I2C.
3169:Drivers/STM32F7xx_HAL_Driver/Src/stm32f7xx_hal_i2c.c ****   * @retval None
3170:Drivers/STM32F7xx_HAL_Driver/Src/stm32f7xx_hal_i2c.c ****   */
3171:Drivers/STM32F7xx_HAL_Driver/Src/stm32f7xx_hal_i2c.c **** __weak void HAL_I2C_ErrorCallback(I2C_HandleTypeDef *hi2c)
3172:Drivers/STM32F7xx_HAL_Driver/Src/stm32f7xx_hal_i2c.c **** {
 6578              		.loc 1 3172 0
 6579              		.cfi_startproc
 6580              		@ args = 0, pretend = 0, frame = 8
 6581              		@ frame_needed = 1, uses_anonymous_args = 0
 6582              		@ link register save eliminated.
 6583 0000 80B4     		push	{r7}
 6584              	.LCFI210:
 6585              		.cfi_def_cfa_offset 4
 6586              		.cfi_offset 7, -4
 6587 0002 83B0     		sub	sp, sp, #12
 6588              	.LCFI211:
 6589              		.cfi_def_cfa_offset 16
 6590 0004 00AF     		add	r7, sp, #0
 6591              	.LCFI212:
 6592              		.cfi_def_cfa_register 7
ARM GAS  /var/folders/n8/cvzdcwlj0vl4g_wtyz1ffy300000gn/T//ccBPNZvy.s 			page 171


 6593 0006 7860     		str	r0, [r7, #4]
3173:Drivers/STM32F7xx_HAL_Driver/Src/stm32f7xx_hal_i2c.c ****   /* Prevent unused argument(s) compilation warning */
3174:Drivers/STM32F7xx_HAL_Driver/Src/stm32f7xx_hal_i2c.c ****   UNUSED(hi2c);
3175:Drivers/STM32F7xx_HAL_Driver/Src/stm32f7xx_hal_i2c.c **** 
3176:Drivers/STM32F7xx_HAL_Driver/Src/stm32f7xx_hal_i2c.c ****   /* NOTE : This function should not be modified, when the callback is needed,
3177:Drivers/STM32F7xx_HAL_Driver/Src/stm32f7xx_hal_i2c.c ****             the HAL_I2C_ErrorCallback could be implemented in the user file
3178:Drivers/STM32F7xx_HAL_Driver/Src/stm32f7xx_hal_i2c.c ****    */
3179:Drivers/STM32F7xx_HAL_Driver/Src/stm32f7xx_hal_i2c.c **** }
 6594              		.loc 1 3179 0
 6595 0008 00BF     		nop
 6596 000a 0C37     		adds	r7, r7, #12
 6597              	.LCFI213:
 6598              		.cfi_def_cfa_offset 4
 6599 000c BD46     		mov	sp, r7
 6600              	.LCFI214:
 6601              		.cfi_def_cfa_register 13
 6602              		@ sp needed
 6603 000e 5DF8047B 		ldr	r7, [sp], #4
 6604              	.LCFI215:
 6605              		.cfi_restore 7
 6606              		.cfi_def_cfa_offset 0
 6607 0012 7047     		bx	lr
 6608              		.cfi_endproc
 6609              	.LFE178:
 6611              		.section	.text.HAL_I2C_AbortCpltCallback,"ax",%progbits
 6612              		.align	1
 6613              		.weak	HAL_I2C_AbortCpltCallback
 6614              		.syntax unified
 6615              		.thumb
 6616              		.thumb_func
 6617              		.fpu fpv5-sp-d16
 6619              	HAL_I2C_AbortCpltCallback:
 6620              	.LFB179:
3180:Drivers/STM32F7xx_HAL_Driver/Src/stm32f7xx_hal_i2c.c **** 
3181:Drivers/STM32F7xx_HAL_Driver/Src/stm32f7xx_hal_i2c.c **** /**
3182:Drivers/STM32F7xx_HAL_Driver/Src/stm32f7xx_hal_i2c.c ****   * @brief  I2C abort callback.
3183:Drivers/STM32F7xx_HAL_Driver/Src/stm32f7xx_hal_i2c.c ****   * @param  hi2c Pointer to a I2C_HandleTypeDef structure that contains
3184:Drivers/STM32F7xx_HAL_Driver/Src/stm32f7xx_hal_i2c.c ****   *                the configuration information for the specified I2C.
3185:Drivers/STM32F7xx_HAL_Driver/Src/stm32f7xx_hal_i2c.c ****   * @retval None
3186:Drivers/STM32F7xx_HAL_Driver/Src/stm32f7xx_hal_i2c.c ****   */
3187:Drivers/STM32F7xx_HAL_Driver/Src/stm32f7xx_hal_i2c.c **** __weak void HAL_I2C_AbortCpltCallback(I2C_HandleTypeDef *hi2c)
3188:Drivers/STM32F7xx_HAL_Driver/Src/stm32f7xx_hal_i2c.c **** {
 6621              		.loc 1 3188 0
 6622              		.cfi_startproc
 6623              		@ args = 0, pretend = 0, frame = 8
 6624              		@ frame_needed = 1, uses_anonymous_args = 0
 6625              		@ link register save eliminated.
 6626 0000 80B4     		push	{r7}
 6627              	.LCFI216:
 6628              		.cfi_def_cfa_offset 4
 6629              		.cfi_offset 7, -4
 6630 0002 83B0     		sub	sp, sp, #12
 6631              	.LCFI217:
 6632              		.cfi_def_cfa_offset 16
 6633 0004 00AF     		add	r7, sp, #0
 6634              	.LCFI218:
 6635              		.cfi_def_cfa_register 7
ARM GAS  /var/folders/n8/cvzdcwlj0vl4g_wtyz1ffy300000gn/T//ccBPNZvy.s 			page 172


 6636 0006 7860     		str	r0, [r7, #4]
3189:Drivers/STM32F7xx_HAL_Driver/Src/stm32f7xx_hal_i2c.c ****   /* Prevent unused argument(s) compilation warning */
3190:Drivers/STM32F7xx_HAL_Driver/Src/stm32f7xx_hal_i2c.c ****   UNUSED(hi2c);
3191:Drivers/STM32F7xx_HAL_Driver/Src/stm32f7xx_hal_i2c.c **** 
3192:Drivers/STM32F7xx_HAL_Driver/Src/stm32f7xx_hal_i2c.c ****   /* NOTE : This function should not be modified, when the callback is needed,
3193:Drivers/STM32F7xx_HAL_Driver/Src/stm32f7xx_hal_i2c.c ****             the HAL_I2C_AbortCpltCallback could be implemented in the user file
3194:Drivers/STM32F7xx_HAL_Driver/Src/stm32f7xx_hal_i2c.c ****    */
3195:Drivers/STM32F7xx_HAL_Driver/Src/stm32f7xx_hal_i2c.c **** }
 6637              		.loc 1 3195 0
 6638 0008 00BF     		nop
 6639 000a 0C37     		adds	r7, r7, #12
 6640              	.LCFI219:
 6641              		.cfi_def_cfa_offset 4
 6642 000c BD46     		mov	sp, r7
 6643              	.LCFI220:
 6644              		.cfi_def_cfa_register 13
 6645              		@ sp needed
 6646 000e 5DF8047B 		ldr	r7, [sp], #4
 6647              	.LCFI221:
 6648              		.cfi_restore 7
 6649              		.cfi_def_cfa_offset 0
 6650 0012 7047     		bx	lr
 6651              		.cfi_endproc
 6652              	.LFE179:
 6654              		.section	.text.HAL_I2C_GetState,"ax",%progbits
 6655              		.align	1
 6656              		.global	HAL_I2C_GetState
 6657              		.syntax unified
 6658              		.thumb
 6659              		.thumb_func
 6660              		.fpu fpv5-sp-d16
 6662              	HAL_I2C_GetState:
 6663              	.LFB180:
3196:Drivers/STM32F7xx_HAL_Driver/Src/stm32f7xx_hal_i2c.c **** 
3197:Drivers/STM32F7xx_HAL_Driver/Src/stm32f7xx_hal_i2c.c **** /**
3198:Drivers/STM32F7xx_HAL_Driver/Src/stm32f7xx_hal_i2c.c ****   * @}
3199:Drivers/STM32F7xx_HAL_Driver/Src/stm32f7xx_hal_i2c.c ****   */
3200:Drivers/STM32F7xx_HAL_Driver/Src/stm32f7xx_hal_i2c.c **** 
3201:Drivers/STM32F7xx_HAL_Driver/Src/stm32f7xx_hal_i2c.c **** /** @defgroup I2C_Exported_Functions_Group3 Peripheral State, Mode and Error functions
3202:Drivers/STM32F7xx_HAL_Driver/Src/stm32f7xx_hal_i2c.c ****  *  @brief   Peripheral State, Mode and Error functions
3203:Drivers/STM32F7xx_HAL_Driver/Src/stm32f7xx_hal_i2c.c ****  *
3204:Drivers/STM32F7xx_HAL_Driver/Src/stm32f7xx_hal_i2c.c **** @verbatim
3205:Drivers/STM32F7xx_HAL_Driver/Src/stm32f7xx_hal_i2c.c ****  ===============================================================================
3206:Drivers/STM32F7xx_HAL_Driver/Src/stm32f7xx_hal_i2c.c ****             ##### Peripheral State, Mode and Error functions #####
3207:Drivers/STM32F7xx_HAL_Driver/Src/stm32f7xx_hal_i2c.c ****  ===============================================================================
3208:Drivers/STM32F7xx_HAL_Driver/Src/stm32f7xx_hal_i2c.c ****     [..]
3209:Drivers/STM32F7xx_HAL_Driver/Src/stm32f7xx_hal_i2c.c ****     This subsection permit to get in run-time the status of the peripheral
3210:Drivers/STM32F7xx_HAL_Driver/Src/stm32f7xx_hal_i2c.c ****     and the data flow.
3211:Drivers/STM32F7xx_HAL_Driver/Src/stm32f7xx_hal_i2c.c **** 
3212:Drivers/STM32F7xx_HAL_Driver/Src/stm32f7xx_hal_i2c.c **** @endverbatim
3213:Drivers/STM32F7xx_HAL_Driver/Src/stm32f7xx_hal_i2c.c ****   * @{
3214:Drivers/STM32F7xx_HAL_Driver/Src/stm32f7xx_hal_i2c.c ****   */
3215:Drivers/STM32F7xx_HAL_Driver/Src/stm32f7xx_hal_i2c.c **** 
3216:Drivers/STM32F7xx_HAL_Driver/Src/stm32f7xx_hal_i2c.c **** /**
3217:Drivers/STM32F7xx_HAL_Driver/Src/stm32f7xx_hal_i2c.c ****   * @brief  Return the I2C handle state.
3218:Drivers/STM32F7xx_HAL_Driver/Src/stm32f7xx_hal_i2c.c ****   * @param  hi2c Pointer to a I2C_HandleTypeDef structure that contains
3219:Drivers/STM32F7xx_HAL_Driver/Src/stm32f7xx_hal_i2c.c ****   *                the configuration information for the specified I2C.
ARM GAS  /var/folders/n8/cvzdcwlj0vl4g_wtyz1ffy300000gn/T//ccBPNZvy.s 			page 173


3220:Drivers/STM32F7xx_HAL_Driver/Src/stm32f7xx_hal_i2c.c ****   * @retval HAL state
3221:Drivers/STM32F7xx_HAL_Driver/Src/stm32f7xx_hal_i2c.c ****   */
3222:Drivers/STM32F7xx_HAL_Driver/Src/stm32f7xx_hal_i2c.c **** HAL_I2C_StateTypeDef HAL_I2C_GetState(I2C_HandleTypeDef *hi2c)
3223:Drivers/STM32F7xx_HAL_Driver/Src/stm32f7xx_hal_i2c.c **** {
 6664              		.loc 1 3223 0
 6665              		.cfi_startproc
 6666              		@ args = 0, pretend = 0, frame = 8
 6667              		@ frame_needed = 1, uses_anonymous_args = 0
 6668              		@ link register save eliminated.
 6669 0000 80B4     		push	{r7}
 6670              	.LCFI222:
 6671              		.cfi_def_cfa_offset 4
 6672              		.cfi_offset 7, -4
 6673 0002 83B0     		sub	sp, sp, #12
 6674              	.LCFI223:
 6675              		.cfi_def_cfa_offset 16
 6676 0004 00AF     		add	r7, sp, #0
 6677              	.LCFI224:
 6678              		.cfi_def_cfa_register 7
 6679 0006 7860     		str	r0, [r7, #4]
3224:Drivers/STM32F7xx_HAL_Driver/Src/stm32f7xx_hal_i2c.c ****   /* Return I2C handle state */
3225:Drivers/STM32F7xx_HAL_Driver/Src/stm32f7xx_hal_i2c.c ****   return hi2c->State;
 6680              		.loc 1 3225 0
 6681 0008 7B68     		ldr	r3, [r7, #4]
 6682 000a 93F84130 		ldrb	r3, [r3, #65]
 6683 000e DBB2     		uxtb	r3, r3
3226:Drivers/STM32F7xx_HAL_Driver/Src/stm32f7xx_hal_i2c.c **** }
 6684              		.loc 1 3226 0
 6685 0010 1846     		mov	r0, r3
 6686 0012 0C37     		adds	r7, r7, #12
 6687              	.LCFI225:
 6688              		.cfi_def_cfa_offset 4
 6689 0014 BD46     		mov	sp, r7
 6690              	.LCFI226:
 6691              		.cfi_def_cfa_register 13
 6692              		@ sp needed
 6693 0016 5DF8047B 		ldr	r7, [sp], #4
 6694              	.LCFI227:
 6695              		.cfi_restore 7
 6696              		.cfi_def_cfa_offset 0
 6697 001a 7047     		bx	lr
 6698              		.cfi_endproc
 6699              	.LFE180:
 6701              		.section	.text.HAL_I2C_GetMode,"ax",%progbits
 6702              		.align	1
 6703              		.global	HAL_I2C_GetMode
 6704              		.syntax unified
 6705              		.thumb
 6706              		.thumb_func
 6707              		.fpu fpv5-sp-d16
 6709              	HAL_I2C_GetMode:
 6710              	.LFB181:
3227:Drivers/STM32F7xx_HAL_Driver/Src/stm32f7xx_hal_i2c.c **** 
3228:Drivers/STM32F7xx_HAL_Driver/Src/stm32f7xx_hal_i2c.c **** /**
3229:Drivers/STM32F7xx_HAL_Driver/Src/stm32f7xx_hal_i2c.c ****   * @brief  Returns the I2C Master, Slave, Memory or no mode.
3230:Drivers/STM32F7xx_HAL_Driver/Src/stm32f7xx_hal_i2c.c ****   * @param  hi2c Pointer to a I2C_HandleTypeDef structure that contains
3231:Drivers/STM32F7xx_HAL_Driver/Src/stm32f7xx_hal_i2c.c ****   *         the configuration information for I2C module
ARM GAS  /var/folders/n8/cvzdcwlj0vl4g_wtyz1ffy300000gn/T//ccBPNZvy.s 			page 174


3232:Drivers/STM32F7xx_HAL_Driver/Src/stm32f7xx_hal_i2c.c ****   * @retval HAL mode
3233:Drivers/STM32F7xx_HAL_Driver/Src/stm32f7xx_hal_i2c.c ****   */
3234:Drivers/STM32F7xx_HAL_Driver/Src/stm32f7xx_hal_i2c.c **** HAL_I2C_ModeTypeDef HAL_I2C_GetMode(I2C_HandleTypeDef *hi2c)
3235:Drivers/STM32F7xx_HAL_Driver/Src/stm32f7xx_hal_i2c.c **** {
 6711              		.loc 1 3235 0
 6712              		.cfi_startproc
 6713              		@ args = 0, pretend = 0, frame = 8
 6714              		@ frame_needed = 1, uses_anonymous_args = 0
 6715              		@ link register save eliminated.
 6716 0000 80B4     		push	{r7}
 6717              	.LCFI228:
 6718              		.cfi_def_cfa_offset 4
 6719              		.cfi_offset 7, -4
 6720 0002 83B0     		sub	sp, sp, #12
 6721              	.LCFI229:
 6722              		.cfi_def_cfa_offset 16
 6723 0004 00AF     		add	r7, sp, #0
 6724              	.LCFI230:
 6725              		.cfi_def_cfa_register 7
 6726 0006 7860     		str	r0, [r7, #4]
3236:Drivers/STM32F7xx_HAL_Driver/Src/stm32f7xx_hal_i2c.c ****   return hi2c->Mode;
 6727              		.loc 1 3236 0
 6728 0008 7B68     		ldr	r3, [r7, #4]
 6729 000a 93F84230 		ldrb	r3, [r3, #66]
 6730 000e DBB2     		uxtb	r3, r3
3237:Drivers/STM32F7xx_HAL_Driver/Src/stm32f7xx_hal_i2c.c **** }
 6731              		.loc 1 3237 0
 6732 0010 1846     		mov	r0, r3
 6733 0012 0C37     		adds	r7, r7, #12
 6734              	.LCFI231:
 6735              		.cfi_def_cfa_offset 4
 6736 0014 BD46     		mov	sp, r7
 6737              	.LCFI232:
 6738              		.cfi_def_cfa_register 13
 6739              		@ sp needed
 6740 0016 5DF8047B 		ldr	r7, [sp], #4
 6741              	.LCFI233:
 6742              		.cfi_restore 7
 6743              		.cfi_def_cfa_offset 0
 6744 001a 7047     		bx	lr
 6745              		.cfi_endproc
 6746              	.LFE181:
 6748              		.section	.text.HAL_I2C_GetError,"ax",%progbits
 6749              		.align	1
 6750              		.global	HAL_I2C_GetError
 6751              		.syntax unified
 6752              		.thumb
 6753              		.thumb_func
 6754              		.fpu fpv5-sp-d16
 6756              	HAL_I2C_GetError:
 6757              	.LFB182:
3238:Drivers/STM32F7xx_HAL_Driver/Src/stm32f7xx_hal_i2c.c **** 
3239:Drivers/STM32F7xx_HAL_Driver/Src/stm32f7xx_hal_i2c.c **** /**
3240:Drivers/STM32F7xx_HAL_Driver/Src/stm32f7xx_hal_i2c.c ****   * @brief  Return the I2C error code.
3241:Drivers/STM32F7xx_HAL_Driver/Src/stm32f7xx_hal_i2c.c ****   * @param  hi2c Pointer to a I2C_HandleTypeDef structure that contains
3242:Drivers/STM32F7xx_HAL_Driver/Src/stm32f7xx_hal_i2c.c ****   *              the configuration information for the specified I2C.
3243:Drivers/STM32F7xx_HAL_Driver/Src/stm32f7xx_hal_i2c.c **** * @retval I2C Error Code
ARM GAS  /var/folders/n8/cvzdcwlj0vl4g_wtyz1ffy300000gn/T//ccBPNZvy.s 			page 175


3244:Drivers/STM32F7xx_HAL_Driver/Src/stm32f7xx_hal_i2c.c **** */
3245:Drivers/STM32F7xx_HAL_Driver/Src/stm32f7xx_hal_i2c.c **** uint32_t HAL_I2C_GetError(I2C_HandleTypeDef *hi2c)
3246:Drivers/STM32F7xx_HAL_Driver/Src/stm32f7xx_hal_i2c.c **** {
 6758              		.loc 1 3246 0
 6759              		.cfi_startproc
 6760              		@ args = 0, pretend = 0, frame = 8
 6761              		@ frame_needed = 1, uses_anonymous_args = 0
 6762              		@ link register save eliminated.
 6763 0000 80B4     		push	{r7}
 6764              	.LCFI234:
 6765              		.cfi_def_cfa_offset 4
 6766              		.cfi_offset 7, -4
 6767 0002 83B0     		sub	sp, sp, #12
 6768              	.LCFI235:
 6769              		.cfi_def_cfa_offset 16
 6770 0004 00AF     		add	r7, sp, #0
 6771              	.LCFI236:
 6772              		.cfi_def_cfa_register 7
 6773 0006 7860     		str	r0, [r7, #4]
3247:Drivers/STM32F7xx_HAL_Driver/Src/stm32f7xx_hal_i2c.c ****   return hi2c->ErrorCode;
 6774              		.loc 1 3247 0
 6775 0008 7B68     		ldr	r3, [r7, #4]
 6776 000a 5B6C     		ldr	r3, [r3, #68]
3248:Drivers/STM32F7xx_HAL_Driver/Src/stm32f7xx_hal_i2c.c **** }
 6777              		.loc 1 3248 0
 6778 000c 1846     		mov	r0, r3
 6779 000e 0C37     		adds	r7, r7, #12
 6780              	.LCFI237:
 6781              		.cfi_def_cfa_offset 4
 6782 0010 BD46     		mov	sp, r7
 6783              	.LCFI238:
 6784              		.cfi_def_cfa_register 13
 6785              		@ sp needed
 6786 0012 5DF8047B 		ldr	r7, [sp], #4
 6787              	.LCFI239:
 6788              		.cfi_restore 7
 6789              		.cfi_def_cfa_offset 0
 6790 0016 7047     		bx	lr
 6791              		.cfi_endproc
 6792              	.LFE182:
 6794              		.section	.text.I2C_Master_ISR_IT,"ax",%progbits
 6795              		.align	1
 6796              		.syntax unified
 6797              		.thumb
 6798              		.thumb_func
 6799              		.fpu fpv5-sp-d16
 6801              	I2C_Master_ISR_IT:
 6802              	.LFB183:
3249:Drivers/STM32F7xx_HAL_Driver/Src/stm32f7xx_hal_i2c.c **** 
3250:Drivers/STM32F7xx_HAL_Driver/Src/stm32f7xx_hal_i2c.c **** /**
3251:Drivers/STM32F7xx_HAL_Driver/Src/stm32f7xx_hal_i2c.c ****   * @}
3252:Drivers/STM32F7xx_HAL_Driver/Src/stm32f7xx_hal_i2c.c ****   */
3253:Drivers/STM32F7xx_HAL_Driver/Src/stm32f7xx_hal_i2c.c **** 
3254:Drivers/STM32F7xx_HAL_Driver/Src/stm32f7xx_hal_i2c.c **** /**
3255:Drivers/STM32F7xx_HAL_Driver/Src/stm32f7xx_hal_i2c.c ****   * @}
3256:Drivers/STM32F7xx_HAL_Driver/Src/stm32f7xx_hal_i2c.c ****   */
3257:Drivers/STM32F7xx_HAL_Driver/Src/stm32f7xx_hal_i2c.c **** 
ARM GAS  /var/folders/n8/cvzdcwlj0vl4g_wtyz1ffy300000gn/T//ccBPNZvy.s 			page 176


3258:Drivers/STM32F7xx_HAL_Driver/Src/stm32f7xx_hal_i2c.c **** /** @addtogroup I2C_Private_Functions
3259:Drivers/STM32F7xx_HAL_Driver/Src/stm32f7xx_hal_i2c.c ****   * @{
3260:Drivers/STM32F7xx_HAL_Driver/Src/stm32f7xx_hal_i2c.c ****   */
3261:Drivers/STM32F7xx_HAL_Driver/Src/stm32f7xx_hal_i2c.c **** 
3262:Drivers/STM32F7xx_HAL_Driver/Src/stm32f7xx_hal_i2c.c **** /**
3263:Drivers/STM32F7xx_HAL_Driver/Src/stm32f7xx_hal_i2c.c ****   * @brief  Interrupt Sub-Routine which handle the Interrupt Flags Master Mode with Interrupt.
3264:Drivers/STM32F7xx_HAL_Driver/Src/stm32f7xx_hal_i2c.c ****   * @param  hi2c Pointer to a I2C_HandleTypeDef structure that contains
3265:Drivers/STM32F7xx_HAL_Driver/Src/stm32f7xx_hal_i2c.c ****   *                the configuration information for the specified I2C.
3266:Drivers/STM32F7xx_HAL_Driver/Src/stm32f7xx_hal_i2c.c ****   * @param  ITFlags Interrupt flags to handle.
3267:Drivers/STM32F7xx_HAL_Driver/Src/stm32f7xx_hal_i2c.c ****   * @param  ITSources Interrupt sources enabled.
3268:Drivers/STM32F7xx_HAL_Driver/Src/stm32f7xx_hal_i2c.c ****   * @retval HAL status
3269:Drivers/STM32F7xx_HAL_Driver/Src/stm32f7xx_hal_i2c.c ****   */
3270:Drivers/STM32F7xx_HAL_Driver/Src/stm32f7xx_hal_i2c.c **** static HAL_StatusTypeDef I2C_Master_ISR_IT(struct __I2C_HandleTypeDef *hi2c, uint32_t ITFlags, uint
3271:Drivers/STM32F7xx_HAL_Driver/Src/stm32f7xx_hal_i2c.c **** {
 6803              		.loc 1 3271 0
 6804              		.cfi_startproc
 6805              		@ args = 0, pretend = 0, frame = 24
 6806              		@ frame_needed = 1, uses_anonymous_args = 0
 6807 0000 80B5     		push	{r7, lr}
 6808              	.LCFI240:
 6809              		.cfi_def_cfa_offset 8
 6810              		.cfi_offset 7, -8
 6811              		.cfi_offset 14, -4
 6812 0002 88B0     		sub	sp, sp, #32
 6813              	.LCFI241:
 6814              		.cfi_def_cfa_offset 40
 6815 0004 02AF     		add	r7, sp, #8
 6816              	.LCFI242:
 6817              		.cfi_def_cfa 7, 32
 6818 0006 F860     		str	r0, [r7, #12]
 6819 0008 B960     		str	r1, [r7, #8]
 6820 000a 7A60     		str	r2, [r7, #4]
3272:Drivers/STM32F7xx_HAL_Driver/Src/stm32f7xx_hal_i2c.c ****   uint16_t devaddress = 0U;
 6821              		.loc 1 3272 0
 6822 000c 0023     		movs	r3, #0
 6823 000e FB82     		strh	r3, [r7, #22]	@ movhi
3273:Drivers/STM32F7xx_HAL_Driver/Src/stm32f7xx_hal_i2c.c **** 
3274:Drivers/STM32F7xx_HAL_Driver/Src/stm32f7xx_hal_i2c.c ****   /* Process Locked */
3275:Drivers/STM32F7xx_HAL_Driver/Src/stm32f7xx_hal_i2c.c ****   __HAL_LOCK(hi2c);
 6824              		.loc 1 3275 0
 6825 0010 FB68     		ldr	r3, [r7, #12]
 6826 0012 93F84030 		ldrb	r3, [r3, #64]	@ zero_extendqisi2
 6827 0016 012B     		cmp	r3, #1
 6828 0018 01D1     		bne	.L340
 6829              		.loc 1 3275 0 is_stmt 0 discriminator 1
 6830 001a 0223     		movs	r3, #2
 6831 001c 01E1     		b	.L341
 6832              	.L340:
 6833              		.loc 1 3275 0 discriminator 2
 6834 001e FB68     		ldr	r3, [r7, #12]
 6835 0020 0122     		movs	r2, #1
 6836 0022 83F84020 		strb	r2, [r3, #64]
3276:Drivers/STM32F7xx_HAL_Driver/Src/stm32f7xx_hal_i2c.c **** 
3277:Drivers/STM32F7xx_HAL_Driver/Src/stm32f7xx_hal_i2c.c ****   if (((ITFlags & I2C_FLAG_AF) != RESET) && ((ITSources & I2C_IT_NACKI) != RESET))
 6837              		.loc 1 3277 0 is_stmt 1 discriminator 2
 6838 0026 BB68     		ldr	r3, [r7, #8]
 6839 0028 03F01003 		and	r3, r3, #16
ARM GAS  /var/folders/n8/cvzdcwlj0vl4g_wtyz1ffy300000gn/T//ccBPNZvy.s 			page 177


 6840 002c 002B     		cmp	r3, #0
 6841 002e 12D0     		beq	.L342
 6842              		.loc 1 3277 0 is_stmt 0 discriminator 1
 6843 0030 7B68     		ldr	r3, [r7, #4]
 6844 0032 03F01003 		and	r3, r3, #16
 6845 0036 002B     		cmp	r3, #0
 6846 0038 0DD0     		beq	.L342
3278:Drivers/STM32F7xx_HAL_Driver/Src/stm32f7xx_hal_i2c.c ****   {
3279:Drivers/STM32F7xx_HAL_Driver/Src/stm32f7xx_hal_i2c.c ****     /* Clear NACK Flag */
3280:Drivers/STM32F7xx_HAL_Driver/Src/stm32f7xx_hal_i2c.c ****     __HAL_I2C_CLEAR_FLAG(hi2c, I2C_FLAG_AF);
 6847              		.loc 1 3280 0 is_stmt 1
 6848 003a FB68     		ldr	r3, [r7, #12]
 6849 003c 1B68     		ldr	r3, [r3]
 6850 003e 1022     		movs	r2, #16
 6851 0040 DA61     		str	r2, [r3, #28]
3281:Drivers/STM32F7xx_HAL_Driver/Src/stm32f7xx_hal_i2c.c **** 
3282:Drivers/STM32F7xx_HAL_Driver/Src/stm32f7xx_hal_i2c.c ****     /* Set corresponding Error Code */
3283:Drivers/STM32F7xx_HAL_Driver/Src/stm32f7xx_hal_i2c.c ****     /* No need to generate STOP, it is automatically done */
3284:Drivers/STM32F7xx_HAL_Driver/Src/stm32f7xx_hal_i2c.c ****     /* Error callback will be send during stop flag treatment */
3285:Drivers/STM32F7xx_HAL_Driver/Src/stm32f7xx_hal_i2c.c ****     hi2c->ErrorCode |= HAL_I2C_ERROR_AF;
 6852              		.loc 1 3285 0
 6853 0042 FB68     		ldr	r3, [r7, #12]
 6854 0044 5B6C     		ldr	r3, [r3, #68]
 6855 0046 43F00402 		orr	r2, r3, #4
 6856 004a FB68     		ldr	r3, [r7, #12]
 6857 004c 5A64     		str	r2, [r3, #68]
3286:Drivers/STM32F7xx_HAL_Driver/Src/stm32f7xx_hal_i2c.c **** 
3287:Drivers/STM32F7xx_HAL_Driver/Src/stm32f7xx_hal_i2c.c ****     /* Flush TX register */
3288:Drivers/STM32F7xx_HAL_Driver/Src/stm32f7xx_hal_i2c.c ****     I2C_Flush_TXDR(hi2c);
 6858              		.loc 1 3288 0
 6859 004e F868     		ldr	r0, [r7, #12]
 6860 0050 FFF7FEFF 		bl	I2C_Flush_TXDR
 6861 0054 D2E0     		b	.L343
 6862              	.L342:
3289:Drivers/STM32F7xx_HAL_Driver/Src/stm32f7xx_hal_i2c.c ****   }
3290:Drivers/STM32F7xx_HAL_Driver/Src/stm32f7xx_hal_i2c.c ****   else if (((ITFlags & I2C_FLAG_RXNE) != RESET) && ((ITSources & I2C_IT_RXI) != RESET))
 6863              		.loc 1 3290 0
 6864 0056 BB68     		ldr	r3, [r7, #8]
 6865 0058 03F00403 		and	r3, r3, #4
 6866 005c 002B     		cmp	r3, #0
 6867 005e 1CD0     		beq	.L344
 6868              		.loc 1 3290 0 is_stmt 0 discriminator 1
 6869 0060 7B68     		ldr	r3, [r7, #4]
 6870 0062 03F00403 		and	r3, r3, #4
 6871 0066 002B     		cmp	r3, #0
 6872 0068 17D0     		beq	.L344
3291:Drivers/STM32F7xx_HAL_Driver/Src/stm32f7xx_hal_i2c.c ****   {
3292:Drivers/STM32F7xx_HAL_Driver/Src/stm32f7xx_hal_i2c.c ****     /* Read data from RXDR */
3293:Drivers/STM32F7xx_HAL_Driver/Src/stm32f7xx_hal_i2c.c ****     (*hi2c->pBuffPtr++) = hi2c->Instance->RXDR;
 6873              		.loc 1 3293 0 is_stmt 1
 6874 006a FB68     		ldr	r3, [r7, #12]
 6875 006c 1B68     		ldr	r3, [r3]
 6876 006e 586A     		ldr	r0, [r3, #36]
 6877 0070 FB68     		ldr	r3, [r7, #12]
 6878 0072 5B6A     		ldr	r3, [r3, #36]
 6879 0074 591C     		adds	r1, r3, #1
 6880 0076 FA68     		ldr	r2, [r7, #12]
ARM GAS  /var/folders/n8/cvzdcwlj0vl4g_wtyz1ffy300000gn/T//ccBPNZvy.s 			page 178


 6881 0078 5162     		str	r1, [r2, #36]
 6882 007a C2B2     		uxtb	r2, r0
 6883 007c 1A70     		strb	r2, [r3]
3294:Drivers/STM32F7xx_HAL_Driver/Src/stm32f7xx_hal_i2c.c ****     hi2c->XferSize--;
 6884              		.loc 1 3294 0
 6885 007e FB68     		ldr	r3, [r7, #12]
 6886 0080 1B8D     		ldrh	r3, [r3, #40]
 6887 0082 013B     		subs	r3, r3, #1
 6888 0084 9AB2     		uxth	r2, r3
 6889 0086 FB68     		ldr	r3, [r7, #12]
 6890 0088 1A85     		strh	r2, [r3, #40]	@ movhi
3295:Drivers/STM32F7xx_HAL_Driver/Src/stm32f7xx_hal_i2c.c ****     hi2c->XferCount--;
 6891              		.loc 1 3295 0
 6892 008a FB68     		ldr	r3, [r7, #12]
 6893 008c 5B8D     		ldrh	r3, [r3, #42]	@ movhi
 6894 008e 9BB2     		uxth	r3, r3
 6895 0090 013B     		subs	r3, r3, #1
 6896 0092 9AB2     		uxth	r2, r3
 6897 0094 FB68     		ldr	r3, [r7, #12]
 6898 0096 5A85     		strh	r2, [r3, #42]	@ movhi
 6899 0098 B0E0     		b	.L343
 6900              	.L344:
3296:Drivers/STM32F7xx_HAL_Driver/Src/stm32f7xx_hal_i2c.c ****   }
3297:Drivers/STM32F7xx_HAL_Driver/Src/stm32f7xx_hal_i2c.c ****   else if (((ITFlags & I2C_FLAG_TXIS) != RESET) && ((ITSources & I2C_IT_TXI) != RESET))
 6901              		.loc 1 3297 0
 6902 009a BB68     		ldr	r3, [r7, #8]
 6903 009c 03F00203 		and	r3, r3, #2
 6904 00a0 002B     		cmp	r3, #0
 6905 00a2 1BD0     		beq	.L345
 6906              		.loc 1 3297 0 is_stmt 0 discriminator 1
 6907 00a4 7B68     		ldr	r3, [r7, #4]
 6908 00a6 03F00203 		and	r3, r3, #2
 6909 00aa 002B     		cmp	r3, #0
 6910 00ac 16D0     		beq	.L345
3298:Drivers/STM32F7xx_HAL_Driver/Src/stm32f7xx_hal_i2c.c ****   {
3299:Drivers/STM32F7xx_HAL_Driver/Src/stm32f7xx_hal_i2c.c ****     /* Write data to TXDR */
3300:Drivers/STM32F7xx_HAL_Driver/Src/stm32f7xx_hal_i2c.c ****     hi2c->Instance->TXDR = (*hi2c->pBuffPtr++);
 6911              		.loc 1 3300 0 is_stmt 1
 6912 00ae FB68     		ldr	r3, [r7, #12]
 6913 00b0 5B6A     		ldr	r3, [r3, #36]
 6914 00b2 591C     		adds	r1, r3, #1
 6915 00b4 FA68     		ldr	r2, [r7, #12]
 6916 00b6 5162     		str	r1, [r2, #36]
 6917 00b8 1A78     		ldrb	r2, [r3]	@ zero_extendqisi2
 6918 00ba FB68     		ldr	r3, [r7, #12]
 6919 00bc 1B68     		ldr	r3, [r3]
 6920 00be 9A62     		str	r2, [r3, #40]
3301:Drivers/STM32F7xx_HAL_Driver/Src/stm32f7xx_hal_i2c.c ****     hi2c->XferSize--;
 6921              		.loc 1 3301 0
 6922 00c0 FB68     		ldr	r3, [r7, #12]
 6923 00c2 1B8D     		ldrh	r3, [r3, #40]
 6924 00c4 013B     		subs	r3, r3, #1
 6925 00c6 9AB2     		uxth	r2, r3
 6926 00c8 FB68     		ldr	r3, [r7, #12]
 6927 00ca 1A85     		strh	r2, [r3, #40]	@ movhi
3302:Drivers/STM32F7xx_HAL_Driver/Src/stm32f7xx_hal_i2c.c ****     hi2c->XferCount--;
 6928              		.loc 1 3302 0
ARM GAS  /var/folders/n8/cvzdcwlj0vl4g_wtyz1ffy300000gn/T//ccBPNZvy.s 			page 179


 6929 00cc FB68     		ldr	r3, [r7, #12]
 6930 00ce 5B8D     		ldrh	r3, [r3, #42]	@ movhi
 6931 00d0 9BB2     		uxth	r3, r3
 6932 00d2 013B     		subs	r3, r3, #1
 6933 00d4 9AB2     		uxth	r2, r3
 6934 00d6 FB68     		ldr	r3, [r7, #12]
 6935 00d8 5A85     		strh	r2, [r3, #42]	@ movhi
 6936 00da 8FE0     		b	.L343
 6937              	.L345:
3303:Drivers/STM32F7xx_HAL_Driver/Src/stm32f7xx_hal_i2c.c ****   }
3304:Drivers/STM32F7xx_HAL_Driver/Src/stm32f7xx_hal_i2c.c ****   else if (((ITFlags & I2C_FLAG_TCR) != RESET) && ((ITSources & I2C_IT_TCI) != RESET))
 6938              		.loc 1 3304 0
 6939 00dc BB68     		ldr	r3, [r7, #8]
 6940 00de 03F08003 		and	r3, r3, #128
 6941 00e2 002B     		cmp	r3, #0
 6942 00e4 5DD0     		beq	.L346
 6943              		.loc 1 3304 0 is_stmt 0 discriminator 1
 6944 00e6 7B68     		ldr	r3, [r7, #4]
 6945 00e8 03F04003 		and	r3, r3, #64
 6946 00ec 002B     		cmp	r3, #0
 6947 00ee 58D0     		beq	.L346
3305:Drivers/STM32F7xx_HAL_Driver/Src/stm32f7xx_hal_i2c.c ****   {
3306:Drivers/STM32F7xx_HAL_Driver/Src/stm32f7xx_hal_i2c.c ****     if ((hi2c->XferSize == 0U) && (hi2c->XferCount != 0U))
 6948              		.loc 1 3306 0 is_stmt 1
 6949 00f0 FB68     		ldr	r3, [r7, #12]
 6950 00f2 1B8D     		ldrh	r3, [r3, #40]
 6951 00f4 002B     		cmp	r3, #0
 6952 00f6 42D1     		bne	.L347
 6953              		.loc 1 3306 0 is_stmt 0 discriminator 1
 6954 00f8 FB68     		ldr	r3, [r7, #12]
 6955 00fa 5B8D     		ldrh	r3, [r3, #42]	@ movhi
 6956 00fc 9BB2     		uxth	r3, r3
 6957 00fe 002B     		cmp	r3, #0
 6958 0100 3DD0     		beq	.L347
3307:Drivers/STM32F7xx_HAL_Driver/Src/stm32f7xx_hal_i2c.c ****     {
3308:Drivers/STM32F7xx_HAL_Driver/Src/stm32f7xx_hal_i2c.c ****       devaddress = (hi2c->Instance->CR2 & I2C_CR2_SADD);
 6959              		.loc 1 3308 0 is_stmt 1
 6960 0102 FB68     		ldr	r3, [r7, #12]
 6961 0104 1B68     		ldr	r3, [r3]
 6962 0106 5B68     		ldr	r3, [r3, #4]
 6963 0108 9BB2     		uxth	r3, r3
 6964 010a C3F30903 		ubfx	r3, r3, #0, #10
 6965 010e FB82     		strh	r3, [r7, #22]	@ movhi
3309:Drivers/STM32F7xx_HAL_Driver/Src/stm32f7xx_hal_i2c.c **** 
3310:Drivers/STM32F7xx_HAL_Driver/Src/stm32f7xx_hal_i2c.c ****       if (hi2c->XferCount > MAX_NBYTE_SIZE)
 6966              		.loc 1 3310 0
 6967 0110 FB68     		ldr	r3, [r7, #12]
 6968 0112 5B8D     		ldrh	r3, [r3, #42]	@ movhi
 6969 0114 9BB2     		uxth	r3, r3
 6970 0116 FF2B     		cmp	r3, #255
 6971 0118 0ED9     		bls	.L348
3311:Drivers/STM32F7xx_HAL_Driver/Src/stm32f7xx_hal_i2c.c ****       {
3312:Drivers/STM32F7xx_HAL_Driver/Src/stm32f7xx_hal_i2c.c ****         hi2c->XferSize = MAX_NBYTE_SIZE;
 6972              		.loc 1 3312 0
 6973 011a FB68     		ldr	r3, [r7, #12]
 6974 011c FF22     		movs	r2, #255
 6975 011e 1A85     		strh	r2, [r3, #40]	@ movhi
ARM GAS  /var/folders/n8/cvzdcwlj0vl4g_wtyz1ffy300000gn/T//ccBPNZvy.s 			page 180


3313:Drivers/STM32F7xx_HAL_Driver/Src/stm32f7xx_hal_i2c.c ****         I2C_TransferConfig(hi2c, devaddress, hi2c->XferSize, I2C_RELOAD_MODE, I2C_NO_STARTSTOP);
 6976              		.loc 1 3313 0
 6977 0120 FB68     		ldr	r3, [r7, #12]
 6978 0122 1B8D     		ldrh	r3, [r3, #40]
 6979 0124 DAB2     		uxtb	r2, r3
 6980 0126 F98A     		ldrh	r1, [r7, #22]
 6981 0128 0023     		movs	r3, #0
 6982 012a 0093     		str	r3, [sp]
 6983 012c 4FF08073 		mov	r3, #16777216
 6984 0130 F868     		ldr	r0, [r7, #12]
 6985 0132 FFF7FEFF 		bl	I2C_TransferConfig
3310:Drivers/STM32F7xx_HAL_Driver/Src/stm32f7xx_hal_i2c.c ****       {
 6986              		.loc 1 3310 0
 6987 0136 33E0     		b	.L351
 6988              	.L348:
3314:Drivers/STM32F7xx_HAL_Driver/Src/stm32f7xx_hal_i2c.c ****       }
3315:Drivers/STM32F7xx_HAL_Driver/Src/stm32f7xx_hal_i2c.c ****       else
3316:Drivers/STM32F7xx_HAL_Driver/Src/stm32f7xx_hal_i2c.c ****       {
3317:Drivers/STM32F7xx_HAL_Driver/Src/stm32f7xx_hal_i2c.c ****         hi2c->XferSize = hi2c->XferCount;
 6989              		.loc 1 3317 0
 6990 0138 FB68     		ldr	r3, [r7, #12]
 6991 013a 5B8D     		ldrh	r3, [r3, #42]	@ movhi
 6992 013c 9AB2     		uxth	r2, r3
 6993 013e FB68     		ldr	r3, [r7, #12]
 6994 0140 1A85     		strh	r2, [r3, #40]	@ movhi
3318:Drivers/STM32F7xx_HAL_Driver/Src/stm32f7xx_hal_i2c.c ****         if (hi2c->XferOptions != I2C_NO_OPTION_FRAME)
 6995              		.loc 1 3318 0
 6996 0142 FB68     		ldr	r3, [r7, #12]
 6997 0144 DB6A     		ldr	r3, [r3, #44]
 6998 0146 13F5803F 		cmn	r3, #65536
 6999 014a 0CD0     		beq	.L350
3319:Drivers/STM32F7xx_HAL_Driver/Src/stm32f7xx_hal_i2c.c ****         {
3320:Drivers/STM32F7xx_HAL_Driver/Src/stm32f7xx_hal_i2c.c ****           I2C_TransferConfig(hi2c, devaddress, hi2c->XferSize, hi2c->XferOptions, I2C_NO_STARTSTOP)
 7000              		.loc 1 3320 0
 7001 014c FB68     		ldr	r3, [r7, #12]
 7002 014e 1B8D     		ldrh	r3, [r3, #40]
 7003 0150 DAB2     		uxtb	r2, r3
 7004 0152 FB68     		ldr	r3, [r7, #12]
 7005 0154 D86A     		ldr	r0, [r3, #44]
 7006 0156 F98A     		ldrh	r1, [r7, #22]
 7007 0158 0023     		movs	r3, #0
 7008 015a 0093     		str	r3, [sp]
 7009 015c 0346     		mov	r3, r0
 7010 015e F868     		ldr	r0, [r7, #12]
 7011 0160 FFF7FEFF 		bl	I2C_TransferConfig
3310:Drivers/STM32F7xx_HAL_Driver/Src/stm32f7xx_hal_i2c.c ****       {
 7012              		.loc 1 3310 0
 7013 0164 1CE0     		b	.L351
 7014              	.L350:
3321:Drivers/STM32F7xx_HAL_Driver/Src/stm32f7xx_hal_i2c.c ****         }
3322:Drivers/STM32F7xx_HAL_Driver/Src/stm32f7xx_hal_i2c.c ****         else
3323:Drivers/STM32F7xx_HAL_Driver/Src/stm32f7xx_hal_i2c.c ****         {
3324:Drivers/STM32F7xx_HAL_Driver/Src/stm32f7xx_hal_i2c.c ****           I2C_TransferConfig(hi2c, devaddress, hi2c->XferSize, I2C_AUTOEND_MODE, I2C_NO_STARTSTOP);
 7015              		.loc 1 3324 0
 7016 0166 FB68     		ldr	r3, [r7, #12]
 7017 0168 1B8D     		ldrh	r3, [r3, #40]
 7018 016a DAB2     		uxtb	r2, r3
ARM GAS  /var/folders/n8/cvzdcwlj0vl4g_wtyz1ffy300000gn/T//ccBPNZvy.s 			page 181


 7019 016c F98A     		ldrh	r1, [r7, #22]
 7020 016e 0023     		movs	r3, #0
 7021 0170 0093     		str	r3, [sp]
 7022 0172 4FF00073 		mov	r3, #33554432
 7023 0176 F868     		ldr	r0, [r7, #12]
 7024 0178 FFF7FEFF 		bl	I2C_TransferConfig
3310:Drivers/STM32F7xx_HAL_Driver/Src/stm32f7xx_hal_i2c.c ****       {
 7025              		.loc 1 3310 0
 7026 017c 10E0     		b	.L351
 7027              	.L347:
3325:Drivers/STM32F7xx_HAL_Driver/Src/stm32f7xx_hal_i2c.c ****         }
3326:Drivers/STM32F7xx_HAL_Driver/Src/stm32f7xx_hal_i2c.c ****       }
3327:Drivers/STM32F7xx_HAL_Driver/Src/stm32f7xx_hal_i2c.c ****     }
3328:Drivers/STM32F7xx_HAL_Driver/Src/stm32f7xx_hal_i2c.c ****     else
3329:Drivers/STM32F7xx_HAL_Driver/Src/stm32f7xx_hal_i2c.c ****     {
3330:Drivers/STM32F7xx_HAL_Driver/Src/stm32f7xx_hal_i2c.c ****       /* Call TxCpltCallback() if no stop mode is set */
3331:Drivers/STM32F7xx_HAL_Driver/Src/stm32f7xx_hal_i2c.c ****       if (I2C_GET_STOP_MODE(hi2c) != I2C_AUTOEND_MODE)
 7028              		.loc 1 3331 0
 7029 017e FB68     		ldr	r3, [r7, #12]
 7030 0180 1B68     		ldr	r3, [r3]
 7031 0182 5B68     		ldr	r3, [r3, #4]
 7032 0184 03F00073 		and	r3, r3, #33554432
 7033 0188 B3F1007F 		cmp	r3, #33554432
 7034 018c 03D0     		beq	.L352
3332:Drivers/STM32F7xx_HAL_Driver/Src/stm32f7xx_hal_i2c.c ****       {
3333:Drivers/STM32F7xx_HAL_Driver/Src/stm32f7xx_hal_i2c.c ****         /* Call I2C Master Sequential complete process */
3334:Drivers/STM32F7xx_HAL_Driver/Src/stm32f7xx_hal_i2c.c ****         I2C_ITMasterSequentialCplt(hi2c);
 7035              		.loc 1 3334 0
 7036 018e F868     		ldr	r0, [r7, #12]
 7037 0190 FFF7FEFF 		bl	I2C_ITMasterSequentialCplt
3306:Drivers/STM32F7xx_HAL_Driver/Src/stm32f7xx_hal_i2c.c ****     {
 7038              		.loc 1 3306 0
 7039 0194 32E0     		b	.L343
 7040              	.L352:
3335:Drivers/STM32F7xx_HAL_Driver/Src/stm32f7xx_hal_i2c.c ****       }
3336:Drivers/STM32F7xx_HAL_Driver/Src/stm32f7xx_hal_i2c.c ****       else
3337:Drivers/STM32F7xx_HAL_Driver/Src/stm32f7xx_hal_i2c.c ****       {
3338:Drivers/STM32F7xx_HAL_Driver/Src/stm32f7xx_hal_i2c.c ****         /* Wrong size Status regarding TCR flag event */
3339:Drivers/STM32F7xx_HAL_Driver/Src/stm32f7xx_hal_i2c.c ****         /* Call the corresponding callback to inform upper layer of End of Transfer */
3340:Drivers/STM32F7xx_HAL_Driver/Src/stm32f7xx_hal_i2c.c ****         I2C_ITError(hi2c, HAL_I2C_ERROR_SIZE);
 7041              		.loc 1 3340 0
 7042 0196 4021     		movs	r1, #64
 7043 0198 F868     		ldr	r0, [r7, #12]
 7044 019a FFF7FEFF 		bl	I2C_ITError
3306:Drivers/STM32F7xx_HAL_Driver/Src/stm32f7xx_hal_i2c.c ****     {
 7045              		.loc 1 3306 0
 7046 019e 2DE0     		b	.L343
 7047              	.L351:
3306:Drivers/STM32F7xx_HAL_Driver/Src/stm32f7xx_hal_i2c.c ****     {
 7048              		.loc 1 3306 0 is_stmt 0 discriminator 1
 7049 01a0 2CE0     		b	.L343
 7050              	.L346:
3341:Drivers/STM32F7xx_HAL_Driver/Src/stm32f7xx_hal_i2c.c ****       }
3342:Drivers/STM32F7xx_HAL_Driver/Src/stm32f7xx_hal_i2c.c ****     }
3343:Drivers/STM32F7xx_HAL_Driver/Src/stm32f7xx_hal_i2c.c ****   }
3344:Drivers/STM32F7xx_HAL_Driver/Src/stm32f7xx_hal_i2c.c ****   else if (((ITFlags & I2C_FLAG_TC) != RESET) && ((ITSources & I2C_IT_TCI) != RESET))
 7051              		.loc 1 3344 0 is_stmt 1
ARM GAS  /var/folders/n8/cvzdcwlj0vl4g_wtyz1ffy300000gn/T//ccBPNZvy.s 			page 182


 7052 01a2 BB68     		ldr	r3, [r7, #8]
 7053 01a4 03F04003 		and	r3, r3, #64
 7054 01a8 002B     		cmp	r3, #0
 7055 01aa 27D0     		beq	.L343
 7056              		.loc 1 3344 0 is_stmt 0 discriminator 1
 7057 01ac 7B68     		ldr	r3, [r7, #4]
 7058 01ae 03F04003 		and	r3, r3, #64
 7059 01b2 002B     		cmp	r3, #0
 7060 01b4 22D0     		beq	.L343
3345:Drivers/STM32F7xx_HAL_Driver/Src/stm32f7xx_hal_i2c.c ****   {
3346:Drivers/STM32F7xx_HAL_Driver/Src/stm32f7xx_hal_i2c.c ****     if (hi2c->XferCount == 0U)
 7061              		.loc 1 3346 0 is_stmt 1
 7062 01b6 FB68     		ldr	r3, [r7, #12]
 7063 01b8 5B8D     		ldrh	r3, [r3, #42]	@ movhi
 7064 01ba 9BB2     		uxth	r3, r3
 7065 01bc 002B     		cmp	r3, #0
 7066 01be 19D1     		bne	.L353
3347:Drivers/STM32F7xx_HAL_Driver/Src/stm32f7xx_hal_i2c.c ****     {
3348:Drivers/STM32F7xx_HAL_Driver/Src/stm32f7xx_hal_i2c.c ****       if (I2C_GET_STOP_MODE(hi2c) != I2C_AUTOEND_MODE)
 7067              		.loc 1 3348 0
 7068 01c0 FB68     		ldr	r3, [r7, #12]
 7069 01c2 1B68     		ldr	r3, [r3]
 7070 01c4 5B68     		ldr	r3, [r3, #4]
 7071 01c6 03F00073 		and	r3, r3, #33554432
 7072 01ca B3F1007F 		cmp	r3, #33554432
 7073 01ce 15D0     		beq	.L343
3349:Drivers/STM32F7xx_HAL_Driver/Src/stm32f7xx_hal_i2c.c ****       {
3350:Drivers/STM32F7xx_HAL_Driver/Src/stm32f7xx_hal_i2c.c ****         /* Generate a stop condition in case of no transfer option */
3351:Drivers/STM32F7xx_HAL_Driver/Src/stm32f7xx_hal_i2c.c ****         if (hi2c->XferOptions == I2C_NO_OPTION_FRAME)
 7074              		.loc 1 3351 0
 7075 01d0 FB68     		ldr	r3, [r7, #12]
 7076 01d2 DB6A     		ldr	r3, [r3, #44]
 7077 01d4 13F5803F 		cmn	r3, #65536
 7078 01d8 08D1     		bne	.L355
3352:Drivers/STM32F7xx_HAL_Driver/Src/stm32f7xx_hal_i2c.c ****         {
3353:Drivers/STM32F7xx_HAL_Driver/Src/stm32f7xx_hal_i2c.c ****           /* Generate Stop */
3354:Drivers/STM32F7xx_HAL_Driver/Src/stm32f7xx_hal_i2c.c ****           hi2c->Instance->CR2 |= I2C_CR2_STOP;
 7079              		.loc 1 3354 0
 7080 01da FB68     		ldr	r3, [r7, #12]
 7081 01dc 1B68     		ldr	r3, [r3]
 7082 01de 5A68     		ldr	r2, [r3, #4]
 7083 01e0 FB68     		ldr	r3, [r7, #12]
 7084 01e2 1B68     		ldr	r3, [r3]
 7085 01e4 42F48042 		orr	r2, r2, #16384
 7086 01e8 5A60     		str	r2, [r3, #4]
 7087 01ea 07E0     		b	.L343
 7088              	.L355:
3355:Drivers/STM32F7xx_HAL_Driver/Src/stm32f7xx_hal_i2c.c ****         }
3356:Drivers/STM32F7xx_HAL_Driver/Src/stm32f7xx_hal_i2c.c ****         else
3357:Drivers/STM32F7xx_HAL_Driver/Src/stm32f7xx_hal_i2c.c ****         {
3358:Drivers/STM32F7xx_HAL_Driver/Src/stm32f7xx_hal_i2c.c ****           /* Call I2C Master Sequential complete process */
3359:Drivers/STM32F7xx_HAL_Driver/Src/stm32f7xx_hal_i2c.c ****           I2C_ITMasterSequentialCplt(hi2c);
 7089              		.loc 1 3359 0
 7090 01ec F868     		ldr	r0, [r7, #12]
 7091 01ee FFF7FEFF 		bl	I2C_ITMasterSequentialCplt
 7092 01f2 03E0     		b	.L343
 7093              	.L353:
ARM GAS  /var/folders/n8/cvzdcwlj0vl4g_wtyz1ffy300000gn/T//ccBPNZvy.s 			page 183


3360:Drivers/STM32F7xx_HAL_Driver/Src/stm32f7xx_hal_i2c.c ****         }
3361:Drivers/STM32F7xx_HAL_Driver/Src/stm32f7xx_hal_i2c.c ****       }
3362:Drivers/STM32F7xx_HAL_Driver/Src/stm32f7xx_hal_i2c.c ****     }
3363:Drivers/STM32F7xx_HAL_Driver/Src/stm32f7xx_hal_i2c.c ****     else
3364:Drivers/STM32F7xx_HAL_Driver/Src/stm32f7xx_hal_i2c.c ****     {
3365:Drivers/STM32F7xx_HAL_Driver/Src/stm32f7xx_hal_i2c.c ****       /* Wrong size Status regarding TC flag event */
3366:Drivers/STM32F7xx_HAL_Driver/Src/stm32f7xx_hal_i2c.c ****       /* Call the corresponding callback to inform upper layer of End of Transfer */
3367:Drivers/STM32F7xx_HAL_Driver/Src/stm32f7xx_hal_i2c.c ****       I2C_ITError(hi2c, HAL_I2C_ERROR_SIZE);
 7094              		.loc 1 3367 0
 7095 01f4 4021     		movs	r1, #64
 7096 01f6 F868     		ldr	r0, [r7, #12]
 7097 01f8 FFF7FEFF 		bl	I2C_ITError
 7098              	.L343:
3368:Drivers/STM32F7xx_HAL_Driver/Src/stm32f7xx_hal_i2c.c ****     }
3369:Drivers/STM32F7xx_HAL_Driver/Src/stm32f7xx_hal_i2c.c ****   }
3370:Drivers/STM32F7xx_HAL_Driver/Src/stm32f7xx_hal_i2c.c **** 
3371:Drivers/STM32F7xx_HAL_Driver/Src/stm32f7xx_hal_i2c.c ****   if (((ITFlags & I2C_FLAG_STOPF) != RESET) && ((ITSources & I2C_IT_STOPI) != RESET))
 7099              		.loc 1 3371 0
 7100 01fc BB68     		ldr	r3, [r7, #8]
 7101 01fe 03F02003 		and	r3, r3, #32
 7102 0202 002B     		cmp	r3, #0
 7103 0204 08D0     		beq	.L356
 7104              		.loc 1 3371 0 is_stmt 0 discriminator 1
 7105 0206 7B68     		ldr	r3, [r7, #4]
 7106 0208 03F02003 		and	r3, r3, #32
 7107 020c 002B     		cmp	r3, #0
 7108 020e 03D0     		beq	.L356
3372:Drivers/STM32F7xx_HAL_Driver/Src/stm32f7xx_hal_i2c.c ****   {
3373:Drivers/STM32F7xx_HAL_Driver/Src/stm32f7xx_hal_i2c.c ****     /* Call I2C Master complete process */
3374:Drivers/STM32F7xx_HAL_Driver/Src/stm32f7xx_hal_i2c.c ****     I2C_ITMasterCplt(hi2c, ITFlags);
 7109              		.loc 1 3374 0 is_stmt 1
 7110 0210 B968     		ldr	r1, [r7, #8]
 7111 0212 F868     		ldr	r0, [r7, #12]
 7112 0214 FFF7FEFF 		bl	I2C_ITMasterCplt
 7113              	.L356:
3375:Drivers/STM32F7xx_HAL_Driver/Src/stm32f7xx_hal_i2c.c ****   }
3376:Drivers/STM32F7xx_HAL_Driver/Src/stm32f7xx_hal_i2c.c **** 
3377:Drivers/STM32F7xx_HAL_Driver/Src/stm32f7xx_hal_i2c.c ****   /* Process Unlocked */
3378:Drivers/STM32F7xx_HAL_Driver/Src/stm32f7xx_hal_i2c.c ****   __HAL_UNLOCK(hi2c);
 7114              		.loc 1 3378 0
 7115 0218 FB68     		ldr	r3, [r7, #12]
 7116 021a 0022     		movs	r2, #0
 7117 021c 83F84020 		strb	r2, [r3, #64]
3379:Drivers/STM32F7xx_HAL_Driver/Src/stm32f7xx_hal_i2c.c **** 
3380:Drivers/STM32F7xx_HAL_Driver/Src/stm32f7xx_hal_i2c.c ****   return HAL_OK;
 7118              		.loc 1 3380 0
 7119 0220 0023     		movs	r3, #0
 7120              	.L341:
3381:Drivers/STM32F7xx_HAL_Driver/Src/stm32f7xx_hal_i2c.c **** }
 7121              		.loc 1 3381 0
 7122 0222 1846     		mov	r0, r3
 7123 0224 1837     		adds	r7, r7, #24
 7124              	.LCFI243:
 7125              		.cfi_def_cfa_offset 8
 7126 0226 BD46     		mov	sp, r7
 7127              	.LCFI244:
 7128              		.cfi_def_cfa_register 13
ARM GAS  /var/folders/n8/cvzdcwlj0vl4g_wtyz1ffy300000gn/T//ccBPNZvy.s 			page 184


 7129              		@ sp needed
 7130 0228 80BD     		pop	{r7, pc}
 7131              		.cfi_endproc
 7132              	.LFE183:
 7134              		.section	.text.I2C_Slave_ISR_IT,"ax",%progbits
 7135              		.align	1
 7136              		.syntax unified
 7137              		.thumb
 7138              		.thumb_func
 7139              		.fpu fpv5-sp-d16
 7141              	I2C_Slave_ISR_IT:
 7142              	.LFB184:
3382:Drivers/STM32F7xx_HAL_Driver/Src/stm32f7xx_hal_i2c.c **** 
3383:Drivers/STM32F7xx_HAL_Driver/Src/stm32f7xx_hal_i2c.c **** /**
3384:Drivers/STM32F7xx_HAL_Driver/Src/stm32f7xx_hal_i2c.c ****   * @brief  Interrupt Sub-Routine which handle the Interrupt Flags Slave Mode with Interrupt.
3385:Drivers/STM32F7xx_HAL_Driver/Src/stm32f7xx_hal_i2c.c ****   * @param  hi2c Pointer to a I2C_HandleTypeDef structure that contains
3386:Drivers/STM32F7xx_HAL_Driver/Src/stm32f7xx_hal_i2c.c ****   *                the configuration information for the specified I2C.
3387:Drivers/STM32F7xx_HAL_Driver/Src/stm32f7xx_hal_i2c.c ****   * @param  ITFlags Interrupt flags to handle.
3388:Drivers/STM32F7xx_HAL_Driver/Src/stm32f7xx_hal_i2c.c ****   * @param  ITSources Interrupt sources enabled.
3389:Drivers/STM32F7xx_HAL_Driver/Src/stm32f7xx_hal_i2c.c ****   * @retval HAL status
3390:Drivers/STM32F7xx_HAL_Driver/Src/stm32f7xx_hal_i2c.c ****   */
3391:Drivers/STM32F7xx_HAL_Driver/Src/stm32f7xx_hal_i2c.c **** static HAL_StatusTypeDef I2C_Slave_ISR_IT(struct __I2C_HandleTypeDef *hi2c, uint32_t ITFlags, uint3
3392:Drivers/STM32F7xx_HAL_Driver/Src/stm32f7xx_hal_i2c.c **** {
 7143              		.loc 1 3392 0
 7144              		.cfi_startproc
 7145              		@ args = 0, pretend = 0, frame = 16
 7146              		@ frame_needed = 1, uses_anonymous_args = 0
 7147 0000 80B5     		push	{r7, lr}
 7148              	.LCFI245:
 7149              		.cfi_def_cfa_offset 8
 7150              		.cfi_offset 7, -8
 7151              		.cfi_offset 14, -4
 7152 0002 84B0     		sub	sp, sp, #16
 7153              	.LCFI246:
 7154              		.cfi_def_cfa_offset 24
 7155 0004 00AF     		add	r7, sp, #0
 7156              	.LCFI247:
 7157              		.cfi_def_cfa_register 7
 7158 0006 F860     		str	r0, [r7, #12]
 7159 0008 B960     		str	r1, [r7, #8]
 7160 000a 7A60     		str	r2, [r7, #4]
3393:Drivers/STM32F7xx_HAL_Driver/Src/stm32f7xx_hal_i2c.c ****   /* Process locked */
3394:Drivers/STM32F7xx_HAL_Driver/Src/stm32f7xx_hal_i2c.c ****   __HAL_LOCK(hi2c);
 7161              		.loc 1 3394 0
 7162 000c FB68     		ldr	r3, [r7, #12]
 7163 000e 93F84030 		ldrb	r3, [r3, #64]	@ zero_extendqisi2
 7164 0012 012B     		cmp	r3, #1
 7165 0014 01D1     		bne	.L358
 7166              		.loc 1 3394 0 is_stmt 0 discriminator 1
 7167 0016 0223     		movs	r3, #2
 7168 0018 D8E0     		b	.L359
 7169              	.L358:
 7170              		.loc 1 3394 0 discriminator 2
 7171 001a FB68     		ldr	r3, [r7, #12]
 7172 001c 0122     		movs	r2, #1
 7173 001e 83F84020 		strb	r2, [r3, #64]
3395:Drivers/STM32F7xx_HAL_Driver/Src/stm32f7xx_hal_i2c.c **** 
ARM GAS  /var/folders/n8/cvzdcwlj0vl4g_wtyz1ffy300000gn/T//ccBPNZvy.s 			page 185


3396:Drivers/STM32F7xx_HAL_Driver/Src/stm32f7xx_hal_i2c.c ****   if (((ITFlags & I2C_FLAG_AF) != RESET) && ((ITSources & I2C_IT_NACKI) != RESET))
 7174              		.loc 1 3396 0 is_stmt 1 discriminator 2
 7175 0022 BB68     		ldr	r3, [r7, #8]
 7176 0024 03F01003 		and	r3, r3, #16
 7177 0028 002B     		cmp	r3, #0
 7178 002a 45D0     		beq	.L360
 7179              		.loc 1 3396 0 is_stmt 0 discriminator 1
 7180 002c 7B68     		ldr	r3, [r7, #4]
 7181 002e 03F01003 		and	r3, r3, #16
 7182 0032 002B     		cmp	r3, #0
 7183 0034 40D0     		beq	.L360
3397:Drivers/STM32F7xx_HAL_Driver/Src/stm32f7xx_hal_i2c.c ****   {
3398:Drivers/STM32F7xx_HAL_Driver/Src/stm32f7xx_hal_i2c.c ****     /* Check that I2C transfer finished */
3399:Drivers/STM32F7xx_HAL_Driver/Src/stm32f7xx_hal_i2c.c ****     /* if yes, normal use case, a NACK is sent by the MASTER when Transfer is finished */
3400:Drivers/STM32F7xx_HAL_Driver/Src/stm32f7xx_hal_i2c.c ****     /* Mean XferCount == 0*/
3401:Drivers/STM32F7xx_HAL_Driver/Src/stm32f7xx_hal_i2c.c ****     /* So clear Flag NACKF only */
3402:Drivers/STM32F7xx_HAL_Driver/Src/stm32f7xx_hal_i2c.c ****     if (hi2c->XferCount == 0U)
 7184              		.loc 1 3402 0 is_stmt 1
 7185 0036 FB68     		ldr	r3, [r7, #12]
 7186 0038 5B8D     		ldrh	r3, [r3, #42]	@ movhi
 7187 003a 9BB2     		uxth	r3, r3
 7188 003c 002B     		cmp	r3, #0
 7189 003e 2FD1     		bne	.L361
3403:Drivers/STM32F7xx_HAL_Driver/Src/stm32f7xx_hal_i2c.c ****     {
3404:Drivers/STM32F7xx_HAL_Driver/Src/stm32f7xx_hal_i2c.c ****       if (((hi2c->XferOptions == I2C_FIRST_AND_LAST_FRAME) || (hi2c->XferOptions == I2C_LAST_FRAME)
 7190              		.loc 1 3404 0
 7191 0040 FB68     		ldr	r3, [r7, #12]
 7192 0042 DB6A     		ldr	r3, [r3, #44]
 7193 0044 B3F1007F 		cmp	r3, #33554432
 7194 0048 04D0     		beq	.L362
 7195              		.loc 1 3404 0 is_stmt 0 discriminator 2
 7196 004a FB68     		ldr	r3, [r7, #12]
 7197 004c DB6A     		ldr	r3, [r3, #44]
 7198 004e B3F1007F 		cmp	r3, #33554432
 7199 0052 0AD1     		bne	.L363
 7200              	.L362:
3405:Drivers/STM32F7xx_HAL_Driver/Src/stm32f7xx_hal_i2c.c ****           (hi2c->State == HAL_I2C_STATE_LISTEN))
 7201              		.loc 1 3405 0 is_stmt 1 discriminator 3
 7202 0054 FB68     		ldr	r3, [r7, #12]
 7203 0056 93F84130 		ldrb	r3, [r3, #65]
 7204 005a DBB2     		uxtb	r3, r3
3404:Drivers/STM32F7xx_HAL_Driver/Src/stm32f7xx_hal_i2c.c ****           (hi2c->State == HAL_I2C_STATE_LISTEN))
 7205              		.loc 1 3404 0 discriminator 3
 7206 005c 282B     		cmp	r3, #40
 7207 005e 04D1     		bne	.L363
3406:Drivers/STM32F7xx_HAL_Driver/Src/stm32f7xx_hal_i2c.c ****       {
3407:Drivers/STM32F7xx_HAL_Driver/Src/stm32f7xx_hal_i2c.c ****         /* Call I2C Listen complete process */
3408:Drivers/STM32F7xx_HAL_Driver/Src/stm32f7xx_hal_i2c.c ****         I2C_ITListenCplt(hi2c, ITFlags);
 7208              		.loc 1 3408 0
 7209 0060 B968     		ldr	r1, [r7, #8]
 7210 0062 F868     		ldr	r0, [r7, #12]
 7211 0064 FFF7FEFF 		bl	I2C_ITListenCplt
 7212 0068 25E0     		b	.L366
 7213              	.L363:
3409:Drivers/STM32F7xx_HAL_Driver/Src/stm32f7xx_hal_i2c.c ****       }
3410:Drivers/STM32F7xx_HAL_Driver/Src/stm32f7xx_hal_i2c.c ****       else if ((hi2c->XferOptions != I2C_NO_OPTION_FRAME) && (hi2c->State == HAL_I2C_STATE_BUSY_TX_
 7214              		.loc 1 3410 0
ARM GAS  /var/folders/n8/cvzdcwlj0vl4g_wtyz1ffy300000gn/T//ccBPNZvy.s 			page 186


 7215 006a FB68     		ldr	r3, [r7, #12]
 7216 006c DB6A     		ldr	r3, [r3, #44]
 7217 006e 13F5803F 		cmn	r3, #65536
 7218 0072 10D0     		beq	.L365
 7219              		.loc 1 3410 0 is_stmt 0 discriminator 1
 7220 0074 FB68     		ldr	r3, [r7, #12]
 7221 0076 93F84130 		ldrb	r3, [r3, #65]
 7222 007a DBB2     		uxtb	r3, r3
 7223 007c 292B     		cmp	r3, #41
 7224 007e 0AD1     		bne	.L365
3411:Drivers/STM32F7xx_HAL_Driver/Src/stm32f7xx_hal_i2c.c ****       {
3412:Drivers/STM32F7xx_HAL_Driver/Src/stm32f7xx_hal_i2c.c ****         /* Clear NACK Flag */
3413:Drivers/STM32F7xx_HAL_Driver/Src/stm32f7xx_hal_i2c.c ****         __HAL_I2C_CLEAR_FLAG(hi2c, I2C_FLAG_AF);
 7225              		.loc 1 3413 0 is_stmt 1
 7226 0080 FB68     		ldr	r3, [r7, #12]
 7227 0082 1B68     		ldr	r3, [r3]
 7228 0084 1022     		movs	r2, #16
 7229 0086 DA61     		str	r2, [r3, #28]
3414:Drivers/STM32F7xx_HAL_Driver/Src/stm32f7xx_hal_i2c.c **** 
3415:Drivers/STM32F7xx_HAL_Driver/Src/stm32f7xx_hal_i2c.c ****         /* Flush TX register */
3416:Drivers/STM32F7xx_HAL_Driver/Src/stm32f7xx_hal_i2c.c ****         I2C_Flush_TXDR(hi2c);
 7230              		.loc 1 3416 0
 7231 0088 F868     		ldr	r0, [r7, #12]
 7232 008a FFF7FEFF 		bl	I2C_Flush_TXDR
3417:Drivers/STM32F7xx_HAL_Driver/Src/stm32f7xx_hal_i2c.c **** 
3418:Drivers/STM32F7xx_HAL_Driver/Src/stm32f7xx_hal_i2c.c ****         /* Last Byte is Transmitted */
3419:Drivers/STM32F7xx_HAL_Driver/Src/stm32f7xx_hal_i2c.c ****         /* Call I2C Slave Sequential complete process */
3420:Drivers/STM32F7xx_HAL_Driver/Src/stm32f7xx_hal_i2c.c ****         I2C_ITSlaveSequentialCplt(hi2c);
 7233              		.loc 1 3420 0
 7234 008e F868     		ldr	r0, [r7, #12]
 7235 0090 FFF7FEFF 		bl	I2C_ITSlaveSequentialCplt
 7236 0094 0FE0     		b	.L366
 7237              	.L365:
3421:Drivers/STM32F7xx_HAL_Driver/Src/stm32f7xx_hal_i2c.c ****       }
3422:Drivers/STM32F7xx_HAL_Driver/Src/stm32f7xx_hal_i2c.c ****       else
3423:Drivers/STM32F7xx_HAL_Driver/Src/stm32f7xx_hal_i2c.c ****       {
3424:Drivers/STM32F7xx_HAL_Driver/Src/stm32f7xx_hal_i2c.c ****         /* Clear NACK Flag */
3425:Drivers/STM32F7xx_HAL_Driver/Src/stm32f7xx_hal_i2c.c ****         __HAL_I2C_CLEAR_FLAG(hi2c, I2C_FLAG_AF);
 7238              		.loc 1 3425 0
 7239 0096 FB68     		ldr	r3, [r7, #12]
 7240 0098 1B68     		ldr	r3, [r3]
 7241 009a 1022     		movs	r2, #16
 7242 009c DA61     		str	r2, [r3, #28]
3402:Drivers/STM32F7xx_HAL_Driver/Src/stm32f7xx_hal_i2c.c ****     {
 7243              		.loc 1 3402 0
 7244 009e 82E0     		b	.L367
 7245              	.L361:
3426:Drivers/STM32F7xx_HAL_Driver/Src/stm32f7xx_hal_i2c.c ****       }
3427:Drivers/STM32F7xx_HAL_Driver/Src/stm32f7xx_hal_i2c.c ****     }
3428:Drivers/STM32F7xx_HAL_Driver/Src/stm32f7xx_hal_i2c.c ****     else
3429:Drivers/STM32F7xx_HAL_Driver/Src/stm32f7xx_hal_i2c.c ****     {
3430:Drivers/STM32F7xx_HAL_Driver/Src/stm32f7xx_hal_i2c.c ****       /* if no, error use case, a Non-Acknowledge of last Data is generated by the MASTER*/
3431:Drivers/STM32F7xx_HAL_Driver/Src/stm32f7xx_hal_i2c.c ****       /* Clear NACK Flag */
3432:Drivers/STM32F7xx_HAL_Driver/Src/stm32f7xx_hal_i2c.c ****       __HAL_I2C_CLEAR_FLAG(hi2c, I2C_FLAG_AF);
 7246              		.loc 1 3432 0
 7247 00a0 FB68     		ldr	r3, [r7, #12]
 7248 00a2 1B68     		ldr	r3, [r3]
ARM GAS  /var/folders/n8/cvzdcwlj0vl4g_wtyz1ffy300000gn/T//ccBPNZvy.s 			page 187


 7249 00a4 1022     		movs	r2, #16
 7250 00a6 DA61     		str	r2, [r3, #28]
3433:Drivers/STM32F7xx_HAL_Driver/Src/stm32f7xx_hal_i2c.c **** 
3434:Drivers/STM32F7xx_HAL_Driver/Src/stm32f7xx_hal_i2c.c ****       /* Set ErrorCode corresponding to a Non-Acknowledge */
3435:Drivers/STM32F7xx_HAL_Driver/Src/stm32f7xx_hal_i2c.c ****       hi2c->ErrorCode |= HAL_I2C_ERROR_AF;
 7251              		.loc 1 3435 0
 7252 00a8 FB68     		ldr	r3, [r7, #12]
 7253 00aa 5B6C     		ldr	r3, [r3, #68]
 7254 00ac 43F00402 		orr	r2, r3, #4
 7255 00b0 FB68     		ldr	r3, [r7, #12]
 7256 00b2 5A64     		str	r2, [r3, #68]
3402:Drivers/STM32F7xx_HAL_Driver/Src/stm32f7xx_hal_i2c.c ****     {
 7257              		.loc 1 3402 0
 7258 00b4 77E0     		b	.L367
 7259              	.L366:
3402:Drivers/STM32F7xx_HAL_Driver/Src/stm32f7xx_hal_i2c.c ****     {
 7260              		.loc 1 3402 0 is_stmt 0 discriminator 1
 7261 00b6 76E0     		b	.L367
 7262              	.L360:
3436:Drivers/STM32F7xx_HAL_Driver/Src/stm32f7xx_hal_i2c.c ****     }
3437:Drivers/STM32F7xx_HAL_Driver/Src/stm32f7xx_hal_i2c.c ****   }
3438:Drivers/STM32F7xx_HAL_Driver/Src/stm32f7xx_hal_i2c.c ****   else if (((ITFlags & I2C_FLAG_RXNE) != RESET) && ((ITSources & I2C_IT_RXI) != RESET))
 7263              		.loc 1 3438 0 is_stmt 1
 7264 00b8 BB68     		ldr	r3, [r7, #8]
 7265 00ba 03F00403 		and	r3, r3, #4
 7266 00be 002B     		cmp	r3, #0
 7267 00c0 2ED0     		beq	.L368
 7268              		.loc 1 3438 0 is_stmt 0 discriminator 1
 7269 00c2 7B68     		ldr	r3, [r7, #4]
 7270 00c4 03F00403 		and	r3, r3, #4
 7271 00c8 002B     		cmp	r3, #0
 7272 00ca 29D0     		beq	.L368
3439:Drivers/STM32F7xx_HAL_Driver/Src/stm32f7xx_hal_i2c.c ****   {
3440:Drivers/STM32F7xx_HAL_Driver/Src/stm32f7xx_hal_i2c.c ****     if (hi2c->XferCount > 0U)
 7273              		.loc 1 3440 0 is_stmt 1
 7274 00cc FB68     		ldr	r3, [r7, #12]
 7275 00ce 5B8D     		ldrh	r3, [r3, #42]	@ movhi
 7276 00d0 9BB2     		uxth	r3, r3
 7277 00d2 002B     		cmp	r3, #0
 7278 00d4 16D0     		beq	.L369
3441:Drivers/STM32F7xx_HAL_Driver/Src/stm32f7xx_hal_i2c.c ****     {
3442:Drivers/STM32F7xx_HAL_Driver/Src/stm32f7xx_hal_i2c.c ****       /* Read data from RXDR */
3443:Drivers/STM32F7xx_HAL_Driver/Src/stm32f7xx_hal_i2c.c ****       (*hi2c->pBuffPtr++) = hi2c->Instance->RXDR;
 7279              		.loc 1 3443 0
 7280 00d6 FB68     		ldr	r3, [r7, #12]
 7281 00d8 1B68     		ldr	r3, [r3]
 7282 00da 586A     		ldr	r0, [r3, #36]
 7283 00dc FB68     		ldr	r3, [r7, #12]
 7284 00de 5B6A     		ldr	r3, [r3, #36]
 7285 00e0 591C     		adds	r1, r3, #1
 7286 00e2 FA68     		ldr	r2, [r7, #12]
 7287 00e4 5162     		str	r1, [r2, #36]
 7288 00e6 C2B2     		uxtb	r2, r0
 7289 00e8 1A70     		strb	r2, [r3]
3444:Drivers/STM32F7xx_HAL_Driver/Src/stm32f7xx_hal_i2c.c ****       hi2c->XferSize--;
 7290              		.loc 1 3444 0
 7291 00ea FB68     		ldr	r3, [r7, #12]
ARM GAS  /var/folders/n8/cvzdcwlj0vl4g_wtyz1ffy300000gn/T//ccBPNZvy.s 			page 188


 7292 00ec 1B8D     		ldrh	r3, [r3, #40]
 7293 00ee 013B     		subs	r3, r3, #1
 7294 00f0 9AB2     		uxth	r2, r3
 7295 00f2 FB68     		ldr	r3, [r7, #12]
 7296 00f4 1A85     		strh	r2, [r3, #40]	@ movhi
3445:Drivers/STM32F7xx_HAL_Driver/Src/stm32f7xx_hal_i2c.c ****       hi2c->XferCount--;
 7297              		.loc 1 3445 0
 7298 00f6 FB68     		ldr	r3, [r7, #12]
 7299 00f8 5B8D     		ldrh	r3, [r3, #42]	@ movhi
 7300 00fa 9BB2     		uxth	r3, r3
 7301 00fc 013B     		subs	r3, r3, #1
 7302 00fe 9AB2     		uxth	r2, r3
 7303 0100 FB68     		ldr	r3, [r7, #12]
 7304 0102 5A85     		strh	r2, [r3, #42]	@ movhi
 7305              	.L369:
3446:Drivers/STM32F7xx_HAL_Driver/Src/stm32f7xx_hal_i2c.c ****     }
3447:Drivers/STM32F7xx_HAL_Driver/Src/stm32f7xx_hal_i2c.c **** 
3448:Drivers/STM32F7xx_HAL_Driver/Src/stm32f7xx_hal_i2c.c ****     if ((hi2c->XferCount == 0U) && \
 7306              		.loc 1 3448 0
 7307 0104 FB68     		ldr	r3, [r7, #12]
 7308 0106 5B8D     		ldrh	r3, [r3, #42]	@ movhi
 7309 0108 9BB2     		uxth	r3, r3
 7310 010a 002B     		cmp	r3, #0
 7311 010c 4AD1     		bne	.L375
3449:Drivers/STM32F7xx_HAL_Driver/Src/stm32f7xx_hal_i2c.c ****         (hi2c->XferOptions != I2C_NO_OPTION_FRAME))
 7312              		.loc 1 3449 0 discriminator 1
 7313 010e FB68     		ldr	r3, [r7, #12]
 7314 0110 DB6A     		ldr	r3, [r3, #44]
3448:Drivers/STM32F7xx_HAL_Driver/Src/stm32f7xx_hal_i2c.c ****         (hi2c->XferOptions != I2C_NO_OPTION_FRAME))
 7315              		.loc 1 3448 0 discriminator 1
 7316 0112 13F5803F 		cmn	r3, #65536
 7317 0116 45D0     		beq	.L375
3450:Drivers/STM32F7xx_HAL_Driver/Src/stm32f7xx_hal_i2c.c ****     {
3451:Drivers/STM32F7xx_HAL_Driver/Src/stm32f7xx_hal_i2c.c ****       /* Call I2C Slave Sequential complete process */
3452:Drivers/STM32F7xx_HAL_Driver/Src/stm32f7xx_hal_i2c.c ****       I2C_ITSlaveSequentialCplt(hi2c);
 7318              		.loc 1 3452 0
 7319 0118 F868     		ldr	r0, [r7, #12]
 7320 011a FFF7FEFF 		bl	I2C_ITSlaveSequentialCplt
3448:Drivers/STM32F7xx_HAL_Driver/Src/stm32f7xx_hal_i2c.c ****         (hi2c->XferOptions != I2C_NO_OPTION_FRAME))
 7321              		.loc 1 3448 0
 7322 011e 41E0     		b	.L375
 7323              	.L368:
3453:Drivers/STM32F7xx_HAL_Driver/Src/stm32f7xx_hal_i2c.c ****     }
3454:Drivers/STM32F7xx_HAL_Driver/Src/stm32f7xx_hal_i2c.c ****   }
3455:Drivers/STM32F7xx_HAL_Driver/Src/stm32f7xx_hal_i2c.c ****   else if (((ITFlags & I2C_FLAG_ADDR) != RESET) && ((ITSources & I2C_IT_ADDRI) != RESET))
 7324              		.loc 1 3455 0
 7325 0120 BB68     		ldr	r3, [r7, #8]
 7326 0122 03F00803 		and	r3, r3, #8
 7327 0126 002B     		cmp	r3, #0
 7328 0128 09D0     		beq	.L371
 7329              		.loc 1 3455 0 is_stmt 0 discriminator 1
 7330 012a 7B68     		ldr	r3, [r7, #4]
 7331 012c 03F00803 		and	r3, r3, #8
 7332 0130 002B     		cmp	r3, #0
 7333 0132 04D0     		beq	.L371
3456:Drivers/STM32F7xx_HAL_Driver/Src/stm32f7xx_hal_i2c.c ****   {
3457:Drivers/STM32F7xx_HAL_Driver/Src/stm32f7xx_hal_i2c.c ****     I2C_ITAddrCplt(hi2c, ITFlags);
ARM GAS  /var/folders/n8/cvzdcwlj0vl4g_wtyz1ffy300000gn/T//ccBPNZvy.s 			page 189


 7334              		.loc 1 3457 0 is_stmt 1
 7335 0134 B968     		ldr	r1, [r7, #8]
 7336 0136 F868     		ldr	r0, [r7, #12]
 7337 0138 FFF7FEFF 		bl	I2C_ITAddrCplt
 7338 013c 33E0     		b	.L367
 7339              	.L371:
3458:Drivers/STM32F7xx_HAL_Driver/Src/stm32f7xx_hal_i2c.c ****   }
3459:Drivers/STM32F7xx_HAL_Driver/Src/stm32f7xx_hal_i2c.c ****   else if (((ITFlags & I2C_FLAG_TXIS) != RESET) && ((ITSources & I2C_IT_TXI) != RESET))
 7340              		.loc 1 3459 0
 7341 013e BB68     		ldr	r3, [r7, #8]
 7342 0140 03F00203 		and	r3, r3, #2
 7343 0144 002B     		cmp	r3, #0
 7344 0146 2ED0     		beq	.L367
 7345              		.loc 1 3459 0 is_stmt 0 discriminator 1
 7346 0148 7B68     		ldr	r3, [r7, #4]
 7347 014a 03F00203 		and	r3, r3, #2
 7348 014e 002B     		cmp	r3, #0
 7349 0150 29D0     		beq	.L367
3460:Drivers/STM32F7xx_HAL_Driver/Src/stm32f7xx_hal_i2c.c ****   {
3461:Drivers/STM32F7xx_HAL_Driver/Src/stm32f7xx_hal_i2c.c ****     /* Write data to TXDR only if XferCount not reach "0" */
3462:Drivers/STM32F7xx_HAL_Driver/Src/stm32f7xx_hal_i2c.c ****     /* A TXIS flag can be set, during STOP treatment      */
3463:Drivers/STM32F7xx_HAL_Driver/Src/stm32f7xx_hal_i2c.c ****     /* Check if all Datas have already been sent */
3464:Drivers/STM32F7xx_HAL_Driver/Src/stm32f7xx_hal_i2c.c ****     /* If it is the case, this last write in TXDR is not sent, correspond to a dummy TXIS event */
3465:Drivers/STM32F7xx_HAL_Driver/Src/stm32f7xx_hal_i2c.c ****     if (hi2c->XferCount > 0U)
 7350              		.loc 1 3465 0 is_stmt 1
 7351 0152 FB68     		ldr	r3, [r7, #12]
 7352 0154 5B8D     		ldrh	r3, [r3, #42]	@ movhi
 7353 0156 9BB2     		uxth	r3, r3
 7354 0158 002B     		cmp	r3, #0
 7355 015a 16D0     		beq	.L372
3466:Drivers/STM32F7xx_HAL_Driver/Src/stm32f7xx_hal_i2c.c ****     {
3467:Drivers/STM32F7xx_HAL_Driver/Src/stm32f7xx_hal_i2c.c ****       /* Write data to TXDR */
3468:Drivers/STM32F7xx_HAL_Driver/Src/stm32f7xx_hal_i2c.c ****       hi2c->Instance->TXDR = (*hi2c->pBuffPtr++);
 7356              		.loc 1 3468 0
 7357 015c FB68     		ldr	r3, [r7, #12]
 7358 015e 5B6A     		ldr	r3, [r3, #36]
 7359 0160 591C     		adds	r1, r3, #1
 7360 0162 FA68     		ldr	r2, [r7, #12]
 7361 0164 5162     		str	r1, [r2, #36]
 7362 0166 1A78     		ldrb	r2, [r3]	@ zero_extendqisi2
 7363 0168 FB68     		ldr	r3, [r7, #12]
 7364 016a 1B68     		ldr	r3, [r3]
 7365 016c 9A62     		str	r2, [r3, #40]
3469:Drivers/STM32F7xx_HAL_Driver/Src/stm32f7xx_hal_i2c.c ****       hi2c->XferCount--;
 7366              		.loc 1 3469 0
 7367 016e FB68     		ldr	r3, [r7, #12]
 7368 0170 5B8D     		ldrh	r3, [r3, #42]	@ movhi
 7369 0172 9BB2     		uxth	r3, r3
 7370 0174 013B     		subs	r3, r3, #1
 7371 0176 9AB2     		uxth	r2, r3
 7372 0178 FB68     		ldr	r3, [r7, #12]
 7373 017a 5A85     		strh	r2, [r3, #42]	@ movhi
3470:Drivers/STM32F7xx_HAL_Driver/Src/stm32f7xx_hal_i2c.c ****       hi2c->XferSize--;
 7374              		.loc 1 3470 0
 7375 017c FB68     		ldr	r3, [r7, #12]
 7376 017e 1B8D     		ldrh	r3, [r3, #40]
 7377 0180 013B     		subs	r3, r3, #1
ARM GAS  /var/folders/n8/cvzdcwlj0vl4g_wtyz1ffy300000gn/T//ccBPNZvy.s 			page 190


 7378 0182 9AB2     		uxth	r2, r3
 7379 0184 FB68     		ldr	r3, [r7, #12]
 7380 0186 1A85     		strh	r2, [r3, #40]	@ movhi
 7381 0188 0DE0     		b	.L367
 7382              	.L372:
3471:Drivers/STM32F7xx_HAL_Driver/Src/stm32f7xx_hal_i2c.c ****     }
3472:Drivers/STM32F7xx_HAL_Driver/Src/stm32f7xx_hal_i2c.c ****     else
3473:Drivers/STM32F7xx_HAL_Driver/Src/stm32f7xx_hal_i2c.c ****     {
3474:Drivers/STM32F7xx_HAL_Driver/Src/stm32f7xx_hal_i2c.c ****       if ((hi2c->XferOptions == I2C_NEXT_FRAME) || (hi2c->XferOptions == I2C_FIRST_FRAME))
 7383              		.loc 1 3474 0
 7384 018a FB68     		ldr	r3, [r7, #12]
 7385 018c DB6A     		ldr	r3, [r3, #44]
 7386 018e B3F1807F 		cmp	r3, #16777216
 7387 0192 03D0     		beq	.L373
 7388              		.loc 1 3474 0 is_stmt 0 discriminator 1
 7389 0194 FB68     		ldr	r3, [r7, #12]
 7390 0196 DB6A     		ldr	r3, [r3, #44]
 7391 0198 002B     		cmp	r3, #0
 7392 019a 04D1     		bne	.L367
 7393              	.L373:
3475:Drivers/STM32F7xx_HAL_Driver/Src/stm32f7xx_hal_i2c.c ****       {
3476:Drivers/STM32F7xx_HAL_Driver/Src/stm32f7xx_hal_i2c.c ****         /* Last Byte is Transmitted */
3477:Drivers/STM32F7xx_HAL_Driver/Src/stm32f7xx_hal_i2c.c ****         /* Call I2C Slave Sequential complete process */
3478:Drivers/STM32F7xx_HAL_Driver/Src/stm32f7xx_hal_i2c.c ****         I2C_ITSlaveSequentialCplt(hi2c);
 7394              		.loc 1 3478 0 is_stmt 1
 7395 019c F868     		ldr	r0, [r7, #12]
 7396 019e FFF7FEFF 		bl	I2C_ITSlaveSequentialCplt
 7397 01a2 00E0     		b	.L367
 7398              	.L375:
3448:Drivers/STM32F7xx_HAL_Driver/Src/stm32f7xx_hal_i2c.c ****         (hi2c->XferOptions != I2C_NO_OPTION_FRAME))
 7399              		.loc 1 3448 0
 7400 01a4 00BF     		nop
 7401              	.L367:
3479:Drivers/STM32F7xx_HAL_Driver/Src/stm32f7xx_hal_i2c.c ****       }
3480:Drivers/STM32F7xx_HAL_Driver/Src/stm32f7xx_hal_i2c.c ****     }
3481:Drivers/STM32F7xx_HAL_Driver/Src/stm32f7xx_hal_i2c.c ****   }
3482:Drivers/STM32F7xx_HAL_Driver/Src/stm32f7xx_hal_i2c.c **** 
3483:Drivers/STM32F7xx_HAL_Driver/Src/stm32f7xx_hal_i2c.c ****   /* Check if STOPF is set */
3484:Drivers/STM32F7xx_HAL_Driver/Src/stm32f7xx_hal_i2c.c ****   if (((ITFlags & I2C_FLAG_STOPF) != RESET) && ((ITSources & I2C_IT_STOPI) != RESET))
 7402              		.loc 1 3484 0
 7403 01a6 BB68     		ldr	r3, [r7, #8]
 7404 01a8 03F02003 		and	r3, r3, #32
 7405 01ac 002B     		cmp	r3, #0
 7406 01ae 08D0     		beq	.L374
 7407              		.loc 1 3484 0 is_stmt 0 discriminator 1
 7408 01b0 7B68     		ldr	r3, [r7, #4]
 7409 01b2 03F02003 		and	r3, r3, #32
 7410 01b6 002B     		cmp	r3, #0
 7411 01b8 03D0     		beq	.L374
3485:Drivers/STM32F7xx_HAL_Driver/Src/stm32f7xx_hal_i2c.c ****   {
3486:Drivers/STM32F7xx_HAL_Driver/Src/stm32f7xx_hal_i2c.c ****     /* Call I2C Slave complete process */
3487:Drivers/STM32F7xx_HAL_Driver/Src/stm32f7xx_hal_i2c.c ****     I2C_ITSlaveCplt(hi2c, ITFlags);
 7412              		.loc 1 3487 0 is_stmt 1
 7413 01ba B968     		ldr	r1, [r7, #8]
 7414 01bc F868     		ldr	r0, [r7, #12]
 7415 01be FFF7FEFF 		bl	I2C_ITSlaveCplt
 7416              	.L374:
ARM GAS  /var/folders/n8/cvzdcwlj0vl4g_wtyz1ffy300000gn/T//ccBPNZvy.s 			page 191


3488:Drivers/STM32F7xx_HAL_Driver/Src/stm32f7xx_hal_i2c.c ****   }
3489:Drivers/STM32F7xx_HAL_Driver/Src/stm32f7xx_hal_i2c.c **** 
3490:Drivers/STM32F7xx_HAL_Driver/Src/stm32f7xx_hal_i2c.c ****   /* Process Unlocked */
3491:Drivers/STM32F7xx_HAL_Driver/Src/stm32f7xx_hal_i2c.c ****   __HAL_UNLOCK(hi2c);
 7417              		.loc 1 3491 0
 7418 01c2 FB68     		ldr	r3, [r7, #12]
 7419 01c4 0022     		movs	r2, #0
 7420 01c6 83F84020 		strb	r2, [r3, #64]
3492:Drivers/STM32F7xx_HAL_Driver/Src/stm32f7xx_hal_i2c.c **** 
3493:Drivers/STM32F7xx_HAL_Driver/Src/stm32f7xx_hal_i2c.c ****   return HAL_OK;
 7421              		.loc 1 3493 0
 7422 01ca 0023     		movs	r3, #0
 7423              	.L359:
3494:Drivers/STM32F7xx_HAL_Driver/Src/stm32f7xx_hal_i2c.c **** }
 7424              		.loc 1 3494 0
 7425 01cc 1846     		mov	r0, r3
 7426 01ce 1037     		adds	r7, r7, #16
 7427              	.LCFI248:
 7428              		.cfi_def_cfa_offset 8
 7429 01d0 BD46     		mov	sp, r7
 7430              	.LCFI249:
 7431              		.cfi_def_cfa_register 13
 7432              		@ sp needed
 7433 01d2 80BD     		pop	{r7, pc}
 7434              		.cfi_endproc
 7435              	.LFE184:
 7437              		.section	.text.I2C_Master_ISR_DMA,"ax",%progbits
 7438              		.align	1
 7439              		.syntax unified
 7440              		.thumb
 7441              		.thumb_func
 7442              		.fpu fpv5-sp-d16
 7444              	I2C_Master_ISR_DMA:
 7445              	.LFB185:
3495:Drivers/STM32F7xx_HAL_Driver/Src/stm32f7xx_hal_i2c.c **** 
3496:Drivers/STM32F7xx_HAL_Driver/Src/stm32f7xx_hal_i2c.c **** /**
3497:Drivers/STM32F7xx_HAL_Driver/Src/stm32f7xx_hal_i2c.c ****   * @brief  Interrupt Sub-Routine which handle the Interrupt Flags Master Mode with DMA.
3498:Drivers/STM32F7xx_HAL_Driver/Src/stm32f7xx_hal_i2c.c ****   * @param  hi2c Pointer to a I2C_HandleTypeDef structure that contains
3499:Drivers/STM32F7xx_HAL_Driver/Src/stm32f7xx_hal_i2c.c ****   *                the configuration information for the specified I2C.
3500:Drivers/STM32F7xx_HAL_Driver/Src/stm32f7xx_hal_i2c.c ****   * @param  ITFlags Interrupt flags to handle.
3501:Drivers/STM32F7xx_HAL_Driver/Src/stm32f7xx_hal_i2c.c ****   * @param  ITSources Interrupt sources enabled.
3502:Drivers/STM32F7xx_HAL_Driver/Src/stm32f7xx_hal_i2c.c ****   * @retval HAL status
3503:Drivers/STM32F7xx_HAL_Driver/Src/stm32f7xx_hal_i2c.c ****   */
3504:Drivers/STM32F7xx_HAL_Driver/Src/stm32f7xx_hal_i2c.c **** static HAL_StatusTypeDef I2C_Master_ISR_DMA(struct __I2C_HandleTypeDef *hi2c, uint32_t ITFlags, uin
3505:Drivers/STM32F7xx_HAL_Driver/Src/stm32f7xx_hal_i2c.c **** {
 7446              		.loc 1 3505 0
 7447              		.cfi_startproc
 7448              		@ args = 0, pretend = 0, frame = 24
 7449              		@ frame_needed = 1, uses_anonymous_args = 0
 7450 0000 80B5     		push	{r7, lr}
 7451              	.LCFI250:
 7452              		.cfi_def_cfa_offset 8
 7453              		.cfi_offset 7, -8
 7454              		.cfi_offset 14, -4
 7455 0002 88B0     		sub	sp, sp, #32
 7456              	.LCFI251:
 7457              		.cfi_def_cfa_offset 40
ARM GAS  /var/folders/n8/cvzdcwlj0vl4g_wtyz1ffy300000gn/T//ccBPNZvy.s 			page 192


 7458 0004 02AF     		add	r7, sp, #8
 7459              	.LCFI252:
 7460              		.cfi_def_cfa 7, 32
 7461 0006 F860     		str	r0, [r7, #12]
 7462 0008 B960     		str	r1, [r7, #8]
 7463 000a 7A60     		str	r2, [r7, #4]
3506:Drivers/STM32F7xx_HAL_Driver/Src/stm32f7xx_hal_i2c.c ****   uint16_t devaddress = 0U;
 7464              		.loc 1 3506 0
 7465 000c 0023     		movs	r3, #0
 7466 000e 7B82     		strh	r3, [r7, #18]	@ movhi
3507:Drivers/STM32F7xx_HAL_Driver/Src/stm32f7xx_hal_i2c.c ****   uint32_t xfermode = 0U;
 7467              		.loc 1 3507 0
 7468 0010 0023     		movs	r3, #0
 7469 0012 7B61     		str	r3, [r7, #20]
3508:Drivers/STM32F7xx_HAL_Driver/Src/stm32f7xx_hal_i2c.c **** 
3509:Drivers/STM32F7xx_HAL_Driver/Src/stm32f7xx_hal_i2c.c ****   /* Process Locked */
3510:Drivers/STM32F7xx_HAL_Driver/Src/stm32f7xx_hal_i2c.c ****   __HAL_LOCK(hi2c);
 7470              		.loc 1 3510 0
 7471 0014 FB68     		ldr	r3, [r7, #12]
 7472 0016 93F84030 		ldrb	r3, [r3, #64]	@ zero_extendqisi2
 7473 001a 012B     		cmp	r3, #1
 7474 001c 01D1     		bne	.L377
 7475              		.loc 1 3510 0 is_stmt 0 discriminator 1
 7476 001e 0223     		movs	r3, #2
 7477 0020 94E0     		b	.L378
 7478              	.L377:
 7479              		.loc 1 3510 0 discriminator 2
 7480 0022 FB68     		ldr	r3, [r7, #12]
 7481 0024 0122     		movs	r2, #1
 7482 0026 83F84020 		strb	r2, [r3, #64]
3511:Drivers/STM32F7xx_HAL_Driver/Src/stm32f7xx_hal_i2c.c **** 
3512:Drivers/STM32F7xx_HAL_Driver/Src/stm32f7xx_hal_i2c.c ****   if (((ITFlags & I2C_FLAG_AF) != RESET) && ((ITSources & I2C_IT_NACKI) != RESET))
 7483              		.loc 1 3512 0 is_stmt 1 discriminator 2
 7484 002a BB68     		ldr	r3, [r7, #8]
 7485 002c 03F01003 		and	r3, r3, #16
 7486 0030 002B     		cmp	r3, #0
 7487 0032 16D0     		beq	.L379
 7488              		.loc 1 3512 0 is_stmt 0 discriminator 1
 7489 0034 7B68     		ldr	r3, [r7, #4]
 7490 0036 03F01003 		and	r3, r3, #16
 7491 003a 002B     		cmp	r3, #0
 7492 003c 11D0     		beq	.L379
3513:Drivers/STM32F7xx_HAL_Driver/Src/stm32f7xx_hal_i2c.c ****   {
3514:Drivers/STM32F7xx_HAL_Driver/Src/stm32f7xx_hal_i2c.c ****     /* Clear NACK Flag */
3515:Drivers/STM32F7xx_HAL_Driver/Src/stm32f7xx_hal_i2c.c ****     __HAL_I2C_CLEAR_FLAG(hi2c, I2C_FLAG_AF);
 7493              		.loc 1 3515 0 is_stmt 1
 7494 003e FB68     		ldr	r3, [r7, #12]
 7495 0040 1B68     		ldr	r3, [r3]
 7496 0042 1022     		movs	r2, #16
 7497 0044 DA61     		str	r2, [r3, #28]
3516:Drivers/STM32F7xx_HAL_Driver/Src/stm32f7xx_hal_i2c.c **** 
3517:Drivers/STM32F7xx_HAL_Driver/Src/stm32f7xx_hal_i2c.c ****     /* Set corresponding Error Code */
3518:Drivers/STM32F7xx_HAL_Driver/Src/stm32f7xx_hal_i2c.c ****     hi2c->ErrorCode |= HAL_I2C_ERROR_AF;
 7498              		.loc 1 3518 0
 7499 0046 FB68     		ldr	r3, [r7, #12]
 7500 0048 5B6C     		ldr	r3, [r3, #68]
 7501 004a 43F00402 		orr	r2, r3, #4
ARM GAS  /var/folders/n8/cvzdcwlj0vl4g_wtyz1ffy300000gn/T//ccBPNZvy.s 			page 193


 7502 004e FB68     		ldr	r3, [r7, #12]
 7503 0050 5A64     		str	r2, [r3, #68]
3519:Drivers/STM32F7xx_HAL_Driver/Src/stm32f7xx_hal_i2c.c **** 
3520:Drivers/STM32F7xx_HAL_Driver/Src/stm32f7xx_hal_i2c.c ****     /* No need to generate STOP, it is automatically done */
3521:Drivers/STM32F7xx_HAL_Driver/Src/stm32f7xx_hal_i2c.c ****     /* But enable STOP interrupt, to treat it */
3522:Drivers/STM32F7xx_HAL_Driver/Src/stm32f7xx_hal_i2c.c ****     /* Error callback will be send during stop flag treatment */
3523:Drivers/STM32F7xx_HAL_Driver/Src/stm32f7xx_hal_i2c.c ****     I2C_Enable_IRQ(hi2c, I2C_XFER_CPLT_IT);
 7504              		.loc 1 3523 0
 7505 0052 1221     		movs	r1, #18
 7506 0054 F868     		ldr	r0, [r7, #12]
 7507 0056 FFF7FEFF 		bl	I2C_Enable_IRQ
3524:Drivers/STM32F7xx_HAL_Driver/Src/stm32f7xx_hal_i2c.c **** 
3525:Drivers/STM32F7xx_HAL_Driver/Src/stm32f7xx_hal_i2c.c ****     /* Flush TX register */
3526:Drivers/STM32F7xx_HAL_Driver/Src/stm32f7xx_hal_i2c.c ****     I2C_Flush_TXDR(hi2c);
 7508              		.loc 1 3526 0
 7509 005a F868     		ldr	r0, [r7, #12]
 7510 005c FFF7FEFF 		bl	I2C_Flush_TXDR
 7511 0060 6FE0     		b	.L380
 7512              	.L379:
3527:Drivers/STM32F7xx_HAL_Driver/Src/stm32f7xx_hal_i2c.c ****   }
3528:Drivers/STM32F7xx_HAL_Driver/Src/stm32f7xx_hal_i2c.c ****   else if (((ITFlags & I2C_FLAG_TCR) != RESET) && ((ITSources & I2C_IT_TCI) != RESET))
 7513              		.loc 1 3528 0
 7514 0062 BB68     		ldr	r3, [r7, #8]
 7515 0064 03F08003 		and	r3, r3, #128
 7516 0068 002B     		cmp	r3, #0
 7517 006a 5CD0     		beq	.L381
 7518              		.loc 1 3528 0 is_stmt 0 discriminator 1
 7519 006c 7B68     		ldr	r3, [r7, #4]
 7520 006e 03F04003 		and	r3, r3, #64
 7521 0072 002B     		cmp	r3, #0
 7522 0074 57D0     		beq	.L381
3529:Drivers/STM32F7xx_HAL_Driver/Src/stm32f7xx_hal_i2c.c ****   {
3530:Drivers/STM32F7xx_HAL_Driver/Src/stm32f7xx_hal_i2c.c ****     /* Disable TC interrupt */
3531:Drivers/STM32F7xx_HAL_Driver/Src/stm32f7xx_hal_i2c.c ****     __HAL_I2C_DISABLE_IT(hi2c, I2C_IT_TCI);
 7523              		.loc 1 3531 0 is_stmt 1
 7524 0076 FB68     		ldr	r3, [r7, #12]
 7525 0078 1B68     		ldr	r3, [r3]
 7526 007a 1A68     		ldr	r2, [r3]
 7527 007c FB68     		ldr	r3, [r7, #12]
 7528 007e 1B68     		ldr	r3, [r3]
 7529 0080 22F04002 		bic	r2, r2, #64
 7530 0084 1A60     		str	r2, [r3]
3532:Drivers/STM32F7xx_HAL_Driver/Src/stm32f7xx_hal_i2c.c **** 
3533:Drivers/STM32F7xx_HAL_Driver/Src/stm32f7xx_hal_i2c.c ****     if (hi2c->XferCount != 0U)
 7531              		.loc 1 3533 0
 7532 0086 FB68     		ldr	r3, [r7, #12]
 7533 0088 5B8D     		ldrh	r3, [r3, #42]	@ movhi
 7534 008a 9BB2     		uxth	r3, r3
 7535 008c 002B     		cmp	r3, #0
 7536 008e 45D0     		beq	.L382
3534:Drivers/STM32F7xx_HAL_Driver/Src/stm32f7xx_hal_i2c.c ****     {
3535:Drivers/STM32F7xx_HAL_Driver/Src/stm32f7xx_hal_i2c.c ****       /* Recover Slave address */
3536:Drivers/STM32F7xx_HAL_Driver/Src/stm32f7xx_hal_i2c.c ****       devaddress = (hi2c->Instance->CR2 & I2C_CR2_SADD);
 7537              		.loc 1 3536 0
 7538 0090 FB68     		ldr	r3, [r7, #12]
 7539 0092 1B68     		ldr	r3, [r3]
 7540 0094 5B68     		ldr	r3, [r3, #4]
ARM GAS  /var/folders/n8/cvzdcwlj0vl4g_wtyz1ffy300000gn/T//ccBPNZvy.s 			page 194


 7541 0096 9BB2     		uxth	r3, r3
 7542 0098 C3F30903 		ubfx	r3, r3, #0, #10
 7543 009c 7B82     		strh	r3, [r7, #18]	@ movhi
3537:Drivers/STM32F7xx_HAL_Driver/Src/stm32f7xx_hal_i2c.c **** 
3538:Drivers/STM32F7xx_HAL_Driver/Src/stm32f7xx_hal_i2c.c ****       /* Prepare the new XferSize to transfer */
3539:Drivers/STM32F7xx_HAL_Driver/Src/stm32f7xx_hal_i2c.c ****       if (hi2c->XferCount > MAX_NBYTE_SIZE)
 7544              		.loc 1 3539 0
 7545 009e FB68     		ldr	r3, [r7, #12]
 7546 00a0 5B8D     		ldrh	r3, [r3, #42]	@ movhi
 7547 00a2 9BB2     		uxth	r3, r3
 7548 00a4 FF2B     		cmp	r3, #255
 7549 00a6 06D9     		bls	.L383
3540:Drivers/STM32F7xx_HAL_Driver/Src/stm32f7xx_hal_i2c.c ****       {
3541:Drivers/STM32F7xx_HAL_Driver/Src/stm32f7xx_hal_i2c.c ****         hi2c->XferSize = MAX_NBYTE_SIZE;
 7550              		.loc 1 3541 0
 7551 00a8 FB68     		ldr	r3, [r7, #12]
 7552 00aa FF22     		movs	r2, #255
 7553 00ac 1A85     		strh	r2, [r3, #40]	@ movhi
3542:Drivers/STM32F7xx_HAL_Driver/Src/stm32f7xx_hal_i2c.c ****         xfermode = I2C_RELOAD_MODE;
 7554              		.loc 1 3542 0
 7555 00ae 4FF08073 		mov	r3, #16777216
 7556 00b2 7B61     		str	r3, [r7, #20]
 7557 00b4 07E0     		b	.L384
 7558              	.L383:
3543:Drivers/STM32F7xx_HAL_Driver/Src/stm32f7xx_hal_i2c.c ****       }
3544:Drivers/STM32F7xx_HAL_Driver/Src/stm32f7xx_hal_i2c.c ****       else
3545:Drivers/STM32F7xx_HAL_Driver/Src/stm32f7xx_hal_i2c.c ****       {
3546:Drivers/STM32F7xx_HAL_Driver/Src/stm32f7xx_hal_i2c.c ****         hi2c->XferSize = hi2c->XferCount;
 7559              		.loc 1 3546 0
 7560 00b6 FB68     		ldr	r3, [r7, #12]
 7561 00b8 5B8D     		ldrh	r3, [r3, #42]	@ movhi
 7562 00ba 9AB2     		uxth	r2, r3
 7563 00bc FB68     		ldr	r3, [r7, #12]
 7564 00be 1A85     		strh	r2, [r3, #40]	@ movhi
3547:Drivers/STM32F7xx_HAL_Driver/Src/stm32f7xx_hal_i2c.c ****         xfermode = I2C_AUTOEND_MODE;
 7565              		.loc 1 3547 0
 7566 00c0 4FF00073 		mov	r3, #33554432
 7567 00c4 7B61     		str	r3, [r7, #20]
 7568              	.L384:
3548:Drivers/STM32F7xx_HAL_Driver/Src/stm32f7xx_hal_i2c.c ****       }
3549:Drivers/STM32F7xx_HAL_Driver/Src/stm32f7xx_hal_i2c.c **** 
3550:Drivers/STM32F7xx_HAL_Driver/Src/stm32f7xx_hal_i2c.c ****       /* Set the new XferSize in Nbytes register */
3551:Drivers/STM32F7xx_HAL_Driver/Src/stm32f7xx_hal_i2c.c ****       I2C_TransferConfig(hi2c, devaddress, hi2c->XferSize, xfermode, I2C_NO_STARTSTOP);
 7569              		.loc 1 3551 0
 7570 00c6 FB68     		ldr	r3, [r7, #12]
 7571 00c8 1B8D     		ldrh	r3, [r3, #40]
 7572 00ca DAB2     		uxtb	r2, r3
 7573 00cc 798A     		ldrh	r1, [r7, #18]
 7574 00ce 0023     		movs	r3, #0
 7575 00d0 0093     		str	r3, [sp]
 7576 00d2 7B69     		ldr	r3, [r7, #20]
 7577 00d4 F868     		ldr	r0, [r7, #12]
 7578 00d6 FFF7FEFF 		bl	I2C_TransferConfig
3552:Drivers/STM32F7xx_HAL_Driver/Src/stm32f7xx_hal_i2c.c **** 
3553:Drivers/STM32F7xx_HAL_Driver/Src/stm32f7xx_hal_i2c.c ****       /* Update XferCount value */
3554:Drivers/STM32F7xx_HAL_Driver/Src/stm32f7xx_hal_i2c.c ****       hi2c->XferCount -= hi2c->XferSize;
 7579              		.loc 1 3554 0
ARM GAS  /var/folders/n8/cvzdcwlj0vl4g_wtyz1ffy300000gn/T//ccBPNZvy.s 			page 195


 7580 00da FB68     		ldr	r3, [r7, #12]
 7581 00dc 5B8D     		ldrh	r3, [r3, #42]	@ movhi
 7582 00de 9AB2     		uxth	r2, r3
 7583 00e0 FB68     		ldr	r3, [r7, #12]
 7584 00e2 1B8D     		ldrh	r3, [r3, #40]
 7585 00e4 D31A     		subs	r3, r2, r3
 7586 00e6 9AB2     		uxth	r2, r3
 7587 00e8 FB68     		ldr	r3, [r7, #12]
 7588 00ea 5A85     		strh	r2, [r3, #42]	@ movhi
3555:Drivers/STM32F7xx_HAL_Driver/Src/stm32f7xx_hal_i2c.c **** 
3556:Drivers/STM32F7xx_HAL_Driver/Src/stm32f7xx_hal_i2c.c ****       /* Enable DMA Request */
3557:Drivers/STM32F7xx_HAL_Driver/Src/stm32f7xx_hal_i2c.c ****       if (hi2c->State == HAL_I2C_STATE_BUSY_RX)
 7589              		.loc 1 3557 0
 7590 00ec FB68     		ldr	r3, [r7, #12]
 7591 00ee 93F84130 		ldrb	r3, [r3, #65]
 7592 00f2 DBB2     		uxtb	r3, r3
 7593 00f4 222B     		cmp	r3, #34
 7594 00f6 08D1     		bne	.L385
3558:Drivers/STM32F7xx_HAL_Driver/Src/stm32f7xx_hal_i2c.c ****       {
3559:Drivers/STM32F7xx_HAL_Driver/Src/stm32f7xx_hal_i2c.c ****         hi2c->Instance->CR1 |= I2C_CR1_RXDMAEN;
 7595              		.loc 1 3559 0
 7596 00f8 FB68     		ldr	r3, [r7, #12]
 7597 00fa 1B68     		ldr	r3, [r3]
 7598 00fc 1A68     		ldr	r2, [r3]
 7599 00fe FB68     		ldr	r3, [r7, #12]
 7600 0100 1B68     		ldr	r3, [r3]
 7601 0102 42F40042 		orr	r2, r2, #32768
 7602 0106 1A60     		str	r2, [r3]
3533:Drivers/STM32F7xx_HAL_Driver/Src/stm32f7xx_hal_i2c.c ****     {
 7603              		.loc 1 3533 0
 7604 0108 1BE0     		b	.L380
 7605              	.L385:
3560:Drivers/STM32F7xx_HAL_Driver/Src/stm32f7xx_hal_i2c.c ****       }
3561:Drivers/STM32F7xx_HAL_Driver/Src/stm32f7xx_hal_i2c.c ****       else
3562:Drivers/STM32F7xx_HAL_Driver/Src/stm32f7xx_hal_i2c.c ****       {
3563:Drivers/STM32F7xx_HAL_Driver/Src/stm32f7xx_hal_i2c.c ****         hi2c->Instance->CR1 |= I2C_CR1_TXDMAEN;
 7606              		.loc 1 3563 0
 7607 010a FB68     		ldr	r3, [r7, #12]
 7608 010c 1B68     		ldr	r3, [r3]
 7609 010e 1A68     		ldr	r2, [r3]
 7610 0110 FB68     		ldr	r3, [r7, #12]
 7611 0112 1B68     		ldr	r3, [r3]
 7612 0114 42F48042 		orr	r2, r2, #16384
 7613 0118 1A60     		str	r2, [r3]
3533:Drivers/STM32F7xx_HAL_Driver/Src/stm32f7xx_hal_i2c.c ****     {
 7614              		.loc 1 3533 0
 7615 011a 12E0     		b	.L380
 7616              	.L382:
3564:Drivers/STM32F7xx_HAL_Driver/Src/stm32f7xx_hal_i2c.c ****       }
3565:Drivers/STM32F7xx_HAL_Driver/Src/stm32f7xx_hal_i2c.c ****     }
3566:Drivers/STM32F7xx_HAL_Driver/Src/stm32f7xx_hal_i2c.c ****     else
3567:Drivers/STM32F7xx_HAL_Driver/Src/stm32f7xx_hal_i2c.c ****     {
3568:Drivers/STM32F7xx_HAL_Driver/Src/stm32f7xx_hal_i2c.c ****       /* Wrong size Status regarding TCR flag event */
3569:Drivers/STM32F7xx_HAL_Driver/Src/stm32f7xx_hal_i2c.c ****       /* Call the corresponding callback to inform upper layer of End of Transfer */
3570:Drivers/STM32F7xx_HAL_Driver/Src/stm32f7xx_hal_i2c.c ****       I2C_ITError(hi2c, HAL_I2C_ERROR_SIZE);
 7617              		.loc 1 3570 0
 7618 011c 4021     		movs	r1, #64
ARM GAS  /var/folders/n8/cvzdcwlj0vl4g_wtyz1ffy300000gn/T//ccBPNZvy.s 			page 196


 7619 011e F868     		ldr	r0, [r7, #12]
 7620 0120 FFF7FEFF 		bl	I2C_ITError
3533:Drivers/STM32F7xx_HAL_Driver/Src/stm32f7xx_hal_i2c.c ****     {
 7621              		.loc 1 3533 0
 7622 0124 0DE0     		b	.L380
 7623              	.L381:
3571:Drivers/STM32F7xx_HAL_Driver/Src/stm32f7xx_hal_i2c.c ****     }
3572:Drivers/STM32F7xx_HAL_Driver/Src/stm32f7xx_hal_i2c.c ****   }
3573:Drivers/STM32F7xx_HAL_Driver/Src/stm32f7xx_hal_i2c.c ****   else if (((ITFlags & I2C_FLAG_STOPF) != RESET) && ((ITSources & I2C_IT_STOPI) != RESET))
 7624              		.loc 1 3573 0
 7625 0126 BB68     		ldr	r3, [r7, #8]
 7626 0128 03F02003 		and	r3, r3, #32
 7627 012c 002B     		cmp	r3, #0
 7628 012e 08D0     		beq	.L380
 7629              		.loc 1 3573 0 is_stmt 0 discriminator 1
 7630 0130 7B68     		ldr	r3, [r7, #4]
 7631 0132 03F02003 		and	r3, r3, #32
 7632 0136 002B     		cmp	r3, #0
 7633 0138 03D0     		beq	.L380
3574:Drivers/STM32F7xx_HAL_Driver/Src/stm32f7xx_hal_i2c.c ****   {
3575:Drivers/STM32F7xx_HAL_Driver/Src/stm32f7xx_hal_i2c.c ****     /* Call I2C Master complete process */
3576:Drivers/STM32F7xx_HAL_Driver/Src/stm32f7xx_hal_i2c.c ****     I2C_ITMasterCplt(hi2c, ITFlags);
 7634              		.loc 1 3576 0 is_stmt 1
 7635 013a B968     		ldr	r1, [r7, #8]
 7636 013c F868     		ldr	r0, [r7, #12]
 7637 013e FFF7FEFF 		bl	I2C_ITMasterCplt
 7638              	.L380:
3577:Drivers/STM32F7xx_HAL_Driver/Src/stm32f7xx_hal_i2c.c ****   }
3578:Drivers/STM32F7xx_HAL_Driver/Src/stm32f7xx_hal_i2c.c **** 
3579:Drivers/STM32F7xx_HAL_Driver/Src/stm32f7xx_hal_i2c.c ****   /* Process Unlocked */
3580:Drivers/STM32F7xx_HAL_Driver/Src/stm32f7xx_hal_i2c.c ****   __HAL_UNLOCK(hi2c);
 7639              		.loc 1 3580 0
 7640 0142 FB68     		ldr	r3, [r7, #12]
 7641 0144 0022     		movs	r2, #0
 7642 0146 83F84020 		strb	r2, [r3, #64]
3581:Drivers/STM32F7xx_HAL_Driver/Src/stm32f7xx_hal_i2c.c **** 
3582:Drivers/STM32F7xx_HAL_Driver/Src/stm32f7xx_hal_i2c.c ****   return HAL_OK;
 7643              		.loc 1 3582 0
 7644 014a 0023     		movs	r3, #0
 7645              	.L378:
3583:Drivers/STM32F7xx_HAL_Driver/Src/stm32f7xx_hal_i2c.c **** }
 7646              		.loc 1 3583 0
 7647 014c 1846     		mov	r0, r3
 7648 014e 1837     		adds	r7, r7, #24
 7649              	.LCFI253:
 7650              		.cfi_def_cfa_offset 8
 7651 0150 BD46     		mov	sp, r7
 7652              	.LCFI254:
 7653              		.cfi_def_cfa_register 13
 7654              		@ sp needed
 7655 0152 80BD     		pop	{r7, pc}
 7656              		.cfi_endproc
 7657              	.LFE185:
 7659              		.section	.text.I2C_Slave_ISR_DMA,"ax",%progbits
 7660              		.align	1
 7661              		.syntax unified
 7662              		.thumb
ARM GAS  /var/folders/n8/cvzdcwlj0vl4g_wtyz1ffy300000gn/T//ccBPNZvy.s 			page 197


 7663              		.thumb_func
 7664              		.fpu fpv5-sp-d16
 7666              	I2C_Slave_ISR_DMA:
 7667              	.LFB186:
3584:Drivers/STM32F7xx_HAL_Driver/Src/stm32f7xx_hal_i2c.c **** 
3585:Drivers/STM32F7xx_HAL_Driver/Src/stm32f7xx_hal_i2c.c **** /**
3586:Drivers/STM32F7xx_HAL_Driver/Src/stm32f7xx_hal_i2c.c ****   * @brief  Interrupt Sub-Routine which handle the Interrupt Flags Slave Mode with DMA.
3587:Drivers/STM32F7xx_HAL_Driver/Src/stm32f7xx_hal_i2c.c ****   * @param  hi2c Pointer to a I2C_HandleTypeDef structure that contains
3588:Drivers/STM32F7xx_HAL_Driver/Src/stm32f7xx_hal_i2c.c ****   *                the configuration information for the specified I2C.
3589:Drivers/STM32F7xx_HAL_Driver/Src/stm32f7xx_hal_i2c.c ****   * @param  ITFlags Interrupt flags to handle.
3590:Drivers/STM32F7xx_HAL_Driver/Src/stm32f7xx_hal_i2c.c ****   * @param  ITSources Interrupt sources enabled.
3591:Drivers/STM32F7xx_HAL_Driver/Src/stm32f7xx_hal_i2c.c ****   * @retval HAL status
3592:Drivers/STM32F7xx_HAL_Driver/Src/stm32f7xx_hal_i2c.c ****   */
3593:Drivers/STM32F7xx_HAL_Driver/Src/stm32f7xx_hal_i2c.c **** static HAL_StatusTypeDef I2C_Slave_ISR_DMA(struct __I2C_HandleTypeDef *hi2c, uint32_t ITFlags, uint
3594:Drivers/STM32F7xx_HAL_Driver/Src/stm32f7xx_hal_i2c.c **** {
 7668              		.loc 1 3594 0
 7669              		.cfi_startproc
 7670              		@ args = 0, pretend = 0, frame = 16
 7671              		@ frame_needed = 1, uses_anonymous_args = 0
 7672 0000 80B5     		push	{r7, lr}
 7673              	.LCFI255:
 7674              		.cfi_def_cfa_offset 8
 7675              		.cfi_offset 7, -8
 7676              		.cfi_offset 14, -4
 7677 0002 84B0     		sub	sp, sp, #16
 7678              	.LCFI256:
 7679              		.cfi_def_cfa_offset 24
 7680 0004 00AF     		add	r7, sp, #0
 7681              	.LCFI257:
 7682              		.cfi_def_cfa_register 7
 7683 0006 F860     		str	r0, [r7, #12]
 7684 0008 B960     		str	r1, [r7, #8]
 7685 000a 7A60     		str	r2, [r7, #4]
3595:Drivers/STM32F7xx_HAL_Driver/Src/stm32f7xx_hal_i2c.c ****   /* Process locked */
3596:Drivers/STM32F7xx_HAL_Driver/Src/stm32f7xx_hal_i2c.c ****   __HAL_LOCK(hi2c);
 7686              		.loc 1 3596 0
 7687 000c FB68     		ldr	r3, [r7, #12]
 7688 000e 93F84030 		ldrb	r3, [r3, #64]	@ zero_extendqisi2
 7689 0012 012B     		cmp	r3, #1
 7690 0014 01D1     		bne	.L389
 7691              		.loc 1 3596 0 is_stmt 0 discriminator 1
 7692 0016 0223     		movs	r3, #2
 7693 0018 5AE0     		b	.L390
 7694              	.L389:
 7695              		.loc 1 3596 0 discriminator 2
 7696 001a FB68     		ldr	r3, [r7, #12]
 7697 001c 0122     		movs	r2, #1
 7698 001e 83F84020 		strb	r2, [r3, #64]
3597:Drivers/STM32F7xx_HAL_Driver/Src/stm32f7xx_hal_i2c.c **** 
3598:Drivers/STM32F7xx_HAL_Driver/Src/stm32f7xx_hal_i2c.c ****   if (((ITFlags & I2C_FLAG_AF) != RESET) && ((ITSources & I2C_IT_NACKI) != RESET))
 7699              		.loc 1 3598 0 is_stmt 1 discriminator 2
 7700 0022 BB68     		ldr	r3, [r7, #8]
 7701 0024 03F01003 		and	r3, r3, #16
 7702 0028 002B     		cmp	r3, #0
 7703 002a 2FD0     		beq	.L391
 7704              		.loc 1 3598 0 is_stmt 0 discriminator 1
 7705 002c 7B68     		ldr	r3, [r7, #4]
ARM GAS  /var/folders/n8/cvzdcwlj0vl4g_wtyz1ffy300000gn/T//ccBPNZvy.s 			page 198


 7706 002e 03F01003 		and	r3, r3, #16
 7707 0032 002B     		cmp	r3, #0
 7708 0034 2AD0     		beq	.L391
3599:Drivers/STM32F7xx_HAL_Driver/Src/stm32f7xx_hal_i2c.c ****   {
3600:Drivers/STM32F7xx_HAL_Driver/Src/stm32f7xx_hal_i2c.c ****     /* Check that I2C transfer finished */
3601:Drivers/STM32F7xx_HAL_Driver/Src/stm32f7xx_hal_i2c.c ****     /* if yes, normal use case, a NACK is sent by the MASTER when Transfer is finished */
3602:Drivers/STM32F7xx_HAL_Driver/Src/stm32f7xx_hal_i2c.c ****     /* Mean XferCount == 0 */
3603:Drivers/STM32F7xx_HAL_Driver/Src/stm32f7xx_hal_i2c.c ****     /* So clear Flag NACKF only */
3604:Drivers/STM32F7xx_HAL_Driver/Src/stm32f7xx_hal_i2c.c ****     if (I2C_GET_DMA_REMAIN_DATA(hi2c) == 0U)
 7709              		.loc 1 3604 0 is_stmt 1
 7710 0036 FB68     		ldr	r3, [r7, #12]
 7711 0038 93F84130 		ldrb	r3, [r3, #65]
 7712 003c DBB2     		uxtb	r3, r3
 7713 003e 212B     		cmp	r3, #33
 7714 0040 09D1     		bne	.L392
 7715              		.loc 1 3604 0 is_stmt 0 discriminator 1
 7716 0042 FB68     		ldr	r3, [r7, #12]
 7717 0044 9B6B     		ldr	r3, [r3, #56]
 7718 0046 1B68     		ldr	r3, [r3]
 7719 0048 5B68     		ldr	r3, [r3, #4]
 7720 004a 002B     		cmp	r3, #0
 7721 004c 0CBF     		ite	eq
 7722 004e 0123     		moveq	r3, #1
 7723 0050 0023     		movne	r3, #0
 7724 0052 DBB2     		uxtb	r3, r3
 7725 0054 08E0     		b	.L393
 7726              	.L392:
 7727              		.loc 1 3604 0 discriminator 2
 7728 0056 FB68     		ldr	r3, [r7, #12]
 7729 0058 DB6B     		ldr	r3, [r3, #60]
 7730 005a 1B68     		ldr	r3, [r3]
 7731 005c 5B68     		ldr	r3, [r3, #4]
 7732 005e 002B     		cmp	r3, #0
 7733 0060 0CBF     		ite	eq
 7734 0062 0123     		moveq	r3, #1
 7735 0064 0023     		movne	r3, #0
 7736 0066 DBB2     		uxtb	r3, r3
 7737              	.L393:
 7738              		.loc 1 3604 0 discriminator 4
 7739 0068 002B     		cmp	r3, #0
 7740 006a 04D0     		beq	.L394
3605:Drivers/STM32F7xx_HAL_Driver/Src/stm32f7xx_hal_i2c.c ****     {
3606:Drivers/STM32F7xx_HAL_Driver/Src/stm32f7xx_hal_i2c.c ****       /* Clear NACK Flag */
3607:Drivers/STM32F7xx_HAL_Driver/Src/stm32f7xx_hal_i2c.c ****       __HAL_I2C_CLEAR_FLAG(hi2c, I2C_FLAG_AF);
 7741              		.loc 1 3607 0 is_stmt 1
 7742 006c FB68     		ldr	r3, [r7, #12]
 7743 006e 1B68     		ldr	r3, [r3]
 7744 0070 1022     		movs	r2, #16
 7745 0072 DA61     		str	r2, [r3, #28]
3604:Drivers/STM32F7xx_HAL_Driver/Src/stm32f7xx_hal_i2c.c ****     {
 7746              		.loc 1 3604 0
 7747 0074 27E0     		b	.L396
 7748              	.L394:
3608:Drivers/STM32F7xx_HAL_Driver/Src/stm32f7xx_hal_i2c.c ****     }
3609:Drivers/STM32F7xx_HAL_Driver/Src/stm32f7xx_hal_i2c.c ****     else
3610:Drivers/STM32F7xx_HAL_Driver/Src/stm32f7xx_hal_i2c.c ****     {
3611:Drivers/STM32F7xx_HAL_Driver/Src/stm32f7xx_hal_i2c.c ****       /* if no, error use case, a Non-Acknowledge of last Data is generated by the MASTER*/
ARM GAS  /var/folders/n8/cvzdcwlj0vl4g_wtyz1ffy300000gn/T//ccBPNZvy.s 			page 199


3612:Drivers/STM32F7xx_HAL_Driver/Src/stm32f7xx_hal_i2c.c ****       /* Clear NACK Flag */
3613:Drivers/STM32F7xx_HAL_Driver/Src/stm32f7xx_hal_i2c.c ****       __HAL_I2C_CLEAR_FLAG(hi2c, I2C_FLAG_AF);
 7749              		.loc 1 3613 0
 7750 0076 FB68     		ldr	r3, [r7, #12]
 7751 0078 1B68     		ldr	r3, [r3]
 7752 007a 1022     		movs	r2, #16
 7753 007c DA61     		str	r2, [r3, #28]
3614:Drivers/STM32F7xx_HAL_Driver/Src/stm32f7xx_hal_i2c.c **** 
3615:Drivers/STM32F7xx_HAL_Driver/Src/stm32f7xx_hal_i2c.c ****       /* Set ErrorCode corresponding to a Non-Acknowledge */
3616:Drivers/STM32F7xx_HAL_Driver/Src/stm32f7xx_hal_i2c.c ****       hi2c->ErrorCode |= HAL_I2C_ERROR_AF;
 7754              		.loc 1 3616 0
 7755 007e FB68     		ldr	r3, [r7, #12]
 7756 0080 5B6C     		ldr	r3, [r3, #68]
 7757 0082 43F00402 		orr	r2, r3, #4
 7758 0086 FB68     		ldr	r3, [r7, #12]
 7759 0088 5A64     		str	r2, [r3, #68]
3604:Drivers/STM32F7xx_HAL_Driver/Src/stm32f7xx_hal_i2c.c ****     {
 7760              		.loc 1 3604 0
 7761 008a 1CE0     		b	.L396
 7762              	.L391:
3617:Drivers/STM32F7xx_HAL_Driver/Src/stm32f7xx_hal_i2c.c ****     }
3618:Drivers/STM32F7xx_HAL_Driver/Src/stm32f7xx_hal_i2c.c ****   }
3619:Drivers/STM32F7xx_HAL_Driver/Src/stm32f7xx_hal_i2c.c ****   else if (((ITFlags & I2C_FLAG_ADDR) != RESET) && ((ITSources & I2C_IT_ADDRI) != RESET))
 7763              		.loc 1 3619 0
 7764 008c BB68     		ldr	r3, [r7, #8]
 7765 008e 03F00803 		and	r3, r3, #8
 7766 0092 002B     		cmp	r3, #0
 7767 0094 09D0     		beq	.L397
 7768              		.loc 1 3619 0 is_stmt 0 discriminator 1
 7769 0096 7B68     		ldr	r3, [r7, #4]
 7770 0098 03F00803 		and	r3, r3, #8
 7771 009c 002B     		cmp	r3, #0
 7772 009e 04D0     		beq	.L397
3620:Drivers/STM32F7xx_HAL_Driver/Src/stm32f7xx_hal_i2c.c ****   {
3621:Drivers/STM32F7xx_HAL_Driver/Src/stm32f7xx_hal_i2c.c ****     /* Clear ADDR flag */
3622:Drivers/STM32F7xx_HAL_Driver/Src/stm32f7xx_hal_i2c.c ****     __HAL_I2C_CLEAR_FLAG(hi2c, I2C_FLAG_ADDR);
 7773              		.loc 1 3622 0 is_stmt 1
 7774 00a0 FB68     		ldr	r3, [r7, #12]
 7775 00a2 1B68     		ldr	r3, [r3]
 7776 00a4 0822     		movs	r2, #8
 7777 00a6 DA61     		str	r2, [r3, #28]
 7778 00a8 0DE0     		b	.L396
 7779              	.L397:
3623:Drivers/STM32F7xx_HAL_Driver/Src/stm32f7xx_hal_i2c.c ****   }
3624:Drivers/STM32F7xx_HAL_Driver/Src/stm32f7xx_hal_i2c.c ****   else if (((ITFlags & I2C_FLAG_STOPF) != RESET) && ((ITSources & I2C_IT_STOPI) != RESET))
 7780              		.loc 1 3624 0
 7781 00aa BB68     		ldr	r3, [r7, #8]
 7782 00ac 03F02003 		and	r3, r3, #32
 7783 00b0 002B     		cmp	r3, #0
 7784 00b2 08D0     		beq	.L396
 7785              		.loc 1 3624 0 is_stmt 0 discriminator 1
 7786 00b4 7B68     		ldr	r3, [r7, #4]
 7787 00b6 03F02003 		and	r3, r3, #32
 7788 00ba 002B     		cmp	r3, #0
 7789 00bc 03D0     		beq	.L396
3625:Drivers/STM32F7xx_HAL_Driver/Src/stm32f7xx_hal_i2c.c ****   {
3626:Drivers/STM32F7xx_HAL_Driver/Src/stm32f7xx_hal_i2c.c ****     /* Call I2C Slave complete process */
ARM GAS  /var/folders/n8/cvzdcwlj0vl4g_wtyz1ffy300000gn/T//ccBPNZvy.s 			page 200


3627:Drivers/STM32F7xx_HAL_Driver/Src/stm32f7xx_hal_i2c.c ****     I2C_ITSlaveCplt(hi2c, ITFlags);
 7790              		.loc 1 3627 0 is_stmt 1
 7791 00be B968     		ldr	r1, [r7, #8]
 7792 00c0 F868     		ldr	r0, [r7, #12]
 7793 00c2 FFF7FEFF 		bl	I2C_ITSlaveCplt
 7794              	.L396:
3628:Drivers/STM32F7xx_HAL_Driver/Src/stm32f7xx_hal_i2c.c ****   }
3629:Drivers/STM32F7xx_HAL_Driver/Src/stm32f7xx_hal_i2c.c **** 
3630:Drivers/STM32F7xx_HAL_Driver/Src/stm32f7xx_hal_i2c.c ****   /* Process Unlocked */
3631:Drivers/STM32F7xx_HAL_Driver/Src/stm32f7xx_hal_i2c.c ****   __HAL_UNLOCK(hi2c);
 7795              		.loc 1 3631 0
 7796 00c6 FB68     		ldr	r3, [r7, #12]
 7797 00c8 0022     		movs	r2, #0
 7798 00ca 83F84020 		strb	r2, [r3, #64]
3632:Drivers/STM32F7xx_HAL_Driver/Src/stm32f7xx_hal_i2c.c **** 
3633:Drivers/STM32F7xx_HAL_Driver/Src/stm32f7xx_hal_i2c.c ****   return HAL_OK;
 7799              		.loc 1 3633 0
 7800 00ce 0023     		movs	r3, #0
 7801              	.L390:
3634:Drivers/STM32F7xx_HAL_Driver/Src/stm32f7xx_hal_i2c.c **** }
 7802              		.loc 1 3634 0
 7803 00d0 1846     		mov	r0, r3
 7804 00d2 1037     		adds	r7, r7, #16
 7805              	.LCFI258:
 7806              		.cfi_def_cfa_offset 8
 7807 00d4 BD46     		mov	sp, r7
 7808              	.LCFI259:
 7809              		.cfi_def_cfa_register 13
 7810              		@ sp needed
 7811 00d6 80BD     		pop	{r7, pc}
 7812              		.cfi_endproc
 7813              	.LFE186:
 7815              		.section	.text.I2C_RequestMemoryWrite,"ax",%progbits
 7816              		.align	1
 7817              		.syntax unified
 7818              		.thumb
 7819              		.thumb_func
 7820              		.fpu fpv5-sp-d16
 7822              	I2C_RequestMemoryWrite:
 7823              	.LFB187:
3635:Drivers/STM32F7xx_HAL_Driver/Src/stm32f7xx_hal_i2c.c **** 
3636:Drivers/STM32F7xx_HAL_Driver/Src/stm32f7xx_hal_i2c.c **** /**
3637:Drivers/STM32F7xx_HAL_Driver/Src/stm32f7xx_hal_i2c.c ****   * @brief  Master sends target device address followed by internal memory address for write reques
3638:Drivers/STM32F7xx_HAL_Driver/Src/stm32f7xx_hal_i2c.c ****   * @param  hi2c Pointer to a I2C_HandleTypeDef structure that contains
3639:Drivers/STM32F7xx_HAL_Driver/Src/stm32f7xx_hal_i2c.c ****   *                the configuration information for the specified I2C.
3640:Drivers/STM32F7xx_HAL_Driver/Src/stm32f7xx_hal_i2c.c ****   * @param  DevAddress Target device address which contain device 7 or 10 bits address value
3641:Drivers/STM32F7xx_HAL_Driver/Src/stm32f7xx_hal_i2c.c ****   *         in datasheet must be shifted to the left before calling the interface
3642:Drivers/STM32F7xx_HAL_Driver/Src/stm32f7xx_hal_i2c.c ****   * @param  MemAddress Internal memory address
3643:Drivers/STM32F7xx_HAL_Driver/Src/stm32f7xx_hal_i2c.c ****   * @param  MemAddSize Size of internal memory address
3644:Drivers/STM32F7xx_HAL_Driver/Src/stm32f7xx_hal_i2c.c ****   * @param  Timeout Timeout duration
3645:Drivers/STM32F7xx_HAL_Driver/Src/stm32f7xx_hal_i2c.c ****   * @param  Tickstart Tick start value
3646:Drivers/STM32F7xx_HAL_Driver/Src/stm32f7xx_hal_i2c.c ****   * @retval HAL status
3647:Drivers/STM32F7xx_HAL_Driver/Src/stm32f7xx_hal_i2c.c ****   */
3648:Drivers/STM32F7xx_HAL_Driver/Src/stm32f7xx_hal_i2c.c **** static HAL_StatusTypeDef I2C_RequestMemoryWrite(I2C_HandleTypeDef *hi2c, uint16_t DevAddress, uint1
3649:Drivers/STM32F7xx_HAL_Driver/Src/stm32f7xx_hal_i2c.c **** {
 7824              		.loc 1 3649 0
 7825              		.cfi_startproc
ARM GAS  /var/folders/n8/cvzdcwlj0vl4g_wtyz1ffy300000gn/T//ccBPNZvy.s 			page 201


 7826              		@ args = 8, pretend = 0, frame = 16
 7827              		@ frame_needed = 1, uses_anonymous_args = 0
 7828 0000 80B5     		push	{r7, lr}
 7829              	.LCFI260:
 7830              		.cfi_def_cfa_offset 8
 7831              		.cfi_offset 7, -8
 7832              		.cfi_offset 14, -4
 7833 0002 86B0     		sub	sp, sp, #24
 7834              	.LCFI261:
 7835              		.cfi_def_cfa_offset 32
 7836 0004 02AF     		add	r7, sp, #8
 7837              	.LCFI262:
 7838              		.cfi_def_cfa 7, 24
 7839 0006 F860     		str	r0, [r7, #12]
 7840 0008 0846     		mov	r0, r1
 7841 000a 1146     		mov	r1, r2
 7842 000c 1A46     		mov	r2, r3
 7843 000e 0346     		mov	r3, r0	@ movhi
 7844 0010 7B81     		strh	r3, [r7, #10]	@ movhi
 7845 0012 0B46     		mov	r3, r1	@ movhi
 7846 0014 3B81     		strh	r3, [r7, #8]	@ movhi
 7847 0016 1346     		mov	r3, r2	@ movhi
 7848 0018 FB80     		strh	r3, [r7, #6]	@ movhi
3650:Drivers/STM32F7xx_HAL_Driver/Src/stm32f7xx_hal_i2c.c ****   I2C_TransferConfig(hi2c, DevAddress, MemAddSize, I2C_RELOAD_MODE, I2C_GENERATE_START_WRITE);
 7849              		.loc 1 3650 0
 7850 001a FB88     		ldrh	r3, [r7, #6]	@ movhi
 7851 001c DAB2     		uxtb	r2, r3
 7852 001e 7989     		ldrh	r1, [r7, #10]
 7853 0020 264B     		ldr	r3, .L407
 7854 0022 0093     		str	r3, [sp]
 7855 0024 4FF08073 		mov	r3, #16777216
 7856 0028 F868     		ldr	r0, [r7, #12]
 7857 002a FFF7FEFF 		bl	I2C_TransferConfig
3651:Drivers/STM32F7xx_HAL_Driver/Src/stm32f7xx_hal_i2c.c **** 
3652:Drivers/STM32F7xx_HAL_Driver/Src/stm32f7xx_hal_i2c.c ****   /* Wait until TXIS flag is set */
3653:Drivers/STM32F7xx_HAL_Driver/Src/stm32f7xx_hal_i2c.c ****   if (I2C_WaitOnTXISFlagUntilTimeout(hi2c, Timeout, Tickstart) != HAL_OK)
 7858              		.loc 1 3653 0
 7859 002e FA69     		ldr	r2, [r7, #28]
 7860 0030 B969     		ldr	r1, [r7, #24]
 7861 0032 F868     		ldr	r0, [r7, #12]
 7862 0034 FFF7FEFF 		bl	I2C_WaitOnTXISFlagUntilTimeout
 7863 0038 0346     		mov	r3, r0
 7864 003a 002B     		cmp	r3, #0
 7865 003c 07D0     		beq	.L399
3654:Drivers/STM32F7xx_HAL_Driver/Src/stm32f7xx_hal_i2c.c ****   {
3655:Drivers/STM32F7xx_HAL_Driver/Src/stm32f7xx_hal_i2c.c ****     if (hi2c->ErrorCode == HAL_I2C_ERROR_AF)
 7866              		.loc 1 3655 0
 7867 003e FB68     		ldr	r3, [r7, #12]
 7868 0040 5B6C     		ldr	r3, [r3, #68]
 7869 0042 042B     		cmp	r3, #4
 7870 0044 01D1     		bne	.L400
3656:Drivers/STM32F7xx_HAL_Driver/Src/stm32f7xx_hal_i2c.c ****     {
3657:Drivers/STM32F7xx_HAL_Driver/Src/stm32f7xx_hal_i2c.c ****       return HAL_ERROR;
 7871              		.loc 1 3657 0
 7872 0046 0123     		movs	r3, #1
 7873 0048 34E0     		b	.L401
 7874              	.L400:
ARM GAS  /var/folders/n8/cvzdcwlj0vl4g_wtyz1ffy300000gn/T//ccBPNZvy.s 			page 202


3658:Drivers/STM32F7xx_HAL_Driver/Src/stm32f7xx_hal_i2c.c ****     }
3659:Drivers/STM32F7xx_HAL_Driver/Src/stm32f7xx_hal_i2c.c ****     else
3660:Drivers/STM32F7xx_HAL_Driver/Src/stm32f7xx_hal_i2c.c ****     {
3661:Drivers/STM32F7xx_HAL_Driver/Src/stm32f7xx_hal_i2c.c ****       return HAL_TIMEOUT;
 7875              		.loc 1 3661 0
 7876 004a 0323     		movs	r3, #3
 7877 004c 32E0     		b	.L401
 7878              	.L399:
3662:Drivers/STM32F7xx_HAL_Driver/Src/stm32f7xx_hal_i2c.c ****     }
3663:Drivers/STM32F7xx_HAL_Driver/Src/stm32f7xx_hal_i2c.c ****   }
3664:Drivers/STM32F7xx_HAL_Driver/Src/stm32f7xx_hal_i2c.c **** 
3665:Drivers/STM32F7xx_HAL_Driver/Src/stm32f7xx_hal_i2c.c ****   /* If Memory address size is 8Bit */
3666:Drivers/STM32F7xx_HAL_Driver/Src/stm32f7xx_hal_i2c.c ****   if (MemAddSize == I2C_MEMADD_SIZE_8BIT)
 7879              		.loc 1 3666 0
 7880 004e FB88     		ldrh	r3, [r7, #6]
 7881 0050 012B     		cmp	r3, #1
 7882 0052 05D1     		bne	.L402
3667:Drivers/STM32F7xx_HAL_Driver/Src/stm32f7xx_hal_i2c.c ****   {
3668:Drivers/STM32F7xx_HAL_Driver/Src/stm32f7xx_hal_i2c.c ****     /* Send Memory Address */
3669:Drivers/STM32F7xx_HAL_Driver/Src/stm32f7xx_hal_i2c.c ****     hi2c->Instance->TXDR = I2C_MEM_ADD_LSB(MemAddress);
 7883              		.loc 1 3669 0
 7884 0054 3B89     		ldrh	r3, [r7, #8]	@ movhi
 7885 0056 DAB2     		uxtb	r2, r3
 7886 0058 FB68     		ldr	r3, [r7, #12]
 7887 005a 1B68     		ldr	r3, [r3]
 7888 005c 9A62     		str	r2, [r3, #40]
 7889 005e 1BE0     		b	.L403
 7890              	.L402:
3670:Drivers/STM32F7xx_HAL_Driver/Src/stm32f7xx_hal_i2c.c ****   }
3671:Drivers/STM32F7xx_HAL_Driver/Src/stm32f7xx_hal_i2c.c ****   /* If Memory address size is 16Bit */
3672:Drivers/STM32F7xx_HAL_Driver/Src/stm32f7xx_hal_i2c.c ****   else
3673:Drivers/STM32F7xx_HAL_Driver/Src/stm32f7xx_hal_i2c.c ****   {
3674:Drivers/STM32F7xx_HAL_Driver/Src/stm32f7xx_hal_i2c.c ****     /* Send MSB of Memory Address */
3675:Drivers/STM32F7xx_HAL_Driver/Src/stm32f7xx_hal_i2c.c ****     hi2c->Instance->TXDR = I2C_MEM_ADD_MSB(MemAddress);
 7891              		.loc 1 3675 0
 7892 0060 3B89     		ldrh	r3, [r7, #8]
 7893 0062 1B0A     		lsrs	r3, r3, #8
 7894 0064 9BB2     		uxth	r3, r3
 7895 0066 DAB2     		uxtb	r2, r3
 7896 0068 FB68     		ldr	r3, [r7, #12]
 7897 006a 1B68     		ldr	r3, [r3]
 7898 006c 9A62     		str	r2, [r3, #40]
3676:Drivers/STM32F7xx_HAL_Driver/Src/stm32f7xx_hal_i2c.c **** 
3677:Drivers/STM32F7xx_HAL_Driver/Src/stm32f7xx_hal_i2c.c ****     /* Wait until TXIS flag is set */
3678:Drivers/STM32F7xx_HAL_Driver/Src/stm32f7xx_hal_i2c.c ****     if (I2C_WaitOnTXISFlagUntilTimeout(hi2c, Timeout, Tickstart) != HAL_OK)
 7899              		.loc 1 3678 0
 7900 006e FA69     		ldr	r2, [r7, #28]
 7901 0070 B969     		ldr	r1, [r7, #24]
 7902 0072 F868     		ldr	r0, [r7, #12]
 7903 0074 FFF7FEFF 		bl	I2C_WaitOnTXISFlagUntilTimeout
 7904 0078 0346     		mov	r3, r0
 7905 007a 002B     		cmp	r3, #0
 7906 007c 07D0     		beq	.L404
3679:Drivers/STM32F7xx_HAL_Driver/Src/stm32f7xx_hal_i2c.c ****     {
3680:Drivers/STM32F7xx_HAL_Driver/Src/stm32f7xx_hal_i2c.c ****       if (hi2c->ErrorCode == HAL_I2C_ERROR_AF)
 7907              		.loc 1 3680 0
 7908 007e FB68     		ldr	r3, [r7, #12]
ARM GAS  /var/folders/n8/cvzdcwlj0vl4g_wtyz1ffy300000gn/T//ccBPNZvy.s 			page 203


 7909 0080 5B6C     		ldr	r3, [r3, #68]
 7910 0082 042B     		cmp	r3, #4
 7911 0084 01D1     		bne	.L405
3681:Drivers/STM32F7xx_HAL_Driver/Src/stm32f7xx_hal_i2c.c ****       {
3682:Drivers/STM32F7xx_HAL_Driver/Src/stm32f7xx_hal_i2c.c ****         return HAL_ERROR;
 7912              		.loc 1 3682 0
 7913 0086 0123     		movs	r3, #1
 7914 0088 14E0     		b	.L401
 7915              	.L405:
3683:Drivers/STM32F7xx_HAL_Driver/Src/stm32f7xx_hal_i2c.c ****       }
3684:Drivers/STM32F7xx_HAL_Driver/Src/stm32f7xx_hal_i2c.c ****       else
3685:Drivers/STM32F7xx_HAL_Driver/Src/stm32f7xx_hal_i2c.c ****       {
3686:Drivers/STM32F7xx_HAL_Driver/Src/stm32f7xx_hal_i2c.c ****         return HAL_TIMEOUT;
 7916              		.loc 1 3686 0
 7917 008a 0323     		movs	r3, #3
 7918 008c 12E0     		b	.L401
 7919              	.L404:
3687:Drivers/STM32F7xx_HAL_Driver/Src/stm32f7xx_hal_i2c.c ****       }
3688:Drivers/STM32F7xx_HAL_Driver/Src/stm32f7xx_hal_i2c.c ****     }
3689:Drivers/STM32F7xx_HAL_Driver/Src/stm32f7xx_hal_i2c.c **** 
3690:Drivers/STM32F7xx_HAL_Driver/Src/stm32f7xx_hal_i2c.c ****     /* Send LSB of Memory Address */
3691:Drivers/STM32F7xx_HAL_Driver/Src/stm32f7xx_hal_i2c.c ****     hi2c->Instance->TXDR = I2C_MEM_ADD_LSB(MemAddress);
 7920              		.loc 1 3691 0
 7921 008e 3B89     		ldrh	r3, [r7, #8]	@ movhi
 7922 0090 DAB2     		uxtb	r2, r3
 7923 0092 FB68     		ldr	r3, [r7, #12]
 7924 0094 1B68     		ldr	r3, [r3]
 7925 0096 9A62     		str	r2, [r3, #40]
 7926              	.L403:
3692:Drivers/STM32F7xx_HAL_Driver/Src/stm32f7xx_hal_i2c.c ****   }
3693:Drivers/STM32F7xx_HAL_Driver/Src/stm32f7xx_hal_i2c.c **** 
3694:Drivers/STM32F7xx_HAL_Driver/Src/stm32f7xx_hal_i2c.c ****   /* Wait until TCR flag is set */
3695:Drivers/STM32F7xx_HAL_Driver/Src/stm32f7xx_hal_i2c.c ****   if (I2C_WaitOnFlagUntilTimeout(hi2c, I2C_FLAG_TCR, RESET, Timeout, Tickstart) != HAL_OK)
 7927              		.loc 1 3695 0
 7928 0098 FB69     		ldr	r3, [r7, #28]
 7929 009a 0093     		str	r3, [sp]
 7930 009c BB69     		ldr	r3, [r7, #24]
 7931 009e 0022     		movs	r2, #0
 7932 00a0 8021     		movs	r1, #128
 7933 00a2 F868     		ldr	r0, [r7, #12]
 7934 00a4 FFF7FEFF 		bl	I2C_WaitOnFlagUntilTimeout
 7935 00a8 0346     		mov	r3, r0
 7936 00aa 002B     		cmp	r3, #0
 7937 00ac 01D0     		beq	.L406
3696:Drivers/STM32F7xx_HAL_Driver/Src/stm32f7xx_hal_i2c.c ****   {
3697:Drivers/STM32F7xx_HAL_Driver/Src/stm32f7xx_hal_i2c.c ****     return HAL_TIMEOUT;
 7938              		.loc 1 3697 0
 7939 00ae 0323     		movs	r3, #3
 7940 00b0 00E0     		b	.L401
 7941              	.L406:
3698:Drivers/STM32F7xx_HAL_Driver/Src/stm32f7xx_hal_i2c.c ****   }
3699:Drivers/STM32F7xx_HAL_Driver/Src/stm32f7xx_hal_i2c.c **** 
3700:Drivers/STM32F7xx_HAL_Driver/Src/stm32f7xx_hal_i2c.c ****   return HAL_OK;
 7942              		.loc 1 3700 0
 7943 00b2 0023     		movs	r3, #0
 7944              	.L401:
3701:Drivers/STM32F7xx_HAL_Driver/Src/stm32f7xx_hal_i2c.c **** }
ARM GAS  /var/folders/n8/cvzdcwlj0vl4g_wtyz1ffy300000gn/T//ccBPNZvy.s 			page 204


 7945              		.loc 1 3701 0
 7946 00b4 1846     		mov	r0, r3
 7947 00b6 1037     		adds	r7, r7, #16
 7948              	.LCFI263:
 7949              		.cfi_def_cfa_offset 8
 7950 00b8 BD46     		mov	sp, r7
 7951              	.LCFI264:
 7952              		.cfi_def_cfa_register 13
 7953              		@ sp needed
 7954 00ba 80BD     		pop	{r7, pc}
 7955              	.L408:
 7956              		.align	2
 7957              	.L407:
 7958 00bc 00200080 		.word	-2147475456
 7959              		.cfi_endproc
 7960              	.LFE187:
 7962              		.section	.text.I2C_RequestMemoryRead,"ax",%progbits
 7963              		.align	1
 7964              		.syntax unified
 7965              		.thumb
 7966              		.thumb_func
 7967              		.fpu fpv5-sp-d16
 7969              	I2C_RequestMemoryRead:
 7970              	.LFB188:
3702:Drivers/STM32F7xx_HAL_Driver/Src/stm32f7xx_hal_i2c.c **** 
3703:Drivers/STM32F7xx_HAL_Driver/Src/stm32f7xx_hal_i2c.c **** /**
3704:Drivers/STM32F7xx_HAL_Driver/Src/stm32f7xx_hal_i2c.c ****   * @brief  Master sends target device address followed by internal memory address for read request
3705:Drivers/STM32F7xx_HAL_Driver/Src/stm32f7xx_hal_i2c.c ****   * @param  hi2c Pointer to a I2C_HandleTypeDef structure that contains
3706:Drivers/STM32F7xx_HAL_Driver/Src/stm32f7xx_hal_i2c.c ****   *                the configuration information for the specified I2C.
3707:Drivers/STM32F7xx_HAL_Driver/Src/stm32f7xx_hal_i2c.c ****   * @param  DevAddress Target device address which contain device 7 or 10 bits address value
3708:Drivers/STM32F7xx_HAL_Driver/Src/stm32f7xx_hal_i2c.c ****   *         in datasheet must be shifted to the left before calling the interface
3709:Drivers/STM32F7xx_HAL_Driver/Src/stm32f7xx_hal_i2c.c ****   * @param  MemAddress Internal memory address
3710:Drivers/STM32F7xx_HAL_Driver/Src/stm32f7xx_hal_i2c.c ****   * @param  MemAddSize Size of internal memory address
3711:Drivers/STM32F7xx_HAL_Driver/Src/stm32f7xx_hal_i2c.c ****   * @param  Timeout Timeout duration
3712:Drivers/STM32F7xx_HAL_Driver/Src/stm32f7xx_hal_i2c.c ****   * @param  Tickstart Tick start value
3713:Drivers/STM32F7xx_HAL_Driver/Src/stm32f7xx_hal_i2c.c ****   * @retval HAL status
3714:Drivers/STM32F7xx_HAL_Driver/Src/stm32f7xx_hal_i2c.c ****   */
3715:Drivers/STM32F7xx_HAL_Driver/Src/stm32f7xx_hal_i2c.c **** static HAL_StatusTypeDef I2C_RequestMemoryRead(I2C_HandleTypeDef *hi2c, uint16_t DevAddress, uint16
3716:Drivers/STM32F7xx_HAL_Driver/Src/stm32f7xx_hal_i2c.c **** {
 7971              		.loc 1 3716 0
 7972              		.cfi_startproc
 7973              		@ args = 8, pretend = 0, frame = 16
 7974              		@ frame_needed = 1, uses_anonymous_args = 0
 7975 0000 80B5     		push	{r7, lr}
 7976              	.LCFI265:
 7977              		.cfi_def_cfa_offset 8
 7978              		.cfi_offset 7, -8
 7979              		.cfi_offset 14, -4
 7980 0002 86B0     		sub	sp, sp, #24
 7981              	.LCFI266:
 7982              		.cfi_def_cfa_offset 32
 7983 0004 02AF     		add	r7, sp, #8
 7984              	.LCFI267:
 7985              		.cfi_def_cfa 7, 24
 7986 0006 F860     		str	r0, [r7, #12]
 7987 0008 0846     		mov	r0, r1
 7988 000a 1146     		mov	r1, r2
ARM GAS  /var/folders/n8/cvzdcwlj0vl4g_wtyz1ffy300000gn/T//ccBPNZvy.s 			page 205


 7989 000c 1A46     		mov	r2, r3
 7990 000e 0346     		mov	r3, r0	@ movhi
 7991 0010 7B81     		strh	r3, [r7, #10]	@ movhi
 7992 0012 0B46     		mov	r3, r1	@ movhi
 7993 0014 3B81     		strh	r3, [r7, #8]	@ movhi
 7994 0016 1346     		mov	r3, r2	@ movhi
 7995 0018 FB80     		strh	r3, [r7, #6]	@ movhi
3717:Drivers/STM32F7xx_HAL_Driver/Src/stm32f7xx_hal_i2c.c ****   I2C_TransferConfig(hi2c, DevAddress, MemAddSize, I2C_SOFTEND_MODE, I2C_GENERATE_START_WRITE);
 7996              		.loc 1 3717 0
 7997 001a FB88     		ldrh	r3, [r7, #6]	@ movhi
 7998 001c DAB2     		uxtb	r2, r3
 7999 001e 7989     		ldrh	r1, [r7, #10]
 8000 0020 264B     		ldr	r3, .L418
 8001 0022 0093     		str	r3, [sp]
 8002 0024 0023     		movs	r3, #0
 8003 0026 F868     		ldr	r0, [r7, #12]
 8004 0028 FFF7FEFF 		bl	I2C_TransferConfig
3718:Drivers/STM32F7xx_HAL_Driver/Src/stm32f7xx_hal_i2c.c **** 
3719:Drivers/STM32F7xx_HAL_Driver/Src/stm32f7xx_hal_i2c.c ****   /* Wait until TXIS flag is set */
3720:Drivers/STM32F7xx_HAL_Driver/Src/stm32f7xx_hal_i2c.c ****   if (I2C_WaitOnTXISFlagUntilTimeout(hi2c, Timeout, Tickstart) != HAL_OK)
 8005              		.loc 1 3720 0
 8006 002c FA69     		ldr	r2, [r7, #28]
 8007 002e B969     		ldr	r1, [r7, #24]
 8008 0030 F868     		ldr	r0, [r7, #12]
 8009 0032 FFF7FEFF 		bl	I2C_WaitOnTXISFlagUntilTimeout
 8010 0036 0346     		mov	r3, r0
 8011 0038 002B     		cmp	r3, #0
 8012 003a 07D0     		beq	.L410
3721:Drivers/STM32F7xx_HAL_Driver/Src/stm32f7xx_hal_i2c.c ****   {
3722:Drivers/STM32F7xx_HAL_Driver/Src/stm32f7xx_hal_i2c.c ****     if (hi2c->ErrorCode == HAL_I2C_ERROR_AF)
 8013              		.loc 1 3722 0
 8014 003c FB68     		ldr	r3, [r7, #12]
 8015 003e 5B6C     		ldr	r3, [r3, #68]
 8016 0040 042B     		cmp	r3, #4
 8017 0042 01D1     		bne	.L411
3723:Drivers/STM32F7xx_HAL_Driver/Src/stm32f7xx_hal_i2c.c ****     {
3724:Drivers/STM32F7xx_HAL_Driver/Src/stm32f7xx_hal_i2c.c ****       return HAL_ERROR;
 8018              		.loc 1 3724 0
 8019 0044 0123     		movs	r3, #1
 8020 0046 34E0     		b	.L412
 8021              	.L411:
3725:Drivers/STM32F7xx_HAL_Driver/Src/stm32f7xx_hal_i2c.c ****     }
3726:Drivers/STM32F7xx_HAL_Driver/Src/stm32f7xx_hal_i2c.c ****     else
3727:Drivers/STM32F7xx_HAL_Driver/Src/stm32f7xx_hal_i2c.c ****     {
3728:Drivers/STM32F7xx_HAL_Driver/Src/stm32f7xx_hal_i2c.c ****       return HAL_TIMEOUT;
 8022              		.loc 1 3728 0
 8023 0048 0323     		movs	r3, #3
 8024 004a 32E0     		b	.L412
 8025              	.L410:
3729:Drivers/STM32F7xx_HAL_Driver/Src/stm32f7xx_hal_i2c.c ****     }
3730:Drivers/STM32F7xx_HAL_Driver/Src/stm32f7xx_hal_i2c.c ****   }
3731:Drivers/STM32F7xx_HAL_Driver/Src/stm32f7xx_hal_i2c.c **** 
3732:Drivers/STM32F7xx_HAL_Driver/Src/stm32f7xx_hal_i2c.c ****   /* If Memory address size is 8Bit */
3733:Drivers/STM32F7xx_HAL_Driver/Src/stm32f7xx_hal_i2c.c ****   if (MemAddSize == I2C_MEMADD_SIZE_8BIT)
 8026              		.loc 1 3733 0
 8027 004c FB88     		ldrh	r3, [r7, #6]
 8028 004e 012B     		cmp	r3, #1
ARM GAS  /var/folders/n8/cvzdcwlj0vl4g_wtyz1ffy300000gn/T//ccBPNZvy.s 			page 206


 8029 0050 05D1     		bne	.L413
3734:Drivers/STM32F7xx_HAL_Driver/Src/stm32f7xx_hal_i2c.c ****   {
3735:Drivers/STM32F7xx_HAL_Driver/Src/stm32f7xx_hal_i2c.c ****     /* Send Memory Address */
3736:Drivers/STM32F7xx_HAL_Driver/Src/stm32f7xx_hal_i2c.c ****     hi2c->Instance->TXDR = I2C_MEM_ADD_LSB(MemAddress);
 8030              		.loc 1 3736 0
 8031 0052 3B89     		ldrh	r3, [r7, #8]	@ movhi
 8032 0054 DAB2     		uxtb	r2, r3
 8033 0056 FB68     		ldr	r3, [r7, #12]
 8034 0058 1B68     		ldr	r3, [r3]
 8035 005a 9A62     		str	r2, [r3, #40]
 8036 005c 1BE0     		b	.L414
 8037              	.L413:
3737:Drivers/STM32F7xx_HAL_Driver/Src/stm32f7xx_hal_i2c.c ****   }
3738:Drivers/STM32F7xx_HAL_Driver/Src/stm32f7xx_hal_i2c.c ****   /* If Memory address size is 16Bit */
3739:Drivers/STM32F7xx_HAL_Driver/Src/stm32f7xx_hal_i2c.c ****   else
3740:Drivers/STM32F7xx_HAL_Driver/Src/stm32f7xx_hal_i2c.c ****   {
3741:Drivers/STM32F7xx_HAL_Driver/Src/stm32f7xx_hal_i2c.c ****     /* Send MSB of Memory Address */
3742:Drivers/STM32F7xx_HAL_Driver/Src/stm32f7xx_hal_i2c.c ****     hi2c->Instance->TXDR = I2C_MEM_ADD_MSB(MemAddress);
 8038              		.loc 1 3742 0
 8039 005e 3B89     		ldrh	r3, [r7, #8]
 8040 0060 1B0A     		lsrs	r3, r3, #8
 8041 0062 9BB2     		uxth	r3, r3
 8042 0064 DAB2     		uxtb	r2, r3
 8043 0066 FB68     		ldr	r3, [r7, #12]
 8044 0068 1B68     		ldr	r3, [r3]
 8045 006a 9A62     		str	r2, [r3, #40]
3743:Drivers/STM32F7xx_HAL_Driver/Src/stm32f7xx_hal_i2c.c **** 
3744:Drivers/STM32F7xx_HAL_Driver/Src/stm32f7xx_hal_i2c.c ****     /* Wait until TXIS flag is set */
3745:Drivers/STM32F7xx_HAL_Driver/Src/stm32f7xx_hal_i2c.c ****     if (I2C_WaitOnTXISFlagUntilTimeout(hi2c, Timeout, Tickstart) != HAL_OK)
 8046              		.loc 1 3745 0
 8047 006c FA69     		ldr	r2, [r7, #28]
 8048 006e B969     		ldr	r1, [r7, #24]
 8049 0070 F868     		ldr	r0, [r7, #12]
 8050 0072 FFF7FEFF 		bl	I2C_WaitOnTXISFlagUntilTimeout
 8051 0076 0346     		mov	r3, r0
 8052 0078 002B     		cmp	r3, #0
 8053 007a 07D0     		beq	.L415
3746:Drivers/STM32F7xx_HAL_Driver/Src/stm32f7xx_hal_i2c.c ****     {
3747:Drivers/STM32F7xx_HAL_Driver/Src/stm32f7xx_hal_i2c.c ****       if (hi2c->ErrorCode == HAL_I2C_ERROR_AF)
 8054              		.loc 1 3747 0
 8055 007c FB68     		ldr	r3, [r7, #12]
 8056 007e 5B6C     		ldr	r3, [r3, #68]
 8057 0080 042B     		cmp	r3, #4
 8058 0082 01D1     		bne	.L416
3748:Drivers/STM32F7xx_HAL_Driver/Src/stm32f7xx_hal_i2c.c ****       {
3749:Drivers/STM32F7xx_HAL_Driver/Src/stm32f7xx_hal_i2c.c ****         return HAL_ERROR;
 8059              		.loc 1 3749 0
 8060 0084 0123     		movs	r3, #1
 8061 0086 14E0     		b	.L412
 8062              	.L416:
3750:Drivers/STM32F7xx_HAL_Driver/Src/stm32f7xx_hal_i2c.c ****       }
3751:Drivers/STM32F7xx_HAL_Driver/Src/stm32f7xx_hal_i2c.c ****       else
3752:Drivers/STM32F7xx_HAL_Driver/Src/stm32f7xx_hal_i2c.c ****       {
3753:Drivers/STM32F7xx_HAL_Driver/Src/stm32f7xx_hal_i2c.c ****         return HAL_TIMEOUT;
 8063              		.loc 1 3753 0
 8064 0088 0323     		movs	r3, #3
 8065 008a 12E0     		b	.L412
ARM GAS  /var/folders/n8/cvzdcwlj0vl4g_wtyz1ffy300000gn/T//ccBPNZvy.s 			page 207


 8066              	.L415:
3754:Drivers/STM32F7xx_HAL_Driver/Src/stm32f7xx_hal_i2c.c ****       }
3755:Drivers/STM32F7xx_HAL_Driver/Src/stm32f7xx_hal_i2c.c ****     }
3756:Drivers/STM32F7xx_HAL_Driver/Src/stm32f7xx_hal_i2c.c **** 
3757:Drivers/STM32F7xx_HAL_Driver/Src/stm32f7xx_hal_i2c.c ****     /* Send LSB of Memory Address */
3758:Drivers/STM32F7xx_HAL_Driver/Src/stm32f7xx_hal_i2c.c ****     hi2c->Instance->TXDR = I2C_MEM_ADD_LSB(MemAddress);
 8067              		.loc 1 3758 0
 8068 008c 3B89     		ldrh	r3, [r7, #8]	@ movhi
 8069 008e DAB2     		uxtb	r2, r3
 8070 0090 FB68     		ldr	r3, [r7, #12]
 8071 0092 1B68     		ldr	r3, [r3]
 8072 0094 9A62     		str	r2, [r3, #40]
 8073              	.L414:
3759:Drivers/STM32F7xx_HAL_Driver/Src/stm32f7xx_hal_i2c.c ****   }
3760:Drivers/STM32F7xx_HAL_Driver/Src/stm32f7xx_hal_i2c.c **** 
3761:Drivers/STM32F7xx_HAL_Driver/Src/stm32f7xx_hal_i2c.c ****   /* Wait until TC flag is set */
3762:Drivers/STM32F7xx_HAL_Driver/Src/stm32f7xx_hal_i2c.c ****   if (I2C_WaitOnFlagUntilTimeout(hi2c, I2C_FLAG_TC, RESET, Timeout, Tickstart) != HAL_OK)
 8074              		.loc 1 3762 0
 8075 0096 FB69     		ldr	r3, [r7, #28]
 8076 0098 0093     		str	r3, [sp]
 8077 009a BB69     		ldr	r3, [r7, #24]
 8078 009c 0022     		movs	r2, #0
 8079 009e 4021     		movs	r1, #64
 8080 00a0 F868     		ldr	r0, [r7, #12]
 8081 00a2 FFF7FEFF 		bl	I2C_WaitOnFlagUntilTimeout
 8082 00a6 0346     		mov	r3, r0
 8083 00a8 002B     		cmp	r3, #0
 8084 00aa 01D0     		beq	.L417
3763:Drivers/STM32F7xx_HAL_Driver/Src/stm32f7xx_hal_i2c.c ****   {
3764:Drivers/STM32F7xx_HAL_Driver/Src/stm32f7xx_hal_i2c.c ****     return HAL_TIMEOUT;
 8085              		.loc 1 3764 0
 8086 00ac 0323     		movs	r3, #3
 8087 00ae 00E0     		b	.L412
 8088              	.L417:
3765:Drivers/STM32F7xx_HAL_Driver/Src/stm32f7xx_hal_i2c.c ****   }
3766:Drivers/STM32F7xx_HAL_Driver/Src/stm32f7xx_hal_i2c.c **** 
3767:Drivers/STM32F7xx_HAL_Driver/Src/stm32f7xx_hal_i2c.c ****   return HAL_OK;
 8089              		.loc 1 3767 0
 8090 00b0 0023     		movs	r3, #0
 8091              	.L412:
3768:Drivers/STM32F7xx_HAL_Driver/Src/stm32f7xx_hal_i2c.c **** }
 8092              		.loc 1 3768 0
 8093 00b2 1846     		mov	r0, r3
 8094 00b4 1037     		adds	r7, r7, #16
 8095              	.LCFI268:
 8096              		.cfi_def_cfa_offset 8
 8097 00b6 BD46     		mov	sp, r7
 8098              	.LCFI269:
 8099              		.cfi_def_cfa_register 13
 8100              		@ sp needed
 8101 00b8 80BD     		pop	{r7, pc}
 8102              	.L419:
 8103 00ba 00BF     		.align	2
 8104              	.L418:
 8105 00bc 00200080 		.word	-2147475456
 8106              		.cfi_endproc
 8107              	.LFE188:
ARM GAS  /var/folders/n8/cvzdcwlj0vl4g_wtyz1ffy300000gn/T//ccBPNZvy.s 			page 208


 8109              		.section	.text.I2C_ITAddrCplt,"ax",%progbits
 8110              		.align	1
 8111              		.syntax unified
 8112              		.thumb
 8113              		.thumb_func
 8114              		.fpu fpv5-sp-d16
 8116              	I2C_ITAddrCplt:
 8117              	.LFB189:
3769:Drivers/STM32F7xx_HAL_Driver/Src/stm32f7xx_hal_i2c.c **** 
3770:Drivers/STM32F7xx_HAL_Driver/Src/stm32f7xx_hal_i2c.c **** /**
3771:Drivers/STM32F7xx_HAL_Driver/Src/stm32f7xx_hal_i2c.c ****   * @brief  I2C Address complete process callback.
3772:Drivers/STM32F7xx_HAL_Driver/Src/stm32f7xx_hal_i2c.c ****   * @param  hi2c I2C handle.
3773:Drivers/STM32F7xx_HAL_Driver/Src/stm32f7xx_hal_i2c.c ****   * @param  ITFlags Interrupt flags to handle.
3774:Drivers/STM32F7xx_HAL_Driver/Src/stm32f7xx_hal_i2c.c ****   * @retval None
3775:Drivers/STM32F7xx_HAL_Driver/Src/stm32f7xx_hal_i2c.c ****   */
3776:Drivers/STM32F7xx_HAL_Driver/Src/stm32f7xx_hal_i2c.c **** static void I2C_ITAddrCplt(I2C_HandleTypeDef *hi2c, uint32_t ITFlags)
3777:Drivers/STM32F7xx_HAL_Driver/Src/stm32f7xx_hal_i2c.c **** {
 8118              		.loc 1 3777 0
 8119              		.cfi_startproc
 8120              		@ args = 0, pretend = 0, frame = 16
 8121              		@ frame_needed = 1, uses_anonymous_args = 0
 8122 0000 80B5     		push	{r7, lr}
 8123              	.LCFI270:
 8124              		.cfi_def_cfa_offset 8
 8125              		.cfi_offset 7, -8
 8126              		.cfi_offset 14, -4
 8127 0002 84B0     		sub	sp, sp, #16
 8128              	.LCFI271:
 8129              		.cfi_def_cfa_offset 24
 8130 0004 00AF     		add	r7, sp, #0
 8131              	.LCFI272:
 8132              		.cfi_def_cfa_register 7
 8133 0006 7860     		str	r0, [r7, #4]
 8134 0008 3960     		str	r1, [r7]
3778:Drivers/STM32F7xx_HAL_Driver/Src/stm32f7xx_hal_i2c.c ****   uint8_t transferdirection = 0U;
 8135              		.loc 1 3778 0
 8136 000a 0023     		movs	r3, #0
 8137 000c FB73     		strb	r3, [r7, #15]
3779:Drivers/STM32F7xx_HAL_Driver/Src/stm32f7xx_hal_i2c.c ****   uint16_t slaveaddrcode = 0U;
 8138              		.loc 1 3779 0
 8139 000e 0023     		movs	r3, #0
 8140 0010 BB81     		strh	r3, [r7, #12]	@ movhi
3780:Drivers/STM32F7xx_HAL_Driver/Src/stm32f7xx_hal_i2c.c ****   uint16_t ownadd1code = 0U;
 8141              		.loc 1 3780 0
 8142 0012 0023     		movs	r3, #0
 8143 0014 7B81     		strh	r3, [r7, #10]	@ movhi
3781:Drivers/STM32F7xx_HAL_Driver/Src/stm32f7xx_hal_i2c.c ****   uint16_t ownadd2code = 0U;
 8144              		.loc 1 3781 0
 8145 0016 0023     		movs	r3, #0
 8146 0018 3B81     		strh	r3, [r7, #8]	@ movhi
3782:Drivers/STM32F7xx_HAL_Driver/Src/stm32f7xx_hal_i2c.c **** 
3783:Drivers/STM32F7xx_HAL_Driver/Src/stm32f7xx_hal_i2c.c ****   /* Prevent unused argument(s) compilation warning */
3784:Drivers/STM32F7xx_HAL_Driver/Src/stm32f7xx_hal_i2c.c ****   UNUSED(ITFlags);
3785:Drivers/STM32F7xx_HAL_Driver/Src/stm32f7xx_hal_i2c.c **** 
3786:Drivers/STM32F7xx_HAL_Driver/Src/stm32f7xx_hal_i2c.c ****   /* In case of Listen state, need to inform upper layer of address match code event */
3787:Drivers/STM32F7xx_HAL_Driver/Src/stm32f7xx_hal_i2c.c ****   if ((hi2c->State & HAL_I2C_STATE_LISTEN) == HAL_I2C_STATE_LISTEN)
 8147              		.loc 1 3787 0
ARM GAS  /var/folders/n8/cvzdcwlj0vl4g_wtyz1ffy300000gn/T//ccBPNZvy.s 			page 209


 8148 001a 7B68     		ldr	r3, [r7, #4]
 8149 001c 93F84130 		ldrb	r3, [r3, #65]
 8150 0020 DBB2     		uxtb	r3, r3
 8151 0022 03F02803 		and	r3, r3, #40
 8152 0026 282B     		cmp	r3, #40
 8153 0028 68D1     		bne	.L421
3788:Drivers/STM32F7xx_HAL_Driver/Src/stm32f7xx_hal_i2c.c ****   {
3789:Drivers/STM32F7xx_HAL_Driver/Src/stm32f7xx_hal_i2c.c ****     transferdirection = I2C_GET_DIR(hi2c);
 8154              		.loc 1 3789 0
 8155 002a 7B68     		ldr	r3, [r7, #4]
 8156 002c 1B68     		ldr	r3, [r3]
 8157 002e 9B69     		ldr	r3, [r3, #24]
 8158 0030 1B0C     		lsrs	r3, r3, #16
 8159 0032 DBB2     		uxtb	r3, r3
 8160 0034 03F00103 		and	r3, r3, #1
 8161 0038 FB73     		strb	r3, [r7, #15]
3790:Drivers/STM32F7xx_HAL_Driver/Src/stm32f7xx_hal_i2c.c ****     slaveaddrcode     = I2C_GET_ADDR_MATCH(hi2c);
 8162              		.loc 1 3790 0
 8163 003a 7B68     		ldr	r3, [r7, #4]
 8164 003c 1B68     		ldr	r3, [r3]
 8165 003e 9B69     		ldr	r3, [r3, #24]
 8166 0040 1B0C     		lsrs	r3, r3, #16
 8167 0042 9BB2     		uxth	r3, r3
 8168 0044 03F0FE03 		and	r3, r3, #254
 8169 0048 BB81     		strh	r3, [r7, #12]	@ movhi
3791:Drivers/STM32F7xx_HAL_Driver/Src/stm32f7xx_hal_i2c.c ****     ownadd1code       = I2C_GET_OWN_ADDRESS1(hi2c);
 8170              		.loc 1 3791 0
 8171 004a 7B68     		ldr	r3, [r7, #4]
 8172 004c 1B68     		ldr	r3, [r3]
 8173 004e 9B68     		ldr	r3, [r3, #8]
 8174 0050 9BB2     		uxth	r3, r3
 8175 0052 C3F30903 		ubfx	r3, r3, #0, #10
 8176 0056 7B81     		strh	r3, [r7, #10]	@ movhi
3792:Drivers/STM32F7xx_HAL_Driver/Src/stm32f7xx_hal_i2c.c ****     ownadd2code       = I2C_GET_OWN_ADDRESS2(hi2c);
 8177              		.loc 1 3792 0
 8178 0058 7B68     		ldr	r3, [r7, #4]
 8179 005a 1B68     		ldr	r3, [r3]
 8180 005c DB68     		ldr	r3, [r3, #12]
 8181 005e 9BB2     		uxth	r3, r3
 8182 0060 03F0FE03 		and	r3, r3, #254
 8183 0064 3B81     		strh	r3, [r7, #8]	@ movhi
3793:Drivers/STM32F7xx_HAL_Driver/Src/stm32f7xx_hal_i2c.c **** 
3794:Drivers/STM32F7xx_HAL_Driver/Src/stm32f7xx_hal_i2c.c ****     /* If 10bits addressing mode is selected */
3795:Drivers/STM32F7xx_HAL_Driver/Src/stm32f7xx_hal_i2c.c ****     if (hi2c->Init.AddressingMode == I2C_ADDRESSINGMODE_10BIT)
 8184              		.loc 1 3795 0
 8185 0066 7B68     		ldr	r3, [r7, #4]
 8186 0068 DB68     		ldr	r3, [r3, #12]
 8187 006a 022B     		cmp	r3, #2
 8188 006c 37D1     		bne	.L422
3796:Drivers/STM32F7xx_HAL_Driver/Src/stm32f7xx_hal_i2c.c ****     {
3797:Drivers/STM32F7xx_HAL_Driver/Src/stm32f7xx_hal_i2c.c ****       if ((slaveaddrcode & SlaveAddr_MSK) == ((ownadd1code >> SlaveAddr_SHIFT) & SlaveAddr_MSK))
 8189              		.loc 1 3797 0
 8190 006e 7B89     		ldrh	r3, [r7, #10]
 8191 0070 DB09     		lsrs	r3, r3, #7
 8192 0072 9AB2     		uxth	r2, r3
 8193 0074 BB89     		ldrh	r3, [r7, #12]	@ movhi
 8194 0076 5340     		eors	r3, r3, r2
ARM GAS  /var/folders/n8/cvzdcwlj0vl4g_wtyz1ffy300000gn/T//ccBPNZvy.s 			page 210


 8195 0078 9BB2     		uxth	r3, r3
 8196 007a 03F00603 		and	r3, r3, #6
 8197 007e 002B     		cmp	r3, #0
 8198 0080 1CD1     		bne	.L423
3798:Drivers/STM32F7xx_HAL_Driver/Src/stm32f7xx_hal_i2c.c ****       {
3799:Drivers/STM32F7xx_HAL_Driver/Src/stm32f7xx_hal_i2c.c ****         slaveaddrcode = ownadd1code;
 8199              		.loc 1 3799 0
 8200 0082 7B89     		ldrh	r3, [r7, #10]	@ movhi
 8201 0084 BB81     		strh	r3, [r7, #12]	@ movhi
3800:Drivers/STM32F7xx_HAL_Driver/Src/stm32f7xx_hal_i2c.c ****         hi2c->AddrEventCount++;
 8202              		.loc 1 3800 0
 8203 0086 7B68     		ldr	r3, [r7, #4]
 8204 0088 9B6C     		ldr	r3, [r3, #72]
 8205 008a 5A1C     		adds	r2, r3, #1
 8206 008c 7B68     		ldr	r3, [r7, #4]
 8207 008e 9A64     		str	r2, [r3, #72]
3801:Drivers/STM32F7xx_HAL_Driver/Src/stm32f7xx_hal_i2c.c ****         if (hi2c->AddrEventCount == 2U)
 8208              		.loc 1 3801 0
 8209 0090 7B68     		ldr	r3, [r7, #4]
 8210 0092 9B6C     		ldr	r3, [r3, #72]
 8211 0094 022B     		cmp	r3, #2
 8212 0096 39D1     		bne	.L428
3802:Drivers/STM32F7xx_HAL_Driver/Src/stm32f7xx_hal_i2c.c ****         {
3803:Drivers/STM32F7xx_HAL_Driver/Src/stm32f7xx_hal_i2c.c ****           /* Reset Address Event counter */
3804:Drivers/STM32F7xx_HAL_Driver/Src/stm32f7xx_hal_i2c.c ****           hi2c->AddrEventCount = 0U;
 8213              		.loc 1 3804 0
 8214 0098 7B68     		ldr	r3, [r7, #4]
 8215 009a 0022     		movs	r2, #0
 8216 009c 9A64     		str	r2, [r3, #72]
3805:Drivers/STM32F7xx_HAL_Driver/Src/stm32f7xx_hal_i2c.c **** 
3806:Drivers/STM32F7xx_HAL_Driver/Src/stm32f7xx_hal_i2c.c ****           /* Clear ADDR flag */
3807:Drivers/STM32F7xx_HAL_Driver/Src/stm32f7xx_hal_i2c.c ****           __HAL_I2C_CLEAR_FLAG(hi2c, I2C_FLAG_ADDR);
 8217              		.loc 1 3807 0
 8218 009e 7B68     		ldr	r3, [r7, #4]
 8219 00a0 1B68     		ldr	r3, [r3]
 8220 00a2 0822     		movs	r2, #8
 8221 00a4 DA61     		str	r2, [r3, #28]
3808:Drivers/STM32F7xx_HAL_Driver/Src/stm32f7xx_hal_i2c.c **** 
3809:Drivers/STM32F7xx_HAL_Driver/Src/stm32f7xx_hal_i2c.c ****           /* Process Unlocked */
3810:Drivers/STM32F7xx_HAL_Driver/Src/stm32f7xx_hal_i2c.c ****           __HAL_UNLOCK(hi2c);
 8222              		.loc 1 3810 0
 8223 00a6 7B68     		ldr	r3, [r7, #4]
 8224 00a8 0022     		movs	r2, #0
 8225 00aa 83F84020 		strb	r2, [r3, #64]
3811:Drivers/STM32F7xx_HAL_Driver/Src/stm32f7xx_hal_i2c.c **** 
3812:Drivers/STM32F7xx_HAL_Driver/Src/stm32f7xx_hal_i2c.c ****           /* Call Slave Addr callback */
3813:Drivers/STM32F7xx_HAL_Driver/Src/stm32f7xx_hal_i2c.c ****           HAL_I2C_AddrCallback(hi2c, transferdirection, slaveaddrcode);
 8226              		.loc 1 3813 0
 8227 00ae BA89     		ldrh	r2, [r7, #12]
 8228 00b0 FB7B     		ldrb	r3, [r7, #15]	@ zero_extendqisi2
 8229 00b2 1946     		mov	r1, r3
 8230 00b4 7868     		ldr	r0, [r7, #4]
 8231 00b6 FFF7FEFF 		bl	HAL_I2C_AddrCallback
3814:Drivers/STM32F7xx_HAL_Driver/Src/stm32f7xx_hal_i2c.c ****         }
3815:Drivers/STM32F7xx_HAL_Driver/Src/stm32f7xx_hal_i2c.c ****       }
3816:Drivers/STM32F7xx_HAL_Driver/Src/stm32f7xx_hal_i2c.c ****       else
3817:Drivers/STM32F7xx_HAL_Driver/Src/stm32f7xx_hal_i2c.c ****       {
ARM GAS  /var/folders/n8/cvzdcwlj0vl4g_wtyz1ffy300000gn/T//ccBPNZvy.s 			page 211


3818:Drivers/STM32F7xx_HAL_Driver/Src/stm32f7xx_hal_i2c.c ****         slaveaddrcode = ownadd2code;
3819:Drivers/STM32F7xx_HAL_Driver/Src/stm32f7xx_hal_i2c.c **** 
3820:Drivers/STM32F7xx_HAL_Driver/Src/stm32f7xx_hal_i2c.c ****         /* Disable ADDR Interrupts */
3821:Drivers/STM32F7xx_HAL_Driver/Src/stm32f7xx_hal_i2c.c ****         I2C_Disable_IRQ(hi2c, I2C_XFER_LISTEN_IT);
3822:Drivers/STM32F7xx_HAL_Driver/Src/stm32f7xx_hal_i2c.c **** 
3823:Drivers/STM32F7xx_HAL_Driver/Src/stm32f7xx_hal_i2c.c ****         /* Process Unlocked */
3824:Drivers/STM32F7xx_HAL_Driver/Src/stm32f7xx_hal_i2c.c ****         __HAL_UNLOCK(hi2c);
3825:Drivers/STM32F7xx_HAL_Driver/Src/stm32f7xx_hal_i2c.c **** 
3826:Drivers/STM32F7xx_HAL_Driver/Src/stm32f7xx_hal_i2c.c ****         /* Call Slave Addr callback */
3827:Drivers/STM32F7xx_HAL_Driver/Src/stm32f7xx_hal_i2c.c ****         HAL_I2C_AddrCallback(hi2c, transferdirection, slaveaddrcode);
3828:Drivers/STM32F7xx_HAL_Driver/Src/stm32f7xx_hal_i2c.c ****       }
3829:Drivers/STM32F7xx_HAL_Driver/Src/stm32f7xx_hal_i2c.c ****     }
3830:Drivers/STM32F7xx_HAL_Driver/Src/stm32f7xx_hal_i2c.c ****     /* else 7 bits addressing mode is selected */
3831:Drivers/STM32F7xx_HAL_Driver/Src/stm32f7xx_hal_i2c.c ****     else
3832:Drivers/STM32F7xx_HAL_Driver/Src/stm32f7xx_hal_i2c.c ****     {
3833:Drivers/STM32F7xx_HAL_Driver/Src/stm32f7xx_hal_i2c.c ****       /* Disable ADDR Interrupts */
3834:Drivers/STM32F7xx_HAL_Driver/Src/stm32f7xx_hal_i2c.c ****       I2C_Disable_IRQ(hi2c, I2C_XFER_LISTEN_IT);
3835:Drivers/STM32F7xx_HAL_Driver/Src/stm32f7xx_hal_i2c.c **** 
3836:Drivers/STM32F7xx_HAL_Driver/Src/stm32f7xx_hal_i2c.c ****       /* Process Unlocked */
3837:Drivers/STM32F7xx_HAL_Driver/Src/stm32f7xx_hal_i2c.c ****       __HAL_UNLOCK(hi2c);
3838:Drivers/STM32F7xx_HAL_Driver/Src/stm32f7xx_hal_i2c.c **** 
3839:Drivers/STM32F7xx_HAL_Driver/Src/stm32f7xx_hal_i2c.c ****       /* Call Slave Addr callback */
3840:Drivers/STM32F7xx_HAL_Driver/Src/stm32f7xx_hal_i2c.c ****       HAL_I2C_AddrCallback(hi2c, transferdirection, slaveaddrcode);
3841:Drivers/STM32F7xx_HAL_Driver/Src/stm32f7xx_hal_i2c.c ****     }
3842:Drivers/STM32F7xx_HAL_Driver/Src/stm32f7xx_hal_i2c.c ****   }
3843:Drivers/STM32F7xx_HAL_Driver/Src/stm32f7xx_hal_i2c.c ****   /* Else clear address flag only */
3844:Drivers/STM32F7xx_HAL_Driver/Src/stm32f7xx_hal_i2c.c ****   else
3845:Drivers/STM32F7xx_HAL_Driver/Src/stm32f7xx_hal_i2c.c ****   {
3846:Drivers/STM32F7xx_HAL_Driver/Src/stm32f7xx_hal_i2c.c ****     /* Clear ADDR flag */
3847:Drivers/STM32F7xx_HAL_Driver/Src/stm32f7xx_hal_i2c.c ****     __HAL_I2C_CLEAR_FLAG(hi2c, I2C_FLAG_ADDR);
3848:Drivers/STM32F7xx_HAL_Driver/Src/stm32f7xx_hal_i2c.c **** 
3849:Drivers/STM32F7xx_HAL_Driver/Src/stm32f7xx_hal_i2c.c ****     /* Process Unlocked */
3850:Drivers/STM32F7xx_HAL_Driver/Src/stm32f7xx_hal_i2c.c ****     __HAL_UNLOCK(hi2c);
3851:Drivers/STM32F7xx_HAL_Driver/Src/stm32f7xx_hal_i2c.c ****   }
3852:Drivers/STM32F7xx_HAL_Driver/Src/stm32f7xx_hal_i2c.c **** }
 8232              		.loc 1 3852 0
 8233 00ba 27E0     		b	.L428
 8234              	.L423:
3818:Drivers/STM32F7xx_HAL_Driver/Src/stm32f7xx_hal_i2c.c **** 
 8235              		.loc 1 3818 0
 8236 00bc 3B89     		ldrh	r3, [r7, #8]	@ movhi
 8237 00be BB81     		strh	r3, [r7, #12]	@ movhi
3821:Drivers/STM32F7xx_HAL_Driver/Src/stm32f7xx_hal_i2c.c **** 
 8238              		.loc 1 3821 0
 8239 00c0 0421     		movs	r1, #4
 8240 00c2 7868     		ldr	r0, [r7, #4]
 8241 00c4 FFF7FEFF 		bl	I2C_Disable_IRQ
3824:Drivers/STM32F7xx_HAL_Driver/Src/stm32f7xx_hal_i2c.c **** 
 8242              		.loc 1 3824 0
 8243 00c8 7B68     		ldr	r3, [r7, #4]
 8244 00ca 0022     		movs	r2, #0
 8245 00cc 83F84020 		strb	r2, [r3, #64]
3827:Drivers/STM32F7xx_HAL_Driver/Src/stm32f7xx_hal_i2c.c ****       }
 8246              		.loc 1 3827 0
 8247 00d0 BA89     		ldrh	r2, [r7, #12]
 8248 00d2 FB7B     		ldrb	r3, [r7, #15]	@ zero_extendqisi2
 8249 00d4 1946     		mov	r1, r3
ARM GAS  /var/folders/n8/cvzdcwlj0vl4g_wtyz1ffy300000gn/T//ccBPNZvy.s 			page 212


 8250 00d6 7868     		ldr	r0, [r7, #4]
 8251 00d8 FFF7FEFF 		bl	HAL_I2C_AddrCallback
 8252              		.loc 1 3852 0
 8253 00dc 16E0     		b	.L428
 8254              	.L422:
3834:Drivers/STM32F7xx_HAL_Driver/Src/stm32f7xx_hal_i2c.c **** 
 8255              		.loc 1 3834 0
 8256 00de 0421     		movs	r1, #4
 8257 00e0 7868     		ldr	r0, [r7, #4]
 8258 00e2 FFF7FEFF 		bl	I2C_Disable_IRQ
3837:Drivers/STM32F7xx_HAL_Driver/Src/stm32f7xx_hal_i2c.c **** 
 8259              		.loc 1 3837 0
 8260 00e6 7B68     		ldr	r3, [r7, #4]
 8261 00e8 0022     		movs	r2, #0
 8262 00ea 83F84020 		strb	r2, [r3, #64]
3840:Drivers/STM32F7xx_HAL_Driver/Src/stm32f7xx_hal_i2c.c ****     }
 8263              		.loc 1 3840 0
 8264 00ee BA89     		ldrh	r2, [r7, #12]
 8265 00f0 FB7B     		ldrb	r3, [r7, #15]	@ zero_extendqisi2
 8266 00f2 1946     		mov	r1, r3
 8267 00f4 7868     		ldr	r0, [r7, #4]
 8268 00f6 FFF7FEFF 		bl	HAL_I2C_AddrCallback
 8269              		.loc 1 3852 0
 8270 00fa 07E0     		b	.L428
 8271              	.L421:
3847:Drivers/STM32F7xx_HAL_Driver/Src/stm32f7xx_hal_i2c.c **** 
 8272              		.loc 1 3847 0
 8273 00fc 7B68     		ldr	r3, [r7, #4]
 8274 00fe 1B68     		ldr	r3, [r3]
 8275 0100 0822     		movs	r2, #8
 8276 0102 DA61     		str	r2, [r3, #28]
3850:Drivers/STM32F7xx_HAL_Driver/Src/stm32f7xx_hal_i2c.c ****   }
 8277              		.loc 1 3850 0
 8278 0104 7B68     		ldr	r3, [r7, #4]
 8279 0106 0022     		movs	r2, #0
 8280 0108 83F84020 		strb	r2, [r3, #64]
 8281              	.L428:
 8282              		.loc 1 3852 0
 8283 010c 00BF     		nop
 8284 010e 1037     		adds	r7, r7, #16
 8285              	.LCFI273:
 8286              		.cfi_def_cfa_offset 8
 8287 0110 BD46     		mov	sp, r7
 8288              	.LCFI274:
 8289              		.cfi_def_cfa_register 13
 8290              		@ sp needed
 8291 0112 80BD     		pop	{r7, pc}
 8292              		.cfi_endproc
 8293              	.LFE189:
 8295              		.section	.text.I2C_ITMasterSequentialCplt,"ax",%progbits
 8296              		.align	1
 8297              		.syntax unified
 8298              		.thumb
 8299              		.thumb_func
 8300              		.fpu fpv5-sp-d16
 8302              	I2C_ITMasterSequentialCplt:
 8303              	.LFB190:
ARM GAS  /var/folders/n8/cvzdcwlj0vl4g_wtyz1ffy300000gn/T//ccBPNZvy.s 			page 213


3853:Drivers/STM32F7xx_HAL_Driver/Src/stm32f7xx_hal_i2c.c **** 
3854:Drivers/STM32F7xx_HAL_Driver/Src/stm32f7xx_hal_i2c.c **** /**
3855:Drivers/STM32F7xx_HAL_Driver/Src/stm32f7xx_hal_i2c.c ****   * @brief  I2C Master sequential complete process.
3856:Drivers/STM32F7xx_HAL_Driver/Src/stm32f7xx_hal_i2c.c ****   * @param  hi2c I2C handle.
3857:Drivers/STM32F7xx_HAL_Driver/Src/stm32f7xx_hal_i2c.c ****   * @retval None
3858:Drivers/STM32F7xx_HAL_Driver/Src/stm32f7xx_hal_i2c.c ****   */
3859:Drivers/STM32F7xx_HAL_Driver/Src/stm32f7xx_hal_i2c.c **** static void I2C_ITMasterSequentialCplt(I2C_HandleTypeDef *hi2c)
3860:Drivers/STM32F7xx_HAL_Driver/Src/stm32f7xx_hal_i2c.c **** {
 8304              		.loc 1 3860 0
 8305              		.cfi_startproc
 8306              		@ args = 0, pretend = 0, frame = 8
 8307              		@ frame_needed = 1, uses_anonymous_args = 0
 8308 0000 80B5     		push	{r7, lr}
 8309              	.LCFI275:
 8310              		.cfi_def_cfa_offset 8
 8311              		.cfi_offset 7, -8
 8312              		.cfi_offset 14, -4
 8313 0002 82B0     		sub	sp, sp, #8
 8314              	.LCFI276:
 8315              		.cfi_def_cfa_offset 16
 8316 0004 00AF     		add	r7, sp, #0
 8317              	.LCFI277:
 8318              		.cfi_def_cfa_register 7
 8319 0006 7860     		str	r0, [r7, #4]
3861:Drivers/STM32F7xx_HAL_Driver/Src/stm32f7xx_hal_i2c.c ****   /* Reset I2C handle mode */
3862:Drivers/STM32F7xx_HAL_Driver/Src/stm32f7xx_hal_i2c.c ****   hi2c->Mode = HAL_I2C_MODE_NONE;
 8320              		.loc 1 3862 0
 8321 0008 7B68     		ldr	r3, [r7, #4]
 8322 000a 0022     		movs	r2, #0
 8323 000c 83F84220 		strb	r2, [r3, #66]
3863:Drivers/STM32F7xx_HAL_Driver/Src/stm32f7xx_hal_i2c.c **** 
3864:Drivers/STM32F7xx_HAL_Driver/Src/stm32f7xx_hal_i2c.c ****   /* No Generate Stop, to permit restart mode */
3865:Drivers/STM32F7xx_HAL_Driver/Src/stm32f7xx_hal_i2c.c ****   /* The stop will be done at the end of transfer, when I2C_AUTOEND_MODE enable */
3866:Drivers/STM32F7xx_HAL_Driver/Src/stm32f7xx_hal_i2c.c ****   if (hi2c->State == HAL_I2C_STATE_BUSY_TX)
 8324              		.loc 1 3866 0
 8325 0010 7B68     		ldr	r3, [r7, #4]
 8326 0012 93F84130 		ldrb	r3, [r3, #65]
 8327 0016 DBB2     		uxtb	r3, r3
 8328 0018 212B     		cmp	r3, #33
 8329 001a 15D1     		bne	.L430
3867:Drivers/STM32F7xx_HAL_Driver/Src/stm32f7xx_hal_i2c.c ****   {
3868:Drivers/STM32F7xx_HAL_Driver/Src/stm32f7xx_hal_i2c.c ****     hi2c->State         = HAL_I2C_STATE_READY;
 8330              		.loc 1 3868 0
 8331 001c 7B68     		ldr	r3, [r7, #4]
 8332 001e 2022     		movs	r2, #32
 8333 0020 83F84120 		strb	r2, [r3, #65]
3869:Drivers/STM32F7xx_HAL_Driver/Src/stm32f7xx_hal_i2c.c ****     hi2c->PreviousState = I2C_STATE_MASTER_BUSY_TX;
 8334              		.loc 1 3869 0
 8335 0024 7B68     		ldr	r3, [r7, #4]
 8336 0026 1122     		movs	r2, #17
 8337 0028 1A63     		str	r2, [r3, #48]
3870:Drivers/STM32F7xx_HAL_Driver/Src/stm32f7xx_hal_i2c.c ****     hi2c->XferISR       = NULL;
 8338              		.loc 1 3870 0
 8339 002a 7B68     		ldr	r3, [r7, #4]
 8340 002c 0022     		movs	r2, #0
 8341 002e 5A63     		str	r2, [r3, #52]
3871:Drivers/STM32F7xx_HAL_Driver/Src/stm32f7xx_hal_i2c.c **** 
ARM GAS  /var/folders/n8/cvzdcwlj0vl4g_wtyz1ffy300000gn/T//ccBPNZvy.s 			page 214


3872:Drivers/STM32F7xx_HAL_Driver/Src/stm32f7xx_hal_i2c.c ****     /* Disable Interrupts */
3873:Drivers/STM32F7xx_HAL_Driver/Src/stm32f7xx_hal_i2c.c ****     I2C_Disable_IRQ(hi2c, I2C_XFER_TX_IT);
 8342              		.loc 1 3873 0
 8343 0030 0121     		movs	r1, #1
 8344 0032 7868     		ldr	r0, [r7, #4]
 8345 0034 FFF7FEFF 		bl	I2C_Disable_IRQ
3874:Drivers/STM32F7xx_HAL_Driver/Src/stm32f7xx_hal_i2c.c **** 
3875:Drivers/STM32F7xx_HAL_Driver/Src/stm32f7xx_hal_i2c.c ****     /* Process Unlocked */
3876:Drivers/STM32F7xx_HAL_Driver/Src/stm32f7xx_hal_i2c.c ****     __HAL_UNLOCK(hi2c);
 8346              		.loc 1 3876 0
 8347 0038 7B68     		ldr	r3, [r7, #4]
 8348 003a 0022     		movs	r2, #0
 8349 003c 83F84020 		strb	r2, [r3, #64]
3877:Drivers/STM32F7xx_HAL_Driver/Src/stm32f7xx_hal_i2c.c **** 
3878:Drivers/STM32F7xx_HAL_Driver/Src/stm32f7xx_hal_i2c.c ****     /* Call the corresponding callback to inform upper layer of End of Transfer */
3879:Drivers/STM32F7xx_HAL_Driver/Src/stm32f7xx_hal_i2c.c ****     HAL_I2C_MasterTxCpltCallback(hi2c);
 8350              		.loc 1 3879 0
 8351 0040 7868     		ldr	r0, [r7, #4]
 8352 0042 FFF7FEFF 		bl	HAL_I2C_MasterTxCpltCallback
3880:Drivers/STM32F7xx_HAL_Driver/Src/stm32f7xx_hal_i2c.c ****   }
3881:Drivers/STM32F7xx_HAL_Driver/Src/stm32f7xx_hal_i2c.c ****   /* hi2c->State == HAL_I2C_STATE_BUSY_RX */
3882:Drivers/STM32F7xx_HAL_Driver/Src/stm32f7xx_hal_i2c.c ****   else
3883:Drivers/STM32F7xx_HAL_Driver/Src/stm32f7xx_hal_i2c.c ****   {
3884:Drivers/STM32F7xx_HAL_Driver/Src/stm32f7xx_hal_i2c.c ****     hi2c->State         = HAL_I2C_STATE_READY;
3885:Drivers/STM32F7xx_HAL_Driver/Src/stm32f7xx_hal_i2c.c ****     hi2c->PreviousState = I2C_STATE_MASTER_BUSY_RX;
3886:Drivers/STM32F7xx_HAL_Driver/Src/stm32f7xx_hal_i2c.c ****     hi2c->XferISR       = NULL;
3887:Drivers/STM32F7xx_HAL_Driver/Src/stm32f7xx_hal_i2c.c **** 
3888:Drivers/STM32F7xx_HAL_Driver/Src/stm32f7xx_hal_i2c.c ****     /* Disable Interrupts */
3889:Drivers/STM32F7xx_HAL_Driver/Src/stm32f7xx_hal_i2c.c ****     I2C_Disable_IRQ(hi2c, I2C_XFER_RX_IT);
3890:Drivers/STM32F7xx_HAL_Driver/Src/stm32f7xx_hal_i2c.c **** 
3891:Drivers/STM32F7xx_HAL_Driver/Src/stm32f7xx_hal_i2c.c ****     /* Process Unlocked */
3892:Drivers/STM32F7xx_HAL_Driver/Src/stm32f7xx_hal_i2c.c ****     __HAL_UNLOCK(hi2c);
3893:Drivers/STM32F7xx_HAL_Driver/Src/stm32f7xx_hal_i2c.c **** 
3894:Drivers/STM32F7xx_HAL_Driver/Src/stm32f7xx_hal_i2c.c ****     /* Call the corresponding callback to inform upper layer of End of Transfer */
3895:Drivers/STM32F7xx_HAL_Driver/Src/stm32f7xx_hal_i2c.c ****     HAL_I2C_MasterRxCpltCallback(hi2c);
3896:Drivers/STM32F7xx_HAL_Driver/Src/stm32f7xx_hal_i2c.c ****   }
3897:Drivers/STM32F7xx_HAL_Driver/Src/stm32f7xx_hal_i2c.c **** }
 8353              		.loc 1 3897 0
 8354 0046 14E0     		b	.L432
 8355              	.L430:
3884:Drivers/STM32F7xx_HAL_Driver/Src/stm32f7xx_hal_i2c.c ****     hi2c->PreviousState = I2C_STATE_MASTER_BUSY_RX;
 8356              		.loc 1 3884 0
 8357 0048 7B68     		ldr	r3, [r7, #4]
 8358 004a 2022     		movs	r2, #32
 8359 004c 83F84120 		strb	r2, [r3, #65]
3885:Drivers/STM32F7xx_HAL_Driver/Src/stm32f7xx_hal_i2c.c ****     hi2c->XferISR       = NULL;
 8360              		.loc 1 3885 0
 8361 0050 7B68     		ldr	r3, [r7, #4]
 8362 0052 1222     		movs	r2, #18
 8363 0054 1A63     		str	r2, [r3, #48]
3886:Drivers/STM32F7xx_HAL_Driver/Src/stm32f7xx_hal_i2c.c **** 
 8364              		.loc 1 3886 0
 8365 0056 7B68     		ldr	r3, [r7, #4]
 8366 0058 0022     		movs	r2, #0
 8367 005a 5A63     		str	r2, [r3, #52]
3889:Drivers/STM32F7xx_HAL_Driver/Src/stm32f7xx_hal_i2c.c **** 
 8368              		.loc 1 3889 0
ARM GAS  /var/folders/n8/cvzdcwlj0vl4g_wtyz1ffy300000gn/T//ccBPNZvy.s 			page 215


 8369 005c 0221     		movs	r1, #2
 8370 005e 7868     		ldr	r0, [r7, #4]
 8371 0060 FFF7FEFF 		bl	I2C_Disable_IRQ
3892:Drivers/STM32F7xx_HAL_Driver/Src/stm32f7xx_hal_i2c.c **** 
 8372              		.loc 1 3892 0
 8373 0064 7B68     		ldr	r3, [r7, #4]
 8374 0066 0022     		movs	r2, #0
 8375 0068 83F84020 		strb	r2, [r3, #64]
3895:Drivers/STM32F7xx_HAL_Driver/Src/stm32f7xx_hal_i2c.c ****   }
 8376              		.loc 1 3895 0
 8377 006c 7868     		ldr	r0, [r7, #4]
 8378 006e FFF7FEFF 		bl	HAL_I2C_MasterRxCpltCallback
 8379              	.L432:
 8380              		.loc 1 3897 0
 8381 0072 00BF     		nop
 8382 0074 0837     		adds	r7, r7, #8
 8383              	.LCFI278:
 8384              		.cfi_def_cfa_offset 8
 8385 0076 BD46     		mov	sp, r7
 8386              	.LCFI279:
 8387              		.cfi_def_cfa_register 13
 8388              		@ sp needed
 8389 0078 80BD     		pop	{r7, pc}
 8390              		.cfi_endproc
 8391              	.LFE190:
 8393              		.section	.text.I2C_ITSlaveSequentialCplt,"ax",%progbits
 8394              		.align	1
 8395              		.syntax unified
 8396              		.thumb
 8397              		.thumb_func
 8398              		.fpu fpv5-sp-d16
 8400              	I2C_ITSlaveSequentialCplt:
 8401              	.LFB191:
3898:Drivers/STM32F7xx_HAL_Driver/Src/stm32f7xx_hal_i2c.c **** 
3899:Drivers/STM32F7xx_HAL_Driver/Src/stm32f7xx_hal_i2c.c **** /**
3900:Drivers/STM32F7xx_HAL_Driver/Src/stm32f7xx_hal_i2c.c ****   * @brief  I2C Slave sequential complete process.
3901:Drivers/STM32F7xx_HAL_Driver/Src/stm32f7xx_hal_i2c.c ****   * @param  hi2c I2C handle.
3902:Drivers/STM32F7xx_HAL_Driver/Src/stm32f7xx_hal_i2c.c ****   * @retval None
3903:Drivers/STM32F7xx_HAL_Driver/Src/stm32f7xx_hal_i2c.c ****   */
3904:Drivers/STM32F7xx_HAL_Driver/Src/stm32f7xx_hal_i2c.c **** static void I2C_ITSlaveSequentialCplt(I2C_HandleTypeDef *hi2c)
3905:Drivers/STM32F7xx_HAL_Driver/Src/stm32f7xx_hal_i2c.c **** {
 8402              		.loc 1 3905 0
 8403              		.cfi_startproc
 8404              		@ args = 0, pretend = 0, frame = 8
 8405              		@ frame_needed = 1, uses_anonymous_args = 0
 8406 0000 80B5     		push	{r7, lr}
 8407              	.LCFI280:
 8408              		.cfi_def_cfa_offset 8
 8409              		.cfi_offset 7, -8
 8410              		.cfi_offset 14, -4
 8411 0002 82B0     		sub	sp, sp, #8
 8412              	.LCFI281:
 8413              		.cfi_def_cfa_offset 16
 8414 0004 00AF     		add	r7, sp, #0
 8415              	.LCFI282:
 8416              		.cfi_def_cfa_register 7
 8417 0006 7860     		str	r0, [r7, #4]
ARM GAS  /var/folders/n8/cvzdcwlj0vl4g_wtyz1ffy300000gn/T//ccBPNZvy.s 			page 216


3906:Drivers/STM32F7xx_HAL_Driver/Src/stm32f7xx_hal_i2c.c ****   /* Reset I2C handle mode */
3907:Drivers/STM32F7xx_HAL_Driver/Src/stm32f7xx_hal_i2c.c ****   hi2c->Mode = HAL_I2C_MODE_NONE;
 8418              		.loc 1 3907 0
 8419 0008 7B68     		ldr	r3, [r7, #4]
 8420 000a 0022     		movs	r2, #0
 8421 000c 83F84220 		strb	r2, [r3, #66]
3908:Drivers/STM32F7xx_HAL_Driver/Src/stm32f7xx_hal_i2c.c **** 
3909:Drivers/STM32F7xx_HAL_Driver/Src/stm32f7xx_hal_i2c.c ****   if (hi2c->State == HAL_I2C_STATE_BUSY_TX_LISTEN)
 8422              		.loc 1 3909 0
 8423 0010 7B68     		ldr	r3, [r7, #4]
 8424 0012 93F84130 		ldrb	r3, [r3, #65]
 8425 0016 DBB2     		uxtb	r3, r3
 8426 0018 292B     		cmp	r3, #41
 8427 001a 12D1     		bne	.L434
3910:Drivers/STM32F7xx_HAL_Driver/Src/stm32f7xx_hal_i2c.c ****   {
3911:Drivers/STM32F7xx_HAL_Driver/Src/stm32f7xx_hal_i2c.c ****     /* Remove HAL_I2C_STATE_SLAVE_BUSY_TX, keep only HAL_I2C_STATE_LISTEN */
3912:Drivers/STM32F7xx_HAL_Driver/Src/stm32f7xx_hal_i2c.c ****     hi2c->State         = HAL_I2C_STATE_LISTEN;
 8428              		.loc 1 3912 0
 8429 001c 7B68     		ldr	r3, [r7, #4]
 8430 001e 2822     		movs	r2, #40
 8431 0020 83F84120 		strb	r2, [r3, #65]
3913:Drivers/STM32F7xx_HAL_Driver/Src/stm32f7xx_hal_i2c.c ****     hi2c->PreviousState = I2C_STATE_SLAVE_BUSY_TX;
 8432              		.loc 1 3913 0
 8433 0024 7B68     		ldr	r3, [r7, #4]
 8434 0026 2122     		movs	r2, #33
 8435 0028 1A63     		str	r2, [r3, #48]
3914:Drivers/STM32F7xx_HAL_Driver/Src/stm32f7xx_hal_i2c.c **** 
3915:Drivers/STM32F7xx_HAL_Driver/Src/stm32f7xx_hal_i2c.c ****     /* Disable Interrupts */
3916:Drivers/STM32F7xx_HAL_Driver/Src/stm32f7xx_hal_i2c.c ****     I2C_Disable_IRQ(hi2c, I2C_XFER_TX_IT);
 8436              		.loc 1 3916 0
 8437 002a 0121     		movs	r1, #1
 8438 002c 7868     		ldr	r0, [r7, #4]
 8439 002e FFF7FEFF 		bl	I2C_Disable_IRQ
3917:Drivers/STM32F7xx_HAL_Driver/Src/stm32f7xx_hal_i2c.c **** 
3918:Drivers/STM32F7xx_HAL_Driver/Src/stm32f7xx_hal_i2c.c ****     /* Process Unlocked */
3919:Drivers/STM32F7xx_HAL_Driver/Src/stm32f7xx_hal_i2c.c ****     __HAL_UNLOCK(hi2c);
 8440              		.loc 1 3919 0
 8441 0032 7B68     		ldr	r3, [r7, #4]
 8442 0034 0022     		movs	r2, #0
 8443 0036 83F84020 		strb	r2, [r3, #64]
3920:Drivers/STM32F7xx_HAL_Driver/Src/stm32f7xx_hal_i2c.c **** 
3921:Drivers/STM32F7xx_HAL_Driver/Src/stm32f7xx_hal_i2c.c ****     /* Call the Tx complete callback to inform upper layer of the end of transmit process */
3922:Drivers/STM32F7xx_HAL_Driver/Src/stm32f7xx_hal_i2c.c ****     HAL_I2C_SlaveTxCpltCallback(hi2c);
 8444              		.loc 1 3922 0
 8445 003a 7868     		ldr	r0, [r7, #4]
 8446 003c FFF7FEFF 		bl	HAL_I2C_SlaveTxCpltCallback
3923:Drivers/STM32F7xx_HAL_Driver/Src/stm32f7xx_hal_i2c.c ****   }
3924:Drivers/STM32F7xx_HAL_Driver/Src/stm32f7xx_hal_i2c.c **** 
3925:Drivers/STM32F7xx_HAL_Driver/Src/stm32f7xx_hal_i2c.c ****   else if (hi2c->State == HAL_I2C_STATE_BUSY_RX_LISTEN)
3926:Drivers/STM32F7xx_HAL_Driver/Src/stm32f7xx_hal_i2c.c ****   {
3927:Drivers/STM32F7xx_HAL_Driver/Src/stm32f7xx_hal_i2c.c ****     /* Remove HAL_I2C_STATE_SLAVE_BUSY_RX, keep only HAL_I2C_STATE_LISTEN */
3928:Drivers/STM32F7xx_HAL_Driver/Src/stm32f7xx_hal_i2c.c ****     hi2c->State         = HAL_I2C_STATE_LISTEN;
3929:Drivers/STM32F7xx_HAL_Driver/Src/stm32f7xx_hal_i2c.c ****     hi2c->PreviousState = I2C_STATE_SLAVE_BUSY_RX;
3930:Drivers/STM32F7xx_HAL_Driver/Src/stm32f7xx_hal_i2c.c **** 
3931:Drivers/STM32F7xx_HAL_Driver/Src/stm32f7xx_hal_i2c.c ****     /* Disable Interrupts */
3932:Drivers/STM32F7xx_HAL_Driver/Src/stm32f7xx_hal_i2c.c ****     I2C_Disable_IRQ(hi2c, I2C_XFER_RX_IT);
3933:Drivers/STM32F7xx_HAL_Driver/Src/stm32f7xx_hal_i2c.c **** 
ARM GAS  /var/folders/n8/cvzdcwlj0vl4g_wtyz1ffy300000gn/T//ccBPNZvy.s 			page 217


3934:Drivers/STM32F7xx_HAL_Driver/Src/stm32f7xx_hal_i2c.c ****     /* Process Unlocked */
3935:Drivers/STM32F7xx_HAL_Driver/Src/stm32f7xx_hal_i2c.c ****     __HAL_UNLOCK(hi2c);
3936:Drivers/STM32F7xx_HAL_Driver/Src/stm32f7xx_hal_i2c.c **** 
3937:Drivers/STM32F7xx_HAL_Driver/Src/stm32f7xx_hal_i2c.c ****     /* Call the Rx complete callback to inform upper layer of the end of receive process */
3938:Drivers/STM32F7xx_HAL_Driver/Src/stm32f7xx_hal_i2c.c ****     HAL_I2C_SlaveRxCpltCallback(hi2c);
3939:Drivers/STM32F7xx_HAL_Driver/Src/stm32f7xx_hal_i2c.c ****   }
3940:Drivers/STM32F7xx_HAL_Driver/Src/stm32f7xx_hal_i2c.c **** }
 8447              		.loc 1 3940 0
 8448 0040 17E0     		b	.L436
 8449              	.L434:
3925:Drivers/STM32F7xx_HAL_Driver/Src/stm32f7xx_hal_i2c.c ****   {
 8450              		.loc 1 3925 0
 8451 0042 7B68     		ldr	r3, [r7, #4]
 8452 0044 93F84130 		ldrb	r3, [r3, #65]
 8453 0048 DBB2     		uxtb	r3, r3
 8454 004a 2A2B     		cmp	r3, #42
 8455 004c 11D1     		bne	.L436
3928:Drivers/STM32F7xx_HAL_Driver/Src/stm32f7xx_hal_i2c.c ****     hi2c->PreviousState = I2C_STATE_SLAVE_BUSY_RX;
 8456              		.loc 1 3928 0
 8457 004e 7B68     		ldr	r3, [r7, #4]
 8458 0050 2822     		movs	r2, #40
 8459 0052 83F84120 		strb	r2, [r3, #65]
3929:Drivers/STM32F7xx_HAL_Driver/Src/stm32f7xx_hal_i2c.c **** 
 8460              		.loc 1 3929 0
 8461 0056 7B68     		ldr	r3, [r7, #4]
 8462 0058 2222     		movs	r2, #34
 8463 005a 1A63     		str	r2, [r3, #48]
3932:Drivers/STM32F7xx_HAL_Driver/Src/stm32f7xx_hal_i2c.c **** 
 8464              		.loc 1 3932 0
 8465 005c 0221     		movs	r1, #2
 8466 005e 7868     		ldr	r0, [r7, #4]
 8467 0060 FFF7FEFF 		bl	I2C_Disable_IRQ
3935:Drivers/STM32F7xx_HAL_Driver/Src/stm32f7xx_hal_i2c.c **** 
 8468              		.loc 1 3935 0
 8469 0064 7B68     		ldr	r3, [r7, #4]
 8470 0066 0022     		movs	r2, #0
 8471 0068 83F84020 		strb	r2, [r3, #64]
3938:Drivers/STM32F7xx_HAL_Driver/Src/stm32f7xx_hal_i2c.c ****   }
 8472              		.loc 1 3938 0
 8473 006c 7868     		ldr	r0, [r7, #4]
 8474 006e FFF7FEFF 		bl	HAL_I2C_SlaveRxCpltCallback
 8475              	.L436:
 8476              		.loc 1 3940 0
 8477 0072 00BF     		nop
 8478 0074 0837     		adds	r7, r7, #8
 8479              	.LCFI283:
 8480              		.cfi_def_cfa_offset 8
 8481 0076 BD46     		mov	sp, r7
 8482              	.LCFI284:
 8483              		.cfi_def_cfa_register 13
 8484              		@ sp needed
 8485 0078 80BD     		pop	{r7, pc}
 8486              		.cfi_endproc
 8487              	.LFE191:
 8489              		.section	.text.I2C_ITMasterCplt,"ax",%progbits
 8490              		.align	1
 8491              		.syntax unified
ARM GAS  /var/folders/n8/cvzdcwlj0vl4g_wtyz1ffy300000gn/T//ccBPNZvy.s 			page 218


 8492              		.thumb
 8493              		.thumb_func
 8494              		.fpu fpv5-sp-d16
 8496              	I2C_ITMasterCplt:
 8497              	.LFB192:
3941:Drivers/STM32F7xx_HAL_Driver/Src/stm32f7xx_hal_i2c.c **** 
3942:Drivers/STM32F7xx_HAL_Driver/Src/stm32f7xx_hal_i2c.c **** /**
3943:Drivers/STM32F7xx_HAL_Driver/Src/stm32f7xx_hal_i2c.c ****   * @brief  I2C Master complete process.
3944:Drivers/STM32F7xx_HAL_Driver/Src/stm32f7xx_hal_i2c.c ****   * @param  hi2c I2C handle.
3945:Drivers/STM32F7xx_HAL_Driver/Src/stm32f7xx_hal_i2c.c ****   * @param  ITFlags Interrupt flags to handle.
3946:Drivers/STM32F7xx_HAL_Driver/Src/stm32f7xx_hal_i2c.c ****   * @retval None
3947:Drivers/STM32F7xx_HAL_Driver/Src/stm32f7xx_hal_i2c.c ****   */
3948:Drivers/STM32F7xx_HAL_Driver/Src/stm32f7xx_hal_i2c.c **** static void I2C_ITMasterCplt(I2C_HandleTypeDef *hi2c, uint32_t ITFlags)
3949:Drivers/STM32F7xx_HAL_Driver/Src/stm32f7xx_hal_i2c.c **** {
 8498              		.loc 1 3949 0
 8499              		.cfi_startproc
 8500              		@ args = 0, pretend = 0, frame = 8
 8501              		@ frame_needed = 1, uses_anonymous_args = 0
 8502 0000 80B5     		push	{r7, lr}
 8503              	.LCFI285:
 8504              		.cfi_def_cfa_offset 8
 8505              		.cfi_offset 7, -8
 8506              		.cfi_offset 14, -4
 8507 0002 82B0     		sub	sp, sp, #8
 8508              	.LCFI286:
 8509              		.cfi_def_cfa_offset 16
 8510 0004 00AF     		add	r7, sp, #0
 8511              	.LCFI287:
 8512              		.cfi_def_cfa_register 7
 8513 0006 7860     		str	r0, [r7, #4]
 8514 0008 3960     		str	r1, [r7]
3950:Drivers/STM32F7xx_HAL_Driver/Src/stm32f7xx_hal_i2c.c ****   /* Clear STOP Flag */
3951:Drivers/STM32F7xx_HAL_Driver/Src/stm32f7xx_hal_i2c.c ****   __HAL_I2C_CLEAR_FLAG(hi2c, I2C_FLAG_STOPF);
 8515              		.loc 1 3951 0
 8516 000a 7B68     		ldr	r3, [r7, #4]
 8517 000c 1B68     		ldr	r3, [r3]
 8518 000e 2022     		movs	r2, #32
 8519 0010 DA61     		str	r2, [r3, #28]
3952:Drivers/STM32F7xx_HAL_Driver/Src/stm32f7xx_hal_i2c.c **** 
3953:Drivers/STM32F7xx_HAL_Driver/Src/stm32f7xx_hal_i2c.c ****   /* Clear Configuration Register 2 */
3954:Drivers/STM32F7xx_HAL_Driver/Src/stm32f7xx_hal_i2c.c ****   I2C_RESET_CR2(hi2c);
 8520              		.loc 1 3954 0
 8521 0012 7B68     		ldr	r3, [r7, #4]
 8522 0014 1B68     		ldr	r3, [r3]
 8523 0016 5968     		ldr	r1, [r3, #4]
 8524 0018 7B68     		ldr	r3, [r7, #4]
 8525 001a 1A68     		ldr	r2, [r3]
 8526 001c 424B     		ldr	r3, .L447
 8527 001e 0B40     		ands	r3, r3, r1
 8528 0020 5360     		str	r3, [r2, #4]
3955:Drivers/STM32F7xx_HAL_Driver/Src/stm32f7xx_hal_i2c.c **** 
3956:Drivers/STM32F7xx_HAL_Driver/Src/stm32f7xx_hal_i2c.c ****   /* Reset handle parameters */
3957:Drivers/STM32F7xx_HAL_Driver/Src/stm32f7xx_hal_i2c.c ****   hi2c->PreviousState = I2C_STATE_NONE;
 8529              		.loc 1 3957 0
 8530 0022 7B68     		ldr	r3, [r7, #4]
 8531 0024 0022     		movs	r2, #0
 8532 0026 1A63     		str	r2, [r3, #48]
ARM GAS  /var/folders/n8/cvzdcwlj0vl4g_wtyz1ffy300000gn/T//ccBPNZvy.s 			page 219


3958:Drivers/STM32F7xx_HAL_Driver/Src/stm32f7xx_hal_i2c.c ****   hi2c->XferISR       = NULL;
 8533              		.loc 1 3958 0
 8534 0028 7B68     		ldr	r3, [r7, #4]
 8535 002a 0022     		movs	r2, #0
 8536 002c 5A63     		str	r2, [r3, #52]
3959:Drivers/STM32F7xx_HAL_Driver/Src/stm32f7xx_hal_i2c.c ****   hi2c->XferOptions   = I2C_NO_OPTION_FRAME;
 8537              		.loc 1 3959 0
 8538 002e 7B68     		ldr	r3, [r7, #4]
 8539 0030 3E4A     		ldr	r2, .L447+4
 8540 0032 DA62     		str	r2, [r3, #44]
3960:Drivers/STM32F7xx_HAL_Driver/Src/stm32f7xx_hal_i2c.c **** 
3961:Drivers/STM32F7xx_HAL_Driver/Src/stm32f7xx_hal_i2c.c ****   if ((ITFlags & I2C_FLAG_AF) != RESET)
 8541              		.loc 1 3961 0
 8542 0034 3B68     		ldr	r3, [r7]
 8543 0036 03F01003 		and	r3, r3, #16
 8544 003a 002B     		cmp	r3, #0
 8545 003c 09D0     		beq	.L438
3962:Drivers/STM32F7xx_HAL_Driver/Src/stm32f7xx_hal_i2c.c ****   {
3963:Drivers/STM32F7xx_HAL_Driver/Src/stm32f7xx_hal_i2c.c ****     /* Clear NACK Flag */
3964:Drivers/STM32F7xx_HAL_Driver/Src/stm32f7xx_hal_i2c.c ****     __HAL_I2C_CLEAR_FLAG(hi2c, I2C_FLAG_AF);
 8546              		.loc 1 3964 0
 8547 003e 7B68     		ldr	r3, [r7, #4]
 8548 0040 1B68     		ldr	r3, [r3]
 8549 0042 1022     		movs	r2, #16
 8550 0044 DA61     		str	r2, [r3, #28]
3965:Drivers/STM32F7xx_HAL_Driver/Src/stm32f7xx_hal_i2c.c **** 
3966:Drivers/STM32F7xx_HAL_Driver/Src/stm32f7xx_hal_i2c.c ****     /* Set acknowledge error code */
3967:Drivers/STM32F7xx_HAL_Driver/Src/stm32f7xx_hal_i2c.c ****     hi2c->ErrorCode |= HAL_I2C_ERROR_AF;
 8551              		.loc 1 3967 0
 8552 0046 7B68     		ldr	r3, [r7, #4]
 8553 0048 5B6C     		ldr	r3, [r3, #68]
 8554 004a 43F00402 		orr	r2, r3, #4
 8555 004e 7B68     		ldr	r3, [r7, #4]
 8556 0050 5A64     		str	r2, [r3, #68]
 8557              	.L438:
3968:Drivers/STM32F7xx_HAL_Driver/Src/stm32f7xx_hal_i2c.c ****   }
3969:Drivers/STM32F7xx_HAL_Driver/Src/stm32f7xx_hal_i2c.c **** 
3970:Drivers/STM32F7xx_HAL_Driver/Src/stm32f7xx_hal_i2c.c ****   /* Flush TX register */
3971:Drivers/STM32F7xx_HAL_Driver/Src/stm32f7xx_hal_i2c.c ****   I2C_Flush_TXDR(hi2c);
 8558              		.loc 1 3971 0
 8559 0052 7868     		ldr	r0, [r7, #4]
 8560 0054 FFF7FEFF 		bl	I2C_Flush_TXDR
3972:Drivers/STM32F7xx_HAL_Driver/Src/stm32f7xx_hal_i2c.c **** 
3973:Drivers/STM32F7xx_HAL_Driver/Src/stm32f7xx_hal_i2c.c ****   /* Disable Interrupts */
3974:Drivers/STM32F7xx_HAL_Driver/Src/stm32f7xx_hal_i2c.c ****   I2C_Disable_IRQ(hi2c, I2C_XFER_TX_IT | I2C_XFER_RX_IT);
 8561              		.loc 1 3974 0
 8562 0058 0321     		movs	r1, #3
 8563 005a 7868     		ldr	r0, [r7, #4]
 8564 005c FFF7FEFF 		bl	I2C_Disable_IRQ
3975:Drivers/STM32F7xx_HAL_Driver/Src/stm32f7xx_hal_i2c.c **** 
3976:Drivers/STM32F7xx_HAL_Driver/Src/stm32f7xx_hal_i2c.c ****   /* Call the corresponding callback to inform upper layer of End of Transfer */
3977:Drivers/STM32F7xx_HAL_Driver/Src/stm32f7xx_hal_i2c.c ****   if ((hi2c->ErrorCode != HAL_I2C_ERROR_NONE) || (hi2c->State == HAL_I2C_STATE_ABORT))
 8565              		.loc 1 3977 0
 8566 0060 7B68     		ldr	r3, [r7, #4]
 8567 0062 5B6C     		ldr	r3, [r3, #68]
 8568 0064 002B     		cmp	r3, #0
 8569 0066 05D1     		bne	.L439
ARM GAS  /var/folders/n8/cvzdcwlj0vl4g_wtyz1ffy300000gn/T//ccBPNZvy.s 			page 220


 8570              		.loc 1 3977 0 is_stmt 0 discriminator 1
 8571 0068 7B68     		ldr	r3, [r7, #4]
 8572 006a 93F84130 		ldrb	r3, [r3, #65]
 8573 006e DBB2     		uxtb	r3, r3
 8574 0070 602B     		cmp	r3, #96
 8575 0072 06D1     		bne	.L440
 8576              	.L439:
3978:Drivers/STM32F7xx_HAL_Driver/Src/stm32f7xx_hal_i2c.c ****   {
3979:Drivers/STM32F7xx_HAL_Driver/Src/stm32f7xx_hal_i2c.c ****     /* Call the corresponding callback to inform upper layer of End of Transfer */
3980:Drivers/STM32F7xx_HAL_Driver/Src/stm32f7xx_hal_i2c.c ****     I2C_ITError(hi2c, hi2c->ErrorCode);
 8577              		.loc 1 3980 0 is_stmt 1
 8578 0074 7B68     		ldr	r3, [r7, #4]
 8579 0076 5B6C     		ldr	r3, [r3, #68]
 8580 0078 1946     		mov	r1, r3
 8581 007a 7868     		ldr	r0, [r7, #4]
 8582 007c FFF7FEFF 		bl	I2C_ITError
3981:Drivers/STM32F7xx_HAL_Driver/Src/stm32f7xx_hal_i2c.c ****   }
3982:Drivers/STM32F7xx_HAL_Driver/Src/stm32f7xx_hal_i2c.c ****   /* hi2c->State == HAL_I2C_STATE_BUSY_TX */
3983:Drivers/STM32F7xx_HAL_Driver/Src/stm32f7xx_hal_i2c.c ****   else if (hi2c->State == HAL_I2C_STATE_BUSY_TX)
3984:Drivers/STM32F7xx_HAL_Driver/Src/stm32f7xx_hal_i2c.c ****   {
3985:Drivers/STM32F7xx_HAL_Driver/Src/stm32f7xx_hal_i2c.c ****     hi2c->State = HAL_I2C_STATE_READY;
3986:Drivers/STM32F7xx_HAL_Driver/Src/stm32f7xx_hal_i2c.c **** 
3987:Drivers/STM32F7xx_HAL_Driver/Src/stm32f7xx_hal_i2c.c ****     if (hi2c->Mode == HAL_I2C_MODE_MEM)
3988:Drivers/STM32F7xx_HAL_Driver/Src/stm32f7xx_hal_i2c.c ****     {
3989:Drivers/STM32F7xx_HAL_Driver/Src/stm32f7xx_hal_i2c.c ****       hi2c->Mode = HAL_I2C_MODE_NONE;
3990:Drivers/STM32F7xx_HAL_Driver/Src/stm32f7xx_hal_i2c.c **** 
3991:Drivers/STM32F7xx_HAL_Driver/Src/stm32f7xx_hal_i2c.c ****       /* Process Unlocked */
3992:Drivers/STM32F7xx_HAL_Driver/Src/stm32f7xx_hal_i2c.c ****       __HAL_UNLOCK(hi2c);
3993:Drivers/STM32F7xx_HAL_Driver/Src/stm32f7xx_hal_i2c.c **** 
3994:Drivers/STM32F7xx_HAL_Driver/Src/stm32f7xx_hal_i2c.c ****       /* Call the corresponding callback to inform upper layer of End of Transfer */
3995:Drivers/STM32F7xx_HAL_Driver/Src/stm32f7xx_hal_i2c.c ****       HAL_I2C_MemTxCpltCallback(hi2c);
3996:Drivers/STM32F7xx_HAL_Driver/Src/stm32f7xx_hal_i2c.c ****     }
3997:Drivers/STM32F7xx_HAL_Driver/Src/stm32f7xx_hal_i2c.c ****     else
3998:Drivers/STM32F7xx_HAL_Driver/Src/stm32f7xx_hal_i2c.c ****     {
3999:Drivers/STM32F7xx_HAL_Driver/Src/stm32f7xx_hal_i2c.c ****       hi2c->Mode = HAL_I2C_MODE_NONE;
4000:Drivers/STM32F7xx_HAL_Driver/Src/stm32f7xx_hal_i2c.c **** 
4001:Drivers/STM32F7xx_HAL_Driver/Src/stm32f7xx_hal_i2c.c ****       /* Process Unlocked */
4002:Drivers/STM32F7xx_HAL_Driver/Src/stm32f7xx_hal_i2c.c ****       __HAL_UNLOCK(hi2c);
4003:Drivers/STM32F7xx_HAL_Driver/Src/stm32f7xx_hal_i2c.c **** 
4004:Drivers/STM32F7xx_HAL_Driver/Src/stm32f7xx_hal_i2c.c ****       /* Call the corresponding callback to inform upper layer of End of Transfer */
4005:Drivers/STM32F7xx_HAL_Driver/Src/stm32f7xx_hal_i2c.c ****       HAL_I2C_MasterTxCpltCallback(hi2c);
4006:Drivers/STM32F7xx_HAL_Driver/Src/stm32f7xx_hal_i2c.c ****     }
4007:Drivers/STM32F7xx_HAL_Driver/Src/stm32f7xx_hal_i2c.c ****   }
4008:Drivers/STM32F7xx_HAL_Driver/Src/stm32f7xx_hal_i2c.c ****   /* hi2c->State == HAL_I2C_STATE_BUSY_RX */
4009:Drivers/STM32F7xx_HAL_Driver/Src/stm32f7xx_hal_i2c.c ****   else if (hi2c->State == HAL_I2C_STATE_BUSY_RX)
4010:Drivers/STM32F7xx_HAL_Driver/Src/stm32f7xx_hal_i2c.c ****   {
4011:Drivers/STM32F7xx_HAL_Driver/Src/stm32f7xx_hal_i2c.c ****     hi2c->State = HAL_I2C_STATE_READY;
4012:Drivers/STM32F7xx_HAL_Driver/Src/stm32f7xx_hal_i2c.c **** 
4013:Drivers/STM32F7xx_HAL_Driver/Src/stm32f7xx_hal_i2c.c ****     if (hi2c->Mode == HAL_I2C_MODE_MEM)
4014:Drivers/STM32F7xx_HAL_Driver/Src/stm32f7xx_hal_i2c.c ****     {
4015:Drivers/STM32F7xx_HAL_Driver/Src/stm32f7xx_hal_i2c.c ****       hi2c->Mode = HAL_I2C_MODE_NONE;
4016:Drivers/STM32F7xx_HAL_Driver/Src/stm32f7xx_hal_i2c.c **** 
4017:Drivers/STM32F7xx_HAL_Driver/Src/stm32f7xx_hal_i2c.c ****       /* Process Unlocked */
4018:Drivers/STM32F7xx_HAL_Driver/Src/stm32f7xx_hal_i2c.c ****       __HAL_UNLOCK(hi2c);
4019:Drivers/STM32F7xx_HAL_Driver/Src/stm32f7xx_hal_i2c.c **** 
4020:Drivers/STM32F7xx_HAL_Driver/Src/stm32f7xx_hal_i2c.c ****       HAL_I2C_MemRxCpltCallback(hi2c);
4021:Drivers/STM32F7xx_HAL_Driver/Src/stm32f7xx_hal_i2c.c ****     }
ARM GAS  /var/folders/n8/cvzdcwlj0vl4g_wtyz1ffy300000gn/T//ccBPNZvy.s 			page 221


4022:Drivers/STM32F7xx_HAL_Driver/Src/stm32f7xx_hal_i2c.c ****     else
4023:Drivers/STM32F7xx_HAL_Driver/Src/stm32f7xx_hal_i2c.c ****     {
4024:Drivers/STM32F7xx_HAL_Driver/Src/stm32f7xx_hal_i2c.c ****       hi2c->Mode = HAL_I2C_MODE_NONE;
4025:Drivers/STM32F7xx_HAL_Driver/Src/stm32f7xx_hal_i2c.c **** 
4026:Drivers/STM32F7xx_HAL_Driver/Src/stm32f7xx_hal_i2c.c ****       /* Process Unlocked */
4027:Drivers/STM32F7xx_HAL_Driver/Src/stm32f7xx_hal_i2c.c ****       __HAL_UNLOCK(hi2c);
4028:Drivers/STM32F7xx_HAL_Driver/Src/stm32f7xx_hal_i2c.c **** 
4029:Drivers/STM32F7xx_HAL_Driver/Src/stm32f7xx_hal_i2c.c ****       HAL_I2C_MasterRxCpltCallback(hi2c);
4030:Drivers/STM32F7xx_HAL_Driver/Src/stm32f7xx_hal_i2c.c ****     }
4031:Drivers/STM32F7xx_HAL_Driver/Src/stm32f7xx_hal_i2c.c ****   }
4032:Drivers/STM32F7xx_HAL_Driver/Src/stm32f7xx_hal_i2c.c **** }
 8583              		.loc 1 4032 0
 8584 0080 4EE0     		b	.L446
 8585              	.L440:
3983:Drivers/STM32F7xx_HAL_Driver/Src/stm32f7xx_hal_i2c.c ****   {
 8586              		.loc 1 3983 0
 8587 0082 7B68     		ldr	r3, [r7, #4]
 8588 0084 93F84130 		ldrb	r3, [r3, #65]
 8589 0088 DBB2     		uxtb	r3, r3
 8590 008a 212B     		cmp	r3, #33
 8591 008c 21D1     		bne	.L442
3985:Drivers/STM32F7xx_HAL_Driver/Src/stm32f7xx_hal_i2c.c **** 
 8592              		.loc 1 3985 0
 8593 008e 7B68     		ldr	r3, [r7, #4]
 8594 0090 2022     		movs	r2, #32
 8595 0092 83F84120 		strb	r2, [r3, #65]
3987:Drivers/STM32F7xx_HAL_Driver/Src/stm32f7xx_hal_i2c.c ****     {
 8596              		.loc 1 3987 0
 8597 0096 7B68     		ldr	r3, [r7, #4]
 8598 0098 93F84230 		ldrb	r3, [r3, #66]
 8599 009c DBB2     		uxtb	r3, r3
 8600 009e 402B     		cmp	r3, #64
 8601 00a0 0BD1     		bne	.L443
3989:Drivers/STM32F7xx_HAL_Driver/Src/stm32f7xx_hal_i2c.c **** 
 8602              		.loc 1 3989 0
 8603 00a2 7B68     		ldr	r3, [r7, #4]
 8604 00a4 0022     		movs	r2, #0
 8605 00a6 83F84220 		strb	r2, [r3, #66]
3992:Drivers/STM32F7xx_HAL_Driver/Src/stm32f7xx_hal_i2c.c **** 
 8606              		.loc 1 3992 0
 8607 00aa 7B68     		ldr	r3, [r7, #4]
 8608 00ac 0022     		movs	r2, #0
 8609 00ae 83F84020 		strb	r2, [r3, #64]
3995:Drivers/STM32F7xx_HAL_Driver/Src/stm32f7xx_hal_i2c.c ****     }
 8610              		.loc 1 3995 0
 8611 00b2 7868     		ldr	r0, [r7, #4]
 8612 00b4 FFF7FEFF 		bl	HAL_I2C_MemTxCpltCallback
 8613              		.loc 1 4032 0
 8614 00b8 32E0     		b	.L446
 8615              	.L443:
3999:Drivers/STM32F7xx_HAL_Driver/Src/stm32f7xx_hal_i2c.c **** 
 8616              		.loc 1 3999 0
 8617 00ba 7B68     		ldr	r3, [r7, #4]
 8618 00bc 0022     		movs	r2, #0
 8619 00be 83F84220 		strb	r2, [r3, #66]
4002:Drivers/STM32F7xx_HAL_Driver/Src/stm32f7xx_hal_i2c.c **** 
 8620              		.loc 1 4002 0
ARM GAS  /var/folders/n8/cvzdcwlj0vl4g_wtyz1ffy300000gn/T//ccBPNZvy.s 			page 222


 8621 00c2 7B68     		ldr	r3, [r7, #4]
 8622 00c4 0022     		movs	r2, #0
 8623 00c6 83F84020 		strb	r2, [r3, #64]
4005:Drivers/STM32F7xx_HAL_Driver/Src/stm32f7xx_hal_i2c.c ****     }
 8624              		.loc 1 4005 0
 8625 00ca 7868     		ldr	r0, [r7, #4]
 8626 00cc FFF7FEFF 		bl	HAL_I2C_MasterTxCpltCallback
 8627              		.loc 1 4032 0
 8628 00d0 26E0     		b	.L446
 8629              	.L442:
4009:Drivers/STM32F7xx_HAL_Driver/Src/stm32f7xx_hal_i2c.c ****   {
 8630              		.loc 1 4009 0
 8631 00d2 7B68     		ldr	r3, [r7, #4]
 8632 00d4 93F84130 		ldrb	r3, [r3, #65]
 8633 00d8 DBB2     		uxtb	r3, r3
 8634 00da 222B     		cmp	r3, #34
 8635 00dc 20D1     		bne	.L446
4011:Drivers/STM32F7xx_HAL_Driver/Src/stm32f7xx_hal_i2c.c **** 
 8636              		.loc 1 4011 0
 8637 00de 7B68     		ldr	r3, [r7, #4]
 8638 00e0 2022     		movs	r2, #32
 8639 00e2 83F84120 		strb	r2, [r3, #65]
4013:Drivers/STM32F7xx_HAL_Driver/Src/stm32f7xx_hal_i2c.c ****     {
 8640              		.loc 1 4013 0
 8641 00e6 7B68     		ldr	r3, [r7, #4]
 8642 00e8 93F84230 		ldrb	r3, [r3, #66]
 8643 00ec DBB2     		uxtb	r3, r3
 8644 00ee 402B     		cmp	r3, #64
 8645 00f0 0BD1     		bne	.L445
4015:Drivers/STM32F7xx_HAL_Driver/Src/stm32f7xx_hal_i2c.c **** 
 8646              		.loc 1 4015 0
 8647 00f2 7B68     		ldr	r3, [r7, #4]
 8648 00f4 0022     		movs	r2, #0
 8649 00f6 83F84220 		strb	r2, [r3, #66]
4018:Drivers/STM32F7xx_HAL_Driver/Src/stm32f7xx_hal_i2c.c **** 
 8650              		.loc 1 4018 0
 8651 00fa 7B68     		ldr	r3, [r7, #4]
 8652 00fc 0022     		movs	r2, #0
 8653 00fe 83F84020 		strb	r2, [r3, #64]
4020:Drivers/STM32F7xx_HAL_Driver/Src/stm32f7xx_hal_i2c.c ****     }
 8654              		.loc 1 4020 0
 8655 0102 7868     		ldr	r0, [r7, #4]
 8656 0104 FFF7FEFF 		bl	HAL_I2C_MemRxCpltCallback
 8657              		.loc 1 4032 0
 8658 0108 0AE0     		b	.L446
 8659              	.L445:
4024:Drivers/STM32F7xx_HAL_Driver/Src/stm32f7xx_hal_i2c.c **** 
 8660              		.loc 1 4024 0
 8661 010a 7B68     		ldr	r3, [r7, #4]
 8662 010c 0022     		movs	r2, #0
 8663 010e 83F84220 		strb	r2, [r3, #66]
4027:Drivers/STM32F7xx_HAL_Driver/Src/stm32f7xx_hal_i2c.c **** 
 8664              		.loc 1 4027 0
 8665 0112 7B68     		ldr	r3, [r7, #4]
 8666 0114 0022     		movs	r2, #0
 8667 0116 83F84020 		strb	r2, [r3, #64]
4029:Drivers/STM32F7xx_HAL_Driver/Src/stm32f7xx_hal_i2c.c ****     }
ARM GAS  /var/folders/n8/cvzdcwlj0vl4g_wtyz1ffy300000gn/T//ccBPNZvy.s 			page 223


 8668              		.loc 1 4029 0
 8669 011a 7868     		ldr	r0, [r7, #4]
 8670 011c FFF7FEFF 		bl	HAL_I2C_MasterRxCpltCallback
 8671              	.L446:
 8672              		.loc 1 4032 0
 8673 0120 00BF     		nop
 8674 0122 0837     		adds	r7, r7, #8
 8675              	.LCFI288:
 8676              		.cfi_def_cfa_offset 8
 8677 0124 BD46     		mov	sp, r7
 8678              	.LCFI289:
 8679              		.cfi_def_cfa_register 13
 8680              		@ sp needed
 8681 0126 80BD     		pop	{r7, pc}
 8682              	.L448:
 8683              		.align	2
 8684              	.L447:
 8685 0128 00E800FE 		.word	-33495040
 8686 012c 0000FFFF 		.word	-65536
 8687              		.cfi_endproc
 8688              	.LFE192:
 8690              		.section	.text.I2C_ITSlaveCplt,"ax",%progbits
 8691              		.align	1
 8692              		.syntax unified
 8693              		.thumb
 8694              		.thumb_func
 8695              		.fpu fpv5-sp-d16
 8697              	I2C_ITSlaveCplt:
 8698              	.LFB193:
4033:Drivers/STM32F7xx_HAL_Driver/Src/stm32f7xx_hal_i2c.c **** 
4034:Drivers/STM32F7xx_HAL_Driver/Src/stm32f7xx_hal_i2c.c **** /**
4035:Drivers/STM32F7xx_HAL_Driver/Src/stm32f7xx_hal_i2c.c ****   * @brief  I2C Slave complete process.
4036:Drivers/STM32F7xx_HAL_Driver/Src/stm32f7xx_hal_i2c.c ****   * @param  hi2c I2C handle.
4037:Drivers/STM32F7xx_HAL_Driver/Src/stm32f7xx_hal_i2c.c ****   * @param  ITFlags Interrupt flags to handle.
4038:Drivers/STM32F7xx_HAL_Driver/Src/stm32f7xx_hal_i2c.c ****   * @retval None
4039:Drivers/STM32F7xx_HAL_Driver/Src/stm32f7xx_hal_i2c.c ****   */
4040:Drivers/STM32F7xx_HAL_Driver/Src/stm32f7xx_hal_i2c.c **** static void I2C_ITSlaveCplt(I2C_HandleTypeDef *hi2c, uint32_t ITFlags)
4041:Drivers/STM32F7xx_HAL_Driver/Src/stm32f7xx_hal_i2c.c **** {
 8699              		.loc 1 4041 0
 8700              		.cfi_startproc
 8701              		@ args = 0, pretend = 0, frame = 8
 8702              		@ frame_needed = 1, uses_anonymous_args = 0
 8703 0000 80B5     		push	{r7, lr}
 8704              	.LCFI290:
 8705              		.cfi_def_cfa_offset 8
 8706              		.cfi_offset 7, -8
 8707              		.cfi_offset 14, -4
 8708 0002 82B0     		sub	sp, sp, #8
 8709              	.LCFI291:
 8710              		.cfi_def_cfa_offset 16
 8711 0004 00AF     		add	r7, sp, #0
 8712              	.LCFI292:
 8713              		.cfi_def_cfa_register 7
 8714 0006 7860     		str	r0, [r7, #4]
 8715 0008 3960     		str	r1, [r7]
4042:Drivers/STM32F7xx_HAL_Driver/Src/stm32f7xx_hal_i2c.c ****   /* Clear STOP Flag */
4043:Drivers/STM32F7xx_HAL_Driver/Src/stm32f7xx_hal_i2c.c ****   __HAL_I2C_CLEAR_FLAG(hi2c, I2C_FLAG_STOPF);
ARM GAS  /var/folders/n8/cvzdcwlj0vl4g_wtyz1ffy300000gn/T//ccBPNZvy.s 			page 224


 8716              		.loc 1 4043 0
 8717 000a 7B68     		ldr	r3, [r7, #4]
 8718 000c 1B68     		ldr	r3, [r3]
 8719 000e 2022     		movs	r2, #32
 8720 0010 DA61     		str	r2, [r3, #28]
4044:Drivers/STM32F7xx_HAL_Driver/Src/stm32f7xx_hal_i2c.c **** 
4045:Drivers/STM32F7xx_HAL_Driver/Src/stm32f7xx_hal_i2c.c ****   /* Clear ADDR flag */
4046:Drivers/STM32F7xx_HAL_Driver/Src/stm32f7xx_hal_i2c.c ****   __HAL_I2C_CLEAR_FLAG(hi2c, I2C_FLAG_ADDR);
 8721              		.loc 1 4046 0
 8722 0012 7B68     		ldr	r3, [r7, #4]
 8723 0014 1B68     		ldr	r3, [r3]
 8724 0016 0822     		movs	r2, #8
 8725 0018 DA61     		str	r2, [r3, #28]
4047:Drivers/STM32F7xx_HAL_Driver/Src/stm32f7xx_hal_i2c.c **** 
4048:Drivers/STM32F7xx_HAL_Driver/Src/stm32f7xx_hal_i2c.c ****   /* Disable all interrupts */
4049:Drivers/STM32F7xx_HAL_Driver/Src/stm32f7xx_hal_i2c.c ****   I2C_Disable_IRQ(hi2c, I2C_XFER_LISTEN_IT | I2C_XFER_TX_IT | I2C_XFER_RX_IT);
 8726              		.loc 1 4049 0
 8727 001a 0721     		movs	r1, #7
 8728 001c 7868     		ldr	r0, [r7, #4]
 8729 001e FFF7FEFF 		bl	I2C_Disable_IRQ
4050:Drivers/STM32F7xx_HAL_Driver/Src/stm32f7xx_hal_i2c.c **** 
4051:Drivers/STM32F7xx_HAL_Driver/Src/stm32f7xx_hal_i2c.c ****   /* Disable Address Acknowledge */
4052:Drivers/STM32F7xx_HAL_Driver/Src/stm32f7xx_hal_i2c.c ****   hi2c->Instance->CR2 |= I2C_CR2_NACK;
 8730              		.loc 1 4052 0
 8731 0022 7B68     		ldr	r3, [r7, #4]
 8732 0024 1B68     		ldr	r3, [r3]
 8733 0026 5A68     		ldr	r2, [r3, #4]
 8734 0028 7B68     		ldr	r3, [r7, #4]
 8735 002a 1B68     		ldr	r3, [r3]
 8736 002c 42F40042 		orr	r2, r2, #32768
 8737 0030 5A60     		str	r2, [r3, #4]
4053:Drivers/STM32F7xx_HAL_Driver/Src/stm32f7xx_hal_i2c.c **** 
4054:Drivers/STM32F7xx_HAL_Driver/Src/stm32f7xx_hal_i2c.c ****   /* Clear Configuration Register 2 */
4055:Drivers/STM32F7xx_HAL_Driver/Src/stm32f7xx_hal_i2c.c ****   I2C_RESET_CR2(hi2c);
 8738              		.loc 1 4055 0
 8739 0032 7B68     		ldr	r3, [r7, #4]
 8740 0034 1B68     		ldr	r3, [r3]
 8741 0036 5968     		ldr	r1, [r3, #4]
 8742 0038 7B68     		ldr	r3, [r7, #4]
 8743 003a 1A68     		ldr	r2, [r3]
 8744 003c 564B     		ldr	r3, .L462
 8745 003e 0B40     		ands	r3, r3, r1
 8746 0040 5360     		str	r3, [r2, #4]
4056:Drivers/STM32F7xx_HAL_Driver/Src/stm32f7xx_hal_i2c.c **** 
4057:Drivers/STM32F7xx_HAL_Driver/Src/stm32f7xx_hal_i2c.c ****   /* Flush TX register */
4058:Drivers/STM32F7xx_HAL_Driver/Src/stm32f7xx_hal_i2c.c ****   I2C_Flush_TXDR(hi2c);
 8747              		.loc 1 4058 0
 8748 0042 7868     		ldr	r0, [r7, #4]
 8749 0044 FFF7FEFF 		bl	I2C_Flush_TXDR
4059:Drivers/STM32F7xx_HAL_Driver/Src/stm32f7xx_hal_i2c.c **** 
4060:Drivers/STM32F7xx_HAL_Driver/Src/stm32f7xx_hal_i2c.c ****   /* If a DMA is ongoing, Update handle size context */
4061:Drivers/STM32F7xx_HAL_Driver/Src/stm32f7xx_hal_i2c.c ****   if (((hi2c->Instance->CR1 & I2C_CR1_TXDMAEN) == I2C_CR1_TXDMAEN) ||
 8750              		.loc 1 4061 0
 8751 0048 7B68     		ldr	r3, [r7, #4]
 8752 004a 1B68     		ldr	r3, [r3]
 8753 004c 1B68     		ldr	r3, [r3]
 8754 004e 03F48043 		and	r3, r3, #16384
ARM GAS  /var/folders/n8/cvzdcwlj0vl4g_wtyz1ffy300000gn/T//ccBPNZvy.s 			page 225


 8755 0052 B3F5804F 		cmp	r3, #16384
 8756 0056 07D0     		beq	.L450
4062:Drivers/STM32F7xx_HAL_Driver/Src/stm32f7xx_hal_i2c.c ****       ((hi2c->Instance->CR1 & I2C_CR1_RXDMAEN) == I2C_CR1_RXDMAEN))
 8757              		.loc 1 4062 0 discriminator 1
 8758 0058 7B68     		ldr	r3, [r7, #4]
 8759 005a 1B68     		ldr	r3, [r3]
 8760 005c 1B68     		ldr	r3, [r3]
 8761 005e 03F40043 		and	r3, r3, #32768
4061:Drivers/STM32F7xx_HAL_Driver/Src/stm32f7xx_hal_i2c.c ****       ((hi2c->Instance->CR1 & I2C_CR1_RXDMAEN) == I2C_CR1_RXDMAEN))
 8762              		.loc 1 4061 0 discriminator 1
 8763 0062 B3F5004F 		cmp	r3, #32768
 8764 0066 12D1     		bne	.L451
 8765              	.L450:
4063:Drivers/STM32F7xx_HAL_Driver/Src/stm32f7xx_hal_i2c.c ****   {
4064:Drivers/STM32F7xx_HAL_Driver/Src/stm32f7xx_hal_i2c.c ****     hi2c->XferCount = I2C_GET_DMA_REMAIN_DATA(hi2c);
 8766              		.loc 1 4064 0
 8767 0068 7B68     		ldr	r3, [r7, #4]
 8768 006a 93F84130 		ldrb	r3, [r3, #65]
 8769 006e DBB2     		uxtb	r3, r3
 8770 0070 212B     		cmp	r3, #33
 8771 0072 05D1     		bne	.L452
 8772              		.loc 1 4064 0 is_stmt 0 discriminator 1
 8773 0074 7B68     		ldr	r3, [r7, #4]
 8774 0076 9B6B     		ldr	r3, [r3, #56]
 8775 0078 1B68     		ldr	r3, [r3]
 8776 007a 5B68     		ldr	r3, [r3, #4]
 8777 007c 9BB2     		uxth	r3, r3
 8778 007e 04E0     		b	.L453
 8779              	.L452:
 8780              		.loc 1 4064 0 discriminator 2
 8781 0080 7B68     		ldr	r3, [r7, #4]
 8782 0082 DB6B     		ldr	r3, [r3, #60]
 8783 0084 1B68     		ldr	r3, [r3]
 8784 0086 5B68     		ldr	r3, [r3, #4]
 8785 0088 9BB2     		uxth	r3, r3
 8786              	.L453:
 8787              		.loc 1 4064 0 discriminator 4
 8788 008a 7A68     		ldr	r2, [r7, #4]
 8789 008c 5385     		strh	r3, [r2, #42]	@ movhi
 8790              	.L451:
4065:Drivers/STM32F7xx_HAL_Driver/Src/stm32f7xx_hal_i2c.c ****   }
4066:Drivers/STM32F7xx_HAL_Driver/Src/stm32f7xx_hal_i2c.c **** 
4067:Drivers/STM32F7xx_HAL_Driver/Src/stm32f7xx_hal_i2c.c ****   /* All data are not transferred, so set error code accordingly */
4068:Drivers/STM32F7xx_HAL_Driver/Src/stm32f7xx_hal_i2c.c ****   if (hi2c->XferCount != 0U)
 8791              		.loc 1 4068 0 is_stmt 1
 8792 008e 7B68     		ldr	r3, [r7, #4]
 8793 0090 5B8D     		ldrh	r3, [r3, #42]	@ movhi
 8794 0092 9BB2     		uxth	r3, r3
 8795 0094 002B     		cmp	r3, #0
 8796 0096 05D0     		beq	.L454
4069:Drivers/STM32F7xx_HAL_Driver/Src/stm32f7xx_hal_i2c.c ****   {
4070:Drivers/STM32F7xx_HAL_Driver/Src/stm32f7xx_hal_i2c.c ****     /* Set ErrorCode corresponding to a Non-Acknowledge */
4071:Drivers/STM32F7xx_HAL_Driver/Src/stm32f7xx_hal_i2c.c ****     hi2c->ErrorCode |= HAL_I2C_ERROR_AF;
 8797              		.loc 1 4071 0
 8798 0098 7B68     		ldr	r3, [r7, #4]
 8799 009a 5B6C     		ldr	r3, [r3, #68]
 8800 009c 43F00402 		orr	r2, r3, #4
ARM GAS  /var/folders/n8/cvzdcwlj0vl4g_wtyz1ffy300000gn/T//ccBPNZvy.s 			page 226


 8801 00a0 7B68     		ldr	r3, [r7, #4]
 8802 00a2 5A64     		str	r2, [r3, #68]
 8803              	.L454:
4072:Drivers/STM32F7xx_HAL_Driver/Src/stm32f7xx_hal_i2c.c ****   }
4073:Drivers/STM32F7xx_HAL_Driver/Src/stm32f7xx_hal_i2c.c **** 
4074:Drivers/STM32F7xx_HAL_Driver/Src/stm32f7xx_hal_i2c.c ****   /* Store Last receive data if any */
4075:Drivers/STM32F7xx_HAL_Driver/Src/stm32f7xx_hal_i2c.c ****   if (((ITFlags & I2C_FLAG_RXNE) != RESET))
 8804              		.loc 1 4075 0
 8805 00a4 3B68     		ldr	r3, [r7]
 8806 00a6 03F00403 		and	r3, r3, #4
 8807 00aa 002B     		cmp	r3, #0
 8808 00ac 20D0     		beq	.L455
4076:Drivers/STM32F7xx_HAL_Driver/Src/stm32f7xx_hal_i2c.c ****   {
4077:Drivers/STM32F7xx_HAL_Driver/Src/stm32f7xx_hal_i2c.c ****     /* Read data from RXDR */
4078:Drivers/STM32F7xx_HAL_Driver/Src/stm32f7xx_hal_i2c.c ****     (*hi2c->pBuffPtr++) = hi2c->Instance->RXDR;
 8809              		.loc 1 4078 0
 8810 00ae 7B68     		ldr	r3, [r7, #4]
 8811 00b0 1B68     		ldr	r3, [r3]
 8812 00b2 586A     		ldr	r0, [r3, #36]
 8813 00b4 7B68     		ldr	r3, [r7, #4]
 8814 00b6 5B6A     		ldr	r3, [r3, #36]
 8815 00b8 591C     		adds	r1, r3, #1
 8816 00ba 7A68     		ldr	r2, [r7, #4]
 8817 00bc 5162     		str	r1, [r2, #36]
 8818 00be C2B2     		uxtb	r2, r0
 8819 00c0 1A70     		strb	r2, [r3]
4079:Drivers/STM32F7xx_HAL_Driver/Src/stm32f7xx_hal_i2c.c **** 
4080:Drivers/STM32F7xx_HAL_Driver/Src/stm32f7xx_hal_i2c.c ****     if ((hi2c->XferSize > 0U))
 8820              		.loc 1 4080 0
 8821 00c2 7B68     		ldr	r3, [r7, #4]
 8822 00c4 1B8D     		ldrh	r3, [r3, #40]
 8823 00c6 002B     		cmp	r3, #0
 8824 00c8 12D0     		beq	.L455
4081:Drivers/STM32F7xx_HAL_Driver/Src/stm32f7xx_hal_i2c.c ****     {
4082:Drivers/STM32F7xx_HAL_Driver/Src/stm32f7xx_hal_i2c.c ****       hi2c->XferSize--;
 8825              		.loc 1 4082 0
 8826 00ca 7B68     		ldr	r3, [r7, #4]
 8827 00cc 1B8D     		ldrh	r3, [r3, #40]
 8828 00ce 013B     		subs	r3, r3, #1
 8829 00d0 9AB2     		uxth	r2, r3
 8830 00d2 7B68     		ldr	r3, [r7, #4]
 8831 00d4 1A85     		strh	r2, [r3, #40]	@ movhi
4083:Drivers/STM32F7xx_HAL_Driver/Src/stm32f7xx_hal_i2c.c ****       hi2c->XferCount--;
 8832              		.loc 1 4083 0
 8833 00d6 7B68     		ldr	r3, [r7, #4]
 8834 00d8 5B8D     		ldrh	r3, [r3, #42]	@ movhi
 8835 00da 9BB2     		uxth	r3, r3
 8836 00dc 013B     		subs	r3, r3, #1
 8837 00de 9AB2     		uxth	r2, r3
 8838 00e0 7B68     		ldr	r3, [r7, #4]
 8839 00e2 5A85     		strh	r2, [r3, #42]	@ movhi
4084:Drivers/STM32F7xx_HAL_Driver/Src/stm32f7xx_hal_i2c.c **** 
4085:Drivers/STM32F7xx_HAL_Driver/Src/stm32f7xx_hal_i2c.c ****       /* Set ErrorCode corresponding to a Non-Acknowledge */
4086:Drivers/STM32F7xx_HAL_Driver/Src/stm32f7xx_hal_i2c.c ****       hi2c->ErrorCode |= HAL_I2C_ERROR_AF;
 8840              		.loc 1 4086 0
 8841 00e4 7B68     		ldr	r3, [r7, #4]
 8842 00e6 5B6C     		ldr	r3, [r3, #68]
ARM GAS  /var/folders/n8/cvzdcwlj0vl4g_wtyz1ffy300000gn/T//ccBPNZvy.s 			page 227


 8843 00e8 43F00402 		orr	r2, r3, #4
 8844 00ec 7B68     		ldr	r3, [r7, #4]
 8845 00ee 5A64     		str	r2, [r3, #68]
 8846              	.L455:
4087:Drivers/STM32F7xx_HAL_Driver/Src/stm32f7xx_hal_i2c.c ****     }
4088:Drivers/STM32F7xx_HAL_Driver/Src/stm32f7xx_hal_i2c.c ****   }
4089:Drivers/STM32F7xx_HAL_Driver/Src/stm32f7xx_hal_i2c.c **** 
4090:Drivers/STM32F7xx_HAL_Driver/Src/stm32f7xx_hal_i2c.c ****   hi2c->PreviousState = I2C_STATE_NONE;
 8847              		.loc 1 4090 0
 8848 00f0 7B68     		ldr	r3, [r7, #4]
 8849 00f2 0022     		movs	r2, #0
 8850 00f4 1A63     		str	r2, [r3, #48]
4091:Drivers/STM32F7xx_HAL_Driver/Src/stm32f7xx_hal_i2c.c ****   hi2c->Mode = HAL_I2C_MODE_NONE;
 8851              		.loc 1 4091 0
 8852 00f6 7B68     		ldr	r3, [r7, #4]
 8853 00f8 0022     		movs	r2, #0
 8854 00fa 83F84220 		strb	r2, [r3, #66]
4092:Drivers/STM32F7xx_HAL_Driver/Src/stm32f7xx_hal_i2c.c ****   hi2c->XferISR = NULL;
 8855              		.loc 1 4092 0
 8856 00fe 7B68     		ldr	r3, [r7, #4]
 8857 0100 0022     		movs	r2, #0
 8858 0102 5A63     		str	r2, [r3, #52]
4093:Drivers/STM32F7xx_HAL_Driver/Src/stm32f7xx_hal_i2c.c **** 
4094:Drivers/STM32F7xx_HAL_Driver/Src/stm32f7xx_hal_i2c.c ****   if (hi2c->ErrorCode != HAL_I2C_ERROR_NONE)
 8859              		.loc 1 4094 0
 8860 0104 7B68     		ldr	r3, [r7, #4]
 8861 0106 5B6C     		ldr	r3, [r3, #68]
 8862 0108 002B     		cmp	r3, #0
 8863 010a 10D0     		beq	.L456
4095:Drivers/STM32F7xx_HAL_Driver/Src/stm32f7xx_hal_i2c.c ****   {
4096:Drivers/STM32F7xx_HAL_Driver/Src/stm32f7xx_hal_i2c.c ****     /* Call the corresponding callback to inform upper layer of End of Transfer */
4097:Drivers/STM32F7xx_HAL_Driver/Src/stm32f7xx_hal_i2c.c ****     I2C_ITError(hi2c, hi2c->ErrorCode);
 8864              		.loc 1 4097 0
 8865 010c 7B68     		ldr	r3, [r7, #4]
 8866 010e 5B6C     		ldr	r3, [r3, #68]
 8867 0110 1946     		mov	r1, r3
 8868 0112 7868     		ldr	r0, [r7, #4]
 8869 0114 FFF7FEFF 		bl	I2C_ITError
4098:Drivers/STM32F7xx_HAL_Driver/Src/stm32f7xx_hal_i2c.c **** 
4099:Drivers/STM32F7xx_HAL_Driver/Src/stm32f7xx_hal_i2c.c ****     /* Call the Listen Complete callback, to inform upper layer of the end of Listen usecase */
4100:Drivers/STM32F7xx_HAL_Driver/Src/stm32f7xx_hal_i2c.c ****     if (hi2c->State == HAL_I2C_STATE_LISTEN)
 8870              		.loc 1 4100 0
 8871 0118 7B68     		ldr	r3, [r7, #4]
 8872 011a 93F84130 		ldrb	r3, [r3, #65]
 8873 011e DBB2     		uxtb	r3, r3
 8874 0120 282B     		cmp	r3, #40
 8875 0122 35D1     		bne	.L461
4101:Drivers/STM32F7xx_HAL_Driver/Src/stm32f7xx_hal_i2c.c ****     {
4102:Drivers/STM32F7xx_HAL_Driver/Src/stm32f7xx_hal_i2c.c ****       /* Call I2C Listen complete process */
4103:Drivers/STM32F7xx_HAL_Driver/Src/stm32f7xx_hal_i2c.c ****       I2C_ITListenCplt(hi2c, ITFlags);
 8876              		.loc 1 4103 0
 8877 0124 3968     		ldr	r1, [r7]
 8878 0126 7868     		ldr	r0, [r7, #4]
 8879 0128 FFF7FEFF 		bl	I2C_ITListenCplt
4104:Drivers/STM32F7xx_HAL_Driver/Src/stm32f7xx_hal_i2c.c ****     }
4105:Drivers/STM32F7xx_HAL_Driver/Src/stm32f7xx_hal_i2c.c ****   }
4106:Drivers/STM32F7xx_HAL_Driver/Src/stm32f7xx_hal_i2c.c ****   else if (hi2c->XferOptions != I2C_NO_OPTION_FRAME)
ARM GAS  /var/folders/n8/cvzdcwlj0vl4g_wtyz1ffy300000gn/T//ccBPNZvy.s 			page 228


4107:Drivers/STM32F7xx_HAL_Driver/Src/stm32f7xx_hal_i2c.c ****   {
4108:Drivers/STM32F7xx_HAL_Driver/Src/stm32f7xx_hal_i2c.c ****     hi2c->XferOptions = I2C_NO_OPTION_FRAME;
4109:Drivers/STM32F7xx_HAL_Driver/Src/stm32f7xx_hal_i2c.c ****     hi2c->State = HAL_I2C_STATE_READY;
4110:Drivers/STM32F7xx_HAL_Driver/Src/stm32f7xx_hal_i2c.c **** 
4111:Drivers/STM32F7xx_HAL_Driver/Src/stm32f7xx_hal_i2c.c ****     /* Process Unlocked */
4112:Drivers/STM32F7xx_HAL_Driver/Src/stm32f7xx_hal_i2c.c ****     __HAL_UNLOCK(hi2c);
4113:Drivers/STM32F7xx_HAL_Driver/Src/stm32f7xx_hal_i2c.c **** 
4114:Drivers/STM32F7xx_HAL_Driver/Src/stm32f7xx_hal_i2c.c ****     /* Call the Listen Complete callback, to inform upper layer of the end of Listen usecase */
4115:Drivers/STM32F7xx_HAL_Driver/Src/stm32f7xx_hal_i2c.c ****     HAL_I2C_ListenCpltCallback(hi2c);
4116:Drivers/STM32F7xx_HAL_Driver/Src/stm32f7xx_hal_i2c.c ****   }
4117:Drivers/STM32F7xx_HAL_Driver/Src/stm32f7xx_hal_i2c.c ****   /* Call the corresponding callback to inform upper layer of End of Transfer */
4118:Drivers/STM32F7xx_HAL_Driver/Src/stm32f7xx_hal_i2c.c ****   else if (hi2c->State == HAL_I2C_STATE_BUSY_RX)
4119:Drivers/STM32F7xx_HAL_Driver/Src/stm32f7xx_hal_i2c.c ****   {
4120:Drivers/STM32F7xx_HAL_Driver/Src/stm32f7xx_hal_i2c.c ****     hi2c->State = HAL_I2C_STATE_READY;
4121:Drivers/STM32F7xx_HAL_Driver/Src/stm32f7xx_hal_i2c.c **** 
4122:Drivers/STM32F7xx_HAL_Driver/Src/stm32f7xx_hal_i2c.c ****     /* Process Unlocked */
4123:Drivers/STM32F7xx_HAL_Driver/Src/stm32f7xx_hal_i2c.c ****     __HAL_UNLOCK(hi2c);
4124:Drivers/STM32F7xx_HAL_Driver/Src/stm32f7xx_hal_i2c.c **** 
4125:Drivers/STM32F7xx_HAL_Driver/Src/stm32f7xx_hal_i2c.c ****     /* Call the Slave Rx Complete callback */
4126:Drivers/STM32F7xx_HAL_Driver/Src/stm32f7xx_hal_i2c.c ****     HAL_I2C_SlaveRxCpltCallback(hi2c);
4127:Drivers/STM32F7xx_HAL_Driver/Src/stm32f7xx_hal_i2c.c ****   }
4128:Drivers/STM32F7xx_HAL_Driver/Src/stm32f7xx_hal_i2c.c ****   else
4129:Drivers/STM32F7xx_HAL_Driver/Src/stm32f7xx_hal_i2c.c ****   {
4130:Drivers/STM32F7xx_HAL_Driver/Src/stm32f7xx_hal_i2c.c ****     hi2c->State = HAL_I2C_STATE_READY;
4131:Drivers/STM32F7xx_HAL_Driver/Src/stm32f7xx_hal_i2c.c **** 
4132:Drivers/STM32F7xx_HAL_Driver/Src/stm32f7xx_hal_i2c.c ****     /* Process Unlocked */
4133:Drivers/STM32F7xx_HAL_Driver/Src/stm32f7xx_hal_i2c.c ****     __HAL_UNLOCK(hi2c);
4134:Drivers/STM32F7xx_HAL_Driver/Src/stm32f7xx_hal_i2c.c **** 
4135:Drivers/STM32F7xx_HAL_Driver/Src/stm32f7xx_hal_i2c.c ****     /* Call the Slave Tx Complete callback */
4136:Drivers/STM32F7xx_HAL_Driver/Src/stm32f7xx_hal_i2c.c ****     HAL_I2C_SlaveTxCpltCallback(hi2c);
4137:Drivers/STM32F7xx_HAL_Driver/Src/stm32f7xx_hal_i2c.c ****   }
4138:Drivers/STM32F7xx_HAL_Driver/Src/stm32f7xx_hal_i2c.c **** }
 8880              		.loc 1 4138 0
 8881 012c 30E0     		b	.L461
 8882              	.L456:
4106:Drivers/STM32F7xx_HAL_Driver/Src/stm32f7xx_hal_i2c.c ****   {
 8883              		.loc 1 4106 0
 8884 012e 7B68     		ldr	r3, [r7, #4]
 8885 0130 DB6A     		ldr	r3, [r3, #44]
 8886 0132 13F5803F 		cmn	r3, #65536
 8887 0136 0ED0     		beq	.L459
4108:Drivers/STM32F7xx_HAL_Driver/Src/stm32f7xx_hal_i2c.c ****     hi2c->State = HAL_I2C_STATE_READY;
 8888              		.loc 1 4108 0
 8889 0138 7B68     		ldr	r3, [r7, #4]
 8890 013a 184A     		ldr	r2, .L462+4
 8891 013c DA62     		str	r2, [r3, #44]
4109:Drivers/STM32F7xx_HAL_Driver/Src/stm32f7xx_hal_i2c.c **** 
 8892              		.loc 1 4109 0
 8893 013e 7B68     		ldr	r3, [r7, #4]
 8894 0140 2022     		movs	r2, #32
 8895 0142 83F84120 		strb	r2, [r3, #65]
4112:Drivers/STM32F7xx_HAL_Driver/Src/stm32f7xx_hal_i2c.c **** 
 8896              		.loc 1 4112 0
 8897 0146 7B68     		ldr	r3, [r7, #4]
 8898 0148 0022     		movs	r2, #0
 8899 014a 83F84020 		strb	r2, [r3, #64]
4115:Drivers/STM32F7xx_HAL_Driver/Src/stm32f7xx_hal_i2c.c ****   }
ARM GAS  /var/folders/n8/cvzdcwlj0vl4g_wtyz1ffy300000gn/T//ccBPNZvy.s 			page 229


 8900              		.loc 1 4115 0
 8901 014e 7868     		ldr	r0, [r7, #4]
 8902 0150 FFF7FEFF 		bl	HAL_I2C_ListenCpltCallback
 8903              		.loc 1 4138 0
 8904 0154 1CE0     		b	.L461
 8905              	.L459:
4118:Drivers/STM32F7xx_HAL_Driver/Src/stm32f7xx_hal_i2c.c ****   {
 8906              		.loc 1 4118 0
 8907 0156 7B68     		ldr	r3, [r7, #4]
 8908 0158 93F84130 		ldrb	r3, [r3, #65]
 8909 015c DBB2     		uxtb	r3, r3
 8910 015e 222B     		cmp	r3, #34
 8911 0160 0BD1     		bne	.L460
4120:Drivers/STM32F7xx_HAL_Driver/Src/stm32f7xx_hal_i2c.c **** 
 8912              		.loc 1 4120 0
 8913 0162 7B68     		ldr	r3, [r7, #4]
 8914 0164 2022     		movs	r2, #32
 8915 0166 83F84120 		strb	r2, [r3, #65]
4123:Drivers/STM32F7xx_HAL_Driver/Src/stm32f7xx_hal_i2c.c **** 
 8916              		.loc 1 4123 0
 8917 016a 7B68     		ldr	r3, [r7, #4]
 8918 016c 0022     		movs	r2, #0
 8919 016e 83F84020 		strb	r2, [r3, #64]
4126:Drivers/STM32F7xx_HAL_Driver/Src/stm32f7xx_hal_i2c.c ****   }
 8920              		.loc 1 4126 0
 8921 0172 7868     		ldr	r0, [r7, #4]
 8922 0174 FFF7FEFF 		bl	HAL_I2C_SlaveRxCpltCallback
 8923              		.loc 1 4138 0
 8924 0178 0AE0     		b	.L461
 8925              	.L460:
4130:Drivers/STM32F7xx_HAL_Driver/Src/stm32f7xx_hal_i2c.c **** 
 8926              		.loc 1 4130 0
 8927 017a 7B68     		ldr	r3, [r7, #4]
 8928 017c 2022     		movs	r2, #32
 8929 017e 83F84120 		strb	r2, [r3, #65]
4133:Drivers/STM32F7xx_HAL_Driver/Src/stm32f7xx_hal_i2c.c **** 
 8930              		.loc 1 4133 0
 8931 0182 7B68     		ldr	r3, [r7, #4]
 8932 0184 0022     		movs	r2, #0
 8933 0186 83F84020 		strb	r2, [r3, #64]
4136:Drivers/STM32F7xx_HAL_Driver/Src/stm32f7xx_hal_i2c.c ****   }
 8934              		.loc 1 4136 0
 8935 018a 7868     		ldr	r0, [r7, #4]
 8936 018c FFF7FEFF 		bl	HAL_I2C_SlaveTxCpltCallback
 8937              	.L461:
 8938              		.loc 1 4138 0
 8939 0190 00BF     		nop
 8940 0192 0837     		adds	r7, r7, #8
 8941              	.LCFI293:
 8942              		.cfi_def_cfa_offset 8
 8943 0194 BD46     		mov	sp, r7
 8944              	.LCFI294:
 8945              		.cfi_def_cfa_register 13
 8946              		@ sp needed
 8947 0196 80BD     		pop	{r7, pc}
 8948              	.L463:
 8949              		.align	2
ARM GAS  /var/folders/n8/cvzdcwlj0vl4g_wtyz1ffy300000gn/T//ccBPNZvy.s 			page 230


 8950              	.L462:
 8951 0198 00E800FE 		.word	-33495040
 8952 019c 0000FFFF 		.word	-65536
 8953              		.cfi_endproc
 8954              	.LFE193:
 8956              		.section	.text.I2C_ITListenCplt,"ax",%progbits
 8957              		.align	1
 8958              		.syntax unified
 8959              		.thumb
 8960              		.thumb_func
 8961              		.fpu fpv5-sp-d16
 8963              	I2C_ITListenCplt:
 8964              	.LFB194:
4139:Drivers/STM32F7xx_HAL_Driver/Src/stm32f7xx_hal_i2c.c **** 
4140:Drivers/STM32F7xx_HAL_Driver/Src/stm32f7xx_hal_i2c.c **** /**
4141:Drivers/STM32F7xx_HAL_Driver/Src/stm32f7xx_hal_i2c.c ****   * @brief  I2C Listen complete process.
4142:Drivers/STM32F7xx_HAL_Driver/Src/stm32f7xx_hal_i2c.c ****   * @param  hi2c I2C handle.
4143:Drivers/STM32F7xx_HAL_Driver/Src/stm32f7xx_hal_i2c.c ****   * @param  ITFlags Interrupt flags to handle.
4144:Drivers/STM32F7xx_HAL_Driver/Src/stm32f7xx_hal_i2c.c ****   * @retval None
4145:Drivers/STM32F7xx_HAL_Driver/Src/stm32f7xx_hal_i2c.c ****   */
4146:Drivers/STM32F7xx_HAL_Driver/Src/stm32f7xx_hal_i2c.c **** static void I2C_ITListenCplt(I2C_HandleTypeDef *hi2c, uint32_t ITFlags)
4147:Drivers/STM32F7xx_HAL_Driver/Src/stm32f7xx_hal_i2c.c **** {
 8965              		.loc 1 4147 0
 8966              		.cfi_startproc
 8967              		@ args = 0, pretend = 0, frame = 8
 8968              		@ frame_needed = 1, uses_anonymous_args = 0
 8969 0000 80B5     		push	{r7, lr}
 8970              	.LCFI295:
 8971              		.cfi_def_cfa_offset 8
 8972              		.cfi_offset 7, -8
 8973              		.cfi_offset 14, -4
 8974 0002 82B0     		sub	sp, sp, #8
 8975              	.LCFI296:
 8976              		.cfi_def_cfa_offset 16
 8977 0004 00AF     		add	r7, sp, #0
 8978              	.LCFI297:
 8979              		.cfi_def_cfa_register 7
 8980 0006 7860     		str	r0, [r7, #4]
 8981 0008 3960     		str	r1, [r7]
4148:Drivers/STM32F7xx_HAL_Driver/Src/stm32f7xx_hal_i2c.c ****   /* Reset handle parameters */
4149:Drivers/STM32F7xx_HAL_Driver/Src/stm32f7xx_hal_i2c.c ****   hi2c->XferOptions = I2C_NO_OPTION_FRAME;
 8982              		.loc 1 4149 0
 8983 000a 7B68     		ldr	r3, [r7, #4]
 8984 000c 244A     		ldr	r2, .L466
 8985 000e DA62     		str	r2, [r3, #44]
4150:Drivers/STM32F7xx_HAL_Driver/Src/stm32f7xx_hal_i2c.c ****   hi2c->PreviousState = I2C_STATE_NONE;
 8986              		.loc 1 4150 0
 8987 0010 7B68     		ldr	r3, [r7, #4]
 8988 0012 0022     		movs	r2, #0
 8989 0014 1A63     		str	r2, [r3, #48]
4151:Drivers/STM32F7xx_HAL_Driver/Src/stm32f7xx_hal_i2c.c ****   hi2c->State = HAL_I2C_STATE_READY;
 8990              		.loc 1 4151 0
 8991 0016 7B68     		ldr	r3, [r7, #4]
 8992 0018 2022     		movs	r2, #32
 8993 001a 83F84120 		strb	r2, [r3, #65]
4152:Drivers/STM32F7xx_HAL_Driver/Src/stm32f7xx_hal_i2c.c ****   hi2c->Mode = HAL_I2C_MODE_NONE;
 8994              		.loc 1 4152 0
ARM GAS  /var/folders/n8/cvzdcwlj0vl4g_wtyz1ffy300000gn/T//ccBPNZvy.s 			page 231


 8995 001e 7B68     		ldr	r3, [r7, #4]
 8996 0020 0022     		movs	r2, #0
 8997 0022 83F84220 		strb	r2, [r3, #66]
4153:Drivers/STM32F7xx_HAL_Driver/Src/stm32f7xx_hal_i2c.c ****   hi2c->XferISR = NULL;
 8998              		.loc 1 4153 0
 8999 0026 7B68     		ldr	r3, [r7, #4]
 9000 0028 0022     		movs	r2, #0
 9001 002a 5A63     		str	r2, [r3, #52]
4154:Drivers/STM32F7xx_HAL_Driver/Src/stm32f7xx_hal_i2c.c **** 
4155:Drivers/STM32F7xx_HAL_Driver/Src/stm32f7xx_hal_i2c.c ****   /* Store Last receive data if any */
4156:Drivers/STM32F7xx_HAL_Driver/Src/stm32f7xx_hal_i2c.c ****   if (((ITFlags & I2C_FLAG_RXNE) != RESET))
 9002              		.loc 1 4156 0
 9003 002c 3B68     		ldr	r3, [r7]
 9004 002e 03F00403 		and	r3, r3, #4
 9005 0032 002B     		cmp	r3, #0
 9006 0034 20D0     		beq	.L465
4157:Drivers/STM32F7xx_HAL_Driver/Src/stm32f7xx_hal_i2c.c ****   {
4158:Drivers/STM32F7xx_HAL_Driver/Src/stm32f7xx_hal_i2c.c ****     /* Read data from RXDR */
4159:Drivers/STM32F7xx_HAL_Driver/Src/stm32f7xx_hal_i2c.c ****     (*hi2c->pBuffPtr++) = hi2c->Instance->RXDR;
 9007              		.loc 1 4159 0
 9008 0036 7B68     		ldr	r3, [r7, #4]
 9009 0038 1B68     		ldr	r3, [r3]
 9010 003a 586A     		ldr	r0, [r3, #36]
 9011 003c 7B68     		ldr	r3, [r7, #4]
 9012 003e 5B6A     		ldr	r3, [r3, #36]
 9013 0040 591C     		adds	r1, r3, #1
 9014 0042 7A68     		ldr	r2, [r7, #4]
 9015 0044 5162     		str	r1, [r2, #36]
 9016 0046 C2B2     		uxtb	r2, r0
 9017 0048 1A70     		strb	r2, [r3]
4160:Drivers/STM32F7xx_HAL_Driver/Src/stm32f7xx_hal_i2c.c **** 
4161:Drivers/STM32F7xx_HAL_Driver/Src/stm32f7xx_hal_i2c.c ****     if ((hi2c->XferSize > 0U))
 9018              		.loc 1 4161 0
 9019 004a 7B68     		ldr	r3, [r7, #4]
 9020 004c 1B8D     		ldrh	r3, [r3, #40]
 9021 004e 002B     		cmp	r3, #0
 9022 0050 12D0     		beq	.L465
4162:Drivers/STM32F7xx_HAL_Driver/Src/stm32f7xx_hal_i2c.c ****     {
4163:Drivers/STM32F7xx_HAL_Driver/Src/stm32f7xx_hal_i2c.c ****       hi2c->XferSize--;
 9023              		.loc 1 4163 0
 9024 0052 7B68     		ldr	r3, [r7, #4]
 9025 0054 1B8D     		ldrh	r3, [r3, #40]
 9026 0056 013B     		subs	r3, r3, #1
 9027 0058 9AB2     		uxth	r2, r3
 9028 005a 7B68     		ldr	r3, [r7, #4]
 9029 005c 1A85     		strh	r2, [r3, #40]	@ movhi
4164:Drivers/STM32F7xx_HAL_Driver/Src/stm32f7xx_hal_i2c.c ****       hi2c->XferCount--;
 9030              		.loc 1 4164 0
 9031 005e 7B68     		ldr	r3, [r7, #4]
 9032 0060 5B8D     		ldrh	r3, [r3, #42]	@ movhi
 9033 0062 9BB2     		uxth	r3, r3
 9034 0064 013B     		subs	r3, r3, #1
 9035 0066 9AB2     		uxth	r2, r3
 9036 0068 7B68     		ldr	r3, [r7, #4]
 9037 006a 5A85     		strh	r2, [r3, #42]	@ movhi
4165:Drivers/STM32F7xx_HAL_Driver/Src/stm32f7xx_hal_i2c.c **** 
4166:Drivers/STM32F7xx_HAL_Driver/Src/stm32f7xx_hal_i2c.c ****       /* Set ErrorCode corresponding to a Non-Acknowledge */
ARM GAS  /var/folders/n8/cvzdcwlj0vl4g_wtyz1ffy300000gn/T//ccBPNZvy.s 			page 232


4167:Drivers/STM32F7xx_HAL_Driver/Src/stm32f7xx_hal_i2c.c ****       hi2c->ErrorCode |= HAL_I2C_ERROR_AF;
 9038              		.loc 1 4167 0
 9039 006c 7B68     		ldr	r3, [r7, #4]
 9040 006e 5B6C     		ldr	r3, [r3, #68]
 9041 0070 43F00402 		orr	r2, r3, #4
 9042 0074 7B68     		ldr	r3, [r7, #4]
 9043 0076 5A64     		str	r2, [r3, #68]
 9044              	.L465:
4168:Drivers/STM32F7xx_HAL_Driver/Src/stm32f7xx_hal_i2c.c ****     }
4169:Drivers/STM32F7xx_HAL_Driver/Src/stm32f7xx_hal_i2c.c ****   }
4170:Drivers/STM32F7xx_HAL_Driver/Src/stm32f7xx_hal_i2c.c **** 
4171:Drivers/STM32F7xx_HAL_Driver/Src/stm32f7xx_hal_i2c.c ****   /* Disable all Interrupts*/
4172:Drivers/STM32F7xx_HAL_Driver/Src/stm32f7xx_hal_i2c.c ****   I2C_Disable_IRQ(hi2c, I2C_XFER_LISTEN_IT | I2C_XFER_RX_IT | I2C_XFER_TX_IT);
 9045              		.loc 1 4172 0
 9046 0078 0721     		movs	r1, #7
 9047 007a 7868     		ldr	r0, [r7, #4]
 9048 007c FFF7FEFF 		bl	I2C_Disable_IRQ
4173:Drivers/STM32F7xx_HAL_Driver/Src/stm32f7xx_hal_i2c.c **** 
4174:Drivers/STM32F7xx_HAL_Driver/Src/stm32f7xx_hal_i2c.c ****   /* Clear NACK Flag */
4175:Drivers/STM32F7xx_HAL_Driver/Src/stm32f7xx_hal_i2c.c ****   __HAL_I2C_CLEAR_FLAG(hi2c, I2C_FLAG_AF);
 9049              		.loc 1 4175 0
 9050 0080 7B68     		ldr	r3, [r7, #4]
 9051 0082 1B68     		ldr	r3, [r3]
 9052 0084 1022     		movs	r2, #16
 9053 0086 DA61     		str	r2, [r3, #28]
4176:Drivers/STM32F7xx_HAL_Driver/Src/stm32f7xx_hal_i2c.c **** 
4177:Drivers/STM32F7xx_HAL_Driver/Src/stm32f7xx_hal_i2c.c ****   /* Process Unlocked */
4178:Drivers/STM32F7xx_HAL_Driver/Src/stm32f7xx_hal_i2c.c ****   __HAL_UNLOCK(hi2c);
 9054              		.loc 1 4178 0
 9055 0088 7B68     		ldr	r3, [r7, #4]
 9056 008a 0022     		movs	r2, #0
 9057 008c 83F84020 		strb	r2, [r3, #64]
4179:Drivers/STM32F7xx_HAL_Driver/Src/stm32f7xx_hal_i2c.c **** 
4180:Drivers/STM32F7xx_HAL_Driver/Src/stm32f7xx_hal_i2c.c ****   /* Call the Listen Complete callback, to inform upper layer of the end of Listen usecase */
4181:Drivers/STM32F7xx_HAL_Driver/Src/stm32f7xx_hal_i2c.c ****   HAL_I2C_ListenCpltCallback(hi2c);
 9058              		.loc 1 4181 0
 9059 0090 7868     		ldr	r0, [r7, #4]
 9060 0092 FFF7FEFF 		bl	HAL_I2C_ListenCpltCallback
4182:Drivers/STM32F7xx_HAL_Driver/Src/stm32f7xx_hal_i2c.c **** }
 9061              		.loc 1 4182 0
 9062 0096 00BF     		nop
 9063 0098 0837     		adds	r7, r7, #8
 9064              	.LCFI298:
 9065              		.cfi_def_cfa_offset 8
 9066 009a BD46     		mov	sp, r7
 9067              	.LCFI299:
 9068              		.cfi_def_cfa_register 13
 9069              		@ sp needed
 9070 009c 80BD     		pop	{r7, pc}
 9071              	.L467:
 9072 009e 00BF     		.align	2
 9073              	.L466:
 9074 00a0 0000FFFF 		.word	-65536
 9075              		.cfi_endproc
 9076              	.LFE194:
 9078              		.section	.text.I2C_ITError,"ax",%progbits
 9079              		.align	1
ARM GAS  /var/folders/n8/cvzdcwlj0vl4g_wtyz1ffy300000gn/T//ccBPNZvy.s 			page 233


 9080              		.syntax unified
 9081              		.thumb
 9082              		.thumb_func
 9083              		.fpu fpv5-sp-d16
 9085              	I2C_ITError:
 9086              	.LFB195:
4183:Drivers/STM32F7xx_HAL_Driver/Src/stm32f7xx_hal_i2c.c **** 
4184:Drivers/STM32F7xx_HAL_Driver/Src/stm32f7xx_hal_i2c.c **** /**
4185:Drivers/STM32F7xx_HAL_Driver/Src/stm32f7xx_hal_i2c.c ****   * @brief  I2C interrupts error process.
4186:Drivers/STM32F7xx_HAL_Driver/Src/stm32f7xx_hal_i2c.c ****   * @param  hi2c I2C handle.
4187:Drivers/STM32F7xx_HAL_Driver/Src/stm32f7xx_hal_i2c.c ****   * @param  ErrorCode Error code to handle.
4188:Drivers/STM32F7xx_HAL_Driver/Src/stm32f7xx_hal_i2c.c ****   * @retval None
4189:Drivers/STM32F7xx_HAL_Driver/Src/stm32f7xx_hal_i2c.c ****   */
4190:Drivers/STM32F7xx_HAL_Driver/Src/stm32f7xx_hal_i2c.c **** static void I2C_ITError(I2C_HandleTypeDef *hi2c, uint32_t ErrorCode)
4191:Drivers/STM32F7xx_HAL_Driver/Src/stm32f7xx_hal_i2c.c **** {
 9087              		.loc 1 4191 0
 9088              		.cfi_startproc
 9089              		@ args = 0, pretend = 0, frame = 8
 9090              		@ frame_needed = 1, uses_anonymous_args = 0
 9091 0000 80B5     		push	{r7, lr}
 9092              	.LCFI300:
 9093              		.cfi_def_cfa_offset 8
 9094              		.cfi_offset 7, -8
 9095              		.cfi_offset 14, -4
 9096 0002 82B0     		sub	sp, sp, #8
 9097              	.LCFI301:
 9098              		.cfi_def_cfa_offset 16
 9099 0004 00AF     		add	r7, sp, #0
 9100              	.LCFI302:
 9101              		.cfi_def_cfa_register 7
 9102 0006 7860     		str	r0, [r7, #4]
 9103 0008 3960     		str	r1, [r7]
4192:Drivers/STM32F7xx_HAL_Driver/Src/stm32f7xx_hal_i2c.c ****   /* Reset handle parameters */
4193:Drivers/STM32F7xx_HAL_Driver/Src/stm32f7xx_hal_i2c.c ****   hi2c->Mode          = HAL_I2C_MODE_NONE;
 9104              		.loc 1 4193 0
 9105 000a 7B68     		ldr	r3, [r7, #4]
 9106 000c 0022     		movs	r2, #0
 9107 000e 83F84220 		strb	r2, [r3, #66]
4194:Drivers/STM32F7xx_HAL_Driver/Src/stm32f7xx_hal_i2c.c ****   hi2c->XferOptions   = I2C_NO_OPTION_FRAME;
 9108              		.loc 1 4194 0
 9109 0012 7B68     		ldr	r3, [r7, #4]
 9110 0014 564A     		ldr	r2, .L480
 9111 0016 DA62     		str	r2, [r3, #44]
4195:Drivers/STM32F7xx_HAL_Driver/Src/stm32f7xx_hal_i2c.c ****   hi2c->XferCount     = 0U;
 9112              		.loc 1 4195 0
 9113 0018 7B68     		ldr	r3, [r7, #4]
 9114 001a 0022     		movs	r2, #0
 9115 001c 5A85     		strh	r2, [r3, #42]	@ movhi
4196:Drivers/STM32F7xx_HAL_Driver/Src/stm32f7xx_hal_i2c.c **** 
4197:Drivers/STM32F7xx_HAL_Driver/Src/stm32f7xx_hal_i2c.c ****   /* Set new error code */
4198:Drivers/STM32F7xx_HAL_Driver/Src/stm32f7xx_hal_i2c.c ****   hi2c->ErrorCode |= ErrorCode;
 9116              		.loc 1 4198 0
 9117 001e 7B68     		ldr	r3, [r7, #4]
 9118 0020 5A6C     		ldr	r2, [r3, #68]
 9119 0022 3B68     		ldr	r3, [r7]
 9120 0024 1A43     		orrs	r2, r2, r3
 9121 0026 7B68     		ldr	r3, [r7, #4]
ARM GAS  /var/folders/n8/cvzdcwlj0vl4g_wtyz1ffy300000gn/T//ccBPNZvy.s 			page 234


 9122 0028 5A64     		str	r2, [r3, #68]
4199:Drivers/STM32F7xx_HAL_Driver/Src/stm32f7xx_hal_i2c.c **** 
4200:Drivers/STM32F7xx_HAL_Driver/Src/stm32f7xx_hal_i2c.c ****   /* Disable Interrupts */
4201:Drivers/STM32F7xx_HAL_Driver/Src/stm32f7xx_hal_i2c.c ****   if ((hi2c->State == HAL_I2C_STATE_LISTEN)         ||
 9123              		.loc 1 4201 0
 9124 002a 7B68     		ldr	r3, [r7, #4]
 9125 002c 93F84130 		ldrb	r3, [r3, #65]
 9126 0030 DBB2     		uxtb	r3, r3
 9127 0032 282B     		cmp	r3, #40
 9128 0034 0BD0     		beq	.L469
4202:Drivers/STM32F7xx_HAL_Driver/Src/stm32f7xx_hal_i2c.c ****       (hi2c->State == HAL_I2C_STATE_BUSY_TX_LISTEN) ||
 9129              		.loc 1 4202 0 discriminator 1
 9130 0036 7B68     		ldr	r3, [r7, #4]
 9131 0038 93F84130 		ldrb	r3, [r3, #65]
 9132 003c DBB2     		uxtb	r3, r3
4201:Drivers/STM32F7xx_HAL_Driver/Src/stm32f7xx_hal_i2c.c ****       (hi2c->State == HAL_I2C_STATE_BUSY_TX_LISTEN) ||
 9133              		.loc 1 4201 0 discriminator 1
 9134 003e 292B     		cmp	r3, #41
 9135 0040 05D0     		beq	.L469
4203:Drivers/STM32F7xx_HAL_Driver/Src/stm32f7xx_hal_i2c.c ****       (hi2c->State == HAL_I2C_STATE_BUSY_RX_LISTEN))
 9136              		.loc 1 4203 0
 9137 0042 7B68     		ldr	r3, [r7, #4]
 9138 0044 93F84130 		ldrb	r3, [r3, #65]
 9139 0048 DBB2     		uxtb	r3, r3
4202:Drivers/STM32F7xx_HAL_Driver/Src/stm32f7xx_hal_i2c.c ****       (hi2c->State == HAL_I2C_STATE_BUSY_TX_LISTEN) ||
 9140              		.loc 1 4202 0
 9141 004a 2A2B     		cmp	r3, #42
 9142 004c 0ED1     		bne	.L470
 9143              	.L469:
4204:Drivers/STM32F7xx_HAL_Driver/Src/stm32f7xx_hal_i2c.c ****   {
4205:Drivers/STM32F7xx_HAL_Driver/Src/stm32f7xx_hal_i2c.c ****     /* Disable all interrupts, except interrupts related to LISTEN state */
4206:Drivers/STM32F7xx_HAL_Driver/Src/stm32f7xx_hal_i2c.c ****     I2C_Disable_IRQ(hi2c, I2C_XFER_RX_IT | I2C_XFER_TX_IT);
 9144              		.loc 1 4206 0
 9145 004e 0321     		movs	r1, #3
 9146 0050 7868     		ldr	r0, [r7, #4]
 9147 0052 FFF7FEFF 		bl	I2C_Disable_IRQ
4207:Drivers/STM32F7xx_HAL_Driver/Src/stm32f7xx_hal_i2c.c **** 
4208:Drivers/STM32F7xx_HAL_Driver/Src/stm32f7xx_hal_i2c.c ****     /* keep HAL_I2C_STATE_LISTEN if set */
4209:Drivers/STM32F7xx_HAL_Driver/Src/stm32f7xx_hal_i2c.c ****     hi2c->State         = HAL_I2C_STATE_LISTEN;
 9148              		.loc 1 4209 0
 9149 0056 7B68     		ldr	r3, [r7, #4]
 9150 0058 2822     		movs	r2, #40
 9151 005a 83F84120 		strb	r2, [r3, #65]
4210:Drivers/STM32F7xx_HAL_Driver/Src/stm32f7xx_hal_i2c.c ****     hi2c->PreviousState = I2C_STATE_NONE;
 9152              		.loc 1 4210 0
 9153 005e 7B68     		ldr	r3, [r7, #4]
 9154 0060 0022     		movs	r2, #0
 9155 0062 1A63     		str	r2, [r3, #48]
4211:Drivers/STM32F7xx_HAL_Driver/Src/stm32f7xx_hal_i2c.c ****     hi2c->XferISR       = I2C_Slave_ISR_IT;
 9156              		.loc 1 4211 0
 9157 0064 7B68     		ldr	r3, [r7, #4]
 9158 0066 434A     		ldr	r2, .L480+4
 9159 0068 5A63     		str	r2, [r3, #52]
 9160 006a 13E0     		b	.L471
 9161              	.L470:
4212:Drivers/STM32F7xx_HAL_Driver/Src/stm32f7xx_hal_i2c.c ****   }
4213:Drivers/STM32F7xx_HAL_Driver/Src/stm32f7xx_hal_i2c.c ****   else
ARM GAS  /var/folders/n8/cvzdcwlj0vl4g_wtyz1ffy300000gn/T//ccBPNZvy.s 			page 235


4214:Drivers/STM32F7xx_HAL_Driver/Src/stm32f7xx_hal_i2c.c ****   {
4215:Drivers/STM32F7xx_HAL_Driver/Src/stm32f7xx_hal_i2c.c ****     /* Disable all interrupts */
4216:Drivers/STM32F7xx_HAL_Driver/Src/stm32f7xx_hal_i2c.c ****     I2C_Disable_IRQ(hi2c, I2C_XFER_LISTEN_IT | I2C_XFER_RX_IT | I2C_XFER_TX_IT);
 9162              		.loc 1 4216 0
 9163 006c 0721     		movs	r1, #7
 9164 006e 7868     		ldr	r0, [r7, #4]
 9165 0070 FFF7FEFF 		bl	I2C_Disable_IRQ
4217:Drivers/STM32F7xx_HAL_Driver/Src/stm32f7xx_hal_i2c.c **** 
4218:Drivers/STM32F7xx_HAL_Driver/Src/stm32f7xx_hal_i2c.c ****     /* If state is an abort treatment on goind, don't change state */
4219:Drivers/STM32F7xx_HAL_Driver/Src/stm32f7xx_hal_i2c.c ****     /* This change will be do later */
4220:Drivers/STM32F7xx_HAL_Driver/Src/stm32f7xx_hal_i2c.c ****     if (hi2c->State != HAL_I2C_STATE_ABORT)
 9166              		.loc 1 4220 0
 9167 0074 7B68     		ldr	r3, [r7, #4]
 9168 0076 93F84130 		ldrb	r3, [r3, #65]
 9169 007a DBB2     		uxtb	r3, r3
 9170 007c 602B     		cmp	r3, #96
 9171 007e 03D0     		beq	.L472
4221:Drivers/STM32F7xx_HAL_Driver/Src/stm32f7xx_hal_i2c.c ****     {
4222:Drivers/STM32F7xx_HAL_Driver/Src/stm32f7xx_hal_i2c.c ****       /* Set HAL_I2C_STATE_READY */
4223:Drivers/STM32F7xx_HAL_Driver/Src/stm32f7xx_hal_i2c.c ****       hi2c->State         = HAL_I2C_STATE_READY;
 9172              		.loc 1 4223 0
 9173 0080 7B68     		ldr	r3, [r7, #4]
 9174 0082 2022     		movs	r2, #32
 9175 0084 83F84120 		strb	r2, [r3, #65]
 9176              	.L472:
4224:Drivers/STM32F7xx_HAL_Driver/Src/stm32f7xx_hal_i2c.c ****     }
4225:Drivers/STM32F7xx_HAL_Driver/Src/stm32f7xx_hal_i2c.c ****     hi2c->PreviousState = I2C_STATE_NONE;
 9177              		.loc 1 4225 0
 9178 0088 7B68     		ldr	r3, [r7, #4]
 9179 008a 0022     		movs	r2, #0
 9180 008c 1A63     		str	r2, [r3, #48]
4226:Drivers/STM32F7xx_HAL_Driver/Src/stm32f7xx_hal_i2c.c ****     hi2c->XferISR       = NULL;
 9181              		.loc 1 4226 0
 9182 008e 7B68     		ldr	r3, [r7, #4]
 9183 0090 0022     		movs	r2, #0
 9184 0092 5A63     		str	r2, [r3, #52]
 9185              	.L471:
4227:Drivers/STM32F7xx_HAL_Driver/Src/stm32f7xx_hal_i2c.c ****   }
4228:Drivers/STM32F7xx_HAL_Driver/Src/stm32f7xx_hal_i2c.c **** 
4229:Drivers/STM32F7xx_HAL_Driver/Src/stm32f7xx_hal_i2c.c ****   /* Abort DMA TX transfer if any */
4230:Drivers/STM32F7xx_HAL_Driver/Src/stm32f7xx_hal_i2c.c ****   if ((hi2c->Instance->CR1 & I2C_CR1_TXDMAEN) == I2C_CR1_TXDMAEN)
 9186              		.loc 1 4230 0
 9187 0094 7B68     		ldr	r3, [r7, #4]
 9188 0096 1B68     		ldr	r3, [r3]
 9189 0098 1B68     		ldr	r3, [r3]
 9190 009a 03F48043 		and	r3, r3, #16384
 9191 009e B3F5804F 		cmp	r3, #16384
 9192 00a2 1FD1     		bne	.L473
4231:Drivers/STM32F7xx_HAL_Driver/Src/stm32f7xx_hal_i2c.c ****   {
4232:Drivers/STM32F7xx_HAL_Driver/Src/stm32f7xx_hal_i2c.c ****     hi2c->Instance->CR1 &= ~I2C_CR1_TXDMAEN;
 9193              		.loc 1 4232 0
 9194 00a4 7B68     		ldr	r3, [r7, #4]
 9195 00a6 1B68     		ldr	r3, [r3]
 9196 00a8 1A68     		ldr	r2, [r3]
 9197 00aa 7B68     		ldr	r3, [r7, #4]
 9198 00ac 1B68     		ldr	r3, [r3]
 9199 00ae 22F48042 		bic	r2, r2, #16384
ARM GAS  /var/folders/n8/cvzdcwlj0vl4g_wtyz1ffy300000gn/T//ccBPNZvy.s 			page 236


 9200 00b2 1A60     		str	r2, [r3]
4233:Drivers/STM32F7xx_HAL_Driver/Src/stm32f7xx_hal_i2c.c **** 
4234:Drivers/STM32F7xx_HAL_Driver/Src/stm32f7xx_hal_i2c.c ****     /* Set the I2C DMA Abort callback :
4235:Drivers/STM32F7xx_HAL_Driver/Src/stm32f7xx_hal_i2c.c ****        will lead to call HAL_I2C_ErrorCallback() at end of DMA abort procedure */
4236:Drivers/STM32F7xx_HAL_Driver/Src/stm32f7xx_hal_i2c.c ****     hi2c->hdmatx->XferAbortCallback = I2C_DMAAbort;
 9201              		.loc 1 4236 0
 9202 00b4 7B68     		ldr	r3, [r7, #4]
 9203 00b6 9B6B     		ldr	r3, [r3, #56]
 9204 00b8 2F4A     		ldr	r2, .L480+8
 9205 00ba 1A65     		str	r2, [r3, #80]
4237:Drivers/STM32F7xx_HAL_Driver/Src/stm32f7xx_hal_i2c.c **** 
4238:Drivers/STM32F7xx_HAL_Driver/Src/stm32f7xx_hal_i2c.c ****     /* Process Unlocked */
4239:Drivers/STM32F7xx_HAL_Driver/Src/stm32f7xx_hal_i2c.c ****     __HAL_UNLOCK(hi2c);
 9206              		.loc 1 4239 0
 9207 00bc 7B68     		ldr	r3, [r7, #4]
 9208 00be 0022     		movs	r2, #0
 9209 00c0 83F84020 		strb	r2, [r3, #64]
4240:Drivers/STM32F7xx_HAL_Driver/Src/stm32f7xx_hal_i2c.c **** 
4241:Drivers/STM32F7xx_HAL_Driver/Src/stm32f7xx_hal_i2c.c ****     /* Abort DMA TX */
4242:Drivers/STM32F7xx_HAL_Driver/Src/stm32f7xx_hal_i2c.c ****     if (HAL_DMA_Abort_IT(hi2c->hdmatx) != HAL_OK)
 9210              		.loc 1 4242 0
 9211 00c4 7B68     		ldr	r3, [r7, #4]
 9212 00c6 9B6B     		ldr	r3, [r3, #56]
 9213 00c8 1846     		mov	r0, r3
 9214 00ca FFF7FEFF 		bl	HAL_DMA_Abort_IT
 9215 00ce 0346     		mov	r3, r0
 9216 00d0 002B     		cmp	r3, #0
 9217 00d2 48D0     		beq	.L479
4243:Drivers/STM32F7xx_HAL_Driver/Src/stm32f7xx_hal_i2c.c ****     {
4244:Drivers/STM32F7xx_HAL_Driver/Src/stm32f7xx_hal_i2c.c ****       /* Call Directly XferAbortCallback function in case of error */
4245:Drivers/STM32F7xx_HAL_Driver/Src/stm32f7xx_hal_i2c.c ****       hi2c->hdmatx->XferAbortCallback(hi2c->hdmatx);
 9218              		.loc 1 4245 0
 9219 00d4 7B68     		ldr	r3, [r7, #4]
 9220 00d6 9B6B     		ldr	r3, [r3, #56]
 9221 00d8 1B6D     		ldr	r3, [r3, #80]
 9222 00da 7A68     		ldr	r2, [r7, #4]
 9223 00dc 926B     		ldr	r2, [r2, #56]
 9224 00de 1046     		mov	r0, r2
 9225 00e0 9847     		blx	r3
 9226              	.LVL1:
4246:Drivers/STM32F7xx_HAL_Driver/Src/stm32f7xx_hal_i2c.c ****     }
4247:Drivers/STM32F7xx_HAL_Driver/Src/stm32f7xx_hal_i2c.c ****   }
4248:Drivers/STM32F7xx_HAL_Driver/Src/stm32f7xx_hal_i2c.c ****   /* Abort DMA RX transfer if any */
4249:Drivers/STM32F7xx_HAL_Driver/Src/stm32f7xx_hal_i2c.c ****   else if ((hi2c->Instance->CR1 & I2C_CR1_RXDMAEN) == I2C_CR1_RXDMAEN)
4250:Drivers/STM32F7xx_HAL_Driver/Src/stm32f7xx_hal_i2c.c ****   {
4251:Drivers/STM32F7xx_HAL_Driver/Src/stm32f7xx_hal_i2c.c ****     hi2c->Instance->CR1 &= ~I2C_CR1_RXDMAEN;
4252:Drivers/STM32F7xx_HAL_Driver/Src/stm32f7xx_hal_i2c.c **** 
4253:Drivers/STM32F7xx_HAL_Driver/Src/stm32f7xx_hal_i2c.c ****     /* Set the I2C DMA Abort callback :
4254:Drivers/STM32F7xx_HAL_Driver/Src/stm32f7xx_hal_i2c.c ****        will lead to call HAL_I2C_ErrorCallback() at end of DMA abort procedure */
4255:Drivers/STM32F7xx_HAL_Driver/Src/stm32f7xx_hal_i2c.c ****     hi2c->hdmarx->XferAbortCallback = I2C_DMAAbort;
4256:Drivers/STM32F7xx_HAL_Driver/Src/stm32f7xx_hal_i2c.c **** 
4257:Drivers/STM32F7xx_HAL_Driver/Src/stm32f7xx_hal_i2c.c ****     /* Process Unlocked */
4258:Drivers/STM32F7xx_HAL_Driver/Src/stm32f7xx_hal_i2c.c ****     __HAL_UNLOCK(hi2c);
4259:Drivers/STM32F7xx_HAL_Driver/Src/stm32f7xx_hal_i2c.c **** 
4260:Drivers/STM32F7xx_HAL_Driver/Src/stm32f7xx_hal_i2c.c ****     /* Abort DMA RX */
4261:Drivers/STM32F7xx_HAL_Driver/Src/stm32f7xx_hal_i2c.c ****     if (HAL_DMA_Abort_IT(hi2c->hdmarx) != HAL_OK)
4262:Drivers/STM32F7xx_HAL_Driver/Src/stm32f7xx_hal_i2c.c ****     {
ARM GAS  /var/folders/n8/cvzdcwlj0vl4g_wtyz1ffy300000gn/T//ccBPNZvy.s 			page 237


4263:Drivers/STM32F7xx_HAL_Driver/Src/stm32f7xx_hal_i2c.c ****       /* Call Directly hi2c->hdmarx->XferAbortCallback function in case of error */
4264:Drivers/STM32F7xx_HAL_Driver/Src/stm32f7xx_hal_i2c.c ****       hi2c->hdmarx->XferAbortCallback(hi2c->hdmarx);
4265:Drivers/STM32F7xx_HAL_Driver/Src/stm32f7xx_hal_i2c.c ****     }
4266:Drivers/STM32F7xx_HAL_Driver/Src/stm32f7xx_hal_i2c.c ****   }
4267:Drivers/STM32F7xx_HAL_Driver/Src/stm32f7xx_hal_i2c.c ****   else if (hi2c->State == HAL_I2C_STATE_ABORT)
4268:Drivers/STM32F7xx_HAL_Driver/Src/stm32f7xx_hal_i2c.c ****   {
4269:Drivers/STM32F7xx_HAL_Driver/Src/stm32f7xx_hal_i2c.c ****     hi2c->State = HAL_I2C_STATE_READY;
4270:Drivers/STM32F7xx_HAL_Driver/Src/stm32f7xx_hal_i2c.c **** 
4271:Drivers/STM32F7xx_HAL_Driver/Src/stm32f7xx_hal_i2c.c ****     /* Process Unlocked */
4272:Drivers/STM32F7xx_HAL_Driver/Src/stm32f7xx_hal_i2c.c ****     __HAL_UNLOCK(hi2c);
4273:Drivers/STM32F7xx_HAL_Driver/Src/stm32f7xx_hal_i2c.c **** 
4274:Drivers/STM32F7xx_HAL_Driver/Src/stm32f7xx_hal_i2c.c ****     /* Call the corresponding callback to inform upper layer of End of Transfer */
4275:Drivers/STM32F7xx_HAL_Driver/Src/stm32f7xx_hal_i2c.c ****     HAL_I2C_AbortCpltCallback(hi2c);
4276:Drivers/STM32F7xx_HAL_Driver/Src/stm32f7xx_hal_i2c.c ****   }
4277:Drivers/STM32F7xx_HAL_Driver/Src/stm32f7xx_hal_i2c.c ****   else
4278:Drivers/STM32F7xx_HAL_Driver/Src/stm32f7xx_hal_i2c.c ****   {
4279:Drivers/STM32F7xx_HAL_Driver/Src/stm32f7xx_hal_i2c.c ****     /* Process Unlocked */
4280:Drivers/STM32F7xx_HAL_Driver/Src/stm32f7xx_hal_i2c.c ****     __HAL_UNLOCK(hi2c);
4281:Drivers/STM32F7xx_HAL_Driver/Src/stm32f7xx_hal_i2c.c **** 
4282:Drivers/STM32F7xx_HAL_Driver/Src/stm32f7xx_hal_i2c.c ****     /* Call the corresponding callback to inform upper layer of End of Transfer */
4283:Drivers/STM32F7xx_HAL_Driver/Src/stm32f7xx_hal_i2c.c ****     HAL_I2C_ErrorCallback(hi2c);
4284:Drivers/STM32F7xx_HAL_Driver/Src/stm32f7xx_hal_i2c.c ****   }
4285:Drivers/STM32F7xx_HAL_Driver/Src/stm32f7xx_hal_i2c.c **** }
 9227              		.loc 1 4285 0
 9228 00e2 40E0     		b	.L479
 9229              	.L473:
4249:Drivers/STM32F7xx_HAL_Driver/Src/stm32f7xx_hal_i2c.c ****   {
 9230              		.loc 1 4249 0
 9231 00e4 7B68     		ldr	r3, [r7, #4]
 9232 00e6 1B68     		ldr	r3, [r3]
 9233 00e8 1B68     		ldr	r3, [r3]
 9234 00ea 03F40043 		and	r3, r3, #32768
 9235 00ee B3F5004F 		cmp	r3, #32768
 9236 00f2 1FD1     		bne	.L476
4251:Drivers/STM32F7xx_HAL_Driver/Src/stm32f7xx_hal_i2c.c **** 
 9237              		.loc 1 4251 0
 9238 00f4 7B68     		ldr	r3, [r7, #4]
 9239 00f6 1B68     		ldr	r3, [r3]
 9240 00f8 1A68     		ldr	r2, [r3]
 9241 00fa 7B68     		ldr	r3, [r7, #4]
 9242 00fc 1B68     		ldr	r3, [r3]
 9243 00fe 22F40042 		bic	r2, r2, #32768
 9244 0102 1A60     		str	r2, [r3]
4255:Drivers/STM32F7xx_HAL_Driver/Src/stm32f7xx_hal_i2c.c **** 
 9245              		.loc 1 4255 0
 9246 0104 7B68     		ldr	r3, [r7, #4]
 9247 0106 DB6B     		ldr	r3, [r3, #60]
 9248 0108 1B4A     		ldr	r2, .L480+8
 9249 010a 1A65     		str	r2, [r3, #80]
4258:Drivers/STM32F7xx_HAL_Driver/Src/stm32f7xx_hal_i2c.c **** 
 9250              		.loc 1 4258 0
 9251 010c 7B68     		ldr	r3, [r7, #4]
 9252 010e 0022     		movs	r2, #0
 9253 0110 83F84020 		strb	r2, [r3, #64]
4261:Drivers/STM32F7xx_HAL_Driver/Src/stm32f7xx_hal_i2c.c ****     {
 9254              		.loc 1 4261 0
 9255 0114 7B68     		ldr	r3, [r7, #4]
ARM GAS  /var/folders/n8/cvzdcwlj0vl4g_wtyz1ffy300000gn/T//ccBPNZvy.s 			page 238


 9256 0116 DB6B     		ldr	r3, [r3, #60]
 9257 0118 1846     		mov	r0, r3
 9258 011a FFF7FEFF 		bl	HAL_DMA_Abort_IT
 9259 011e 0346     		mov	r3, r0
 9260 0120 002B     		cmp	r3, #0
 9261 0122 20D0     		beq	.L479
4264:Drivers/STM32F7xx_HAL_Driver/Src/stm32f7xx_hal_i2c.c ****     }
 9262              		.loc 1 4264 0
 9263 0124 7B68     		ldr	r3, [r7, #4]
 9264 0126 DB6B     		ldr	r3, [r3, #60]
 9265 0128 1B6D     		ldr	r3, [r3, #80]
 9266 012a 7A68     		ldr	r2, [r7, #4]
 9267 012c D26B     		ldr	r2, [r2, #60]
 9268 012e 1046     		mov	r0, r2
 9269 0130 9847     		blx	r3
 9270              	.LVL2:
 9271              		.loc 1 4285 0
 9272 0132 18E0     		b	.L479
 9273              	.L476:
4267:Drivers/STM32F7xx_HAL_Driver/Src/stm32f7xx_hal_i2c.c ****   {
 9274              		.loc 1 4267 0
 9275 0134 7B68     		ldr	r3, [r7, #4]
 9276 0136 93F84130 		ldrb	r3, [r3, #65]
 9277 013a DBB2     		uxtb	r3, r3
 9278 013c 602B     		cmp	r3, #96
 9279 013e 0BD1     		bne	.L478
4269:Drivers/STM32F7xx_HAL_Driver/Src/stm32f7xx_hal_i2c.c **** 
 9280              		.loc 1 4269 0
 9281 0140 7B68     		ldr	r3, [r7, #4]
 9282 0142 2022     		movs	r2, #32
 9283 0144 83F84120 		strb	r2, [r3, #65]
4272:Drivers/STM32F7xx_HAL_Driver/Src/stm32f7xx_hal_i2c.c **** 
 9284              		.loc 1 4272 0
 9285 0148 7B68     		ldr	r3, [r7, #4]
 9286 014a 0022     		movs	r2, #0
 9287 014c 83F84020 		strb	r2, [r3, #64]
4275:Drivers/STM32F7xx_HAL_Driver/Src/stm32f7xx_hal_i2c.c ****   }
 9288              		.loc 1 4275 0
 9289 0150 7868     		ldr	r0, [r7, #4]
 9290 0152 FFF7FEFF 		bl	HAL_I2C_AbortCpltCallback
 9291              		.loc 1 4285 0
 9292 0156 06E0     		b	.L479
 9293              	.L478:
4280:Drivers/STM32F7xx_HAL_Driver/Src/stm32f7xx_hal_i2c.c **** 
 9294              		.loc 1 4280 0
 9295 0158 7B68     		ldr	r3, [r7, #4]
 9296 015a 0022     		movs	r2, #0
 9297 015c 83F84020 		strb	r2, [r3, #64]
4283:Drivers/STM32F7xx_HAL_Driver/Src/stm32f7xx_hal_i2c.c ****   }
 9298              		.loc 1 4283 0
 9299 0160 7868     		ldr	r0, [r7, #4]
 9300 0162 FFF7FEFF 		bl	HAL_I2C_ErrorCallback
 9301              	.L479:
 9302              		.loc 1 4285 0
 9303 0166 00BF     		nop
 9304 0168 0837     		adds	r7, r7, #8
 9305              	.LCFI303:
ARM GAS  /var/folders/n8/cvzdcwlj0vl4g_wtyz1ffy300000gn/T//ccBPNZvy.s 			page 239


 9306              		.cfi_def_cfa_offset 8
 9307 016a BD46     		mov	sp, r7
 9308              	.LCFI304:
 9309              		.cfi_def_cfa_register 13
 9310              		@ sp needed
 9311 016c 80BD     		pop	{r7, pc}
 9312              	.L481:
 9313 016e 00BF     		.align	2
 9314              	.L480:
 9315 0170 0000FFFF 		.word	-65536
 9316 0174 00000000 		.word	I2C_Slave_ISR_IT
 9317 0178 00000000 		.word	I2C_DMAAbort
 9318              		.cfi_endproc
 9319              	.LFE195:
 9321              		.section	.text.I2C_Flush_TXDR,"ax",%progbits
 9322              		.align	1
 9323              		.syntax unified
 9324              		.thumb
 9325              		.thumb_func
 9326              		.fpu fpv5-sp-d16
 9328              	I2C_Flush_TXDR:
 9329              	.LFB196:
4286:Drivers/STM32F7xx_HAL_Driver/Src/stm32f7xx_hal_i2c.c **** 
4287:Drivers/STM32F7xx_HAL_Driver/Src/stm32f7xx_hal_i2c.c **** /**
4288:Drivers/STM32F7xx_HAL_Driver/Src/stm32f7xx_hal_i2c.c ****   * @brief  I2C Tx data register flush process.
4289:Drivers/STM32F7xx_HAL_Driver/Src/stm32f7xx_hal_i2c.c ****   * @param  hi2c I2C handle.
4290:Drivers/STM32F7xx_HAL_Driver/Src/stm32f7xx_hal_i2c.c ****   * @retval None
4291:Drivers/STM32F7xx_HAL_Driver/Src/stm32f7xx_hal_i2c.c ****   */
4292:Drivers/STM32F7xx_HAL_Driver/Src/stm32f7xx_hal_i2c.c **** static void I2C_Flush_TXDR(I2C_HandleTypeDef *hi2c)
4293:Drivers/STM32F7xx_HAL_Driver/Src/stm32f7xx_hal_i2c.c **** {
 9330              		.loc 1 4293 0
 9331              		.cfi_startproc
 9332              		@ args = 0, pretend = 0, frame = 8
 9333              		@ frame_needed = 1, uses_anonymous_args = 0
 9334              		@ link register save eliminated.
 9335 0000 80B4     		push	{r7}
 9336              	.LCFI305:
 9337              		.cfi_def_cfa_offset 4
 9338              		.cfi_offset 7, -4
 9339 0002 83B0     		sub	sp, sp, #12
 9340              	.LCFI306:
 9341              		.cfi_def_cfa_offset 16
 9342 0004 00AF     		add	r7, sp, #0
 9343              	.LCFI307:
 9344              		.cfi_def_cfa_register 7
 9345 0006 7860     		str	r0, [r7, #4]
4294:Drivers/STM32F7xx_HAL_Driver/Src/stm32f7xx_hal_i2c.c ****   /* If a pending TXIS flag is set */
4295:Drivers/STM32F7xx_HAL_Driver/Src/stm32f7xx_hal_i2c.c ****   /* Write a dummy data in TXDR to clear it */
4296:Drivers/STM32F7xx_HAL_Driver/Src/stm32f7xx_hal_i2c.c ****   if (__HAL_I2C_GET_FLAG(hi2c, I2C_FLAG_TXIS) != RESET)
 9346              		.loc 1 4296 0
 9347 0008 7B68     		ldr	r3, [r7, #4]
 9348 000a 1B68     		ldr	r3, [r3]
 9349 000c 9B69     		ldr	r3, [r3, #24]
 9350 000e 03F00203 		and	r3, r3, #2
 9351 0012 022B     		cmp	r3, #2
 9352 0014 03D1     		bne	.L483
4297:Drivers/STM32F7xx_HAL_Driver/Src/stm32f7xx_hal_i2c.c ****   {
ARM GAS  /var/folders/n8/cvzdcwlj0vl4g_wtyz1ffy300000gn/T//ccBPNZvy.s 			page 240


4298:Drivers/STM32F7xx_HAL_Driver/Src/stm32f7xx_hal_i2c.c ****     hi2c->Instance->TXDR = 0x00U;
 9353              		.loc 1 4298 0
 9354 0016 7B68     		ldr	r3, [r7, #4]
 9355 0018 1B68     		ldr	r3, [r3]
 9356 001a 0022     		movs	r2, #0
 9357 001c 9A62     		str	r2, [r3, #40]
 9358              	.L483:
4299:Drivers/STM32F7xx_HAL_Driver/Src/stm32f7xx_hal_i2c.c ****   }
4300:Drivers/STM32F7xx_HAL_Driver/Src/stm32f7xx_hal_i2c.c **** 
4301:Drivers/STM32F7xx_HAL_Driver/Src/stm32f7xx_hal_i2c.c ****   /* Flush TX register if not empty */
4302:Drivers/STM32F7xx_HAL_Driver/Src/stm32f7xx_hal_i2c.c ****   if (__HAL_I2C_GET_FLAG(hi2c, I2C_FLAG_TXE) == RESET)
 9359              		.loc 1 4302 0
 9360 001e 7B68     		ldr	r3, [r7, #4]
 9361 0020 1B68     		ldr	r3, [r3]
 9362 0022 9B69     		ldr	r3, [r3, #24]
 9363 0024 03F00103 		and	r3, r3, #1
 9364 0028 012B     		cmp	r3, #1
 9365 002a 07D0     		beq	.L485
4303:Drivers/STM32F7xx_HAL_Driver/Src/stm32f7xx_hal_i2c.c ****   {
4304:Drivers/STM32F7xx_HAL_Driver/Src/stm32f7xx_hal_i2c.c ****     __HAL_I2C_CLEAR_FLAG(hi2c, I2C_FLAG_TXE);
 9366              		.loc 1 4304 0
 9367 002c 7B68     		ldr	r3, [r7, #4]
 9368 002e 1B68     		ldr	r3, [r3]
 9369 0030 9A69     		ldr	r2, [r3, #24]
 9370 0032 7B68     		ldr	r3, [r7, #4]
 9371 0034 1B68     		ldr	r3, [r3]
 9372 0036 42F00102 		orr	r2, r2, #1
 9373 003a 9A61     		str	r2, [r3, #24]
 9374              	.L485:
4305:Drivers/STM32F7xx_HAL_Driver/Src/stm32f7xx_hal_i2c.c ****   }
4306:Drivers/STM32F7xx_HAL_Driver/Src/stm32f7xx_hal_i2c.c **** }
 9375              		.loc 1 4306 0
 9376 003c 00BF     		nop
 9377 003e 0C37     		adds	r7, r7, #12
 9378              	.LCFI308:
 9379              		.cfi_def_cfa_offset 4
 9380 0040 BD46     		mov	sp, r7
 9381              	.LCFI309:
 9382              		.cfi_def_cfa_register 13
 9383              		@ sp needed
 9384 0042 5DF8047B 		ldr	r7, [sp], #4
 9385              	.LCFI310:
 9386              		.cfi_restore 7
 9387              		.cfi_def_cfa_offset 0
 9388 0046 7047     		bx	lr
 9389              		.cfi_endproc
 9390              	.LFE196:
 9392              		.section	.text.I2C_DMAMasterTransmitCplt,"ax",%progbits
 9393              		.align	1
 9394              		.syntax unified
 9395              		.thumb
 9396              		.thumb_func
 9397              		.fpu fpv5-sp-d16
 9399              	I2C_DMAMasterTransmitCplt:
 9400              	.LFB197:
4307:Drivers/STM32F7xx_HAL_Driver/Src/stm32f7xx_hal_i2c.c **** 
4308:Drivers/STM32F7xx_HAL_Driver/Src/stm32f7xx_hal_i2c.c **** /**
ARM GAS  /var/folders/n8/cvzdcwlj0vl4g_wtyz1ffy300000gn/T//ccBPNZvy.s 			page 241


4309:Drivers/STM32F7xx_HAL_Driver/Src/stm32f7xx_hal_i2c.c ****   * @brief  DMA I2C master transmit process complete callback.
4310:Drivers/STM32F7xx_HAL_Driver/Src/stm32f7xx_hal_i2c.c ****   * @param  hdma DMA handle
4311:Drivers/STM32F7xx_HAL_Driver/Src/stm32f7xx_hal_i2c.c ****   * @retval None
4312:Drivers/STM32F7xx_HAL_Driver/Src/stm32f7xx_hal_i2c.c ****   */
4313:Drivers/STM32F7xx_HAL_Driver/Src/stm32f7xx_hal_i2c.c **** static void I2C_DMAMasterTransmitCplt(DMA_HandleTypeDef *hdma)
4314:Drivers/STM32F7xx_HAL_Driver/Src/stm32f7xx_hal_i2c.c **** {
 9401              		.loc 1 4314 0
 9402              		.cfi_startproc
 9403              		@ args = 0, pretend = 0, frame = 16
 9404              		@ frame_needed = 1, uses_anonymous_args = 0
 9405 0000 80B5     		push	{r7, lr}
 9406              	.LCFI311:
 9407              		.cfi_def_cfa_offset 8
 9408              		.cfi_offset 7, -8
 9409              		.cfi_offset 14, -4
 9410 0002 84B0     		sub	sp, sp, #16
 9411              	.LCFI312:
 9412              		.cfi_def_cfa_offset 24
 9413 0004 00AF     		add	r7, sp, #0
 9414              	.LCFI313:
 9415              		.cfi_def_cfa_register 7
 9416 0006 7860     		str	r0, [r7, #4]
4315:Drivers/STM32F7xx_HAL_Driver/Src/stm32f7xx_hal_i2c.c ****   I2C_HandleTypeDef *hi2c = (I2C_HandleTypeDef *)((DMA_HandleTypeDef *)hdma)->Parent;
 9417              		.loc 1 4315 0
 9418 0008 7B68     		ldr	r3, [r7, #4]
 9419 000a 9B6B     		ldr	r3, [r3, #56]
 9420 000c FB60     		str	r3, [r7, #12]
4316:Drivers/STM32F7xx_HAL_Driver/Src/stm32f7xx_hal_i2c.c **** 
4317:Drivers/STM32F7xx_HAL_Driver/Src/stm32f7xx_hal_i2c.c ****   /* Disable DMA Request */
4318:Drivers/STM32F7xx_HAL_Driver/Src/stm32f7xx_hal_i2c.c ****   hi2c->Instance->CR1 &= ~I2C_CR1_TXDMAEN;
 9421              		.loc 1 4318 0
 9422 000e FB68     		ldr	r3, [r7, #12]
 9423 0010 1B68     		ldr	r3, [r3]
 9424 0012 1A68     		ldr	r2, [r3]
 9425 0014 FB68     		ldr	r3, [r7, #12]
 9426 0016 1B68     		ldr	r3, [r3]
 9427 0018 22F48042 		bic	r2, r2, #16384
 9428 001c 1A60     		str	r2, [r3]
4319:Drivers/STM32F7xx_HAL_Driver/Src/stm32f7xx_hal_i2c.c **** 
4320:Drivers/STM32F7xx_HAL_Driver/Src/stm32f7xx_hal_i2c.c ****   /* If last transfer, enable STOP interrupt */
4321:Drivers/STM32F7xx_HAL_Driver/Src/stm32f7xx_hal_i2c.c ****   if (hi2c->XferCount == 0U)
 9429              		.loc 1 4321 0
 9430 001e FB68     		ldr	r3, [r7, #12]
 9431 0020 5B8D     		ldrh	r3, [r3, #42]	@ movhi
 9432 0022 9BB2     		uxth	r3, r3
 9433 0024 002B     		cmp	r3, #0
 9434 0026 04D1     		bne	.L487
4322:Drivers/STM32F7xx_HAL_Driver/Src/stm32f7xx_hal_i2c.c ****   {
4323:Drivers/STM32F7xx_HAL_Driver/Src/stm32f7xx_hal_i2c.c ****     /* Enable STOP interrupt */
4324:Drivers/STM32F7xx_HAL_Driver/Src/stm32f7xx_hal_i2c.c ****     I2C_Enable_IRQ(hi2c, I2C_XFER_CPLT_IT);
 9435              		.loc 1 4324 0
 9436 0028 1221     		movs	r1, #18
 9437 002a F868     		ldr	r0, [r7, #12]
 9438 002c FFF7FEFF 		bl	I2C_Enable_IRQ
4325:Drivers/STM32F7xx_HAL_Driver/Src/stm32f7xx_hal_i2c.c ****   }
4326:Drivers/STM32F7xx_HAL_Driver/Src/stm32f7xx_hal_i2c.c ****   /* else prepare a new DMA transfer and enable TCReload interrupt */
4327:Drivers/STM32F7xx_HAL_Driver/Src/stm32f7xx_hal_i2c.c ****   else
ARM GAS  /var/folders/n8/cvzdcwlj0vl4g_wtyz1ffy300000gn/T//ccBPNZvy.s 			page 242


4328:Drivers/STM32F7xx_HAL_Driver/Src/stm32f7xx_hal_i2c.c ****   {
4329:Drivers/STM32F7xx_HAL_Driver/Src/stm32f7xx_hal_i2c.c ****     /* Update Buffer pointer */
4330:Drivers/STM32F7xx_HAL_Driver/Src/stm32f7xx_hal_i2c.c ****     hi2c->pBuffPtr += hi2c->XferSize;
4331:Drivers/STM32F7xx_HAL_Driver/Src/stm32f7xx_hal_i2c.c **** 
4332:Drivers/STM32F7xx_HAL_Driver/Src/stm32f7xx_hal_i2c.c ****     /* Set the XferSize to transfer */
4333:Drivers/STM32F7xx_HAL_Driver/Src/stm32f7xx_hal_i2c.c ****     if (hi2c->XferCount > MAX_NBYTE_SIZE)
4334:Drivers/STM32F7xx_HAL_Driver/Src/stm32f7xx_hal_i2c.c ****     {
4335:Drivers/STM32F7xx_HAL_Driver/Src/stm32f7xx_hal_i2c.c ****       hi2c->XferSize = MAX_NBYTE_SIZE;
4336:Drivers/STM32F7xx_HAL_Driver/Src/stm32f7xx_hal_i2c.c ****     }
4337:Drivers/STM32F7xx_HAL_Driver/Src/stm32f7xx_hal_i2c.c ****     else
4338:Drivers/STM32F7xx_HAL_Driver/Src/stm32f7xx_hal_i2c.c ****     {
4339:Drivers/STM32F7xx_HAL_Driver/Src/stm32f7xx_hal_i2c.c ****       hi2c->XferSize = hi2c->XferCount;
4340:Drivers/STM32F7xx_HAL_Driver/Src/stm32f7xx_hal_i2c.c ****     }
4341:Drivers/STM32F7xx_HAL_Driver/Src/stm32f7xx_hal_i2c.c **** 
4342:Drivers/STM32F7xx_HAL_Driver/Src/stm32f7xx_hal_i2c.c ****     /* Enable the DMA stream */
4343:Drivers/STM32F7xx_HAL_Driver/Src/stm32f7xx_hal_i2c.c ****     HAL_DMA_Start_IT(hi2c->hdmatx, (uint32_t)hi2c->pBuffPtr, (uint32_t)&hi2c->Instance->TXDR, hi2c-
4344:Drivers/STM32F7xx_HAL_Driver/Src/stm32f7xx_hal_i2c.c **** 
4345:Drivers/STM32F7xx_HAL_Driver/Src/stm32f7xx_hal_i2c.c ****     /* Enable TC interrupts */
4346:Drivers/STM32F7xx_HAL_Driver/Src/stm32f7xx_hal_i2c.c ****     I2C_Enable_IRQ(hi2c, I2C_XFER_RELOAD_IT);
4347:Drivers/STM32F7xx_HAL_Driver/Src/stm32f7xx_hal_i2c.c ****   }
4348:Drivers/STM32F7xx_HAL_Driver/Src/stm32f7xx_hal_i2c.c **** }
 9439              		.loc 1 4348 0
 9440 0030 25E0     		b	.L491
 9441              	.L487:
4330:Drivers/STM32F7xx_HAL_Driver/Src/stm32f7xx_hal_i2c.c **** 
 9442              		.loc 1 4330 0
 9443 0032 FB68     		ldr	r3, [r7, #12]
 9444 0034 5B6A     		ldr	r3, [r3, #36]
 9445 0036 FA68     		ldr	r2, [r7, #12]
 9446 0038 128D     		ldrh	r2, [r2, #40]
 9447 003a 1A44     		add	r2, r2, r3
 9448 003c FB68     		ldr	r3, [r7, #12]
 9449 003e 5A62     		str	r2, [r3, #36]
4333:Drivers/STM32F7xx_HAL_Driver/Src/stm32f7xx_hal_i2c.c ****     {
 9450              		.loc 1 4333 0
 9451 0040 FB68     		ldr	r3, [r7, #12]
 9452 0042 5B8D     		ldrh	r3, [r3, #42]	@ movhi
 9453 0044 9BB2     		uxth	r3, r3
 9454 0046 FF2B     		cmp	r3, #255
 9455 0048 03D9     		bls	.L489
4335:Drivers/STM32F7xx_HAL_Driver/Src/stm32f7xx_hal_i2c.c ****     }
 9456              		.loc 1 4335 0
 9457 004a FB68     		ldr	r3, [r7, #12]
 9458 004c FF22     		movs	r2, #255
 9459 004e 1A85     		strh	r2, [r3, #40]	@ movhi
 9460 0050 04E0     		b	.L490
 9461              	.L489:
4339:Drivers/STM32F7xx_HAL_Driver/Src/stm32f7xx_hal_i2c.c ****     }
 9462              		.loc 1 4339 0
 9463 0052 FB68     		ldr	r3, [r7, #12]
 9464 0054 5B8D     		ldrh	r3, [r3, #42]	@ movhi
 9465 0056 9AB2     		uxth	r2, r3
 9466 0058 FB68     		ldr	r3, [r7, #12]
 9467 005a 1A85     		strh	r2, [r3, #40]	@ movhi
 9468              	.L490:
4343:Drivers/STM32F7xx_HAL_Driver/Src/stm32f7xx_hal_i2c.c **** 
 9469              		.loc 1 4343 0
ARM GAS  /var/folders/n8/cvzdcwlj0vl4g_wtyz1ffy300000gn/T//ccBPNZvy.s 			page 243


 9470 005c FB68     		ldr	r3, [r7, #12]
 9471 005e 986B     		ldr	r0, [r3, #56]
 9472 0060 FB68     		ldr	r3, [r7, #12]
 9473 0062 5B6A     		ldr	r3, [r3, #36]
 9474 0064 1946     		mov	r1, r3
 9475 0066 FB68     		ldr	r3, [r7, #12]
 9476 0068 1B68     		ldr	r3, [r3]
 9477 006a 2833     		adds	r3, r3, #40
 9478 006c 1A46     		mov	r2, r3
 9479 006e FB68     		ldr	r3, [r7, #12]
 9480 0070 1B8D     		ldrh	r3, [r3, #40]
 9481 0072 FFF7FEFF 		bl	HAL_DMA_Start_IT
4346:Drivers/STM32F7xx_HAL_Driver/Src/stm32f7xx_hal_i2c.c ****   }
 9482              		.loc 1 4346 0
 9483 0076 1221     		movs	r1, #18
 9484 0078 F868     		ldr	r0, [r7, #12]
 9485 007a FFF7FEFF 		bl	I2C_Enable_IRQ
 9486              	.L491:
 9487              		.loc 1 4348 0
 9488 007e 00BF     		nop
 9489 0080 1037     		adds	r7, r7, #16
 9490              	.LCFI314:
 9491              		.cfi_def_cfa_offset 8
 9492 0082 BD46     		mov	sp, r7
 9493              	.LCFI315:
 9494              		.cfi_def_cfa_register 13
 9495              		@ sp needed
 9496 0084 80BD     		pop	{r7, pc}
 9497              		.cfi_endproc
 9498              	.LFE197:
 9500              		.section	.text.I2C_DMASlaveTransmitCplt,"ax",%progbits
 9501              		.align	1
 9502              		.syntax unified
 9503              		.thumb
 9504              		.thumb_func
 9505              		.fpu fpv5-sp-d16
 9507              	I2C_DMASlaveTransmitCplt:
 9508              	.LFB198:
4349:Drivers/STM32F7xx_HAL_Driver/Src/stm32f7xx_hal_i2c.c **** 
4350:Drivers/STM32F7xx_HAL_Driver/Src/stm32f7xx_hal_i2c.c **** /**
4351:Drivers/STM32F7xx_HAL_Driver/Src/stm32f7xx_hal_i2c.c ****   * @brief  DMA I2C slave transmit process complete callback.
4352:Drivers/STM32F7xx_HAL_Driver/Src/stm32f7xx_hal_i2c.c ****   * @param  hdma DMA handle
4353:Drivers/STM32F7xx_HAL_Driver/Src/stm32f7xx_hal_i2c.c ****   * @retval None
4354:Drivers/STM32F7xx_HAL_Driver/Src/stm32f7xx_hal_i2c.c ****   */
4355:Drivers/STM32F7xx_HAL_Driver/Src/stm32f7xx_hal_i2c.c **** static void I2C_DMASlaveTransmitCplt(DMA_HandleTypeDef *hdma)
4356:Drivers/STM32F7xx_HAL_Driver/Src/stm32f7xx_hal_i2c.c **** {
 9509              		.loc 1 4356 0
 9510              		.cfi_startproc
 9511              		@ args = 0, pretend = 0, frame = 8
 9512              		@ frame_needed = 1, uses_anonymous_args = 0
 9513              		@ link register save eliminated.
 9514 0000 80B4     		push	{r7}
 9515              	.LCFI316:
 9516              		.cfi_def_cfa_offset 4
 9517              		.cfi_offset 7, -4
 9518 0002 83B0     		sub	sp, sp, #12
 9519              	.LCFI317:
ARM GAS  /var/folders/n8/cvzdcwlj0vl4g_wtyz1ffy300000gn/T//ccBPNZvy.s 			page 244


 9520              		.cfi_def_cfa_offset 16
 9521 0004 00AF     		add	r7, sp, #0
 9522              	.LCFI318:
 9523              		.cfi_def_cfa_register 7
 9524 0006 7860     		str	r0, [r7, #4]
4357:Drivers/STM32F7xx_HAL_Driver/Src/stm32f7xx_hal_i2c.c ****   /* Prevent unused argument(s) compilation warning */
4358:Drivers/STM32F7xx_HAL_Driver/Src/stm32f7xx_hal_i2c.c ****   UNUSED(hdma);
4359:Drivers/STM32F7xx_HAL_Driver/Src/stm32f7xx_hal_i2c.c **** 
4360:Drivers/STM32F7xx_HAL_Driver/Src/stm32f7xx_hal_i2c.c ****   /* No specific action, Master fully manage the generation of STOP condition */
4361:Drivers/STM32F7xx_HAL_Driver/Src/stm32f7xx_hal_i2c.c ****   /* Mean that this generation can arrive at any time, at the end or during DMA process */
4362:Drivers/STM32F7xx_HAL_Driver/Src/stm32f7xx_hal_i2c.c ****   /* So STOP condition should be manage through Interrupt treatment */
4363:Drivers/STM32F7xx_HAL_Driver/Src/stm32f7xx_hal_i2c.c **** }
 9525              		.loc 1 4363 0
 9526 0008 00BF     		nop
 9527 000a 0C37     		adds	r7, r7, #12
 9528              	.LCFI319:
 9529              		.cfi_def_cfa_offset 4
 9530 000c BD46     		mov	sp, r7
 9531              	.LCFI320:
 9532              		.cfi_def_cfa_register 13
 9533              		@ sp needed
 9534 000e 5DF8047B 		ldr	r7, [sp], #4
 9535              	.LCFI321:
 9536              		.cfi_restore 7
 9537              		.cfi_def_cfa_offset 0
 9538 0012 7047     		bx	lr
 9539              		.cfi_endproc
 9540              	.LFE198:
 9542              		.section	.text.I2C_DMAMasterReceiveCplt,"ax",%progbits
 9543              		.align	1
 9544              		.syntax unified
 9545              		.thumb
 9546              		.thumb_func
 9547              		.fpu fpv5-sp-d16
 9549              	I2C_DMAMasterReceiveCplt:
 9550              	.LFB199:
4364:Drivers/STM32F7xx_HAL_Driver/Src/stm32f7xx_hal_i2c.c **** 
4365:Drivers/STM32F7xx_HAL_Driver/Src/stm32f7xx_hal_i2c.c **** /**
4366:Drivers/STM32F7xx_HAL_Driver/Src/stm32f7xx_hal_i2c.c ****   * @brief DMA I2C master receive process complete callback.
4367:Drivers/STM32F7xx_HAL_Driver/Src/stm32f7xx_hal_i2c.c ****   * @param  hdma DMA handle
4368:Drivers/STM32F7xx_HAL_Driver/Src/stm32f7xx_hal_i2c.c ****   * @retval None
4369:Drivers/STM32F7xx_HAL_Driver/Src/stm32f7xx_hal_i2c.c ****   */
4370:Drivers/STM32F7xx_HAL_Driver/Src/stm32f7xx_hal_i2c.c **** static void I2C_DMAMasterReceiveCplt(DMA_HandleTypeDef *hdma)
4371:Drivers/STM32F7xx_HAL_Driver/Src/stm32f7xx_hal_i2c.c **** {
 9551              		.loc 1 4371 0
 9552              		.cfi_startproc
 9553              		@ args = 0, pretend = 0, frame = 16
 9554              		@ frame_needed = 1, uses_anonymous_args = 0
 9555 0000 80B5     		push	{r7, lr}
 9556              	.LCFI322:
 9557              		.cfi_def_cfa_offset 8
 9558              		.cfi_offset 7, -8
 9559              		.cfi_offset 14, -4
 9560 0002 84B0     		sub	sp, sp, #16
 9561              	.LCFI323:
 9562              		.cfi_def_cfa_offset 24
 9563 0004 00AF     		add	r7, sp, #0
ARM GAS  /var/folders/n8/cvzdcwlj0vl4g_wtyz1ffy300000gn/T//ccBPNZvy.s 			page 245


 9564              	.LCFI324:
 9565              		.cfi_def_cfa_register 7
 9566 0006 7860     		str	r0, [r7, #4]
4372:Drivers/STM32F7xx_HAL_Driver/Src/stm32f7xx_hal_i2c.c ****   I2C_HandleTypeDef *hi2c = (I2C_HandleTypeDef *)((DMA_HandleTypeDef *)hdma)->Parent;
 9567              		.loc 1 4372 0
 9568 0008 7B68     		ldr	r3, [r7, #4]
 9569 000a 9B6B     		ldr	r3, [r3, #56]
 9570 000c FB60     		str	r3, [r7, #12]
4373:Drivers/STM32F7xx_HAL_Driver/Src/stm32f7xx_hal_i2c.c **** 
4374:Drivers/STM32F7xx_HAL_Driver/Src/stm32f7xx_hal_i2c.c ****   /* Disable DMA Request */
4375:Drivers/STM32F7xx_HAL_Driver/Src/stm32f7xx_hal_i2c.c ****   hi2c->Instance->CR1 &= ~I2C_CR1_RXDMAEN;
 9571              		.loc 1 4375 0
 9572 000e FB68     		ldr	r3, [r7, #12]
 9573 0010 1B68     		ldr	r3, [r3]
 9574 0012 1A68     		ldr	r2, [r3]
 9575 0014 FB68     		ldr	r3, [r7, #12]
 9576 0016 1B68     		ldr	r3, [r3]
 9577 0018 22F40042 		bic	r2, r2, #32768
 9578 001c 1A60     		str	r2, [r3]
4376:Drivers/STM32F7xx_HAL_Driver/Src/stm32f7xx_hal_i2c.c **** 
4377:Drivers/STM32F7xx_HAL_Driver/Src/stm32f7xx_hal_i2c.c ****   /* If last transfer, enable STOP interrupt */
4378:Drivers/STM32F7xx_HAL_Driver/Src/stm32f7xx_hal_i2c.c ****   if (hi2c->XferCount == 0U)
 9579              		.loc 1 4378 0
 9580 001e FB68     		ldr	r3, [r7, #12]
 9581 0020 5B8D     		ldrh	r3, [r3, #42]	@ movhi
 9582 0022 9BB2     		uxth	r3, r3
 9583 0024 002B     		cmp	r3, #0
 9584 0026 04D1     		bne	.L494
4379:Drivers/STM32F7xx_HAL_Driver/Src/stm32f7xx_hal_i2c.c ****   {
4380:Drivers/STM32F7xx_HAL_Driver/Src/stm32f7xx_hal_i2c.c ****     /* Enable STOP interrupt */
4381:Drivers/STM32F7xx_HAL_Driver/Src/stm32f7xx_hal_i2c.c ****     I2C_Enable_IRQ(hi2c, I2C_XFER_CPLT_IT);
 9585              		.loc 1 4381 0
 9586 0028 1221     		movs	r1, #18
 9587 002a F868     		ldr	r0, [r7, #12]
 9588 002c FFF7FEFF 		bl	I2C_Enable_IRQ
4382:Drivers/STM32F7xx_HAL_Driver/Src/stm32f7xx_hal_i2c.c ****   }
4383:Drivers/STM32F7xx_HAL_Driver/Src/stm32f7xx_hal_i2c.c ****   /* else prepare a new DMA transfer and enable TCReload interrupt */
4384:Drivers/STM32F7xx_HAL_Driver/Src/stm32f7xx_hal_i2c.c ****   else
4385:Drivers/STM32F7xx_HAL_Driver/Src/stm32f7xx_hal_i2c.c ****   {
4386:Drivers/STM32F7xx_HAL_Driver/Src/stm32f7xx_hal_i2c.c ****     /* Update Buffer pointer */
4387:Drivers/STM32F7xx_HAL_Driver/Src/stm32f7xx_hal_i2c.c ****     hi2c->pBuffPtr += hi2c->XferSize;
4388:Drivers/STM32F7xx_HAL_Driver/Src/stm32f7xx_hal_i2c.c **** 
4389:Drivers/STM32F7xx_HAL_Driver/Src/stm32f7xx_hal_i2c.c ****     /* Set the XferSize to transfer */
4390:Drivers/STM32F7xx_HAL_Driver/Src/stm32f7xx_hal_i2c.c ****     if (hi2c->XferCount > MAX_NBYTE_SIZE)
4391:Drivers/STM32F7xx_HAL_Driver/Src/stm32f7xx_hal_i2c.c ****     {
4392:Drivers/STM32F7xx_HAL_Driver/Src/stm32f7xx_hal_i2c.c ****       hi2c->XferSize = MAX_NBYTE_SIZE;
4393:Drivers/STM32F7xx_HAL_Driver/Src/stm32f7xx_hal_i2c.c ****     }
4394:Drivers/STM32F7xx_HAL_Driver/Src/stm32f7xx_hal_i2c.c ****     else
4395:Drivers/STM32F7xx_HAL_Driver/Src/stm32f7xx_hal_i2c.c ****     {
4396:Drivers/STM32F7xx_HAL_Driver/Src/stm32f7xx_hal_i2c.c ****       hi2c->XferSize = hi2c->XferCount;
4397:Drivers/STM32F7xx_HAL_Driver/Src/stm32f7xx_hal_i2c.c ****     }
4398:Drivers/STM32F7xx_HAL_Driver/Src/stm32f7xx_hal_i2c.c **** 
4399:Drivers/STM32F7xx_HAL_Driver/Src/stm32f7xx_hal_i2c.c ****     /* Enable the DMA stream */
4400:Drivers/STM32F7xx_HAL_Driver/Src/stm32f7xx_hal_i2c.c ****     HAL_DMA_Start_IT(hi2c->hdmarx, (uint32_t)&hi2c->Instance->RXDR, (uint32_t)hi2c->pBuffPtr, hi2c-
4401:Drivers/STM32F7xx_HAL_Driver/Src/stm32f7xx_hal_i2c.c **** 
4402:Drivers/STM32F7xx_HAL_Driver/Src/stm32f7xx_hal_i2c.c ****     /* Enable TC interrupts */
4403:Drivers/STM32F7xx_HAL_Driver/Src/stm32f7xx_hal_i2c.c ****     I2C_Enable_IRQ(hi2c, I2C_XFER_RELOAD_IT);
ARM GAS  /var/folders/n8/cvzdcwlj0vl4g_wtyz1ffy300000gn/T//ccBPNZvy.s 			page 246


4404:Drivers/STM32F7xx_HAL_Driver/Src/stm32f7xx_hal_i2c.c ****   }
4405:Drivers/STM32F7xx_HAL_Driver/Src/stm32f7xx_hal_i2c.c **** }
 9589              		.loc 1 4405 0
 9590 0030 25E0     		b	.L498
 9591              	.L494:
4387:Drivers/STM32F7xx_HAL_Driver/Src/stm32f7xx_hal_i2c.c **** 
 9592              		.loc 1 4387 0
 9593 0032 FB68     		ldr	r3, [r7, #12]
 9594 0034 5B6A     		ldr	r3, [r3, #36]
 9595 0036 FA68     		ldr	r2, [r7, #12]
 9596 0038 128D     		ldrh	r2, [r2, #40]
 9597 003a 1A44     		add	r2, r2, r3
 9598 003c FB68     		ldr	r3, [r7, #12]
 9599 003e 5A62     		str	r2, [r3, #36]
4390:Drivers/STM32F7xx_HAL_Driver/Src/stm32f7xx_hal_i2c.c ****     {
 9600              		.loc 1 4390 0
 9601 0040 FB68     		ldr	r3, [r7, #12]
 9602 0042 5B8D     		ldrh	r3, [r3, #42]	@ movhi
 9603 0044 9BB2     		uxth	r3, r3
 9604 0046 FF2B     		cmp	r3, #255
 9605 0048 03D9     		bls	.L496
4392:Drivers/STM32F7xx_HAL_Driver/Src/stm32f7xx_hal_i2c.c ****     }
 9606              		.loc 1 4392 0
 9607 004a FB68     		ldr	r3, [r7, #12]
 9608 004c FF22     		movs	r2, #255
 9609 004e 1A85     		strh	r2, [r3, #40]	@ movhi
 9610 0050 04E0     		b	.L497
 9611              	.L496:
4396:Drivers/STM32F7xx_HAL_Driver/Src/stm32f7xx_hal_i2c.c ****     }
 9612              		.loc 1 4396 0
 9613 0052 FB68     		ldr	r3, [r7, #12]
 9614 0054 5B8D     		ldrh	r3, [r3, #42]	@ movhi
 9615 0056 9AB2     		uxth	r2, r3
 9616 0058 FB68     		ldr	r3, [r7, #12]
 9617 005a 1A85     		strh	r2, [r3, #40]	@ movhi
 9618              	.L497:
4400:Drivers/STM32F7xx_HAL_Driver/Src/stm32f7xx_hal_i2c.c **** 
 9619              		.loc 1 4400 0
 9620 005c FB68     		ldr	r3, [r7, #12]
 9621 005e D86B     		ldr	r0, [r3, #60]
 9622 0060 FB68     		ldr	r3, [r7, #12]
 9623 0062 1B68     		ldr	r3, [r3]
 9624 0064 2433     		adds	r3, r3, #36
 9625 0066 1946     		mov	r1, r3
 9626 0068 FB68     		ldr	r3, [r7, #12]
 9627 006a 5B6A     		ldr	r3, [r3, #36]
 9628 006c 1A46     		mov	r2, r3
 9629 006e FB68     		ldr	r3, [r7, #12]
 9630 0070 1B8D     		ldrh	r3, [r3, #40]
 9631 0072 FFF7FEFF 		bl	HAL_DMA_Start_IT
4403:Drivers/STM32F7xx_HAL_Driver/Src/stm32f7xx_hal_i2c.c ****   }
 9632              		.loc 1 4403 0
 9633 0076 1221     		movs	r1, #18
 9634 0078 F868     		ldr	r0, [r7, #12]
 9635 007a FFF7FEFF 		bl	I2C_Enable_IRQ
 9636              	.L498:
 9637              		.loc 1 4405 0
ARM GAS  /var/folders/n8/cvzdcwlj0vl4g_wtyz1ffy300000gn/T//ccBPNZvy.s 			page 247


 9638 007e 00BF     		nop
 9639 0080 1037     		adds	r7, r7, #16
 9640              	.LCFI325:
 9641              		.cfi_def_cfa_offset 8
 9642 0082 BD46     		mov	sp, r7
 9643              	.LCFI326:
 9644              		.cfi_def_cfa_register 13
 9645              		@ sp needed
 9646 0084 80BD     		pop	{r7, pc}
 9647              		.cfi_endproc
 9648              	.LFE199:
 9650              		.section	.text.I2C_DMASlaveReceiveCplt,"ax",%progbits
 9651              		.align	1
 9652              		.syntax unified
 9653              		.thumb
 9654              		.thumb_func
 9655              		.fpu fpv5-sp-d16
 9657              	I2C_DMASlaveReceiveCplt:
 9658              	.LFB200:
4406:Drivers/STM32F7xx_HAL_Driver/Src/stm32f7xx_hal_i2c.c **** 
4407:Drivers/STM32F7xx_HAL_Driver/Src/stm32f7xx_hal_i2c.c **** /**
4408:Drivers/STM32F7xx_HAL_Driver/Src/stm32f7xx_hal_i2c.c ****   * @brief  DMA I2C slave receive process complete callback.
4409:Drivers/STM32F7xx_HAL_Driver/Src/stm32f7xx_hal_i2c.c ****   * @param  hdma DMA handle
4410:Drivers/STM32F7xx_HAL_Driver/Src/stm32f7xx_hal_i2c.c ****   * @retval None
4411:Drivers/STM32F7xx_HAL_Driver/Src/stm32f7xx_hal_i2c.c ****   */
4412:Drivers/STM32F7xx_HAL_Driver/Src/stm32f7xx_hal_i2c.c **** static void I2C_DMASlaveReceiveCplt(DMA_HandleTypeDef *hdma)
4413:Drivers/STM32F7xx_HAL_Driver/Src/stm32f7xx_hal_i2c.c **** {
 9659              		.loc 1 4413 0
 9660              		.cfi_startproc
 9661              		@ args = 0, pretend = 0, frame = 8
 9662              		@ frame_needed = 1, uses_anonymous_args = 0
 9663              		@ link register save eliminated.
 9664 0000 80B4     		push	{r7}
 9665              	.LCFI327:
 9666              		.cfi_def_cfa_offset 4
 9667              		.cfi_offset 7, -4
 9668 0002 83B0     		sub	sp, sp, #12
 9669              	.LCFI328:
 9670              		.cfi_def_cfa_offset 16
 9671 0004 00AF     		add	r7, sp, #0
 9672              	.LCFI329:
 9673              		.cfi_def_cfa_register 7
 9674 0006 7860     		str	r0, [r7, #4]
4414:Drivers/STM32F7xx_HAL_Driver/Src/stm32f7xx_hal_i2c.c ****   /* Prevent unused argument(s) compilation warning */
4415:Drivers/STM32F7xx_HAL_Driver/Src/stm32f7xx_hal_i2c.c ****   UNUSED(hdma);
4416:Drivers/STM32F7xx_HAL_Driver/Src/stm32f7xx_hal_i2c.c **** 
4417:Drivers/STM32F7xx_HAL_Driver/Src/stm32f7xx_hal_i2c.c ****   /* No specific action, Master fully manage the generation of STOP condition */
4418:Drivers/STM32F7xx_HAL_Driver/Src/stm32f7xx_hal_i2c.c ****   /* Mean that this generation can arrive at any time, at the end or during DMA process */
4419:Drivers/STM32F7xx_HAL_Driver/Src/stm32f7xx_hal_i2c.c ****   /* So STOP condition should be manage through Interrupt treatment */
4420:Drivers/STM32F7xx_HAL_Driver/Src/stm32f7xx_hal_i2c.c **** }
 9675              		.loc 1 4420 0
 9676 0008 00BF     		nop
 9677 000a 0C37     		adds	r7, r7, #12
 9678              	.LCFI330:
 9679              		.cfi_def_cfa_offset 4
 9680 000c BD46     		mov	sp, r7
 9681              	.LCFI331:
ARM GAS  /var/folders/n8/cvzdcwlj0vl4g_wtyz1ffy300000gn/T//ccBPNZvy.s 			page 248


 9682              		.cfi_def_cfa_register 13
 9683              		@ sp needed
 9684 000e 5DF8047B 		ldr	r7, [sp], #4
 9685              	.LCFI332:
 9686              		.cfi_restore 7
 9687              		.cfi_def_cfa_offset 0
 9688 0012 7047     		bx	lr
 9689              		.cfi_endproc
 9690              	.LFE200:
 9692              		.section	.text.I2C_DMAError,"ax",%progbits
 9693              		.align	1
 9694              		.syntax unified
 9695              		.thumb
 9696              		.thumb_func
 9697              		.fpu fpv5-sp-d16
 9699              	I2C_DMAError:
 9700              	.LFB201:
4421:Drivers/STM32F7xx_HAL_Driver/Src/stm32f7xx_hal_i2c.c **** 
4422:Drivers/STM32F7xx_HAL_Driver/Src/stm32f7xx_hal_i2c.c **** /**
4423:Drivers/STM32F7xx_HAL_Driver/Src/stm32f7xx_hal_i2c.c ****   * @brief  DMA I2C communication error callback.
4424:Drivers/STM32F7xx_HAL_Driver/Src/stm32f7xx_hal_i2c.c ****   * @param hdma DMA handle
4425:Drivers/STM32F7xx_HAL_Driver/Src/stm32f7xx_hal_i2c.c ****   * @retval None
4426:Drivers/STM32F7xx_HAL_Driver/Src/stm32f7xx_hal_i2c.c ****   */
4427:Drivers/STM32F7xx_HAL_Driver/Src/stm32f7xx_hal_i2c.c **** static void I2C_DMAError(DMA_HandleTypeDef *hdma)
4428:Drivers/STM32F7xx_HAL_Driver/Src/stm32f7xx_hal_i2c.c **** {
 9701              		.loc 1 4428 0
 9702              		.cfi_startproc
 9703              		@ args = 0, pretend = 0, frame = 16
 9704              		@ frame_needed = 1, uses_anonymous_args = 0
 9705 0000 80B5     		push	{r7, lr}
 9706              	.LCFI333:
 9707              		.cfi_def_cfa_offset 8
 9708              		.cfi_offset 7, -8
 9709              		.cfi_offset 14, -4
 9710 0002 84B0     		sub	sp, sp, #16
 9711              	.LCFI334:
 9712              		.cfi_def_cfa_offset 24
 9713 0004 00AF     		add	r7, sp, #0
 9714              	.LCFI335:
 9715              		.cfi_def_cfa_register 7
 9716 0006 7860     		str	r0, [r7, #4]
4429:Drivers/STM32F7xx_HAL_Driver/Src/stm32f7xx_hal_i2c.c ****   I2C_HandleTypeDef *hi2c = (I2C_HandleTypeDef *)((DMA_HandleTypeDef *)hdma)->Parent;
 9717              		.loc 1 4429 0
 9718 0008 7B68     		ldr	r3, [r7, #4]
 9719 000a 9B6B     		ldr	r3, [r3, #56]
 9720 000c FB60     		str	r3, [r7, #12]
4430:Drivers/STM32F7xx_HAL_Driver/Src/stm32f7xx_hal_i2c.c **** 
4431:Drivers/STM32F7xx_HAL_Driver/Src/stm32f7xx_hal_i2c.c ****   /* Disable Acknowledge */
4432:Drivers/STM32F7xx_HAL_Driver/Src/stm32f7xx_hal_i2c.c ****   hi2c->Instance->CR2 |= I2C_CR2_NACK;
 9721              		.loc 1 4432 0
 9722 000e FB68     		ldr	r3, [r7, #12]
 9723 0010 1B68     		ldr	r3, [r3]
 9724 0012 5A68     		ldr	r2, [r3, #4]
 9725 0014 FB68     		ldr	r3, [r7, #12]
 9726 0016 1B68     		ldr	r3, [r3]
 9727 0018 42F40042 		orr	r2, r2, #32768
 9728 001c 5A60     		str	r2, [r3, #4]
ARM GAS  /var/folders/n8/cvzdcwlj0vl4g_wtyz1ffy300000gn/T//ccBPNZvy.s 			page 249


4433:Drivers/STM32F7xx_HAL_Driver/Src/stm32f7xx_hal_i2c.c **** 
4434:Drivers/STM32F7xx_HAL_Driver/Src/stm32f7xx_hal_i2c.c ****   /* Call the corresponding callback to inform upper layer of End of Transfer */
4435:Drivers/STM32F7xx_HAL_Driver/Src/stm32f7xx_hal_i2c.c ****   I2C_ITError(hi2c, HAL_I2C_ERROR_DMA);
 9729              		.loc 1 4435 0
 9730 001e 1021     		movs	r1, #16
 9731 0020 F868     		ldr	r0, [r7, #12]
 9732 0022 FFF7FEFF 		bl	I2C_ITError
4436:Drivers/STM32F7xx_HAL_Driver/Src/stm32f7xx_hal_i2c.c **** }
 9733              		.loc 1 4436 0
 9734 0026 00BF     		nop
 9735 0028 1037     		adds	r7, r7, #16
 9736              	.LCFI336:
 9737              		.cfi_def_cfa_offset 8
 9738 002a BD46     		mov	sp, r7
 9739              	.LCFI337:
 9740              		.cfi_def_cfa_register 13
 9741              		@ sp needed
 9742 002c 80BD     		pop	{r7, pc}
 9743              		.cfi_endproc
 9744              	.LFE201:
 9746              		.section	.text.I2C_DMAAbort,"ax",%progbits
 9747              		.align	1
 9748              		.syntax unified
 9749              		.thumb
 9750              		.thumb_func
 9751              		.fpu fpv5-sp-d16
 9753              	I2C_DMAAbort:
 9754              	.LFB202:
4437:Drivers/STM32F7xx_HAL_Driver/Src/stm32f7xx_hal_i2c.c **** 
4438:Drivers/STM32F7xx_HAL_Driver/Src/stm32f7xx_hal_i2c.c **** /**
4439:Drivers/STM32F7xx_HAL_Driver/Src/stm32f7xx_hal_i2c.c ****   * @brief DMA I2C communication abort callback
4440:Drivers/STM32F7xx_HAL_Driver/Src/stm32f7xx_hal_i2c.c ****   *        (To be called at end of DMA Abort procedure).
4441:Drivers/STM32F7xx_HAL_Driver/Src/stm32f7xx_hal_i2c.c ****   * @param hdma DMA handle.
4442:Drivers/STM32F7xx_HAL_Driver/Src/stm32f7xx_hal_i2c.c ****   * @retval None
4443:Drivers/STM32F7xx_HAL_Driver/Src/stm32f7xx_hal_i2c.c ****   */
4444:Drivers/STM32F7xx_HAL_Driver/Src/stm32f7xx_hal_i2c.c **** static void I2C_DMAAbort(DMA_HandleTypeDef *hdma)
4445:Drivers/STM32F7xx_HAL_Driver/Src/stm32f7xx_hal_i2c.c **** {
 9755              		.loc 1 4445 0
 9756              		.cfi_startproc
 9757              		@ args = 0, pretend = 0, frame = 16
 9758              		@ frame_needed = 1, uses_anonymous_args = 0
 9759 0000 80B5     		push	{r7, lr}
 9760              	.LCFI338:
 9761              		.cfi_def_cfa_offset 8
 9762              		.cfi_offset 7, -8
 9763              		.cfi_offset 14, -4
 9764 0002 84B0     		sub	sp, sp, #16
 9765              	.LCFI339:
 9766              		.cfi_def_cfa_offset 24
 9767 0004 00AF     		add	r7, sp, #0
 9768              	.LCFI340:
 9769              		.cfi_def_cfa_register 7
 9770 0006 7860     		str	r0, [r7, #4]
4446:Drivers/STM32F7xx_HAL_Driver/Src/stm32f7xx_hal_i2c.c ****   I2C_HandleTypeDef *hi2c = (I2C_HandleTypeDef *)((DMA_HandleTypeDef *)hdma)->Parent;
 9771              		.loc 1 4446 0
 9772 0008 7B68     		ldr	r3, [r7, #4]
 9773 000a 9B6B     		ldr	r3, [r3, #56]
ARM GAS  /var/folders/n8/cvzdcwlj0vl4g_wtyz1ffy300000gn/T//ccBPNZvy.s 			page 250


 9774 000c FB60     		str	r3, [r7, #12]
4447:Drivers/STM32F7xx_HAL_Driver/Src/stm32f7xx_hal_i2c.c **** 
4448:Drivers/STM32F7xx_HAL_Driver/Src/stm32f7xx_hal_i2c.c ****   /* Disable Acknowledge */
4449:Drivers/STM32F7xx_HAL_Driver/Src/stm32f7xx_hal_i2c.c ****   hi2c->Instance->CR2 |= I2C_CR2_NACK;
 9775              		.loc 1 4449 0
 9776 000e FB68     		ldr	r3, [r7, #12]
 9777 0010 1B68     		ldr	r3, [r3]
 9778 0012 5A68     		ldr	r2, [r3, #4]
 9779 0014 FB68     		ldr	r3, [r7, #12]
 9780 0016 1B68     		ldr	r3, [r3]
 9781 0018 42F40042 		orr	r2, r2, #32768
 9782 001c 5A60     		str	r2, [r3, #4]
4450:Drivers/STM32F7xx_HAL_Driver/Src/stm32f7xx_hal_i2c.c **** 
4451:Drivers/STM32F7xx_HAL_Driver/Src/stm32f7xx_hal_i2c.c ****   /* Reset AbortCpltCallback */
4452:Drivers/STM32F7xx_HAL_Driver/Src/stm32f7xx_hal_i2c.c ****   hi2c->hdmatx->XferAbortCallback = NULL;
 9783              		.loc 1 4452 0
 9784 001e FB68     		ldr	r3, [r7, #12]
 9785 0020 9B6B     		ldr	r3, [r3, #56]
 9786 0022 0022     		movs	r2, #0
 9787 0024 1A65     		str	r2, [r3, #80]
4453:Drivers/STM32F7xx_HAL_Driver/Src/stm32f7xx_hal_i2c.c ****   hi2c->hdmarx->XferAbortCallback = NULL;
 9788              		.loc 1 4453 0
 9789 0026 FB68     		ldr	r3, [r7, #12]
 9790 0028 DB6B     		ldr	r3, [r3, #60]
 9791 002a 0022     		movs	r2, #0
 9792 002c 1A65     		str	r2, [r3, #80]
4454:Drivers/STM32F7xx_HAL_Driver/Src/stm32f7xx_hal_i2c.c **** 
4455:Drivers/STM32F7xx_HAL_Driver/Src/stm32f7xx_hal_i2c.c ****   /* Check if come from abort from user */
4456:Drivers/STM32F7xx_HAL_Driver/Src/stm32f7xx_hal_i2c.c ****   if (hi2c->State == HAL_I2C_STATE_ABORT)
 9793              		.loc 1 4456 0
 9794 002e FB68     		ldr	r3, [r7, #12]
 9795 0030 93F84130 		ldrb	r3, [r3, #65]
 9796 0034 DBB2     		uxtb	r3, r3
 9797 0036 602B     		cmp	r3, #96
 9798 0038 07D1     		bne	.L502
4457:Drivers/STM32F7xx_HAL_Driver/Src/stm32f7xx_hal_i2c.c ****   {
4458:Drivers/STM32F7xx_HAL_Driver/Src/stm32f7xx_hal_i2c.c ****     hi2c->State = HAL_I2C_STATE_READY;
 9799              		.loc 1 4458 0
 9800 003a FB68     		ldr	r3, [r7, #12]
 9801 003c 2022     		movs	r2, #32
 9802 003e 83F84120 		strb	r2, [r3, #65]
4459:Drivers/STM32F7xx_HAL_Driver/Src/stm32f7xx_hal_i2c.c **** 
4460:Drivers/STM32F7xx_HAL_Driver/Src/stm32f7xx_hal_i2c.c ****     /* Call the corresponding callback to inform upper layer of End of Transfer */
4461:Drivers/STM32F7xx_HAL_Driver/Src/stm32f7xx_hal_i2c.c ****     HAL_I2C_AbortCpltCallback(hi2c);
 9803              		.loc 1 4461 0
 9804 0042 F868     		ldr	r0, [r7, #12]
 9805 0044 FFF7FEFF 		bl	HAL_I2C_AbortCpltCallback
4462:Drivers/STM32F7xx_HAL_Driver/Src/stm32f7xx_hal_i2c.c ****   }
4463:Drivers/STM32F7xx_HAL_Driver/Src/stm32f7xx_hal_i2c.c ****   else
4464:Drivers/STM32F7xx_HAL_Driver/Src/stm32f7xx_hal_i2c.c ****   {
4465:Drivers/STM32F7xx_HAL_Driver/Src/stm32f7xx_hal_i2c.c ****     /* Call the corresponding callback to inform upper layer of End of Transfer */
4466:Drivers/STM32F7xx_HAL_Driver/Src/stm32f7xx_hal_i2c.c ****     HAL_I2C_ErrorCallback(hi2c);
4467:Drivers/STM32F7xx_HAL_Driver/Src/stm32f7xx_hal_i2c.c ****   }
4468:Drivers/STM32F7xx_HAL_Driver/Src/stm32f7xx_hal_i2c.c **** }
 9806              		.loc 1 4468 0
 9807 0048 02E0     		b	.L504
 9808              	.L502:
ARM GAS  /var/folders/n8/cvzdcwlj0vl4g_wtyz1ffy300000gn/T//ccBPNZvy.s 			page 251


4466:Drivers/STM32F7xx_HAL_Driver/Src/stm32f7xx_hal_i2c.c ****   }
 9809              		.loc 1 4466 0
 9810 004a F868     		ldr	r0, [r7, #12]
 9811 004c FFF7FEFF 		bl	HAL_I2C_ErrorCallback
 9812              	.L504:
 9813              		.loc 1 4468 0
 9814 0050 00BF     		nop
 9815 0052 1037     		adds	r7, r7, #16
 9816              	.LCFI341:
 9817              		.cfi_def_cfa_offset 8
 9818 0054 BD46     		mov	sp, r7
 9819              	.LCFI342:
 9820              		.cfi_def_cfa_register 13
 9821              		@ sp needed
 9822 0056 80BD     		pop	{r7, pc}
 9823              		.cfi_endproc
 9824              	.LFE202:
 9826              		.section	.text.I2C_WaitOnFlagUntilTimeout,"ax",%progbits
 9827              		.align	1
 9828              		.syntax unified
 9829              		.thumb
 9830              		.thumb_func
 9831              		.fpu fpv5-sp-d16
 9833              	I2C_WaitOnFlagUntilTimeout:
 9834              	.LFB203:
4469:Drivers/STM32F7xx_HAL_Driver/Src/stm32f7xx_hal_i2c.c **** 
4470:Drivers/STM32F7xx_HAL_Driver/Src/stm32f7xx_hal_i2c.c **** /**
4471:Drivers/STM32F7xx_HAL_Driver/Src/stm32f7xx_hal_i2c.c ****   * @brief  This function handles I2C Communication Timeout.
4472:Drivers/STM32F7xx_HAL_Driver/Src/stm32f7xx_hal_i2c.c ****   * @param  hi2c Pointer to a I2C_HandleTypeDef structure that contains
4473:Drivers/STM32F7xx_HAL_Driver/Src/stm32f7xx_hal_i2c.c ****   *                the configuration information for the specified I2C.
4474:Drivers/STM32F7xx_HAL_Driver/Src/stm32f7xx_hal_i2c.c ****   * @param  Flag Specifies the I2C flag to check.
4475:Drivers/STM32F7xx_HAL_Driver/Src/stm32f7xx_hal_i2c.c ****   * @param  Status The new Flag status (SET or RESET).
4476:Drivers/STM32F7xx_HAL_Driver/Src/stm32f7xx_hal_i2c.c ****   * @param  Timeout Timeout duration
4477:Drivers/STM32F7xx_HAL_Driver/Src/stm32f7xx_hal_i2c.c ****   * @param  Tickstart Tick start value
4478:Drivers/STM32F7xx_HAL_Driver/Src/stm32f7xx_hal_i2c.c ****   * @retval HAL status
4479:Drivers/STM32F7xx_HAL_Driver/Src/stm32f7xx_hal_i2c.c ****   */
4480:Drivers/STM32F7xx_HAL_Driver/Src/stm32f7xx_hal_i2c.c **** static HAL_StatusTypeDef I2C_WaitOnFlagUntilTimeout(I2C_HandleTypeDef *hi2c, uint32_t Flag, FlagSta
4481:Drivers/STM32F7xx_HAL_Driver/Src/stm32f7xx_hal_i2c.c **** {
 9835              		.loc 1 4481 0
 9836              		.cfi_startproc
 9837              		@ args = 4, pretend = 0, frame = 16
 9838              		@ frame_needed = 1, uses_anonymous_args = 0
 9839 0000 80B5     		push	{r7, lr}
 9840              	.LCFI343:
 9841              		.cfi_def_cfa_offset 8
 9842              		.cfi_offset 7, -8
 9843              		.cfi_offset 14, -4
 9844 0002 84B0     		sub	sp, sp, #16
 9845              	.LCFI344:
 9846              		.cfi_def_cfa_offset 24
 9847 0004 00AF     		add	r7, sp, #0
 9848              	.LCFI345:
 9849              		.cfi_def_cfa_register 7
 9850 0006 F860     		str	r0, [r7, #12]
 9851 0008 B960     		str	r1, [r7, #8]
 9852 000a 3B60     		str	r3, [r7]
 9853 000c 1346     		mov	r3, r2
ARM GAS  /var/folders/n8/cvzdcwlj0vl4g_wtyz1ffy300000gn/T//ccBPNZvy.s 			page 252


 9854 000e FB71     		strb	r3, [r7, #7]
4482:Drivers/STM32F7xx_HAL_Driver/Src/stm32f7xx_hal_i2c.c ****   while (__HAL_I2C_GET_FLAG(hi2c, Flag) == Status)
 9855              		.loc 1 4482 0
 9856 0010 1CE0     		b	.L506
 9857              	.L509:
4483:Drivers/STM32F7xx_HAL_Driver/Src/stm32f7xx_hal_i2c.c ****   {
4484:Drivers/STM32F7xx_HAL_Driver/Src/stm32f7xx_hal_i2c.c ****     /* Check for the Timeout */
4485:Drivers/STM32F7xx_HAL_Driver/Src/stm32f7xx_hal_i2c.c ****     if (Timeout != HAL_MAX_DELAY)
 9858              		.loc 1 4485 0
 9859 0012 3B68     		ldr	r3, [r7]
 9860 0014 B3F1FF3F 		cmp	r3, #-1
 9861 0018 18D0     		beq	.L506
4486:Drivers/STM32F7xx_HAL_Driver/Src/stm32f7xx_hal_i2c.c ****     {
4487:Drivers/STM32F7xx_HAL_Driver/Src/stm32f7xx_hal_i2c.c ****       if ((Timeout == 0U) || ((HAL_GetTick() - Tickstart) > Timeout))
 9862              		.loc 1 4487 0
 9863 001a 3B68     		ldr	r3, [r7]
 9864 001c 002B     		cmp	r3, #0
 9865 001e 07D0     		beq	.L507
 9866              		.loc 1 4487 0 is_stmt 0 discriminator 1
 9867 0020 FFF7FEFF 		bl	HAL_GetTick
 9868 0024 0246     		mov	r2, r0
 9869 0026 BB69     		ldr	r3, [r7, #24]
 9870 0028 D31A     		subs	r3, r2, r3
 9871 002a 3A68     		ldr	r2, [r7]
 9872 002c 9A42     		cmp	r2, r3
 9873 002e 0DD2     		bcs	.L506
 9874              	.L507:
4488:Drivers/STM32F7xx_HAL_Driver/Src/stm32f7xx_hal_i2c.c ****       {
4489:Drivers/STM32F7xx_HAL_Driver/Src/stm32f7xx_hal_i2c.c ****         hi2c->State = HAL_I2C_STATE_READY;
 9875              		.loc 1 4489 0 is_stmt 1
 9876 0030 FB68     		ldr	r3, [r7, #12]
 9877 0032 2022     		movs	r2, #32
 9878 0034 83F84120 		strb	r2, [r3, #65]
4490:Drivers/STM32F7xx_HAL_Driver/Src/stm32f7xx_hal_i2c.c ****         hi2c->Mode = HAL_I2C_MODE_NONE;
 9879              		.loc 1 4490 0
 9880 0038 FB68     		ldr	r3, [r7, #12]
 9881 003a 0022     		movs	r2, #0
 9882 003c 83F84220 		strb	r2, [r3, #66]
4491:Drivers/STM32F7xx_HAL_Driver/Src/stm32f7xx_hal_i2c.c **** 
4492:Drivers/STM32F7xx_HAL_Driver/Src/stm32f7xx_hal_i2c.c ****         /* Process Unlocked */
4493:Drivers/STM32F7xx_HAL_Driver/Src/stm32f7xx_hal_i2c.c ****         __HAL_UNLOCK(hi2c);
 9883              		.loc 1 4493 0
 9884 0040 FB68     		ldr	r3, [r7, #12]
 9885 0042 0022     		movs	r2, #0
 9886 0044 83F84020 		strb	r2, [r3, #64]
4494:Drivers/STM32F7xx_HAL_Driver/Src/stm32f7xx_hal_i2c.c ****         return HAL_TIMEOUT;
 9887              		.loc 1 4494 0
 9888 0048 0323     		movs	r3, #3
 9889 004a 0FE0     		b	.L508
 9890              	.L506:
4482:Drivers/STM32F7xx_HAL_Driver/Src/stm32f7xx_hal_i2c.c ****   {
 9891              		.loc 1 4482 0
 9892 004c FB68     		ldr	r3, [r7, #12]
 9893 004e 1B68     		ldr	r3, [r3]
 9894 0050 9A69     		ldr	r2, [r3, #24]
 9895 0052 BB68     		ldr	r3, [r7, #8]
 9896 0054 1340     		ands	r3, r3, r2
ARM GAS  /var/folders/n8/cvzdcwlj0vl4g_wtyz1ffy300000gn/T//ccBPNZvy.s 			page 253


 9897 0056 BA68     		ldr	r2, [r7, #8]
 9898 0058 9A42     		cmp	r2, r3
 9899 005a 0CBF     		ite	eq
 9900 005c 0123     		moveq	r3, #1
 9901 005e 0023     		movne	r3, #0
 9902 0060 DBB2     		uxtb	r3, r3
 9903 0062 1A46     		mov	r2, r3
 9904 0064 FB79     		ldrb	r3, [r7, #7]	@ zero_extendqisi2
 9905 0066 9A42     		cmp	r2, r3
 9906 0068 D3D0     		beq	.L509
4495:Drivers/STM32F7xx_HAL_Driver/Src/stm32f7xx_hal_i2c.c ****       }
4496:Drivers/STM32F7xx_HAL_Driver/Src/stm32f7xx_hal_i2c.c ****     }
4497:Drivers/STM32F7xx_HAL_Driver/Src/stm32f7xx_hal_i2c.c ****   }
4498:Drivers/STM32F7xx_HAL_Driver/Src/stm32f7xx_hal_i2c.c ****   return HAL_OK;
 9907              		.loc 1 4498 0
 9908 006a 0023     		movs	r3, #0
 9909              	.L508:
4499:Drivers/STM32F7xx_HAL_Driver/Src/stm32f7xx_hal_i2c.c **** }
 9910              		.loc 1 4499 0
 9911 006c 1846     		mov	r0, r3
 9912 006e 1037     		adds	r7, r7, #16
 9913              	.LCFI346:
 9914              		.cfi_def_cfa_offset 8
 9915 0070 BD46     		mov	sp, r7
 9916              	.LCFI347:
 9917              		.cfi_def_cfa_register 13
 9918              		@ sp needed
 9919 0072 80BD     		pop	{r7, pc}
 9920              		.cfi_endproc
 9921              	.LFE203:
 9923              		.section	.text.I2C_WaitOnTXISFlagUntilTimeout,"ax",%progbits
 9924              		.align	1
 9925              		.syntax unified
 9926              		.thumb
 9927              		.thumb_func
 9928              		.fpu fpv5-sp-d16
 9930              	I2C_WaitOnTXISFlagUntilTimeout:
 9931              	.LFB204:
4500:Drivers/STM32F7xx_HAL_Driver/Src/stm32f7xx_hal_i2c.c **** 
4501:Drivers/STM32F7xx_HAL_Driver/Src/stm32f7xx_hal_i2c.c **** /**
4502:Drivers/STM32F7xx_HAL_Driver/Src/stm32f7xx_hal_i2c.c ****   * @brief  This function handles I2C Communication Timeout for specific usage of TXIS flag.
4503:Drivers/STM32F7xx_HAL_Driver/Src/stm32f7xx_hal_i2c.c ****   * @param  hi2c Pointer to a I2C_HandleTypeDef structure that contains
4504:Drivers/STM32F7xx_HAL_Driver/Src/stm32f7xx_hal_i2c.c ****   *                the configuration information for the specified I2C.
4505:Drivers/STM32F7xx_HAL_Driver/Src/stm32f7xx_hal_i2c.c ****   * @param  Timeout Timeout duration
4506:Drivers/STM32F7xx_HAL_Driver/Src/stm32f7xx_hal_i2c.c ****   * @param  Tickstart Tick start value
4507:Drivers/STM32F7xx_HAL_Driver/Src/stm32f7xx_hal_i2c.c ****   * @retval HAL status
4508:Drivers/STM32F7xx_HAL_Driver/Src/stm32f7xx_hal_i2c.c ****   */
4509:Drivers/STM32F7xx_HAL_Driver/Src/stm32f7xx_hal_i2c.c **** static HAL_StatusTypeDef I2C_WaitOnTXISFlagUntilTimeout(I2C_HandleTypeDef *hi2c, uint32_t Timeout, 
4510:Drivers/STM32F7xx_HAL_Driver/Src/stm32f7xx_hal_i2c.c **** {
 9932              		.loc 1 4510 0
 9933              		.cfi_startproc
 9934              		@ args = 0, pretend = 0, frame = 16
 9935              		@ frame_needed = 1, uses_anonymous_args = 0
 9936 0000 80B5     		push	{r7, lr}
 9937              	.LCFI348:
 9938              		.cfi_def_cfa_offset 8
 9939              		.cfi_offset 7, -8
ARM GAS  /var/folders/n8/cvzdcwlj0vl4g_wtyz1ffy300000gn/T//ccBPNZvy.s 			page 254


 9940              		.cfi_offset 14, -4
 9941 0002 84B0     		sub	sp, sp, #16
 9942              	.LCFI349:
 9943              		.cfi_def_cfa_offset 24
 9944 0004 00AF     		add	r7, sp, #0
 9945              	.LCFI350:
 9946              		.cfi_def_cfa_register 7
 9947 0006 F860     		str	r0, [r7, #12]
 9948 0008 B960     		str	r1, [r7, #8]
 9949 000a 7A60     		str	r2, [r7, #4]
4511:Drivers/STM32F7xx_HAL_Driver/Src/stm32f7xx_hal_i2c.c ****   while (__HAL_I2C_GET_FLAG(hi2c, I2C_FLAG_TXIS) == RESET)
 9950              		.loc 1 4511 0
 9951 000c 2CE0     		b	.L511
 9952              	.L515:
4512:Drivers/STM32F7xx_HAL_Driver/Src/stm32f7xx_hal_i2c.c ****   {
4513:Drivers/STM32F7xx_HAL_Driver/Src/stm32f7xx_hal_i2c.c ****     /* Check if a NACK is detected */
4514:Drivers/STM32F7xx_HAL_Driver/Src/stm32f7xx_hal_i2c.c ****     if (I2C_IsAcknowledgeFailed(hi2c, Timeout, Tickstart) != HAL_OK)
 9953              		.loc 1 4514 0
 9954 000e 7A68     		ldr	r2, [r7, #4]
 9955 0010 B968     		ldr	r1, [r7, #8]
 9956 0012 F868     		ldr	r0, [r7, #12]
 9957 0014 FFF7FEFF 		bl	I2C_IsAcknowledgeFailed
 9958 0018 0346     		mov	r3, r0
 9959 001a 002B     		cmp	r3, #0
 9960 001c 01D0     		beq	.L512
4515:Drivers/STM32F7xx_HAL_Driver/Src/stm32f7xx_hal_i2c.c ****     {
4516:Drivers/STM32F7xx_HAL_Driver/Src/stm32f7xx_hal_i2c.c ****       return HAL_ERROR;
 9961              		.loc 1 4516 0
 9962 001e 0123     		movs	r3, #1
 9963 0020 2AE0     		b	.L513
 9964              	.L512:
4517:Drivers/STM32F7xx_HAL_Driver/Src/stm32f7xx_hal_i2c.c ****     }
4518:Drivers/STM32F7xx_HAL_Driver/Src/stm32f7xx_hal_i2c.c **** 
4519:Drivers/STM32F7xx_HAL_Driver/Src/stm32f7xx_hal_i2c.c ****     /* Check for the Timeout */
4520:Drivers/STM32F7xx_HAL_Driver/Src/stm32f7xx_hal_i2c.c ****     if (Timeout != HAL_MAX_DELAY)
 9965              		.loc 1 4520 0
 9966 0022 BB68     		ldr	r3, [r7, #8]
 9967 0024 B3F1FF3F 		cmp	r3, #-1
 9968 0028 1ED0     		beq	.L511
4521:Drivers/STM32F7xx_HAL_Driver/Src/stm32f7xx_hal_i2c.c ****     {
4522:Drivers/STM32F7xx_HAL_Driver/Src/stm32f7xx_hal_i2c.c ****       if ((Timeout == 0U) || ((HAL_GetTick() - Tickstart) > Timeout))
 9969              		.loc 1 4522 0
 9970 002a BB68     		ldr	r3, [r7, #8]
 9971 002c 002B     		cmp	r3, #0
 9972 002e 07D0     		beq	.L514
 9973              		.loc 1 4522 0 is_stmt 0 discriminator 1
 9974 0030 FFF7FEFF 		bl	HAL_GetTick
 9975 0034 0246     		mov	r2, r0
 9976 0036 7B68     		ldr	r3, [r7, #4]
 9977 0038 D31A     		subs	r3, r2, r3
 9978 003a BA68     		ldr	r2, [r7, #8]
 9979 003c 9A42     		cmp	r2, r3
 9980 003e 13D2     		bcs	.L511
 9981              	.L514:
4523:Drivers/STM32F7xx_HAL_Driver/Src/stm32f7xx_hal_i2c.c ****       {
4524:Drivers/STM32F7xx_HAL_Driver/Src/stm32f7xx_hal_i2c.c ****         hi2c->ErrorCode |= HAL_I2C_ERROR_TIMEOUT;
 9982              		.loc 1 4524 0 is_stmt 1
ARM GAS  /var/folders/n8/cvzdcwlj0vl4g_wtyz1ffy300000gn/T//ccBPNZvy.s 			page 255


 9983 0040 FB68     		ldr	r3, [r7, #12]
 9984 0042 5B6C     		ldr	r3, [r3, #68]
 9985 0044 43F02002 		orr	r2, r3, #32
 9986 0048 FB68     		ldr	r3, [r7, #12]
 9987 004a 5A64     		str	r2, [r3, #68]
4525:Drivers/STM32F7xx_HAL_Driver/Src/stm32f7xx_hal_i2c.c ****         hi2c->State = HAL_I2C_STATE_READY;
 9988              		.loc 1 4525 0
 9989 004c FB68     		ldr	r3, [r7, #12]
 9990 004e 2022     		movs	r2, #32
 9991 0050 83F84120 		strb	r2, [r3, #65]
4526:Drivers/STM32F7xx_HAL_Driver/Src/stm32f7xx_hal_i2c.c ****         hi2c->Mode = HAL_I2C_MODE_NONE;
 9992              		.loc 1 4526 0
 9993 0054 FB68     		ldr	r3, [r7, #12]
 9994 0056 0022     		movs	r2, #0
 9995 0058 83F84220 		strb	r2, [r3, #66]
4527:Drivers/STM32F7xx_HAL_Driver/Src/stm32f7xx_hal_i2c.c **** 
4528:Drivers/STM32F7xx_HAL_Driver/Src/stm32f7xx_hal_i2c.c ****         /* Process Unlocked */
4529:Drivers/STM32F7xx_HAL_Driver/Src/stm32f7xx_hal_i2c.c ****         __HAL_UNLOCK(hi2c);
 9996              		.loc 1 4529 0
 9997 005c FB68     		ldr	r3, [r7, #12]
 9998 005e 0022     		movs	r2, #0
 9999 0060 83F84020 		strb	r2, [r3, #64]
4530:Drivers/STM32F7xx_HAL_Driver/Src/stm32f7xx_hal_i2c.c **** 
4531:Drivers/STM32F7xx_HAL_Driver/Src/stm32f7xx_hal_i2c.c ****         return HAL_TIMEOUT;
 10000              		.loc 1 4531 0
 10001 0064 0323     		movs	r3, #3
 10002 0066 07E0     		b	.L513
 10003              	.L511:
4511:Drivers/STM32F7xx_HAL_Driver/Src/stm32f7xx_hal_i2c.c ****   {
 10004              		.loc 1 4511 0
 10005 0068 FB68     		ldr	r3, [r7, #12]
 10006 006a 1B68     		ldr	r3, [r3]
 10007 006c 9B69     		ldr	r3, [r3, #24]
 10008 006e 03F00203 		and	r3, r3, #2
 10009 0072 022B     		cmp	r3, #2
 10010 0074 CBD1     		bne	.L515
4532:Drivers/STM32F7xx_HAL_Driver/Src/stm32f7xx_hal_i2c.c ****       }
4533:Drivers/STM32F7xx_HAL_Driver/Src/stm32f7xx_hal_i2c.c ****     }
4534:Drivers/STM32F7xx_HAL_Driver/Src/stm32f7xx_hal_i2c.c ****   }
4535:Drivers/STM32F7xx_HAL_Driver/Src/stm32f7xx_hal_i2c.c ****   return HAL_OK;
 10011              		.loc 1 4535 0
 10012 0076 0023     		movs	r3, #0
 10013              	.L513:
4536:Drivers/STM32F7xx_HAL_Driver/Src/stm32f7xx_hal_i2c.c **** }
 10014              		.loc 1 4536 0
 10015 0078 1846     		mov	r0, r3
 10016 007a 1037     		adds	r7, r7, #16
 10017              	.LCFI351:
 10018              		.cfi_def_cfa_offset 8
 10019 007c BD46     		mov	sp, r7
 10020              	.LCFI352:
 10021              		.cfi_def_cfa_register 13
 10022              		@ sp needed
 10023 007e 80BD     		pop	{r7, pc}
 10024              		.cfi_endproc
 10025              	.LFE204:
 10027              		.section	.text.I2C_WaitOnSTOPFlagUntilTimeout,"ax",%progbits
ARM GAS  /var/folders/n8/cvzdcwlj0vl4g_wtyz1ffy300000gn/T//ccBPNZvy.s 			page 256


 10028              		.align	1
 10029              		.syntax unified
 10030              		.thumb
 10031              		.thumb_func
 10032              		.fpu fpv5-sp-d16
 10034              	I2C_WaitOnSTOPFlagUntilTimeout:
 10035              	.LFB205:
4537:Drivers/STM32F7xx_HAL_Driver/Src/stm32f7xx_hal_i2c.c **** 
4538:Drivers/STM32F7xx_HAL_Driver/Src/stm32f7xx_hal_i2c.c **** /**
4539:Drivers/STM32F7xx_HAL_Driver/Src/stm32f7xx_hal_i2c.c ****   * @brief  This function handles I2C Communication Timeout for specific usage of STOP flag.
4540:Drivers/STM32F7xx_HAL_Driver/Src/stm32f7xx_hal_i2c.c ****   * @param  hi2c Pointer to a I2C_HandleTypeDef structure that contains
4541:Drivers/STM32F7xx_HAL_Driver/Src/stm32f7xx_hal_i2c.c ****   *                the configuration information for the specified I2C.
4542:Drivers/STM32F7xx_HAL_Driver/Src/stm32f7xx_hal_i2c.c ****   * @param  Timeout Timeout duration
4543:Drivers/STM32F7xx_HAL_Driver/Src/stm32f7xx_hal_i2c.c ****   * @param  Tickstart Tick start value
4544:Drivers/STM32F7xx_HAL_Driver/Src/stm32f7xx_hal_i2c.c ****   * @retval HAL status
4545:Drivers/STM32F7xx_HAL_Driver/Src/stm32f7xx_hal_i2c.c ****   */
4546:Drivers/STM32F7xx_HAL_Driver/Src/stm32f7xx_hal_i2c.c **** static HAL_StatusTypeDef I2C_WaitOnSTOPFlagUntilTimeout(I2C_HandleTypeDef *hi2c, uint32_t Timeout, 
4547:Drivers/STM32F7xx_HAL_Driver/Src/stm32f7xx_hal_i2c.c **** {
 10036              		.loc 1 4547 0
 10037              		.cfi_startproc
 10038              		@ args = 0, pretend = 0, frame = 16
 10039              		@ frame_needed = 1, uses_anonymous_args = 0
 10040 0000 80B5     		push	{r7, lr}
 10041              	.LCFI353:
 10042              		.cfi_def_cfa_offset 8
 10043              		.cfi_offset 7, -8
 10044              		.cfi_offset 14, -4
 10045 0002 84B0     		sub	sp, sp, #16
 10046              	.LCFI354:
 10047              		.cfi_def_cfa_offset 24
 10048 0004 00AF     		add	r7, sp, #0
 10049              	.LCFI355:
 10050              		.cfi_def_cfa_register 7
 10051 0006 F860     		str	r0, [r7, #12]
 10052 0008 B960     		str	r1, [r7, #8]
 10053 000a 7A60     		str	r2, [r7, #4]
4548:Drivers/STM32F7xx_HAL_Driver/Src/stm32f7xx_hal_i2c.c ****   while (__HAL_I2C_GET_FLAG(hi2c, I2C_FLAG_STOPF) == RESET)
 10054              		.loc 1 4548 0
 10055 000c 28E0     		b	.L517
 10056              	.L521:
4549:Drivers/STM32F7xx_HAL_Driver/Src/stm32f7xx_hal_i2c.c ****   {
4550:Drivers/STM32F7xx_HAL_Driver/Src/stm32f7xx_hal_i2c.c ****     /* Check if a NACK is detected */
4551:Drivers/STM32F7xx_HAL_Driver/Src/stm32f7xx_hal_i2c.c ****     if (I2C_IsAcknowledgeFailed(hi2c, Timeout, Tickstart) != HAL_OK)
 10057              		.loc 1 4551 0
 10058 000e 7A68     		ldr	r2, [r7, #4]
 10059 0010 B968     		ldr	r1, [r7, #8]
 10060 0012 F868     		ldr	r0, [r7, #12]
 10061 0014 FFF7FEFF 		bl	I2C_IsAcknowledgeFailed
 10062 0018 0346     		mov	r3, r0
 10063 001a 002B     		cmp	r3, #0
 10064 001c 01D0     		beq	.L518
4552:Drivers/STM32F7xx_HAL_Driver/Src/stm32f7xx_hal_i2c.c ****     {
4553:Drivers/STM32F7xx_HAL_Driver/Src/stm32f7xx_hal_i2c.c ****       return HAL_ERROR;
 10065              		.loc 1 4553 0
 10066 001e 0123     		movs	r3, #1
 10067 0020 26E0     		b	.L519
 10068              	.L518:
ARM GAS  /var/folders/n8/cvzdcwlj0vl4g_wtyz1ffy300000gn/T//ccBPNZvy.s 			page 257


4554:Drivers/STM32F7xx_HAL_Driver/Src/stm32f7xx_hal_i2c.c ****     }
4555:Drivers/STM32F7xx_HAL_Driver/Src/stm32f7xx_hal_i2c.c **** 
4556:Drivers/STM32F7xx_HAL_Driver/Src/stm32f7xx_hal_i2c.c ****     /* Check for the Timeout */
4557:Drivers/STM32F7xx_HAL_Driver/Src/stm32f7xx_hal_i2c.c ****     if ((Timeout == 0U) || ((HAL_GetTick() - Tickstart) > Timeout))
 10069              		.loc 1 4557 0
 10070 0022 BB68     		ldr	r3, [r7, #8]
 10071 0024 002B     		cmp	r3, #0
 10072 0026 07D0     		beq	.L520
 10073              		.loc 1 4557 0 is_stmt 0 discriminator 1
 10074 0028 FFF7FEFF 		bl	HAL_GetTick
 10075 002c 0246     		mov	r2, r0
 10076 002e 7B68     		ldr	r3, [r7, #4]
 10077 0030 D31A     		subs	r3, r2, r3
 10078 0032 BA68     		ldr	r2, [r7, #8]
 10079 0034 9A42     		cmp	r2, r3
 10080 0036 13D2     		bcs	.L517
 10081              	.L520:
4558:Drivers/STM32F7xx_HAL_Driver/Src/stm32f7xx_hal_i2c.c ****     {
4559:Drivers/STM32F7xx_HAL_Driver/Src/stm32f7xx_hal_i2c.c ****       hi2c->ErrorCode |= HAL_I2C_ERROR_TIMEOUT;
 10082              		.loc 1 4559 0 is_stmt 1
 10083 0038 FB68     		ldr	r3, [r7, #12]
 10084 003a 5B6C     		ldr	r3, [r3, #68]
 10085 003c 43F02002 		orr	r2, r3, #32
 10086 0040 FB68     		ldr	r3, [r7, #12]
 10087 0042 5A64     		str	r2, [r3, #68]
4560:Drivers/STM32F7xx_HAL_Driver/Src/stm32f7xx_hal_i2c.c ****       hi2c->State = HAL_I2C_STATE_READY;
 10088              		.loc 1 4560 0
 10089 0044 FB68     		ldr	r3, [r7, #12]
 10090 0046 2022     		movs	r2, #32
 10091 0048 83F84120 		strb	r2, [r3, #65]
4561:Drivers/STM32F7xx_HAL_Driver/Src/stm32f7xx_hal_i2c.c ****       hi2c->Mode = HAL_I2C_MODE_NONE;
 10092              		.loc 1 4561 0
 10093 004c FB68     		ldr	r3, [r7, #12]
 10094 004e 0022     		movs	r2, #0
 10095 0050 83F84220 		strb	r2, [r3, #66]
4562:Drivers/STM32F7xx_HAL_Driver/Src/stm32f7xx_hal_i2c.c **** 
4563:Drivers/STM32F7xx_HAL_Driver/Src/stm32f7xx_hal_i2c.c ****       /* Process Unlocked */
4564:Drivers/STM32F7xx_HAL_Driver/Src/stm32f7xx_hal_i2c.c ****       __HAL_UNLOCK(hi2c);
 10096              		.loc 1 4564 0
 10097 0054 FB68     		ldr	r3, [r7, #12]
 10098 0056 0022     		movs	r2, #0
 10099 0058 83F84020 		strb	r2, [r3, #64]
4565:Drivers/STM32F7xx_HAL_Driver/Src/stm32f7xx_hal_i2c.c **** 
4566:Drivers/STM32F7xx_HAL_Driver/Src/stm32f7xx_hal_i2c.c ****       return HAL_TIMEOUT;
 10100              		.loc 1 4566 0
 10101 005c 0323     		movs	r3, #3
 10102 005e 07E0     		b	.L519
 10103              	.L517:
4548:Drivers/STM32F7xx_HAL_Driver/Src/stm32f7xx_hal_i2c.c ****   {
 10104              		.loc 1 4548 0
 10105 0060 FB68     		ldr	r3, [r7, #12]
 10106 0062 1B68     		ldr	r3, [r3]
 10107 0064 9B69     		ldr	r3, [r3, #24]
 10108 0066 03F02003 		and	r3, r3, #32
 10109 006a 202B     		cmp	r3, #32
 10110 006c CFD1     		bne	.L521
4567:Drivers/STM32F7xx_HAL_Driver/Src/stm32f7xx_hal_i2c.c ****     }
ARM GAS  /var/folders/n8/cvzdcwlj0vl4g_wtyz1ffy300000gn/T//ccBPNZvy.s 			page 258


4568:Drivers/STM32F7xx_HAL_Driver/Src/stm32f7xx_hal_i2c.c ****   }
4569:Drivers/STM32F7xx_HAL_Driver/Src/stm32f7xx_hal_i2c.c ****   return HAL_OK;
 10111              		.loc 1 4569 0
 10112 006e 0023     		movs	r3, #0
 10113              	.L519:
4570:Drivers/STM32F7xx_HAL_Driver/Src/stm32f7xx_hal_i2c.c **** }
 10114              		.loc 1 4570 0
 10115 0070 1846     		mov	r0, r3
 10116 0072 1037     		adds	r7, r7, #16
 10117              	.LCFI356:
 10118              		.cfi_def_cfa_offset 8
 10119 0074 BD46     		mov	sp, r7
 10120              	.LCFI357:
 10121              		.cfi_def_cfa_register 13
 10122              		@ sp needed
 10123 0076 80BD     		pop	{r7, pc}
 10124              		.cfi_endproc
 10125              	.LFE205:
 10127              		.section	.text.I2C_WaitOnRXNEFlagUntilTimeout,"ax",%progbits
 10128              		.align	1
 10129              		.syntax unified
 10130              		.thumb
 10131              		.thumb_func
 10132              		.fpu fpv5-sp-d16
 10134              	I2C_WaitOnRXNEFlagUntilTimeout:
 10135              	.LFB206:
4571:Drivers/STM32F7xx_HAL_Driver/Src/stm32f7xx_hal_i2c.c **** 
4572:Drivers/STM32F7xx_HAL_Driver/Src/stm32f7xx_hal_i2c.c **** /**
4573:Drivers/STM32F7xx_HAL_Driver/Src/stm32f7xx_hal_i2c.c ****   * @brief  This function handles I2C Communication Timeout for specific usage of RXNE flag.
4574:Drivers/STM32F7xx_HAL_Driver/Src/stm32f7xx_hal_i2c.c ****   * @param  hi2c Pointer to a I2C_HandleTypeDef structure that contains
4575:Drivers/STM32F7xx_HAL_Driver/Src/stm32f7xx_hal_i2c.c ****   *                the configuration information for the specified I2C.
4576:Drivers/STM32F7xx_HAL_Driver/Src/stm32f7xx_hal_i2c.c ****   * @param  Timeout Timeout duration
4577:Drivers/STM32F7xx_HAL_Driver/Src/stm32f7xx_hal_i2c.c ****   * @param  Tickstart Tick start value
4578:Drivers/STM32F7xx_HAL_Driver/Src/stm32f7xx_hal_i2c.c ****   * @retval HAL status
4579:Drivers/STM32F7xx_HAL_Driver/Src/stm32f7xx_hal_i2c.c ****   */
4580:Drivers/STM32F7xx_HAL_Driver/Src/stm32f7xx_hal_i2c.c **** static HAL_StatusTypeDef I2C_WaitOnRXNEFlagUntilTimeout(I2C_HandleTypeDef *hi2c, uint32_t Timeout, 
4581:Drivers/STM32F7xx_HAL_Driver/Src/stm32f7xx_hal_i2c.c **** {
 10136              		.loc 1 4581 0
 10137              		.cfi_startproc
 10138              		@ args = 0, pretend = 0, frame = 16
 10139              		@ frame_needed = 1, uses_anonymous_args = 0
 10140 0000 80B5     		push	{r7, lr}
 10141              	.LCFI358:
 10142              		.cfi_def_cfa_offset 8
 10143              		.cfi_offset 7, -8
 10144              		.cfi_offset 14, -4
 10145 0002 84B0     		sub	sp, sp, #16
 10146              	.LCFI359:
 10147              		.cfi_def_cfa_offset 24
 10148 0004 00AF     		add	r7, sp, #0
 10149              	.LCFI360:
 10150              		.cfi_def_cfa_register 7
 10151 0006 F860     		str	r0, [r7, #12]
 10152 0008 B960     		str	r1, [r7, #8]
 10153 000a 7A60     		str	r2, [r7, #4]
4582:Drivers/STM32F7xx_HAL_Driver/Src/stm32f7xx_hal_i2c.c ****   while (__HAL_I2C_GET_FLAG(hi2c, I2C_FLAG_RXNE) == RESET)
 10154              		.loc 1 4582 0
ARM GAS  /var/folders/n8/cvzdcwlj0vl4g_wtyz1ffy300000gn/T//ccBPNZvy.s 			page 259


 10155 000c 55E0     		b	.L523
 10156              	.L529:
4583:Drivers/STM32F7xx_HAL_Driver/Src/stm32f7xx_hal_i2c.c ****   {
4584:Drivers/STM32F7xx_HAL_Driver/Src/stm32f7xx_hal_i2c.c ****     /* Check if a NACK is detected */
4585:Drivers/STM32F7xx_HAL_Driver/Src/stm32f7xx_hal_i2c.c ****     if (I2C_IsAcknowledgeFailed(hi2c, Timeout, Tickstart) != HAL_OK)
 10157              		.loc 1 4585 0
 10158 000e 7A68     		ldr	r2, [r7, #4]
 10159 0010 B968     		ldr	r1, [r7, #8]
 10160 0012 F868     		ldr	r0, [r7, #12]
 10161 0014 FFF7FEFF 		bl	I2C_IsAcknowledgeFailed
 10162 0018 0346     		mov	r3, r0
 10163 001a 002B     		cmp	r3, #0
 10164 001c 01D0     		beq	.L524
4586:Drivers/STM32F7xx_HAL_Driver/Src/stm32f7xx_hal_i2c.c ****     {
4587:Drivers/STM32F7xx_HAL_Driver/Src/stm32f7xx_hal_i2c.c ****       return HAL_ERROR;
 10165              		.loc 1 4587 0
 10166 001e 0123     		movs	r3, #1
 10167 0020 53E0     		b	.L525
 10168              	.L524:
4588:Drivers/STM32F7xx_HAL_Driver/Src/stm32f7xx_hal_i2c.c ****     }
4589:Drivers/STM32F7xx_HAL_Driver/Src/stm32f7xx_hal_i2c.c **** 
4590:Drivers/STM32F7xx_HAL_Driver/Src/stm32f7xx_hal_i2c.c ****     /* Check if a STOPF is detected */
4591:Drivers/STM32F7xx_HAL_Driver/Src/stm32f7xx_hal_i2c.c ****     if (__HAL_I2C_GET_FLAG(hi2c, I2C_FLAG_STOPF) == SET)
 10169              		.loc 1 4591 0
 10170 0022 FB68     		ldr	r3, [r7, #12]
 10171 0024 1B68     		ldr	r3, [r3]
 10172 0026 9B69     		ldr	r3, [r3, #24]
 10173 0028 03F02003 		and	r3, r3, #32
 10174 002c 202B     		cmp	r3, #32
 10175 002e 29D1     		bne	.L526
4592:Drivers/STM32F7xx_HAL_Driver/Src/stm32f7xx_hal_i2c.c ****     {
4593:Drivers/STM32F7xx_HAL_Driver/Src/stm32f7xx_hal_i2c.c ****       /* Check if an RXNE is pending */
4594:Drivers/STM32F7xx_HAL_Driver/Src/stm32f7xx_hal_i2c.c ****       /* Store Last receive data if any */
4595:Drivers/STM32F7xx_HAL_Driver/Src/stm32f7xx_hal_i2c.c ****       if ((__HAL_I2C_GET_FLAG(hi2c, I2C_FLAG_RXNE) == SET) && (hi2c->XferSize > 0U))
 10176              		.loc 1 4595 0
 10177 0030 FB68     		ldr	r3, [r7, #12]
 10178 0032 1B68     		ldr	r3, [r3]
 10179 0034 9B69     		ldr	r3, [r3, #24]
 10180 0036 03F00403 		and	r3, r3, #4
 10181 003a 042B     		cmp	r3, #4
 10182 003c 05D1     		bne	.L527
 10183              		.loc 1 4595 0 is_stmt 0 discriminator 1
 10184 003e FB68     		ldr	r3, [r7, #12]
 10185 0040 1B8D     		ldrh	r3, [r3, #40]
 10186 0042 002B     		cmp	r3, #0
 10187 0044 01D0     		beq	.L527
4596:Drivers/STM32F7xx_HAL_Driver/Src/stm32f7xx_hal_i2c.c ****       {
4597:Drivers/STM32F7xx_HAL_Driver/Src/stm32f7xx_hal_i2c.c ****         /* Return HAL_OK */
4598:Drivers/STM32F7xx_HAL_Driver/Src/stm32f7xx_hal_i2c.c ****         /* The Reading of data from RXDR will be done in caller function */
4599:Drivers/STM32F7xx_HAL_Driver/Src/stm32f7xx_hal_i2c.c ****         return HAL_OK;
 10188              		.loc 1 4599 0 is_stmt 1
 10189 0046 0023     		movs	r3, #0
 10190 0048 3FE0     		b	.L525
 10191              	.L527:
4600:Drivers/STM32F7xx_HAL_Driver/Src/stm32f7xx_hal_i2c.c ****       }
4601:Drivers/STM32F7xx_HAL_Driver/Src/stm32f7xx_hal_i2c.c ****       else
4602:Drivers/STM32F7xx_HAL_Driver/Src/stm32f7xx_hal_i2c.c ****       {
ARM GAS  /var/folders/n8/cvzdcwlj0vl4g_wtyz1ffy300000gn/T//ccBPNZvy.s 			page 260


4603:Drivers/STM32F7xx_HAL_Driver/Src/stm32f7xx_hal_i2c.c ****         /* Clear STOP Flag */
4604:Drivers/STM32F7xx_HAL_Driver/Src/stm32f7xx_hal_i2c.c ****         __HAL_I2C_CLEAR_FLAG(hi2c, I2C_FLAG_STOPF);
 10192              		.loc 1 4604 0
 10193 004a FB68     		ldr	r3, [r7, #12]
 10194 004c 1B68     		ldr	r3, [r3]
 10195 004e 2022     		movs	r2, #32
 10196 0050 DA61     		str	r2, [r3, #28]
4605:Drivers/STM32F7xx_HAL_Driver/Src/stm32f7xx_hal_i2c.c **** 
4606:Drivers/STM32F7xx_HAL_Driver/Src/stm32f7xx_hal_i2c.c ****         /* Clear Configuration Register 2 */
4607:Drivers/STM32F7xx_HAL_Driver/Src/stm32f7xx_hal_i2c.c ****         I2C_RESET_CR2(hi2c);
 10197              		.loc 1 4607 0
 10198 0052 FB68     		ldr	r3, [r7, #12]
 10199 0054 1B68     		ldr	r3, [r3]
 10200 0056 5968     		ldr	r1, [r3, #4]
 10201 0058 FB68     		ldr	r3, [r7, #12]
 10202 005a 1A68     		ldr	r2, [r3]
 10203 005c 1D4B     		ldr	r3, .L530
 10204 005e 0B40     		ands	r3, r3, r1
 10205 0060 5360     		str	r3, [r2, #4]
4608:Drivers/STM32F7xx_HAL_Driver/Src/stm32f7xx_hal_i2c.c **** 
4609:Drivers/STM32F7xx_HAL_Driver/Src/stm32f7xx_hal_i2c.c ****         hi2c->ErrorCode = HAL_I2C_ERROR_NONE;
 10206              		.loc 1 4609 0
 10207 0062 FB68     		ldr	r3, [r7, #12]
 10208 0064 0022     		movs	r2, #0
 10209 0066 5A64     		str	r2, [r3, #68]
4610:Drivers/STM32F7xx_HAL_Driver/Src/stm32f7xx_hal_i2c.c ****         hi2c->State = HAL_I2C_STATE_READY;
 10210              		.loc 1 4610 0
 10211 0068 FB68     		ldr	r3, [r7, #12]
 10212 006a 2022     		movs	r2, #32
 10213 006c 83F84120 		strb	r2, [r3, #65]
4611:Drivers/STM32F7xx_HAL_Driver/Src/stm32f7xx_hal_i2c.c ****         hi2c->Mode = HAL_I2C_MODE_NONE;
 10214              		.loc 1 4611 0
 10215 0070 FB68     		ldr	r3, [r7, #12]
 10216 0072 0022     		movs	r2, #0
 10217 0074 83F84220 		strb	r2, [r3, #66]
4612:Drivers/STM32F7xx_HAL_Driver/Src/stm32f7xx_hal_i2c.c **** 
4613:Drivers/STM32F7xx_HAL_Driver/Src/stm32f7xx_hal_i2c.c ****         /* Process Unlocked */
4614:Drivers/STM32F7xx_HAL_Driver/Src/stm32f7xx_hal_i2c.c ****         __HAL_UNLOCK(hi2c);
 10218              		.loc 1 4614 0
 10219 0078 FB68     		ldr	r3, [r7, #12]
 10220 007a 0022     		movs	r2, #0
 10221 007c 83F84020 		strb	r2, [r3, #64]
4615:Drivers/STM32F7xx_HAL_Driver/Src/stm32f7xx_hal_i2c.c **** 
4616:Drivers/STM32F7xx_HAL_Driver/Src/stm32f7xx_hal_i2c.c ****         return HAL_ERROR;
 10222              		.loc 1 4616 0
 10223 0080 0123     		movs	r3, #1
 10224 0082 22E0     		b	.L525
 10225              	.L526:
4617:Drivers/STM32F7xx_HAL_Driver/Src/stm32f7xx_hal_i2c.c ****       }
4618:Drivers/STM32F7xx_HAL_Driver/Src/stm32f7xx_hal_i2c.c ****     }
4619:Drivers/STM32F7xx_HAL_Driver/Src/stm32f7xx_hal_i2c.c **** 
4620:Drivers/STM32F7xx_HAL_Driver/Src/stm32f7xx_hal_i2c.c ****     /* Check for the Timeout */
4621:Drivers/STM32F7xx_HAL_Driver/Src/stm32f7xx_hal_i2c.c ****     if ((Timeout == 0U) || ((HAL_GetTick() - Tickstart) > Timeout))
 10226              		.loc 1 4621 0
 10227 0084 BB68     		ldr	r3, [r7, #8]
 10228 0086 002B     		cmp	r3, #0
 10229 0088 07D0     		beq	.L528
ARM GAS  /var/folders/n8/cvzdcwlj0vl4g_wtyz1ffy300000gn/T//ccBPNZvy.s 			page 261


 10230              		.loc 1 4621 0 is_stmt 0 discriminator 1
 10231 008a FFF7FEFF 		bl	HAL_GetTick
 10232 008e 0246     		mov	r2, r0
 10233 0090 7B68     		ldr	r3, [r7, #4]
 10234 0092 D31A     		subs	r3, r2, r3
 10235 0094 BA68     		ldr	r2, [r7, #8]
 10236 0096 9A42     		cmp	r2, r3
 10237 0098 0FD2     		bcs	.L523
 10238              	.L528:
4622:Drivers/STM32F7xx_HAL_Driver/Src/stm32f7xx_hal_i2c.c ****     {
4623:Drivers/STM32F7xx_HAL_Driver/Src/stm32f7xx_hal_i2c.c ****       hi2c->ErrorCode |= HAL_I2C_ERROR_TIMEOUT;
 10239              		.loc 1 4623 0 is_stmt 1
 10240 009a FB68     		ldr	r3, [r7, #12]
 10241 009c 5B6C     		ldr	r3, [r3, #68]
 10242 009e 43F02002 		orr	r2, r3, #32
 10243 00a2 FB68     		ldr	r3, [r7, #12]
 10244 00a4 5A64     		str	r2, [r3, #68]
4624:Drivers/STM32F7xx_HAL_Driver/Src/stm32f7xx_hal_i2c.c ****       hi2c->State = HAL_I2C_STATE_READY;
 10245              		.loc 1 4624 0
 10246 00a6 FB68     		ldr	r3, [r7, #12]
 10247 00a8 2022     		movs	r2, #32
 10248 00aa 83F84120 		strb	r2, [r3, #65]
4625:Drivers/STM32F7xx_HAL_Driver/Src/stm32f7xx_hal_i2c.c **** 
4626:Drivers/STM32F7xx_HAL_Driver/Src/stm32f7xx_hal_i2c.c ****       /* Process Unlocked */
4627:Drivers/STM32F7xx_HAL_Driver/Src/stm32f7xx_hal_i2c.c ****       __HAL_UNLOCK(hi2c);
 10249              		.loc 1 4627 0
 10250 00ae FB68     		ldr	r3, [r7, #12]
 10251 00b0 0022     		movs	r2, #0
 10252 00b2 83F84020 		strb	r2, [r3, #64]
4628:Drivers/STM32F7xx_HAL_Driver/Src/stm32f7xx_hal_i2c.c **** 
4629:Drivers/STM32F7xx_HAL_Driver/Src/stm32f7xx_hal_i2c.c ****       return HAL_TIMEOUT;
 10253              		.loc 1 4629 0
 10254 00b6 0323     		movs	r3, #3
 10255 00b8 07E0     		b	.L525
 10256              	.L523:
4582:Drivers/STM32F7xx_HAL_Driver/Src/stm32f7xx_hal_i2c.c ****   {
 10257              		.loc 1 4582 0
 10258 00ba FB68     		ldr	r3, [r7, #12]
 10259 00bc 1B68     		ldr	r3, [r3]
 10260 00be 9B69     		ldr	r3, [r3, #24]
 10261 00c0 03F00403 		and	r3, r3, #4
 10262 00c4 042B     		cmp	r3, #4
 10263 00c6 A2D1     		bne	.L529
4630:Drivers/STM32F7xx_HAL_Driver/Src/stm32f7xx_hal_i2c.c ****     }
4631:Drivers/STM32F7xx_HAL_Driver/Src/stm32f7xx_hal_i2c.c ****   }
4632:Drivers/STM32F7xx_HAL_Driver/Src/stm32f7xx_hal_i2c.c ****   return HAL_OK;
 10264              		.loc 1 4632 0
 10265 00c8 0023     		movs	r3, #0
 10266              	.L525:
4633:Drivers/STM32F7xx_HAL_Driver/Src/stm32f7xx_hal_i2c.c **** }
 10267              		.loc 1 4633 0
 10268 00ca 1846     		mov	r0, r3
 10269 00cc 1037     		adds	r7, r7, #16
 10270              	.LCFI361:
 10271              		.cfi_def_cfa_offset 8
 10272 00ce BD46     		mov	sp, r7
 10273              	.LCFI362:
ARM GAS  /var/folders/n8/cvzdcwlj0vl4g_wtyz1ffy300000gn/T//ccBPNZvy.s 			page 262


 10274              		.cfi_def_cfa_register 13
 10275              		@ sp needed
 10276 00d0 80BD     		pop	{r7, pc}
 10277              	.L531:
 10278 00d2 00BF     		.align	2
 10279              	.L530:
 10280 00d4 00E800FE 		.word	-33495040
 10281              		.cfi_endproc
 10282              	.LFE206:
 10284              		.section	.text.I2C_IsAcknowledgeFailed,"ax",%progbits
 10285              		.align	1
 10286              		.syntax unified
 10287              		.thumb
 10288              		.thumb_func
 10289              		.fpu fpv5-sp-d16
 10291              	I2C_IsAcknowledgeFailed:
 10292              	.LFB207:
4634:Drivers/STM32F7xx_HAL_Driver/Src/stm32f7xx_hal_i2c.c **** 
4635:Drivers/STM32F7xx_HAL_Driver/Src/stm32f7xx_hal_i2c.c **** /**
4636:Drivers/STM32F7xx_HAL_Driver/Src/stm32f7xx_hal_i2c.c ****   * @brief  This function handles Acknowledge failed detection during an I2C Communication.
4637:Drivers/STM32F7xx_HAL_Driver/Src/stm32f7xx_hal_i2c.c ****   * @param  hi2c Pointer to a I2C_HandleTypeDef structure that contains
4638:Drivers/STM32F7xx_HAL_Driver/Src/stm32f7xx_hal_i2c.c ****   *                the configuration information for the specified I2C.
4639:Drivers/STM32F7xx_HAL_Driver/Src/stm32f7xx_hal_i2c.c ****   * @param  Timeout Timeout duration
4640:Drivers/STM32F7xx_HAL_Driver/Src/stm32f7xx_hal_i2c.c ****   * @param  Tickstart Tick start value
4641:Drivers/STM32F7xx_HAL_Driver/Src/stm32f7xx_hal_i2c.c ****   * @retval HAL status
4642:Drivers/STM32F7xx_HAL_Driver/Src/stm32f7xx_hal_i2c.c ****   */
4643:Drivers/STM32F7xx_HAL_Driver/Src/stm32f7xx_hal_i2c.c **** static HAL_StatusTypeDef I2C_IsAcknowledgeFailed(I2C_HandleTypeDef *hi2c, uint32_t Timeout, uint32_
4644:Drivers/STM32F7xx_HAL_Driver/Src/stm32f7xx_hal_i2c.c **** {
 10293              		.loc 1 4644 0
 10294              		.cfi_startproc
 10295              		@ args = 0, pretend = 0, frame = 16
 10296              		@ frame_needed = 1, uses_anonymous_args = 0
 10297 0000 80B5     		push	{r7, lr}
 10298              	.LCFI363:
 10299              		.cfi_def_cfa_offset 8
 10300              		.cfi_offset 7, -8
 10301              		.cfi_offset 14, -4
 10302 0002 84B0     		sub	sp, sp, #16
 10303              	.LCFI364:
 10304              		.cfi_def_cfa_offset 24
 10305 0004 00AF     		add	r7, sp, #0
 10306              	.LCFI365:
 10307              		.cfi_def_cfa_register 7
 10308 0006 F860     		str	r0, [r7, #12]
 10309 0008 B960     		str	r1, [r7, #8]
 10310 000a 7A60     		str	r2, [r7, #4]
4645:Drivers/STM32F7xx_HAL_Driver/Src/stm32f7xx_hal_i2c.c ****   if (__HAL_I2C_GET_FLAG(hi2c, I2C_FLAG_AF) == SET)
 10311              		.loc 1 4645 0
 10312 000c FB68     		ldr	r3, [r7, #12]
 10313 000e 1B68     		ldr	r3, [r3]
 10314 0010 9B69     		ldr	r3, [r3, #24]
 10315 0012 03F01003 		and	r3, r3, #16
 10316 0016 102B     		cmp	r3, #16
 10317 0018 48D1     		bne	.L533
4646:Drivers/STM32F7xx_HAL_Driver/Src/stm32f7xx_hal_i2c.c ****   {
4647:Drivers/STM32F7xx_HAL_Driver/Src/stm32f7xx_hal_i2c.c ****     /* Wait until STOP Flag is reset */
4648:Drivers/STM32F7xx_HAL_Driver/Src/stm32f7xx_hal_i2c.c ****     /* AutoEnd should be initiate after AF */
ARM GAS  /var/folders/n8/cvzdcwlj0vl4g_wtyz1ffy300000gn/T//ccBPNZvy.s 			page 263


4649:Drivers/STM32F7xx_HAL_Driver/Src/stm32f7xx_hal_i2c.c ****     while (__HAL_I2C_GET_FLAG(hi2c, I2C_FLAG_STOPF) == RESET)
 10318              		.loc 1 4649 0
 10319 001a 1CE0     		b	.L534
 10320              	.L537:
4650:Drivers/STM32F7xx_HAL_Driver/Src/stm32f7xx_hal_i2c.c ****     {
4651:Drivers/STM32F7xx_HAL_Driver/Src/stm32f7xx_hal_i2c.c ****       /* Check for the Timeout */
4652:Drivers/STM32F7xx_HAL_Driver/Src/stm32f7xx_hal_i2c.c ****       if (Timeout != HAL_MAX_DELAY)
 10321              		.loc 1 4652 0
 10322 001c BB68     		ldr	r3, [r7, #8]
 10323 001e B3F1FF3F 		cmp	r3, #-1
 10324 0022 18D0     		beq	.L534
4653:Drivers/STM32F7xx_HAL_Driver/Src/stm32f7xx_hal_i2c.c ****       {
4654:Drivers/STM32F7xx_HAL_Driver/Src/stm32f7xx_hal_i2c.c ****         if ((Timeout == 0U) || ((HAL_GetTick() - Tickstart) > Timeout))
 10325              		.loc 1 4654 0
 10326 0024 BB68     		ldr	r3, [r7, #8]
 10327 0026 002B     		cmp	r3, #0
 10328 0028 07D0     		beq	.L535
 10329              		.loc 1 4654 0 is_stmt 0 discriminator 1
 10330 002a FFF7FEFF 		bl	HAL_GetTick
 10331 002e 0246     		mov	r2, r0
 10332 0030 7B68     		ldr	r3, [r7, #4]
 10333 0032 D31A     		subs	r3, r2, r3
 10334 0034 BA68     		ldr	r2, [r7, #8]
 10335 0036 9A42     		cmp	r2, r3
 10336 0038 0DD2     		bcs	.L534
 10337              	.L535:
4655:Drivers/STM32F7xx_HAL_Driver/Src/stm32f7xx_hal_i2c.c ****         {
4656:Drivers/STM32F7xx_HAL_Driver/Src/stm32f7xx_hal_i2c.c ****           hi2c->State = HAL_I2C_STATE_READY;
 10338              		.loc 1 4656 0 is_stmt 1
 10339 003a FB68     		ldr	r3, [r7, #12]
 10340 003c 2022     		movs	r2, #32
 10341 003e 83F84120 		strb	r2, [r3, #65]
4657:Drivers/STM32F7xx_HAL_Driver/Src/stm32f7xx_hal_i2c.c ****           hi2c->Mode = HAL_I2C_MODE_NONE;
 10342              		.loc 1 4657 0
 10343 0042 FB68     		ldr	r3, [r7, #12]
 10344 0044 0022     		movs	r2, #0
 10345 0046 83F84220 		strb	r2, [r3, #66]
4658:Drivers/STM32F7xx_HAL_Driver/Src/stm32f7xx_hal_i2c.c **** 
4659:Drivers/STM32F7xx_HAL_Driver/Src/stm32f7xx_hal_i2c.c ****           /* Process Unlocked */
4660:Drivers/STM32F7xx_HAL_Driver/Src/stm32f7xx_hal_i2c.c ****           __HAL_UNLOCK(hi2c);
 10346              		.loc 1 4660 0
 10347 004a FB68     		ldr	r3, [r7, #12]
 10348 004c 0022     		movs	r2, #0
 10349 004e 83F84020 		strb	r2, [r3, #64]
4661:Drivers/STM32F7xx_HAL_Driver/Src/stm32f7xx_hal_i2c.c ****           return HAL_TIMEOUT;
 10350              		.loc 1 4661 0
 10351 0052 0323     		movs	r3, #3
 10352 0054 2BE0     		b	.L536
 10353              	.L534:
4649:Drivers/STM32F7xx_HAL_Driver/Src/stm32f7xx_hal_i2c.c ****     {
 10354              		.loc 1 4649 0
 10355 0056 FB68     		ldr	r3, [r7, #12]
 10356 0058 1B68     		ldr	r3, [r3]
 10357 005a 9B69     		ldr	r3, [r3, #24]
 10358 005c 03F02003 		and	r3, r3, #32
 10359 0060 202B     		cmp	r3, #32
 10360 0062 DBD1     		bne	.L537
ARM GAS  /var/folders/n8/cvzdcwlj0vl4g_wtyz1ffy300000gn/T//ccBPNZvy.s 			page 264


4662:Drivers/STM32F7xx_HAL_Driver/Src/stm32f7xx_hal_i2c.c ****         }
4663:Drivers/STM32F7xx_HAL_Driver/Src/stm32f7xx_hal_i2c.c ****       }
4664:Drivers/STM32F7xx_HAL_Driver/Src/stm32f7xx_hal_i2c.c ****     }
4665:Drivers/STM32F7xx_HAL_Driver/Src/stm32f7xx_hal_i2c.c **** 
4666:Drivers/STM32F7xx_HAL_Driver/Src/stm32f7xx_hal_i2c.c ****     /* Clear NACKF Flag */
4667:Drivers/STM32F7xx_HAL_Driver/Src/stm32f7xx_hal_i2c.c ****     __HAL_I2C_CLEAR_FLAG(hi2c, I2C_FLAG_AF);
 10361              		.loc 1 4667 0
 10362 0064 FB68     		ldr	r3, [r7, #12]
 10363 0066 1B68     		ldr	r3, [r3]
 10364 0068 1022     		movs	r2, #16
 10365 006a DA61     		str	r2, [r3, #28]
4668:Drivers/STM32F7xx_HAL_Driver/Src/stm32f7xx_hal_i2c.c **** 
4669:Drivers/STM32F7xx_HAL_Driver/Src/stm32f7xx_hal_i2c.c ****     /* Clear STOP Flag */
4670:Drivers/STM32F7xx_HAL_Driver/Src/stm32f7xx_hal_i2c.c ****     __HAL_I2C_CLEAR_FLAG(hi2c, I2C_FLAG_STOPF);
 10366              		.loc 1 4670 0
 10367 006c FB68     		ldr	r3, [r7, #12]
 10368 006e 1B68     		ldr	r3, [r3]
 10369 0070 2022     		movs	r2, #32
 10370 0072 DA61     		str	r2, [r3, #28]
4671:Drivers/STM32F7xx_HAL_Driver/Src/stm32f7xx_hal_i2c.c **** 
4672:Drivers/STM32F7xx_HAL_Driver/Src/stm32f7xx_hal_i2c.c ****     /* Flush TX register */
4673:Drivers/STM32F7xx_HAL_Driver/Src/stm32f7xx_hal_i2c.c ****     I2C_Flush_TXDR(hi2c);
 10371              		.loc 1 4673 0
 10372 0074 F868     		ldr	r0, [r7, #12]
 10373 0076 FFF7FEFF 		bl	I2C_Flush_TXDR
4674:Drivers/STM32F7xx_HAL_Driver/Src/stm32f7xx_hal_i2c.c **** 
4675:Drivers/STM32F7xx_HAL_Driver/Src/stm32f7xx_hal_i2c.c ****     /* Clear Configuration Register 2 */
4676:Drivers/STM32F7xx_HAL_Driver/Src/stm32f7xx_hal_i2c.c ****     I2C_RESET_CR2(hi2c);
 10374              		.loc 1 4676 0
 10375 007a FB68     		ldr	r3, [r7, #12]
 10376 007c 1B68     		ldr	r3, [r3]
 10377 007e 5968     		ldr	r1, [r3, #4]
 10378 0080 FB68     		ldr	r3, [r7, #12]
 10379 0082 1A68     		ldr	r2, [r3]
 10380 0084 0C4B     		ldr	r3, .L538
 10381 0086 0B40     		ands	r3, r3, r1
 10382 0088 5360     		str	r3, [r2, #4]
4677:Drivers/STM32F7xx_HAL_Driver/Src/stm32f7xx_hal_i2c.c **** 
4678:Drivers/STM32F7xx_HAL_Driver/Src/stm32f7xx_hal_i2c.c ****     hi2c->ErrorCode = HAL_I2C_ERROR_AF;
 10383              		.loc 1 4678 0
 10384 008a FB68     		ldr	r3, [r7, #12]
 10385 008c 0422     		movs	r2, #4
 10386 008e 5A64     		str	r2, [r3, #68]
4679:Drivers/STM32F7xx_HAL_Driver/Src/stm32f7xx_hal_i2c.c ****     hi2c->State = HAL_I2C_STATE_READY;
 10387              		.loc 1 4679 0
 10388 0090 FB68     		ldr	r3, [r7, #12]
 10389 0092 2022     		movs	r2, #32
 10390 0094 83F84120 		strb	r2, [r3, #65]
4680:Drivers/STM32F7xx_HAL_Driver/Src/stm32f7xx_hal_i2c.c ****     hi2c->Mode = HAL_I2C_MODE_NONE;
 10391              		.loc 1 4680 0
 10392 0098 FB68     		ldr	r3, [r7, #12]
 10393 009a 0022     		movs	r2, #0
 10394 009c 83F84220 		strb	r2, [r3, #66]
4681:Drivers/STM32F7xx_HAL_Driver/Src/stm32f7xx_hal_i2c.c **** 
4682:Drivers/STM32F7xx_HAL_Driver/Src/stm32f7xx_hal_i2c.c ****     /* Process Unlocked */
4683:Drivers/STM32F7xx_HAL_Driver/Src/stm32f7xx_hal_i2c.c ****     __HAL_UNLOCK(hi2c);
 10395              		.loc 1 4683 0
ARM GAS  /var/folders/n8/cvzdcwlj0vl4g_wtyz1ffy300000gn/T//ccBPNZvy.s 			page 265


 10396 00a0 FB68     		ldr	r3, [r7, #12]
 10397 00a2 0022     		movs	r2, #0
 10398 00a4 83F84020 		strb	r2, [r3, #64]
4684:Drivers/STM32F7xx_HAL_Driver/Src/stm32f7xx_hal_i2c.c **** 
4685:Drivers/STM32F7xx_HAL_Driver/Src/stm32f7xx_hal_i2c.c ****     return HAL_ERROR;
 10399              		.loc 1 4685 0
 10400 00a8 0123     		movs	r3, #1
 10401 00aa 00E0     		b	.L536
 10402              	.L533:
4686:Drivers/STM32F7xx_HAL_Driver/Src/stm32f7xx_hal_i2c.c ****   }
4687:Drivers/STM32F7xx_HAL_Driver/Src/stm32f7xx_hal_i2c.c ****   return HAL_OK;
 10403              		.loc 1 4687 0
 10404 00ac 0023     		movs	r3, #0
 10405              	.L536:
4688:Drivers/STM32F7xx_HAL_Driver/Src/stm32f7xx_hal_i2c.c **** }
 10406              		.loc 1 4688 0
 10407 00ae 1846     		mov	r0, r3
 10408 00b0 1037     		adds	r7, r7, #16
 10409              	.LCFI366:
 10410              		.cfi_def_cfa_offset 8
 10411 00b2 BD46     		mov	sp, r7
 10412              	.LCFI367:
 10413              		.cfi_def_cfa_register 13
 10414              		@ sp needed
 10415 00b4 80BD     		pop	{r7, pc}
 10416              	.L539:
 10417 00b6 00BF     		.align	2
 10418              	.L538:
 10419 00b8 00E800FE 		.word	-33495040
 10420              		.cfi_endproc
 10421              	.LFE207:
 10423              		.section	.text.I2C_TransferConfig,"ax",%progbits
 10424              		.align	1
 10425              		.syntax unified
 10426              		.thumb
 10427              		.thumb_func
 10428              		.fpu fpv5-sp-d16
 10430              	I2C_TransferConfig:
 10431              	.LFB208:
4689:Drivers/STM32F7xx_HAL_Driver/Src/stm32f7xx_hal_i2c.c **** 
4690:Drivers/STM32F7xx_HAL_Driver/Src/stm32f7xx_hal_i2c.c **** /**
4691:Drivers/STM32F7xx_HAL_Driver/Src/stm32f7xx_hal_i2c.c ****   * @brief  Handles I2Cx communication when starting transfer or during transfer (TC or TCR flag ar
4692:Drivers/STM32F7xx_HAL_Driver/Src/stm32f7xx_hal_i2c.c ****   * @param  hi2c I2C handle.
4693:Drivers/STM32F7xx_HAL_Driver/Src/stm32f7xx_hal_i2c.c ****   * @param  DevAddress Specifies the slave address to be programmed.
4694:Drivers/STM32F7xx_HAL_Driver/Src/stm32f7xx_hal_i2c.c ****   * @param  Size Specifies the number of bytes to be programmed.
4695:Drivers/STM32F7xx_HAL_Driver/Src/stm32f7xx_hal_i2c.c ****   *   This parameter must be a value between 0 and 255.
4696:Drivers/STM32F7xx_HAL_Driver/Src/stm32f7xx_hal_i2c.c ****   * @param  Mode New state of the I2C START condition generation.
4697:Drivers/STM32F7xx_HAL_Driver/Src/stm32f7xx_hal_i2c.c ****   *   This parameter can be one of the following values:
4698:Drivers/STM32F7xx_HAL_Driver/Src/stm32f7xx_hal_i2c.c ****   *     @arg @ref I2C_RELOAD_MODE Enable Reload mode .
4699:Drivers/STM32F7xx_HAL_Driver/Src/stm32f7xx_hal_i2c.c ****   *     @arg @ref I2C_AUTOEND_MODE Enable Automatic end mode.
4700:Drivers/STM32F7xx_HAL_Driver/Src/stm32f7xx_hal_i2c.c ****   *     @arg @ref I2C_SOFTEND_MODE Enable Software end mode.
4701:Drivers/STM32F7xx_HAL_Driver/Src/stm32f7xx_hal_i2c.c ****   * @param  Request New state of the I2C START condition generation.
4702:Drivers/STM32F7xx_HAL_Driver/Src/stm32f7xx_hal_i2c.c ****   *   This parameter can be one of the following values:
4703:Drivers/STM32F7xx_HAL_Driver/Src/stm32f7xx_hal_i2c.c ****   *     @arg @ref I2C_NO_STARTSTOP Don't Generate stop and start condition.
4704:Drivers/STM32F7xx_HAL_Driver/Src/stm32f7xx_hal_i2c.c ****   *     @arg @ref I2C_GENERATE_STOP Generate stop condition (Size should be set to 0).
4705:Drivers/STM32F7xx_HAL_Driver/Src/stm32f7xx_hal_i2c.c ****   *     @arg @ref I2C_GENERATE_START_READ Generate Restart for read request.
4706:Drivers/STM32F7xx_HAL_Driver/Src/stm32f7xx_hal_i2c.c ****   *     @arg @ref I2C_GENERATE_START_WRITE Generate Restart for write request.
ARM GAS  /var/folders/n8/cvzdcwlj0vl4g_wtyz1ffy300000gn/T//ccBPNZvy.s 			page 266


4707:Drivers/STM32F7xx_HAL_Driver/Src/stm32f7xx_hal_i2c.c ****   * @retval None
4708:Drivers/STM32F7xx_HAL_Driver/Src/stm32f7xx_hal_i2c.c ****   */
4709:Drivers/STM32F7xx_HAL_Driver/Src/stm32f7xx_hal_i2c.c **** static void I2C_TransferConfig(I2C_HandleTypeDef *hi2c,  uint16_t DevAddress, uint8_t Size, uint32_
4710:Drivers/STM32F7xx_HAL_Driver/Src/stm32f7xx_hal_i2c.c **** {
 10432              		.loc 1 4710 0
 10433              		.cfi_startproc
 10434              		@ args = 4, pretend = 0, frame = 16
 10435              		@ frame_needed = 1, uses_anonymous_args = 0
 10436              		@ link register save eliminated.
 10437 0000 80B4     		push	{r7}
 10438              	.LCFI368:
 10439              		.cfi_def_cfa_offset 4
 10440              		.cfi_offset 7, -4
 10441 0002 85B0     		sub	sp, sp, #20
 10442              	.LCFI369:
 10443              		.cfi_def_cfa_offset 24
 10444 0004 00AF     		add	r7, sp, #0
 10445              	.LCFI370:
 10446              		.cfi_def_cfa_register 7
 10447 0006 F860     		str	r0, [r7, #12]
 10448 0008 7B60     		str	r3, [r7, #4]
 10449 000a 0B46     		mov	r3, r1	@ movhi
 10450 000c 7B81     		strh	r3, [r7, #10]	@ movhi
 10451 000e 1346     		mov	r3, r2
 10452 0010 7B72     		strb	r3, [r7, #9]
4711:Drivers/STM32F7xx_HAL_Driver/Src/stm32f7xx_hal_i2c.c ****   /* Check the parameters */
4712:Drivers/STM32F7xx_HAL_Driver/Src/stm32f7xx_hal_i2c.c ****   assert_param(IS_I2C_ALL_INSTANCE(hi2c->Instance));
4713:Drivers/STM32F7xx_HAL_Driver/Src/stm32f7xx_hal_i2c.c ****   assert_param(IS_TRANSFER_MODE(Mode));
4714:Drivers/STM32F7xx_HAL_Driver/Src/stm32f7xx_hal_i2c.c ****   assert_param(IS_TRANSFER_REQUEST(Request));
4715:Drivers/STM32F7xx_HAL_Driver/Src/stm32f7xx_hal_i2c.c **** 
4716:Drivers/STM32F7xx_HAL_Driver/Src/stm32f7xx_hal_i2c.c ****   /* update CR2 register */
4717:Drivers/STM32F7xx_HAL_Driver/Src/stm32f7xx_hal_i2c.c ****   MODIFY_REG(hi2c->Instance->CR2, ((I2C_CR2_SADD | I2C_CR2_NBYTES | I2C_CR2_RELOAD | I2C_CR2_AUTOEN
 10453              		.loc 1 4717 0
 10454 0012 FB68     		ldr	r3, [r7, #12]
 10455 0014 1B68     		ldr	r3, [r3]
 10456 0016 5A68     		ldr	r2, [r3, #4]
 10457 0018 BB69     		ldr	r3, [r7, #24]
 10458 001a 5B0D     		lsrs	r3, r3, #21
 10459 001c 03F48061 		and	r1, r3, #1024
 10460 0020 0D4B     		ldr	r3, .L541
 10461 0022 0B43     		orrs	r3, r3, r1
 10462 0024 DB43     		mvns	r3, r3
 10463 0026 02EA0301 		and	r1, r2, r3
 10464 002a 7B89     		ldrh	r3, [r7, #10]
 10465 002c C3F30902 		ubfx	r2, r3, #0, #10
 10466 0030 7B7A     		ldrb	r3, [r7, #9]	@ zero_extendqisi2
 10467 0032 1B04     		lsls	r3, r3, #16
 10468 0034 03F47F03 		and	r3, r3, #16711680
 10469 0038 1A43     		orrs	r2, r2, r3
 10470 003a 7B68     		ldr	r3, [r7, #4]
 10471 003c 1A43     		orrs	r2, r2, r3
 10472 003e BB69     		ldr	r3, [r7, #24]
 10473 0040 1A43     		orrs	r2, r2, r3
 10474 0042 FB68     		ldr	r3, [r7, #12]
 10475 0044 1B68     		ldr	r3, [r3]
 10476 0046 0A43     		orrs	r2, r2, r1
 10477 0048 5A60     		str	r2, [r3, #4]
ARM GAS  /var/folders/n8/cvzdcwlj0vl4g_wtyz1ffy300000gn/T//ccBPNZvy.s 			page 267


4718:Drivers/STM32F7xx_HAL_Driver/Src/stm32f7xx_hal_i2c.c ****              (uint32_t)(((uint32_t)DevAddress & I2C_CR2_SADD) | (((uint32_t)Size << I2C_CR2_NBYTES_
4719:Drivers/STM32F7xx_HAL_Driver/Src/stm32f7xx_hal_i2c.c **** }
 10478              		.loc 1 4719 0
 10479 004a 00BF     		nop
 10480 004c 1437     		adds	r7, r7, #20
 10481              	.LCFI371:
 10482              		.cfi_def_cfa_offset 4
 10483 004e BD46     		mov	sp, r7
 10484              	.LCFI372:
 10485              		.cfi_def_cfa_register 13
 10486              		@ sp needed
 10487 0050 5DF8047B 		ldr	r7, [sp], #4
 10488              	.LCFI373:
 10489              		.cfi_restore 7
 10490              		.cfi_def_cfa_offset 0
 10491 0054 7047     		bx	lr
 10492              	.L542:
 10493 0056 00BF     		.align	2
 10494              	.L541:
 10495 0058 FF63FF03 		.word	67068927
 10496              		.cfi_endproc
 10497              	.LFE208:
 10499              		.section	.text.I2C_Enable_IRQ,"ax",%progbits
 10500              		.align	1
 10501              		.syntax unified
 10502              		.thumb
 10503              		.thumb_func
 10504              		.fpu fpv5-sp-d16
 10506              	I2C_Enable_IRQ:
 10507              	.LFB209:
4720:Drivers/STM32F7xx_HAL_Driver/Src/stm32f7xx_hal_i2c.c **** 
4721:Drivers/STM32F7xx_HAL_Driver/Src/stm32f7xx_hal_i2c.c **** /**
4722:Drivers/STM32F7xx_HAL_Driver/Src/stm32f7xx_hal_i2c.c ****   * @brief  Manage the enabling of Interrupts.
4723:Drivers/STM32F7xx_HAL_Driver/Src/stm32f7xx_hal_i2c.c ****   * @param  hi2c Pointer to a I2C_HandleTypeDef structure that contains
4724:Drivers/STM32F7xx_HAL_Driver/Src/stm32f7xx_hal_i2c.c ****   *                the configuration information for the specified I2C.
4725:Drivers/STM32F7xx_HAL_Driver/Src/stm32f7xx_hal_i2c.c ****   * @param  InterruptRequest Value of @ref I2C_Interrupt_configuration_definition.
4726:Drivers/STM32F7xx_HAL_Driver/Src/stm32f7xx_hal_i2c.c ****   * @retval HAL status
4727:Drivers/STM32F7xx_HAL_Driver/Src/stm32f7xx_hal_i2c.c ****   */
4728:Drivers/STM32F7xx_HAL_Driver/Src/stm32f7xx_hal_i2c.c **** static HAL_StatusTypeDef I2C_Enable_IRQ(I2C_HandleTypeDef *hi2c, uint16_t InterruptRequest)
4729:Drivers/STM32F7xx_HAL_Driver/Src/stm32f7xx_hal_i2c.c **** {
 10508              		.loc 1 4729 0
 10509              		.cfi_startproc
 10510              		@ args = 0, pretend = 0, frame = 16
 10511              		@ frame_needed = 1, uses_anonymous_args = 0
 10512              		@ link register save eliminated.
 10513 0000 80B4     		push	{r7}
 10514              	.LCFI374:
 10515              		.cfi_def_cfa_offset 4
 10516              		.cfi_offset 7, -4
 10517 0002 85B0     		sub	sp, sp, #20
 10518              	.LCFI375:
 10519              		.cfi_def_cfa_offset 24
 10520 0004 00AF     		add	r7, sp, #0
 10521              	.LCFI376:
 10522              		.cfi_def_cfa_register 7
 10523 0006 7860     		str	r0, [r7, #4]
 10524 0008 0B46     		mov	r3, r1
ARM GAS  /var/folders/n8/cvzdcwlj0vl4g_wtyz1ffy300000gn/T//ccBPNZvy.s 			page 268


 10525 000a 7B80     		strh	r3, [r7, #2]	@ movhi
4730:Drivers/STM32F7xx_HAL_Driver/Src/stm32f7xx_hal_i2c.c ****   uint32_t tmpisr = 0U;
 10526              		.loc 1 4730 0
 10527 000c 0023     		movs	r3, #0
 10528 000e FB60     		str	r3, [r7, #12]
4731:Drivers/STM32F7xx_HAL_Driver/Src/stm32f7xx_hal_i2c.c **** 
4732:Drivers/STM32F7xx_HAL_Driver/Src/stm32f7xx_hal_i2c.c ****   if ((hi2c->XferISR == I2C_Master_ISR_DMA) || \
 10529              		.loc 1 4732 0
 10530 0010 7B68     		ldr	r3, [r7, #4]
 10531 0012 5B6B     		ldr	r3, [r3, #52]
 10532 0014 2F4A     		ldr	r2, .L555
 10533 0016 9342     		cmp	r3, r2
 10534 0018 04D0     		beq	.L544
4733:Drivers/STM32F7xx_HAL_Driver/Src/stm32f7xx_hal_i2c.c ****       (hi2c->XferISR == I2C_Slave_ISR_DMA))
 10535              		.loc 1 4733 0 discriminator 1
 10536 001a 7B68     		ldr	r3, [r7, #4]
 10537 001c 5B6B     		ldr	r3, [r3, #52]
4732:Drivers/STM32F7xx_HAL_Driver/Src/stm32f7xx_hal_i2c.c ****       (hi2c->XferISR == I2C_Slave_ISR_DMA))
 10538              		.loc 1 4732 0 discriminator 1
 10539 001e 2E4A     		ldr	r2, .L555+4
 10540 0020 9342     		cmp	r3, r2
 10541 0022 24D1     		bne	.L545
 10542              	.L544:
4734:Drivers/STM32F7xx_HAL_Driver/Src/stm32f7xx_hal_i2c.c ****   {
4735:Drivers/STM32F7xx_HAL_Driver/Src/stm32f7xx_hal_i2c.c ****     if ((InterruptRequest & I2C_XFER_LISTEN_IT) == I2C_XFER_LISTEN_IT)
 10543              		.loc 1 4735 0
 10544 0024 7B88     		ldrh	r3, [r7, #2]
 10545 0026 03F00403 		and	r3, r3, #4
 10546 002a 002B     		cmp	r3, #0
 10547 002c 03D0     		beq	.L546
4736:Drivers/STM32F7xx_HAL_Driver/Src/stm32f7xx_hal_i2c.c ****     {
4737:Drivers/STM32F7xx_HAL_Driver/Src/stm32f7xx_hal_i2c.c ****       /* Enable ERR, STOP, NACK and ADDR interrupts */
4738:Drivers/STM32F7xx_HAL_Driver/Src/stm32f7xx_hal_i2c.c ****       tmpisr |= I2C_IT_ADDRI | I2C_IT_STOPI | I2C_IT_NACKI | I2C_IT_ERRI;
 10548              		.loc 1 4738 0
 10549 002e FB68     		ldr	r3, [r7, #12]
 10550 0030 43F0B803 		orr	r3, r3, #184
 10551 0034 FB60     		str	r3, [r7, #12]
 10552              	.L546:
4739:Drivers/STM32F7xx_HAL_Driver/Src/stm32f7xx_hal_i2c.c ****     }
4740:Drivers/STM32F7xx_HAL_Driver/Src/stm32f7xx_hal_i2c.c **** 
4741:Drivers/STM32F7xx_HAL_Driver/Src/stm32f7xx_hal_i2c.c ****     if ((InterruptRequest & I2C_XFER_ERROR_IT) == I2C_XFER_ERROR_IT)
 10553              		.loc 1 4741 0
 10554 0036 7B88     		ldrh	r3, [r7, #2]
 10555 0038 03F01103 		and	r3, r3, #17
 10556 003c 112B     		cmp	r3, #17
 10557 003e 03D1     		bne	.L547
4742:Drivers/STM32F7xx_HAL_Driver/Src/stm32f7xx_hal_i2c.c ****     {
4743:Drivers/STM32F7xx_HAL_Driver/Src/stm32f7xx_hal_i2c.c ****       /* Enable ERR and NACK interrupts */
4744:Drivers/STM32F7xx_HAL_Driver/Src/stm32f7xx_hal_i2c.c ****       tmpisr |= I2C_IT_ERRI | I2C_IT_NACKI;
 10558              		.loc 1 4744 0
 10559 0040 FB68     		ldr	r3, [r7, #12]
 10560 0042 43F09003 		orr	r3, r3, #144
 10561 0046 FB60     		str	r3, [r7, #12]
 10562              	.L547:
4745:Drivers/STM32F7xx_HAL_Driver/Src/stm32f7xx_hal_i2c.c ****     }
4746:Drivers/STM32F7xx_HAL_Driver/Src/stm32f7xx_hal_i2c.c **** 
4747:Drivers/STM32F7xx_HAL_Driver/Src/stm32f7xx_hal_i2c.c ****     if ((InterruptRequest & I2C_XFER_CPLT_IT) == I2C_XFER_CPLT_IT)
ARM GAS  /var/folders/n8/cvzdcwlj0vl4g_wtyz1ffy300000gn/T//ccBPNZvy.s 			page 269


 10563              		.loc 1 4747 0
 10564 0048 7B88     		ldrh	r3, [r7, #2]
 10565 004a 03F01203 		and	r3, r3, #18
 10566 004e 122B     		cmp	r3, #18
 10567 0050 03D1     		bne	.L548
4748:Drivers/STM32F7xx_HAL_Driver/Src/stm32f7xx_hal_i2c.c ****     {
4749:Drivers/STM32F7xx_HAL_Driver/Src/stm32f7xx_hal_i2c.c ****       /* Enable STOP interrupts */
4750:Drivers/STM32F7xx_HAL_Driver/Src/stm32f7xx_hal_i2c.c ****       tmpisr |= I2C_IT_STOPI;
 10568              		.loc 1 4750 0
 10569 0052 FB68     		ldr	r3, [r7, #12]
 10570 0054 43F02003 		orr	r3, r3, #32
 10571 0058 FB60     		str	r3, [r7, #12]
 10572              	.L548:
4751:Drivers/STM32F7xx_HAL_Driver/Src/stm32f7xx_hal_i2c.c ****     }
4752:Drivers/STM32F7xx_HAL_Driver/Src/stm32f7xx_hal_i2c.c **** 
4753:Drivers/STM32F7xx_HAL_Driver/Src/stm32f7xx_hal_i2c.c ****     if ((InterruptRequest & I2C_XFER_RELOAD_IT) == I2C_XFER_RELOAD_IT)
 10573              		.loc 1 4753 0
 10574 005a 7B88     		ldrh	r3, [r7, #2]
 10575 005c 03F01203 		and	r3, r3, #18
 10576 0060 122B     		cmp	r3, #18
 10577 0062 28D1     		bne	.L550
4754:Drivers/STM32F7xx_HAL_Driver/Src/stm32f7xx_hal_i2c.c ****     {
4755:Drivers/STM32F7xx_HAL_Driver/Src/stm32f7xx_hal_i2c.c ****       /* Enable TC interrupts */
4756:Drivers/STM32F7xx_HAL_Driver/Src/stm32f7xx_hal_i2c.c ****       tmpisr |= I2C_IT_TCI;
 10578              		.loc 1 4756 0
 10579 0064 FB68     		ldr	r3, [r7, #12]
 10580 0066 43F04003 		orr	r3, r3, #64
 10581 006a FB60     		str	r3, [r7, #12]
4753:Drivers/STM32F7xx_HAL_Driver/Src/stm32f7xx_hal_i2c.c ****     {
 10582              		.loc 1 4753 0
 10583 006c 23E0     		b	.L550
 10584              	.L545:
4757:Drivers/STM32F7xx_HAL_Driver/Src/stm32f7xx_hal_i2c.c ****     }
4758:Drivers/STM32F7xx_HAL_Driver/Src/stm32f7xx_hal_i2c.c ****   }
4759:Drivers/STM32F7xx_HAL_Driver/Src/stm32f7xx_hal_i2c.c ****   else
4760:Drivers/STM32F7xx_HAL_Driver/Src/stm32f7xx_hal_i2c.c ****   {
4761:Drivers/STM32F7xx_HAL_Driver/Src/stm32f7xx_hal_i2c.c ****     if ((InterruptRequest & I2C_XFER_LISTEN_IT) == I2C_XFER_LISTEN_IT)
 10585              		.loc 1 4761 0
 10586 006e 7B88     		ldrh	r3, [r7, #2]
 10587 0070 03F00403 		and	r3, r3, #4
 10588 0074 002B     		cmp	r3, #0
 10589 0076 03D0     		beq	.L551
4762:Drivers/STM32F7xx_HAL_Driver/Src/stm32f7xx_hal_i2c.c ****     {
4763:Drivers/STM32F7xx_HAL_Driver/Src/stm32f7xx_hal_i2c.c ****       /* Enable ERR, STOP, NACK, and ADDR interrupts */
4764:Drivers/STM32F7xx_HAL_Driver/Src/stm32f7xx_hal_i2c.c ****       tmpisr |= I2C_IT_ADDRI | I2C_IT_STOPI | I2C_IT_NACKI | I2C_IT_ERRI;
 10590              		.loc 1 4764 0
 10591 0078 FB68     		ldr	r3, [r7, #12]
 10592 007a 43F0B803 		orr	r3, r3, #184
 10593 007e FB60     		str	r3, [r7, #12]
 10594              	.L551:
4765:Drivers/STM32F7xx_HAL_Driver/Src/stm32f7xx_hal_i2c.c ****     }
4766:Drivers/STM32F7xx_HAL_Driver/Src/stm32f7xx_hal_i2c.c **** 
4767:Drivers/STM32F7xx_HAL_Driver/Src/stm32f7xx_hal_i2c.c ****     if ((InterruptRequest & I2C_XFER_TX_IT) == I2C_XFER_TX_IT)
 10595              		.loc 1 4767 0
 10596 0080 7B88     		ldrh	r3, [r7, #2]
 10597 0082 03F00103 		and	r3, r3, #1
 10598 0086 002B     		cmp	r3, #0
ARM GAS  /var/folders/n8/cvzdcwlj0vl4g_wtyz1ffy300000gn/T//ccBPNZvy.s 			page 270


 10599 0088 03D0     		beq	.L552
4768:Drivers/STM32F7xx_HAL_Driver/Src/stm32f7xx_hal_i2c.c ****     {
4769:Drivers/STM32F7xx_HAL_Driver/Src/stm32f7xx_hal_i2c.c ****       /* Enable ERR, TC, STOP, NACK and RXI interrupts */
4770:Drivers/STM32F7xx_HAL_Driver/Src/stm32f7xx_hal_i2c.c ****       tmpisr |= I2C_IT_ERRI | I2C_IT_TCI | I2C_IT_STOPI | I2C_IT_NACKI | I2C_IT_TXI;
 10600              		.loc 1 4770 0
 10601 008a FB68     		ldr	r3, [r7, #12]
 10602 008c 43F0F203 		orr	r3, r3, #242
 10603 0090 FB60     		str	r3, [r7, #12]
 10604              	.L552:
4771:Drivers/STM32F7xx_HAL_Driver/Src/stm32f7xx_hal_i2c.c ****     }
4772:Drivers/STM32F7xx_HAL_Driver/Src/stm32f7xx_hal_i2c.c **** 
4773:Drivers/STM32F7xx_HAL_Driver/Src/stm32f7xx_hal_i2c.c ****     if ((InterruptRequest & I2C_XFER_RX_IT) == I2C_XFER_RX_IT)
 10605              		.loc 1 4773 0
 10606 0092 7B88     		ldrh	r3, [r7, #2]
 10607 0094 03F00203 		and	r3, r3, #2
 10608 0098 002B     		cmp	r3, #0
 10609 009a 03D0     		beq	.L553
4774:Drivers/STM32F7xx_HAL_Driver/Src/stm32f7xx_hal_i2c.c ****     {
4775:Drivers/STM32F7xx_HAL_Driver/Src/stm32f7xx_hal_i2c.c ****       /* Enable ERR, TC, STOP, NACK and TXI interrupts */
4776:Drivers/STM32F7xx_HAL_Driver/Src/stm32f7xx_hal_i2c.c ****       tmpisr |= I2C_IT_ERRI | I2C_IT_TCI | I2C_IT_STOPI | I2C_IT_NACKI | I2C_IT_RXI;
 10610              		.loc 1 4776 0
 10611 009c FB68     		ldr	r3, [r7, #12]
 10612 009e 43F0F403 		orr	r3, r3, #244
 10613 00a2 FB60     		str	r3, [r7, #12]
 10614              	.L553:
4777:Drivers/STM32F7xx_HAL_Driver/Src/stm32f7xx_hal_i2c.c ****     }
4778:Drivers/STM32F7xx_HAL_Driver/Src/stm32f7xx_hal_i2c.c **** 
4779:Drivers/STM32F7xx_HAL_Driver/Src/stm32f7xx_hal_i2c.c ****     if ((InterruptRequest & I2C_XFER_CPLT_IT) == I2C_XFER_CPLT_IT)
 10615              		.loc 1 4779 0
 10616 00a4 7B88     		ldrh	r3, [r7, #2]
 10617 00a6 03F01203 		and	r3, r3, #18
 10618 00aa 122B     		cmp	r3, #18
 10619 00ac 03D1     		bne	.L550
4780:Drivers/STM32F7xx_HAL_Driver/Src/stm32f7xx_hal_i2c.c ****     {
4781:Drivers/STM32F7xx_HAL_Driver/Src/stm32f7xx_hal_i2c.c ****       /* Enable STOP interrupts */
4782:Drivers/STM32F7xx_HAL_Driver/Src/stm32f7xx_hal_i2c.c ****       tmpisr |= I2C_IT_STOPI;
 10620              		.loc 1 4782 0
 10621 00ae FB68     		ldr	r3, [r7, #12]
 10622 00b0 43F02003 		orr	r3, r3, #32
 10623 00b4 FB60     		str	r3, [r7, #12]
 10624              	.L550:
4783:Drivers/STM32F7xx_HAL_Driver/Src/stm32f7xx_hal_i2c.c ****     }
4784:Drivers/STM32F7xx_HAL_Driver/Src/stm32f7xx_hal_i2c.c ****   }
4785:Drivers/STM32F7xx_HAL_Driver/Src/stm32f7xx_hal_i2c.c **** 
4786:Drivers/STM32F7xx_HAL_Driver/Src/stm32f7xx_hal_i2c.c ****   /* Enable interrupts only at the end */
4787:Drivers/STM32F7xx_HAL_Driver/Src/stm32f7xx_hal_i2c.c ****   /* to avoid the risk of I2C interrupt handle execution before */
4788:Drivers/STM32F7xx_HAL_Driver/Src/stm32f7xx_hal_i2c.c ****   /* all interrupts requested done */
4789:Drivers/STM32F7xx_HAL_Driver/Src/stm32f7xx_hal_i2c.c ****   __HAL_I2C_ENABLE_IT(hi2c, tmpisr);
 10625              		.loc 1 4789 0
 10626 00b6 7B68     		ldr	r3, [r7, #4]
 10627 00b8 1B68     		ldr	r3, [r3]
 10628 00ba 1968     		ldr	r1, [r3]
 10629 00bc 7B68     		ldr	r3, [r7, #4]
 10630 00be 1B68     		ldr	r3, [r3]
 10631 00c0 FA68     		ldr	r2, [r7, #12]
 10632 00c2 0A43     		orrs	r2, r2, r1
 10633 00c4 1A60     		str	r2, [r3]
ARM GAS  /var/folders/n8/cvzdcwlj0vl4g_wtyz1ffy300000gn/T//ccBPNZvy.s 			page 271


4790:Drivers/STM32F7xx_HAL_Driver/Src/stm32f7xx_hal_i2c.c **** 
4791:Drivers/STM32F7xx_HAL_Driver/Src/stm32f7xx_hal_i2c.c ****   return HAL_OK;
 10634              		.loc 1 4791 0
 10635 00c6 0023     		movs	r3, #0
4792:Drivers/STM32F7xx_HAL_Driver/Src/stm32f7xx_hal_i2c.c **** }
 10636              		.loc 1 4792 0
 10637 00c8 1846     		mov	r0, r3
 10638 00ca 1437     		adds	r7, r7, #20
 10639              	.LCFI377:
 10640              		.cfi_def_cfa_offset 4
 10641 00cc BD46     		mov	sp, r7
 10642              	.LCFI378:
 10643              		.cfi_def_cfa_register 13
 10644              		@ sp needed
 10645 00ce 5DF8047B 		ldr	r7, [sp], #4
 10646              	.LCFI379:
 10647              		.cfi_restore 7
 10648              		.cfi_def_cfa_offset 0
 10649 00d2 7047     		bx	lr
 10650              	.L556:
 10651              		.align	2
 10652              	.L555:
 10653 00d4 00000000 		.word	I2C_Master_ISR_DMA
 10654 00d8 00000000 		.word	I2C_Slave_ISR_DMA
 10655              		.cfi_endproc
 10656              	.LFE209:
 10658              		.section	.text.I2C_Disable_IRQ,"ax",%progbits
 10659              		.align	1
 10660              		.syntax unified
 10661              		.thumb
 10662              		.thumb_func
 10663              		.fpu fpv5-sp-d16
 10665              	I2C_Disable_IRQ:
 10666              	.LFB210:
4793:Drivers/STM32F7xx_HAL_Driver/Src/stm32f7xx_hal_i2c.c **** 
4794:Drivers/STM32F7xx_HAL_Driver/Src/stm32f7xx_hal_i2c.c **** /**
4795:Drivers/STM32F7xx_HAL_Driver/Src/stm32f7xx_hal_i2c.c ****   * @brief  Manage the disabling of Interrupts.
4796:Drivers/STM32F7xx_HAL_Driver/Src/stm32f7xx_hal_i2c.c ****   * @param  hi2c Pointer to a I2C_HandleTypeDef structure that contains
4797:Drivers/STM32F7xx_HAL_Driver/Src/stm32f7xx_hal_i2c.c ****   *                the configuration information for the specified I2C.
4798:Drivers/STM32F7xx_HAL_Driver/Src/stm32f7xx_hal_i2c.c ****   * @param  InterruptRequest Value of @ref I2C_Interrupt_configuration_definition.
4799:Drivers/STM32F7xx_HAL_Driver/Src/stm32f7xx_hal_i2c.c ****   * @retval HAL status
4800:Drivers/STM32F7xx_HAL_Driver/Src/stm32f7xx_hal_i2c.c ****   */
4801:Drivers/STM32F7xx_HAL_Driver/Src/stm32f7xx_hal_i2c.c **** static HAL_StatusTypeDef I2C_Disable_IRQ(I2C_HandleTypeDef *hi2c, uint16_t InterruptRequest)
4802:Drivers/STM32F7xx_HAL_Driver/Src/stm32f7xx_hal_i2c.c **** {
 10667              		.loc 1 4802 0
 10668              		.cfi_startproc
 10669              		@ args = 0, pretend = 0, frame = 16
 10670              		@ frame_needed = 1, uses_anonymous_args = 0
 10671              		@ link register save eliminated.
 10672 0000 80B4     		push	{r7}
 10673              	.LCFI380:
 10674              		.cfi_def_cfa_offset 4
 10675              		.cfi_offset 7, -4
 10676 0002 85B0     		sub	sp, sp, #20
 10677              	.LCFI381:
 10678              		.cfi_def_cfa_offset 24
 10679 0004 00AF     		add	r7, sp, #0
ARM GAS  /var/folders/n8/cvzdcwlj0vl4g_wtyz1ffy300000gn/T//ccBPNZvy.s 			page 272


 10680              	.LCFI382:
 10681              		.cfi_def_cfa_register 7
 10682 0006 7860     		str	r0, [r7, #4]
 10683 0008 0B46     		mov	r3, r1
 10684 000a 7B80     		strh	r3, [r7, #2]	@ movhi
4803:Drivers/STM32F7xx_HAL_Driver/Src/stm32f7xx_hal_i2c.c ****   uint32_t tmpisr = 0U;
 10685              		.loc 1 4803 0
 10686 000c 0023     		movs	r3, #0
 10687 000e FB60     		str	r3, [r7, #12]
4804:Drivers/STM32F7xx_HAL_Driver/Src/stm32f7xx_hal_i2c.c **** 
4805:Drivers/STM32F7xx_HAL_Driver/Src/stm32f7xx_hal_i2c.c ****   if ((InterruptRequest & I2C_XFER_TX_IT) == I2C_XFER_TX_IT)
 10688              		.loc 1 4805 0
 10689 0010 7B88     		ldrh	r3, [r7, #2]
 10690 0012 03F00103 		and	r3, r3, #1
 10691 0016 002B     		cmp	r3, #0
 10692 0018 0FD0     		beq	.L558
4806:Drivers/STM32F7xx_HAL_Driver/Src/stm32f7xx_hal_i2c.c ****   {
4807:Drivers/STM32F7xx_HAL_Driver/Src/stm32f7xx_hal_i2c.c ****     /* Disable TC and TXI interrupts */
4808:Drivers/STM32F7xx_HAL_Driver/Src/stm32f7xx_hal_i2c.c ****     tmpisr |= I2C_IT_TCI | I2C_IT_TXI;
 10693              		.loc 1 4808 0
 10694 001a FB68     		ldr	r3, [r7, #12]
 10695 001c 43F04203 		orr	r3, r3, #66
 10696 0020 FB60     		str	r3, [r7, #12]
4809:Drivers/STM32F7xx_HAL_Driver/Src/stm32f7xx_hal_i2c.c **** 
4810:Drivers/STM32F7xx_HAL_Driver/Src/stm32f7xx_hal_i2c.c ****     if ((hi2c->State & HAL_I2C_STATE_LISTEN) != HAL_I2C_STATE_LISTEN)
 10697              		.loc 1 4810 0
 10698 0022 7B68     		ldr	r3, [r7, #4]
 10699 0024 93F84130 		ldrb	r3, [r3, #65]
 10700 0028 DBB2     		uxtb	r3, r3
 10701 002a 03F02803 		and	r3, r3, #40
 10702 002e 282B     		cmp	r3, #40
 10703 0030 03D0     		beq	.L558
4811:Drivers/STM32F7xx_HAL_Driver/Src/stm32f7xx_hal_i2c.c ****     {
4812:Drivers/STM32F7xx_HAL_Driver/Src/stm32f7xx_hal_i2c.c ****       /* Disable NACK and STOP interrupts */
4813:Drivers/STM32F7xx_HAL_Driver/Src/stm32f7xx_hal_i2c.c ****       tmpisr |= I2C_IT_STOPI | I2C_IT_NACKI | I2C_IT_ERRI;
 10704              		.loc 1 4813 0
 10705 0032 FB68     		ldr	r3, [r7, #12]
 10706 0034 43F0B003 		orr	r3, r3, #176
 10707 0038 FB60     		str	r3, [r7, #12]
 10708              	.L558:
4814:Drivers/STM32F7xx_HAL_Driver/Src/stm32f7xx_hal_i2c.c ****     }
4815:Drivers/STM32F7xx_HAL_Driver/Src/stm32f7xx_hal_i2c.c ****   }
4816:Drivers/STM32F7xx_HAL_Driver/Src/stm32f7xx_hal_i2c.c **** 
4817:Drivers/STM32F7xx_HAL_Driver/Src/stm32f7xx_hal_i2c.c ****   if ((InterruptRequest & I2C_XFER_RX_IT) == I2C_XFER_RX_IT)
 10709              		.loc 1 4817 0
 10710 003a 7B88     		ldrh	r3, [r7, #2]
 10711 003c 03F00203 		and	r3, r3, #2
 10712 0040 002B     		cmp	r3, #0
 10713 0042 0FD0     		beq	.L559
4818:Drivers/STM32F7xx_HAL_Driver/Src/stm32f7xx_hal_i2c.c ****   {
4819:Drivers/STM32F7xx_HAL_Driver/Src/stm32f7xx_hal_i2c.c ****     /* Disable TC and RXI interrupts */
4820:Drivers/STM32F7xx_HAL_Driver/Src/stm32f7xx_hal_i2c.c ****     tmpisr |= I2C_IT_TCI | I2C_IT_RXI;
 10714              		.loc 1 4820 0
 10715 0044 FB68     		ldr	r3, [r7, #12]
 10716 0046 43F04403 		orr	r3, r3, #68
 10717 004a FB60     		str	r3, [r7, #12]
4821:Drivers/STM32F7xx_HAL_Driver/Src/stm32f7xx_hal_i2c.c **** 
ARM GAS  /var/folders/n8/cvzdcwlj0vl4g_wtyz1ffy300000gn/T//ccBPNZvy.s 			page 273


4822:Drivers/STM32F7xx_HAL_Driver/Src/stm32f7xx_hal_i2c.c ****     if ((hi2c->State & HAL_I2C_STATE_LISTEN) != HAL_I2C_STATE_LISTEN)
 10718              		.loc 1 4822 0
 10719 004c 7B68     		ldr	r3, [r7, #4]
 10720 004e 93F84130 		ldrb	r3, [r3, #65]
 10721 0052 DBB2     		uxtb	r3, r3
 10722 0054 03F02803 		and	r3, r3, #40
 10723 0058 282B     		cmp	r3, #40
 10724 005a 03D0     		beq	.L559
4823:Drivers/STM32F7xx_HAL_Driver/Src/stm32f7xx_hal_i2c.c ****     {
4824:Drivers/STM32F7xx_HAL_Driver/Src/stm32f7xx_hal_i2c.c ****       /* Disable NACK and STOP interrupts */
4825:Drivers/STM32F7xx_HAL_Driver/Src/stm32f7xx_hal_i2c.c ****       tmpisr |= I2C_IT_STOPI | I2C_IT_NACKI | I2C_IT_ERRI;
 10725              		.loc 1 4825 0
 10726 005c FB68     		ldr	r3, [r7, #12]
 10727 005e 43F0B003 		orr	r3, r3, #176
 10728 0062 FB60     		str	r3, [r7, #12]
 10729              	.L559:
4826:Drivers/STM32F7xx_HAL_Driver/Src/stm32f7xx_hal_i2c.c ****     }
4827:Drivers/STM32F7xx_HAL_Driver/Src/stm32f7xx_hal_i2c.c ****   }
4828:Drivers/STM32F7xx_HAL_Driver/Src/stm32f7xx_hal_i2c.c **** 
4829:Drivers/STM32F7xx_HAL_Driver/Src/stm32f7xx_hal_i2c.c ****   if ((InterruptRequest & I2C_XFER_LISTEN_IT) == I2C_XFER_LISTEN_IT)
 10730              		.loc 1 4829 0
 10731 0064 7B88     		ldrh	r3, [r7, #2]
 10732 0066 03F00403 		and	r3, r3, #4
 10733 006a 002B     		cmp	r3, #0
 10734 006c 03D0     		beq	.L560
4830:Drivers/STM32F7xx_HAL_Driver/Src/stm32f7xx_hal_i2c.c ****   {
4831:Drivers/STM32F7xx_HAL_Driver/Src/stm32f7xx_hal_i2c.c ****     /* Disable ADDR, NACK and STOP interrupts */
4832:Drivers/STM32F7xx_HAL_Driver/Src/stm32f7xx_hal_i2c.c ****     tmpisr |= I2C_IT_ADDRI | I2C_IT_STOPI | I2C_IT_NACKI | I2C_IT_ERRI;
 10735              		.loc 1 4832 0
 10736 006e FB68     		ldr	r3, [r7, #12]
 10737 0070 43F0B803 		orr	r3, r3, #184
 10738 0074 FB60     		str	r3, [r7, #12]
 10739              	.L560:
4833:Drivers/STM32F7xx_HAL_Driver/Src/stm32f7xx_hal_i2c.c ****   }
4834:Drivers/STM32F7xx_HAL_Driver/Src/stm32f7xx_hal_i2c.c **** 
4835:Drivers/STM32F7xx_HAL_Driver/Src/stm32f7xx_hal_i2c.c ****   if ((InterruptRequest & I2C_XFER_ERROR_IT) == I2C_XFER_ERROR_IT)
 10740              		.loc 1 4835 0
 10741 0076 7B88     		ldrh	r3, [r7, #2]
 10742 0078 03F01103 		and	r3, r3, #17
 10743 007c 112B     		cmp	r3, #17
 10744 007e 03D1     		bne	.L561
4836:Drivers/STM32F7xx_HAL_Driver/Src/stm32f7xx_hal_i2c.c ****   {
4837:Drivers/STM32F7xx_HAL_Driver/Src/stm32f7xx_hal_i2c.c ****     /* Enable ERR and NACK interrupts */
4838:Drivers/STM32F7xx_HAL_Driver/Src/stm32f7xx_hal_i2c.c ****     tmpisr |= I2C_IT_ERRI | I2C_IT_NACKI;
 10745              		.loc 1 4838 0
 10746 0080 FB68     		ldr	r3, [r7, #12]
 10747 0082 43F09003 		orr	r3, r3, #144
 10748 0086 FB60     		str	r3, [r7, #12]
 10749              	.L561:
4839:Drivers/STM32F7xx_HAL_Driver/Src/stm32f7xx_hal_i2c.c ****   }
4840:Drivers/STM32F7xx_HAL_Driver/Src/stm32f7xx_hal_i2c.c **** 
4841:Drivers/STM32F7xx_HAL_Driver/Src/stm32f7xx_hal_i2c.c ****   if ((InterruptRequest & I2C_XFER_CPLT_IT) == I2C_XFER_CPLT_IT)
 10750              		.loc 1 4841 0
 10751 0088 7B88     		ldrh	r3, [r7, #2]
 10752 008a 03F01203 		and	r3, r3, #18
 10753 008e 122B     		cmp	r3, #18
 10754 0090 03D1     		bne	.L562
ARM GAS  /var/folders/n8/cvzdcwlj0vl4g_wtyz1ffy300000gn/T//ccBPNZvy.s 			page 274


4842:Drivers/STM32F7xx_HAL_Driver/Src/stm32f7xx_hal_i2c.c ****   {
4843:Drivers/STM32F7xx_HAL_Driver/Src/stm32f7xx_hal_i2c.c ****     /* Enable STOP interrupts */
4844:Drivers/STM32F7xx_HAL_Driver/Src/stm32f7xx_hal_i2c.c ****     tmpisr |= I2C_IT_STOPI;
 10755              		.loc 1 4844 0
 10756 0092 FB68     		ldr	r3, [r7, #12]
 10757 0094 43F02003 		orr	r3, r3, #32
 10758 0098 FB60     		str	r3, [r7, #12]
 10759              	.L562:
4845:Drivers/STM32F7xx_HAL_Driver/Src/stm32f7xx_hal_i2c.c ****   }
4846:Drivers/STM32F7xx_HAL_Driver/Src/stm32f7xx_hal_i2c.c **** 
4847:Drivers/STM32F7xx_HAL_Driver/Src/stm32f7xx_hal_i2c.c ****   if ((InterruptRequest & I2C_XFER_RELOAD_IT) == I2C_XFER_RELOAD_IT)
 10760              		.loc 1 4847 0
 10761 009a 7B88     		ldrh	r3, [r7, #2]
 10762 009c 03F01203 		and	r3, r3, #18
 10763 00a0 122B     		cmp	r3, #18
 10764 00a2 03D1     		bne	.L563
4848:Drivers/STM32F7xx_HAL_Driver/Src/stm32f7xx_hal_i2c.c ****   {
4849:Drivers/STM32F7xx_HAL_Driver/Src/stm32f7xx_hal_i2c.c ****     /* Enable TC interrupts */
4850:Drivers/STM32F7xx_HAL_Driver/Src/stm32f7xx_hal_i2c.c ****     tmpisr |= I2C_IT_TCI;
 10765              		.loc 1 4850 0
 10766 00a4 FB68     		ldr	r3, [r7, #12]
 10767 00a6 43F04003 		orr	r3, r3, #64
 10768 00aa FB60     		str	r3, [r7, #12]
 10769              	.L563:
4851:Drivers/STM32F7xx_HAL_Driver/Src/stm32f7xx_hal_i2c.c ****   }
4852:Drivers/STM32F7xx_HAL_Driver/Src/stm32f7xx_hal_i2c.c **** 
4853:Drivers/STM32F7xx_HAL_Driver/Src/stm32f7xx_hal_i2c.c ****   /* Disable interrupts only at the end */
4854:Drivers/STM32F7xx_HAL_Driver/Src/stm32f7xx_hal_i2c.c ****   /* to avoid a breaking situation like at "t" time */
4855:Drivers/STM32F7xx_HAL_Driver/Src/stm32f7xx_hal_i2c.c ****   /* all disable interrupts request are not done */
4856:Drivers/STM32F7xx_HAL_Driver/Src/stm32f7xx_hal_i2c.c ****   __HAL_I2C_DISABLE_IT(hi2c, tmpisr);
 10770              		.loc 1 4856 0
 10771 00ac 7B68     		ldr	r3, [r7, #4]
 10772 00ae 1B68     		ldr	r3, [r3]
 10773 00b0 1968     		ldr	r1, [r3]
 10774 00b2 FB68     		ldr	r3, [r7, #12]
 10775 00b4 DA43     		mvns	r2, r3
 10776 00b6 7B68     		ldr	r3, [r7, #4]
 10777 00b8 1B68     		ldr	r3, [r3]
 10778 00ba 0A40     		ands	r2, r2, r1
 10779 00bc 1A60     		str	r2, [r3]
4857:Drivers/STM32F7xx_HAL_Driver/Src/stm32f7xx_hal_i2c.c **** 
4858:Drivers/STM32F7xx_HAL_Driver/Src/stm32f7xx_hal_i2c.c ****   return HAL_OK;
 10780              		.loc 1 4858 0
 10781 00be 0023     		movs	r3, #0
4859:Drivers/STM32F7xx_HAL_Driver/Src/stm32f7xx_hal_i2c.c **** }
 10782              		.loc 1 4859 0
 10783 00c0 1846     		mov	r0, r3
 10784 00c2 1437     		adds	r7, r7, #20
 10785              	.LCFI383:
 10786              		.cfi_def_cfa_offset 4
 10787 00c4 BD46     		mov	sp, r7
 10788              	.LCFI384:
 10789              		.cfi_def_cfa_register 13
 10790              		@ sp needed
 10791 00c6 5DF8047B 		ldr	r7, [sp], #4
 10792              	.LCFI385:
 10793              		.cfi_restore 7
ARM GAS  /var/folders/n8/cvzdcwlj0vl4g_wtyz1ffy300000gn/T//ccBPNZvy.s 			page 275


 10794              		.cfi_def_cfa_offset 0
 10795 00ca 7047     		bx	lr
 10796              		.cfi_endproc
 10797              	.LFE210:
 10799              		.text
 10800              	.Letext0:
 10801              		.file 2 "/usr/local/Cellar/arm-none-eabi-gcc/20180627/arm-none-eabi/include/machine/_default_types
 10802              		.file 3 "/usr/local/Cellar/arm-none-eabi-gcc/20180627/arm-none-eabi/include/sys/_stdint.h"
 10803              		.file 4 "Drivers/CMSIS/Include/core_cm7.h"
 10804              		.file 5 "Drivers/CMSIS/Device/ST/STM32F7xx/Include/system_stm32f7xx.h"
 10805              		.file 6 "Drivers/CMSIS/Device/ST/STM32F7xx/Include/stm32f746xx.h"
 10806              		.file 7 "Drivers/CMSIS/Device/ST/STM32F7xx/Include/stm32f7xx.h"
 10807              		.file 8 "/usr/local/Cellar/arm-none-eabi-gcc/20180627/arm-none-eabi/include/sys/lock.h"
 10808              		.file 9 "/usr/local/Cellar/arm-none-eabi-gcc/20180627/arm-none-eabi/include/sys/_types.h"
 10809              		.file 10 "/usr/local/Cellar/arm-none-eabi-gcc/20180627/lib/gcc/arm-none-eabi/7.3.1/include/stddef.
 10810              		.file 11 "/usr/local/Cellar/arm-none-eabi-gcc/20180627/arm-none-eabi/include/sys/reent.h"
 10811              		.file 12 "Drivers/STM32F7xx_HAL_Driver/Inc/stm32f7xx_hal_def.h"
 10812              		.file 13 "Drivers/STM32F7xx_HAL_Driver/Inc/stm32f7xx_hal_dma.h"
 10813              		.file 14 "Drivers/STM32F7xx_HAL_Driver/Inc/stm32f7xx_hal_i2c.h"
ARM GAS  /var/folders/n8/cvzdcwlj0vl4g_wtyz1ffy300000gn/T//ccBPNZvy.s 			page 276


DEFINED SYMBOLS
                            *ABS*:0000000000000000 stm32f7xx_hal_i2c.c
/var/folders/n8/cvzdcwlj0vl4g_wtyz1ffy300000gn/T//ccBPNZvy.s:18     .text.HAL_I2C_Init:0000000000000000 $t
/var/folders/n8/cvzdcwlj0vl4g_wtyz1ffy300000gn/T//ccBPNZvy.s:25     .text.HAL_I2C_Init:0000000000000000 HAL_I2C_Init
/var/folders/n8/cvzdcwlj0vl4g_wtyz1ffy300000gn/T//ccBPNZvy.s:302    .text.HAL_I2C_MspInit:0000000000000000 HAL_I2C_MspInit
/var/folders/n8/cvzdcwlj0vl4g_wtyz1ffy300000gn/T//ccBPNZvy.s:205    .text.HAL_I2C_Init:000000000000011c $d
/var/folders/n8/cvzdcwlj0vl4g_wtyz1ffy300000gn/T//ccBPNZvy.s:210    .text.HAL_I2C_DeInit:0000000000000000 $t
/var/folders/n8/cvzdcwlj0vl4g_wtyz1ffy300000gn/T//ccBPNZvy.s:217    .text.HAL_I2C_DeInit:0000000000000000 HAL_I2C_DeInit
/var/folders/n8/cvzdcwlj0vl4g_wtyz1ffy300000gn/T//ccBPNZvy.s:345    .text.HAL_I2C_MspDeInit:0000000000000000 HAL_I2C_MspDeInit
/var/folders/n8/cvzdcwlj0vl4g_wtyz1ffy300000gn/T//ccBPNZvy.s:295    .text.HAL_I2C_MspInit:0000000000000000 $t
/var/folders/n8/cvzdcwlj0vl4g_wtyz1ffy300000gn/T//ccBPNZvy.s:338    .text.HAL_I2C_MspDeInit:0000000000000000 $t
/var/folders/n8/cvzdcwlj0vl4g_wtyz1ffy300000gn/T//ccBPNZvy.s:381    .text.HAL_I2C_Master_Transmit:0000000000000000 $t
/var/folders/n8/cvzdcwlj0vl4g_wtyz1ffy300000gn/T//ccBPNZvy.s:388    .text.HAL_I2C_Master_Transmit:0000000000000000 HAL_I2C_Master_Transmit
/var/folders/n8/cvzdcwlj0vl4g_wtyz1ffy300000gn/T//ccBPNZvy.s:9833   .text.I2C_WaitOnFlagUntilTimeout:0000000000000000 I2C_WaitOnFlagUntilTimeout
/var/folders/n8/cvzdcwlj0vl4g_wtyz1ffy300000gn/T//ccBPNZvy.s:10430  .text.I2C_TransferConfig:0000000000000000 I2C_TransferConfig
/var/folders/n8/cvzdcwlj0vl4g_wtyz1ffy300000gn/T//ccBPNZvy.s:9930   .text.I2C_WaitOnTXISFlagUntilTimeout:0000000000000000 I2C_WaitOnTXISFlagUntilTimeout
/var/folders/n8/cvzdcwlj0vl4g_wtyz1ffy300000gn/T//ccBPNZvy.s:10034  .text.I2C_WaitOnSTOPFlagUntilTimeout:0000000000000000 I2C_WaitOnSTOPFlagUntilTimeout
/var/folders/n8/cvzdcwlj0vl4g_wtyz1ffy300000gn/T//ccBPNZvy.s:701    .text.HAL_I2C_Master_Transmit:00000000000001f8 $d
/var/folders/n8/cvzdcwlj0vl4g_wtyz1ffy300000gn/T//ccBPNZvy.s:707    .text.HAL_I2C_Master_Receive:0000000000000000 $t
/var/folders/n8/cvzdcwlj0vl4g_wtyz1ffy300000gn/T//ccBPNZvy.s:714    .text.HAL_I2C_Master_Receive:0000000000000000 HAL_I2C_Master_Receive
/var/folders/n8/cvzdcwlj0vl4g_wtyz1ffy300000gn/T//ccBPNZvy.s:10134  .text.I2C_WaitOnRXNEFlagUntilTimeout:0000000000000000 I2C_WaitOnRXNEFlagUntilTimeout
/var/folders/n8/cvzdcwlj0vl4g_wtyz1ffy300000gn/T//ccBPNZvy.s:1028   .text.HAL_I2C_Master_Receive:00000000000001fc $d
/var/folders/n8/cvzdcwlj0vl4g_wtyz1ffy300000gn/T//ccBPNZvy.s:1034   .text.HAL_I2C_Slave_Transmit:0000000000000000 $t
/var/folders/n8/cvzdcwlj0vl4g_wtyz1ffy300000gn/T//ccBPNZvy.s:1041   .text.HAL_I2C_Slave_Transmit:0000000000000000 HAL_I2C_Slave_Transmit
/var/folders/n8/cvzdcwlj0vl4g_wtyz1ffy300000gn/T//ccBPNZvy.s:1372   .text.HAL_I2C_Slave_Receive:0000000000000000 $t
/var/folders/n8/cvzdcwlj0vl4g_wtyz1ffy300000gn/T//ccBPNZvy.s:1379   .text.HAL_I2C_Slave_Receive:0000000000000000 HAL_I2C_Slave_Receive
/var/folders/n8/cvzdcwlj0vl4g_wtyz1ffy300000gn/T//ccBPNZvy.s:1702   .text.HAL_I2C_Master_Transmit_IT:0000000000000000 $t
/var/folders/n8/cvzdcwlj0vl4g_wtyz1ffy300000gn/T//ccBPNZvy.s:1709   .text.HAL_I2C_Master_Transmit_IT:0000000000000000 HAL_I2C_Master_Transmit_IT
/var/folders/n8/cvzdcwlj0vl4g_wtyz1ffy300000gn/T//ccBPNZvy.s:10506  .text.I2C_Enable_IRQ:0000000000000000 I2C_Enable_IRQ
/var/folders/n8/cvzdcwlj0vl4g_wtyz1ffy300000gn/T//ccBPNZvy.s:1857   .text.HAL_I2C_Master_Transmit_IT:00000000000000d8 $d
/var/folders/n8/cvzdcwlj0vl4g_wtyz1ffy300000gn/T//ccBPNZvy.s:6801   .text.I2C_Master_ISR_IT:0000000000000000 I2C_Master_ISR_IT
/var/folders/n8/cvzdcwlj0vl4g_wtyz1ffy300000gn/T//ccBPNZvy.s:1864   .text.HAL_I2C_Master_Receive_IT:0000000000000000 $t
/var/folders/n8/cvzdcwlj0vl4g_wtyz1ffy300000gn/T//ccBPNZvy.s:1871   .text.HAL_I2C_Master_Receive_IT:0000000000000000 HAL_I2C_Master_Receive_IT
/var/folders/n8/cvzdcwlj0vl4g_wtyz1ffy300000gn/T//ccBPNZvy.s:2019   .text.HAL_I2C_Master_Receive_IT:00000000000000d8 $d
/var/folders/n8/cvzdcwlj0vl4g_wtyz1ffy300000gn/T//ccBPNZvy.s:2026   .text.HAL_I2C_Slave_Transmit_IT:0000000000000000 $t
/var/folders/n8/cvzdcwlj0vl4g_wtyz1ffy300000gn/T//ccBPNZvy.s:2033   .text.HAL_I2C_Slave_Transmit_IT:0000000000000000 HAL_I2C_Slave_Transmit_IT
/var/folders/n8/cvzdcwlj0vl4g_wtyz1ffy300000gn/T//ccBPNZvy.s:2143   .text.HAL_I2C_Slave_Transmit_IT:0000000000000098 $d
/var/folders/n8/cvzdcwlj0vl4g_wtyz1ffy300000gn/T//ccBPNZvy.s:7141   .text.I2C_Slave_ISR_IT:0000000000000000 I2C_Slave_ISR_IT
/var/folders/n8/cvzdcwlj0vl4g_wtyz1ffy300000gn/T//ccBPNZvy.s:2149   .text.HAL_I2C_Slave_Receive_IT:0000000000000000 $t
/var/folders/n8/cvzdcwlj0vl4g_wtyz1ffy300000gn/T//ccBPNZvy.s:2156   .text.HAL_I2C_Slave_Receive_IT:0000000000000000 HAL_I2C_Slave_Receive_IT
/var/folders/n8/cvzdcwlj0vl4g_wtyz1ffy300000gn/T//ccBPNZvy.s:2266   .text.HAL_I2C_Slave_Receive_IT:0000000000000098 $d
/var/folders/n8/cvzdcwlj0vl4g_wtyz1ffy300000gn/T//ccBPNZvy.s:2272   .text.HAL_I2C_Master_Transmit_DMA:0000000000000000 $t
/var/folders/n8/cvzdcwlj0vl4g_wtyz1ffy300000gn/T//ccBPNZvy.s:2279   .text.HAL_I2C_Master_Transmit_DMA:0000000000000000 HAL_I2C_Master_Transmit_DMA
/var/folders/n8/cvzdcwlj0vl4g_wtyz1ffy300000gn/T//ccBPNZvy.s:2506   .text.HAL_I2C_Master_Transmit_DMA:0000000000000168 $d
/var/folders/n8/cvzdcwlj0vl4g_wtyz1ffy300000gn/T//ccBPNZvy.s:7444   .text.I2C_Master_ISR_DMA:0000000000000000 I2C_Master_ISR_DMA
/var/folders/n8/cvzdcwlj0vl4g_wtyz1ffy300000gn/T//ccBPNZvy.s:9399   .text.I2C_DMAMasterTransmitCplt:0000000000000000 I2C_DMAMasterTransmitCplt
/var/folders/n8/cvzdcwlj0vl4g_wtyz1ffy300000gn/T//ccBPNZvy.s:9699   .text.I2C_DMAError:0000000000000000 I2C_DMAError
/var/folders/n8/cvzdcwlj0vl4g_wtyz1ffy300000gn/T//ccBPNZvy.s:2516   .text.HAL_I2C_Master_Receive_DMA:0000000000000000 $t
/var/folders/n8/cvzdcwlj0vl4g_wtyz1ffy300000gn/T//ccBPNZvy.s:2523   .text.HAL_I2C_Master_Receive_DMA:0000000000000000 HAL_I2C_Master_Receive_DMA
/var/folders/n8/cvzdcwlj0vl4g_wtyz1ffy300000gn/T//ccBPNZvy.s:2750   .text.HAL_I2C_Master_Receive_DMA:0000000000000168 $d
/var/folders/n8/cvzdcwlj0vl4g_wtyz1ffy300000gn/T//ccBPNZvy.s:9549   .text.I2C_DMAMasterReceiveCplt:0000000000000000 I2C_DMAMasterReceiveCplt
/var/folders/n8/cvzdcwlj0vl4g_wtyz1ffy300000gn/T//ccBPNZvy.s:2760   .text.HAL_I2C_Slave_Transmit_DMA:0000000000000000 $t
/var/folders/n8/cvzdcwlj0vl4g_wtyz1ffy300000gn/T//ccBPNZvy.s:2767   .text.HAL_I2C_Slave_Transmit_DMA:0000000000000000 HAL_I2C_Slave_Transmit_DMA
/var/folders/n8/cvzdcwlj0vl4g_wtyz1ffy300000gn/T//ccBPNZvy.s:2929   .text.HAL_I2C_Slave_Transmit_DMA:00000000000000ec $d
/var/folders/n8/cvzdcwlj0vl4g_wtyz1ffy300000gn/T//ccBPNZvy.s:7666   .text.I2C_Slave_ISR_DMA:0000000000000000 I2C_Slave_ISR_DMA
/var/folders/n8/cvzdcwlj0vl4g_wtyz1ffy300000gn/T//ccBPNZvy.s:9507   .text.I2C_DMASlaveTransmitCplt:0000000000000000 I2C_DMASlaveTransmitCplt
/var/folders/n8/cvzdcwlj0vl4g_wtyz1ffy300000gn/T//ccBPNZvy.s:2937   .text.HAL_I2C_Slave_Receive_DMA:0000000000000000 $t
ARM GAS  /var/folders/n8/cvzdcwlj0vl4g_wtyz1ffy300000gn/T//ccBPNZvy.s 			page 277


/var/folders/n8/cvzdcwlj0vl4g_wtyz1ffy300000gn/T//ccBPNZvy.s:2944   .text.HAL_I2C_Slave_Receive_DMA:0000000000000000 HAL_I2C_Slave_Receive_DMA
/var/folders/n8/cvzdcwlj0vl4g_wtyz1ffy300000gn/T//ccBPNZvy.s:3106   .text.HAL_I2C_Slave_Receive_DMA:00000000000000ec $d
/var/folders/n8/cvzdcwlj0vl4g_wtyz1ffy300000gn/T//ccBPNZvy.s:9657   .text.I2C_DMASlaveReceiveCplt:0000000000000000 I2C_DMASlaveReceiveCplt
/var/folders/n8/cvzdcwlj0vl4g_wtyz1ffy300000gn/T//ccBPNZvy.s:3114   .text.HAL_I2C_Mem_Write:0000000000000000 $t
/var/folders/n8/cvzdcwlj0vl4g_wtyz1ffy300000gn/T//ccBPNZvy.s:3121   .text.HAL_I2C_Mem_Write:0000000000000000 HAL_I2C_Mem_Write
/var/folders/n8/cvzdcwlj0vl4g_wtyz1ffy300000gn/T//ccBPNZvy.s:7822   .text.I2C_RequestMemoryWrite:0000000000000000 I2C_RequestMemoryWrite
/var/folders/n8/cvzdcwlj0vl4g_wtyz1ffy300000gn/T//ccBPNZvy.s:3483   .text.HAL_I2C_Mem_Write:0000000000000248 $d
/var/folders/n8/cvzdcwlj0vl4g_wtyz1ffy300000gn/T//ccBPNZvy.s:3488   .text.HAL_I2C_Mem_Read:0000000000000000 $t
/var/folders/n8/cvzdcwlj0vl4g_wtyz1ffy300000gn/T//ccBPNZvy.s:3495   .text.HAL_I2C_Mem_Read:0000000000000000 HAL_I2C_Mem_Read
/var/folders/n8/cvzdcwlj0vl4g_wtyz1ffy300000gn/T//ccBPNZvy.s:7969   .text.I2C_RequestMemoryRead:0000000000000000 I2C_RequestMemoryRead
/var/folders/n8/cvzdcwlj0vl4g_wtyz1ffy300000gn/T//ccBPNZvy.s:3852   .text.HAL_I2C_Mem_Read:0000000000000244 $d
/var/folders/n8/cvzdcwlj0vl4g_wtyz1ffy300000gn/T//ccBPNZvy.s:3858   .text.HAL_I2C_Mem_Write_IT:0000000000000000 $t
/var/folders/n8/cvzdcwlj0vl4g_wtyz1ffy300000gn/T//ccBPNZvy.s:3865   .text.HAL_I2C_Mem_Write_IT:0000000000000000 HAL_I2C_Mem_Write_IT
/var/folders/n8/cvzdcwlj0vl4g_wtyz1ffy300000gn/T//ccBPNZvy.s:4070   .text.HAL_I2C_Mem_Write_IT:0000000000000134 $d
/var/folders/n8/cvzdcwlj0vl4g_wtyz1ffy300000gn/T//ccBPNZvy.s:4076   .text.HAL_I2C_Mem_Read_IT:0000000000000000 $t
/var/folders/n8/cvzdcwlj0vl4g_wtyz1ffy300000gn/T//ccBPNZvy.s:4083   .text.HAL_I2C_Mem_Read_IT:0000000000000000 HAL_I2C_Mem_Read_IT
/var/folders/n8/cvzdcwlj0vl4g_wtyz1ffy300000gn/T//ccBPNZvy.s:4288   .text.HAL_I2C_Mem_Read_IT:0000000000000134 $d
/var/folders/n8/cvzdcwlj0vl4g_wtyz1ffy300000gn/T//ccBPNZvy.s:4295   .text.HAL_I2C_Mem_Write_DMA:0000000000000000 $t
/var/folders/n8/cvzdcwlj0vl4g_wtyz1ffy300000gn/T//ccBPNZvy.s:4302   .text.HAL_I2C_Mem_Write_DMA:0000000000000000 HAL_I2C_Mem_Write_DMA
/var/folders/n8/cvzdcwlj0vl4g_wtyz1ffy300000gn/T//ccBPNZvy.s:4556   .text.HAL_I2C_Mem_Write_DMA:000000000000018c $d
/var/folders/n8/cvzdcwlj0vl4g_wtyz1ffy300000gn/T//ccBPNZvy.s:4564   .text.HAL_I2C_Mem_Read_DMA:0000000000000000 $t
/var/folders/n8/cvzdcwlj0vl4g_wtyz1ffy300000gn/T//ccBPNZvy.s:4571   .text.HAL_I2C_Mem_Read_DMA:0000000000000000 HAL_I2C_Mem_Read_DMA
/var/folders/n8/cvzdcwlj0vl4g_wtyz1ffy300000gn/T//ccBPNZvy.s:4825   .text.HAL_I2C_Mem_Read_DMA:000000000000018c $d
/var/folders/n8/cvzdcwlj0vl4g_wtyz1ffy300000gn/T//ccBPNZvy.s:4834   .text.HAL_I2C_IsDeviceReady:0000000000000000 $t
/var/folders/n8/cvzdcwlj0vl4g_wtyz1ffy300000gn/T//ccBPNZvy.s:4841   .text.HAL_I2C_IsDeviceReady:0000000000000000 HAL_I2C_IsDeviceReady
/var/folders/n8/cvzdcwlj0vl4g_wtyz1ffy300000gn/T//ccBPNZvy.s:5118   .text.HAL_I2C_IsDeviceReady:00000000000001b8 $d
/var/folders/n8/cvzdcwlj0vl4g_wtyz1ffy300000gn/T//ccBPNZvy.s:5123   .text.HAL_I2C_Master_Sequential_Transmit_IT:0000000000000000 $t
/var/folders/n8/cvzdcwlj0vl4g_wtyz1ffy300000gn/T//ccBPNZvy.s:5130   .text.HAL_I2C_Master_Sequential_Transmit_IT:0000000000000000 HAL_I2C_Master_Sequential_Transmit_IT
/var/folders/n8/cvzdcwlj0vl4g_wtyz1ffy300000gn/T//ccBPNZvy.s:5280   .text.HAL_I2C_Master_Sequential_Transmit_IT:00000000000000d4 $d
/var/folders/n8/cvzdcwlj0vl4g_wtyz1ffy300000gn/T//ccBPNZvy.s:5286   .text.HAL_I2C_Master_Sequential_Receive_IT:0000000000000000 $t
/var/folders/n8/cvzdcwlj0vl4g_wtyz1ffy300000gn/T//ccBPNZvy.s:5293   .text.HAL_I2C_Master_Sequential_Receive_IT:0000000000000000 HAL_I2C_Master_Sequential_Receive_IT
/var/folders/n8/cvzdcwlj0vl4g_wtyz1ffy300000gn/T//ccBPNZvy.s:5443   .text.HAL_I2C_Master_Sequential_Receive_IT:00000000000000d4 $d
/var/folders/n8/cvzdcwlj0vl4g_wtyz1ffy300000gn/T//ccBPNZvy.s:5449   .text.HAL_I2C_Slave_Sequential_Transmit_IT:0000000000000000 $t
/var/folders/n8/cvzdcwlj0vl4g_wtyz1ffy300000gn/T//ccBPNZvy.s:5456   .text.HAL_I2C_Slave_Sequential_Transmit_IT:0000000000000000 HAL_I2C_Slave_Sequential_Transmit_IT
/var/folders/n8/cvzdcwlj0vl4g_wtyz1ffy300000gn/T//ccBPNZvy.s:10665  .text.I2C_Disable_IRQ:0000000000000000 I2C_Disable_IRQ
/var/folders/n8/cvzdcwlj0vl4g_wtyz1ffy300000gn/T//ccBPNZvy.s:5610   .text.HAL_I2C_Slave_Sequential_Transmit_IT:00000000000000e0 $d
/var/folders/n8/cvzdcwlj0vl4g_wtyz1ffy300000gn/T//ccBPNZvy.s:5615   .text.HAL_I2C_Slave_Sequential_Receive_IT:0000000000000000 $t
/var/folders/n8/cvzdcwlj0vl4g_wtyz1ffy300000gn/T//ccBPNZvy.s:5622   .text.HAL_I2C_Slave_Sequential_Receive_IT:0000000000000000 HAL_I2C_Slave_Sequential_Receive_IT
/var/folders/n8/cvzdcwlj0vl4g_wtyz1ffy300000gn/T//ccBPNZvy.s:5775   .text.HAL_I2C_Slave_Sequential_Receive_IT:00000000000000e0 $d
/var/folders/n8/cvzdcwlj0vl4g_wtyz1ffy300000gn/T//ccBPNZvy.s:5780   .text.HAL_I2C_EnableListen_IT:0000000000000000 $t
/var/folders/n8/cvzdcwlj0vl4g_wtyz1ffy300000gn/T//ccBPNZvy.s:5787   .text.HAL_I2C_EnableListen_IT:0000000000000000 HAL_I2C_EnableListen_IT
/var/folders/n8/cvzdcwlj0vl4g_wtyz1ffy300000gn/T//ccBPNZvy.s:5843   .text.HAL_I2C_EnableListen_IT:0000000000000038 $d
/var/folders/n8/cvzdcwlj0vl4g_wtyz1ffy300000gn/T//ccBPNZvy.s:5848   .text.HAL_I2C_DisableListen_IT:0000000000000000 $t
/var/folders/n8/cvzdcwlj0vl4g_wtyz1ffy300000gn/T//ccBPNZvy.s:5855   .text.HAL_I2C_DisableListen_IT:0000000000000000 HAL_I2C_DisableListen_IT
/var/folders/n8/cvzdcwlj0vl4g_wtyz1ffy300000gn/T//ccBPNZvy.s:5931   .text.HAL_I2C_Master_Abort_IT:0000000000000000 $t
/var/folders/n8/cvzdcwlj0vl4g_wtyz1ffy300000gn/T//ccBPNZvy.s:5938   .text.HAL_I2C_Master_Abort_IT:0000000000000000 HAL_I2C_Master_Abort_IT
/var/folders/n8/cvzdcwlj0vl4g_wtyz1ffy300000gn/T//ccBPNZvy.s:6025   .text.HAL_I2C_Master_Abort_IT:0000000000000078 $d
/var/folders/n8/cvzdcwlj0vl4g_wtyz1ffy300000gn/T//ccBPNZvy.s:6030   .text.HAL_I2C_EV_IRQHandler:0000000000000000 $t
/var/folders/n8/cvzdcwlj0vl4g_wtyz1ffy300000gn/T//ccBPNZvy.s:6037   .text.HAL_I2C_EV_IRQHandler:0000000000000000 HAL_I2C_EV_IRQHandler
/var/folders/n8/cvzdcwlj0vl4g_wtyz1ffy300000gn/T//ccBPNZvy.s:6093   .text.HAL_I2C_ER_IRQHandler:0000000000000000 $t
/var/folders/n8/cvzdcwlj0vl4g_wtyz1ffy300000gn/T//ccBPNZvy.s:6100   .text.HAL_I2C_ER_IRQHandler:0000000000000000 HAL_I2C_ER_IRQHandler
/var/folders/n8/cvzdcwlj0vl4g_wtyz1ffy300000gn/T//ccBPNZvy.s:9085   .text.I2C_ITError:0000000000000000 I2C_ITError
/var/folders/n8/cvzdcwlj0vl4g_wtyz1ffy300000gn/T//ccBPNZvy.s:6221   .text.HAL_I2C_MasterTxCpltCallback:0000000000000000 $t
/var/folders/n8/cvzdcwlj0vl4g_wtyz1ffy300000gn/T//ccBPNZvy.s:6228   .text.HAL_I2C_MasterTxCpltCallback:0000000000000000 HAL_I2C_MasterTxCpltCallback
/var/folders/n8/cvzdcwlj0vl4g_wtyz1ffy300000gn/T//ccBPNZvy.s:6264   .text.HAL_I2C_MasterRxCpltCallback:0000000000000000 $t
/var/folders/n8/cvzdcwlj0vl4g_wtyz1ffy300000gn/T//ccBPNZvy.s:6271   .text.HAL_I2C_MasterRxCpltCallback:0000000000000000 HAL_I2C_MasterRxCpltCallback
/var/folders/n8/cvzdcwlj0vl4g_wtyz1ffy300000gn/T//ccBPNZvy.s:6307   .text.HAL_I2C_SlaveTxCpltCallback:0000000000000000 $t
ARM GAS  /var/folders/n8/cvzdcwlj0vl4g_wtyz1ffy300000gn/T//ccBPNZvy.s 			page 278


/var/folders/n8/cvzdcwlj0vl4g_wtyz1ffy300000gn/T//ccBPNZvy.s:6314   .text.HAL_I2C_SlaveTxCpltCallback:0000000000000000 HAL_I2C_SlaveTxCpltCallback
/var/folders/n8/cvzdcwlj0vl4g_wtyz1ffy300000gn/T//ccBPNZvy.s:6350   .text.HAL_I2C_SlaveRxCpltCallback:0000000000000000 $t
/var/folders/n8/cvzdcwlj0vl4g_wtyz1ffy300000gn/T//ccBPNZvy.s:6357   .text.HAL_I2C_SlaveRxCpltCallback:0000000000000000 HAL_I2C_SlaveRxCpltCallback
/var/folders/n8/cvzdcwlj0vl4g_wtyz1ffy300000gn/T//ccBPNZvy.s:6393   .text.HAL_I2C_AddrCallback:0000000000000000 $t
/var/folders/n8/cvzdcwlj0vl4g_wtyz1ffy300000gn/T//ccBPNZvy.s:6400   .text.HAL_I2C_AddrCallback:0000000000000000 HAL_I2C_AddrCallback
/var/folders/n8/cvzdcwlj0vl4g_wtyz1ffy300000gn/T//ccBPNZvy.s:6440   .text.HAL_I2C_ListenCpltCallback:0000000000000000 $t
/var/folders/n8/cvzdcwlj0vl4g_wtyz1ffy300000gn/T//ccBPNZvy.s:6447   .text.HAL_I2C_ListenCpltCallback:0000000000000000 HAL_I2C_ListenCpltCallback
/var/folders/n8/cvzdcwlj0vl4g_wtyz1ffy300000gn/T//ccBPNZvy.s:6483   .text.HAL_I2C_MemTxCpltCallback:0000000000000000 $t
/var/folders/n8/cvzdcwlj0vl4g_wtyz1ffy300000gn/T//ccBPNZvy.s:6490   .text.HAL_I2C_MemTxCpltCallback:0000000000000000 HAL_I2C_MemTxCpltCallback
/var/folders/n8/cvzdcwlj0vl4g_wtyz1ffy300000gn/T//ccBPNZvy.s:6526   .text.HAL_I2C_MemRxCpltCallback:0000000000000000 $t
/var/folders/n8/cvzdcwlj0vl4g_wtyz1ffy300000gn/T//ccBPNZvy.s:6533   .text.HAL_I2C_MemRxCpltCallback:0000000000000000 HAL_I2C_MemRxCpltCallback
/var/folders/n8/cvzdcwlj0vl4g_wtyz1ffy300000gn/T//ccBPNZvy.s:6569   .text.HAL_I2C_ErrorCallback:0000000000000000 $t
/var/folders/n8/cvzdcwlj0vl4g_wtyz1ffy300000gn/T//ccBPNZvy.s:6576   .text.HAL_I2C_ErrorCallback:0000000000000000 HAL_I2C_ErrorCallback
/var/folders/n8/cvzdcwlj0vl4g_wtyz1ffy300000gn/T//ccBPNZvy.s:6612   .text.HAL_I2C_AbortCpltCallback:0000000000000000 $t
/var/folders/n8/cvzdcwlj0vl4g_wtyz1ffy300000gn/T//ccBPNZvy.s:6619   .text.HAL_I2C_AbortCpltCallback:0000000000000000 HAL_I2C_AbortCpltCallback
/var/folders/n8/cvzdcwlj0vl4g_wtyz1ffy300000gn/T//ccBPNZvy.s:6655   .text.HAL_I2C_GetState:0000000000000000 $t
/var/folders/n8/cvzdcwlj0vl4g_wtyz1ffy300000gn/T//ccBPNZvy.s:6662   .text.HAL_I2C_GetState:0000000000000000 HAL_I2C_GetState
/var/folders/n8/cvzdcwlj0vl4g_wtyz1ffy300000gn/T//ccBPNZvy.s:6702   .text.HAL_I2C_GetMode:0000000000000000 $t
/var/folders/n8/cvzdcwlj0vl4g_wtyz1ffy300000gn/T//ccBPNZvy.s:6709   .text.HAL_I2C_GetMode:0000000000000000 HAL_I2C_GetMode
/var/folders/n8/cvzdcwlj0vl4g_wtyz1ffy300000gn/T//ccBPNZvy.s:6749   .text.HAL_I2C_GetError:0000000000000000 $t
/var/folders/n8/cvzdcwlj0vl4g_wtyz1ffy300000gn/T//ccBPNZvy.s:6756   .text.HAL_I2C_GetError:0000000000000000 HAL_I2C_GetError
/var/folders/n8/cvzdcwlj0vl4g_wtyz1ffy300000gn/T//ccBPNZvy.s:6795   .text.I2C_Master_ISR_IT:0000000000000000 $t
/var/folders/n8/cvzdcwlj0vl4g_wtyz1ffy300000gn/T//ccBPNZvy.s:9328   .text.I2C_Flush_TXDR:0000000000000000 I2C_Flush_TXDR
/var/folders/n8/cvzdcwlj0vl4g_wtyz1ffy300000gn/T//ccBPNZvy.s:8302   .text.I2C_ITMasterSequentialCplt:0000000000000000 I2C_ITMasterSequentialCplt
/var/folders/n8/cvzdcwlj0vl4g_wtyz1ffy300000gn/T//ccBPNZvy.s:8496   .text.I2C_ITMasterCplt:0000000000000000 I2C_ITMasterCplt
/var/folders/n8/cvzdcwlj0vl4g_wtyz1ffy300000gn/T//ccBPNZvy.s:7135   .text.I2C_Slave_ISR_IT:0000000000000000 $t
/var/folders/n8/cvzdcwlj0vl4g_wtyz1ffy300000gn/T//ccBPNZvy.s:8963   .text.I2C_ITListenCplt:0000000000000000 I2C_ITListenCplt
/var/folders/n8/cvzdcwlj0vl4g_wtyz1ffy300000gn/T//ccBPNZvy.s:8400   .text.I2C_ITSlaveSequentialCplt:0000000000000000 I2C_ITSlaveSequentialCplt
/var/folders/n8/cvzdcwlj0vl4g_wtyz1ffy300000gn/T//ccBPNZvy.s:8116   .text.I2C_ITAddrCplt:0000000000000000 I2C_ITAddrCplt
/var/folders/n8/cvzdcwlj0vl4g_wtyz1ffy300000gn/T//ccBPNZvy.s:8697   .text.I2C_ITSlaveCplt:0000000000000000 I2C_ITSlaveCplt
/var/folders/n8/cvzdcwlj0vl4g_wtyz1ffy300000gn/T//ccBPNZvy.s:7438   .text.I2C_Master_ISR_DMA:0000000000000000 $t
/var/folders/n8/cvzdcwlj0vl4g_wtyz1ffy300000gn/T//ccBPNZvy.s:7660   .text.I2C_Slave_ISR_DMA:0000000000000000 $t
/var/folders/n8/cvzdcwlj0vl4g_wtyz1ffy300000gn/T//ccBPNZvy.s:7816   .text.I2C_RequestMemoryWrite:0000000000000000 $t
/var/folders/n8/cvzdcwlj0vl4g_wtyz1ffy300000gn/T//ccBPNZvy.s:7958   .text.I2C_RequestMemoryWrite:00000000000000bc $d
/var/folders/n8/cvzdcwlj0vl4g_wtyz1ffy300000gn/T//ccBPNZvy.s:7963   .text.I2C_RequestMemoryRead:0000000000000000 $t
/var/folders/n8/cvzdcwlj0vl4g_wtyz1ffy300000gn/T//ccBPNZvy.s:8105   .text.I2C_RequestMemoryRead:00000000000000bc $d
/var/folders/n8/cvzdcwlj0vl4g_wtyz1ffy300000gn/T//ccBPNZvy.s:8110   .text.I2C_ITAddrCplt:0000000000000000 $t
/var/folders/n8/cvzdcwlj0vl4g_wtyz1ffy300000gn/T//ccBPNZvy.s:8296   .text.I2C_ITMasterSequentialCplt:0000000000000000 $t
/var/folders/n8/cvzdcwlj0vl4g_wtyz1ffy300000gn/T//ccBPNZvy.s:8394   .text.I2C_ITSlaveSequentialCplt:0000000000000000 $t
/var/folders/n8/cvzdcwlj0vl4g_wtyz1ffy300000gn/T//ccBPNZvy.s:8490   .text.I2C_ITMasterCplt:0000000000000000 $t
/var/folders/n8/cvzdcwlj0vl4g_wtyz1ffy300000gn/T//ccBPNZvy.s:8685   .text.I2C_ITMasterCplt:0000000000000128 $d
/var/folders/n8/cvzdcwlj0vl4g_wtyz1ffy300000gn/T//ccBPNZvy.s:8691   .text.I2C_ITSlaveCplt:0000000000000000 $t
/var/folders/n8/cvzdcwlj0vl4g_wtyz1ffy300000gn/T//ccBPNZvy.s:8951   .text.I2C_ITSlaveCplt:0000000000000198 $d
/var/folders/n8/cvzdcwlj0vl4g_wtyz1ffy300000gn/T//ccBPNZvy.s:8957   .text.I2C_ITListenCplt:0000000000000000 $t
/var/folders/n8/cvzdcwlj0vl4g_wtyz1ffy300000gn/T//ccBPNZvy.s:9074   .text.I2C_ITListenCplt:00000000000000a0 $d
/var/folders/n8/cvzdcwlj0vl4g_wtyz1ffy300000gn/T//ccBPNZvy.s:9079   .text.I2C_ITError:0000000000000000 $t
/var/folders/n8/cvzdcwlj0vl4g_wtyz1ffy300000gn/T//ccBPNZvy.s:9315   .text.I2C_ITError:0000000000000170 $d
/var/folders/n8/cvzdcwlj0vl4g_wtyz1ffy300000gn/T//ccBPNZvy.s:9753   .text.I2C_DMAAbort:0000000000000000 I2C_DMAAbort
/var/folders/n8/cvzdcwlj0vl4g_wtyz1ffy300000gn/T//ccBPNZvy.s:9322   .text.I2C_Flush_TXDR:0000000000000000 $t
/var/folders/n8/cvzdcwlj0vl4g_wtyz1ffy300000gn/T//ccBPNZvy.s:9393   .text.I2C_DMAMasterTransmitCplt:0000000000000000 $t
/var/folders/n8/cvzdcwlj0vl4g_wtyz1ffy300000gn/T//ccBPNZvy.s:9501   .text.I2C_DMASlaveTransmitCplt:0000000000000000 $t
/var/folders/n8/cvzdcwlj0vl4g_wtyz1ffy300000gn/T//ccBPNZvy.s:9543   .text.I2C_DMAMasterReceiveCplt:0000000000000000 $t
/var/folders/n8/cvzdcwlj0vl4g_wtyz1ffy300000gn/T//ccBPNZvy.s:9651   .text.I2C_DMASlaveReceiveCplt:0000000000000000 $t
/var/folders/n8/cvzdcwlj0vl4g_wtyz1ffy300000gn/T//ccBPNZvy.s:9693   .text.I2C_DMAError:0000000000000000 $t
/var/folders/n8/cvzdcwlj0vl4g_wtyz1ffy300000gn/T//ccBPNZvy.s:9747   .text.I2C_DMAAbort:0000000000000000 $t
/var/folders/n8/cvzdcwlj0vl4g_wtyz1ffy300000gn/T//ccBPNZvy.s:9827   .text.I2C_WaitOnFlagUntilTimeout:0000000000000000 $t
/var/folders/n8/cvzdcwlj0vl4g_wtyz1ffy300000gn/T//ccBPNZvy.s:9924   .text.I2C_WaitOnTXISFlagUntilTimeout:0000000000000000 $t
ARM GAS  /var/folders/n8/cvzdcwlj0vl4g_wtyz1ffy300000gn/T//ccBPNZvy.s 			page 279


/var/folders/n8/cvzdcwlj0vl4g_wtyz1ffy300000gn/T//ccBPNZvy.s:10291  .text.I2C_IsAcknowledgeFailed:0000000000000000 I2C_IsAcknowledgeFailed
/var/folders/n8/cvzdcwlj0vl4g_wtyz1ffy300000gn/T//ccBPNZvy.s:10028  .text.I2C_WaitOnSTOPFlagUntilTimeout:0000000000000000 $t
/var/folders/n8/cvzdcwlj0vl4g_wtyz1ffy300000gn/T//ccBPNZvy.s:10128  .text.I2C_WaitOnRXNEFlagUntilTimeout:0000000000000000 $t
/var/folders/n8/cvzdcwlj0vl4g_wtyz1ffy300000gn/T//ccBPNZvy.s:10280  .text.I2C_WaitOnRXNEFlagUntilTimeout:00000000000000d4 $d
/var/folders/n8/cvzdcwlj0vl4g_wtyz1ffy300000gn/T//ccBPNZvy.s:10285  .text.I2C_IsAcknowledgeFailed:0000000000000000 $t
/var/folders/n8/cvzdcwlj0vl4g_wtyz1ffy300000gn/T//ccBPNZvy.s:10419  .text.I2C_IsAcknowledgeFailed:00000000000000b8 $d
/var/folders/n8/cvzdcwlj0vl4g_wtyz1ffy300000gn/T//ccBPNZvy.s:10424  .text.I2C_TransferConfig:0000000000000000 $t
/var/folders/n8/cvzdcwlj0vl4g_wtyz1ffy300000gn/T//ccBPNZvy.s:10495  .text.I2C_TransferConfig:0000000000000058 $d
/var/folders/n8/cvzdcwlj0vl4g_wtyz1ffy300000gn/T//ccBPNZvy.s:10500  .text.I2C_Enable_IRQ:0000000000000000 $t
/var/folders/n8/cvzdcwlj0vl4g_wtyz1ffy300000gn/T//ccBPNZvy.s:10653  .text.I2C_Enable_IRQ:00000000000000d4 $d
/var/folders/n8/cvzdcwlj0vl4g_wtyz1ffy300000gn/T//ccBPNZvy.s:10659  .text.I2C_Disable_IRQ:0000000000000000 $t

UNDEFINED SYMBOLS
HAL_GetTick
HAL_DMA_Start_IT
HAL_DMA_Abort_IT
