ARM GAS  /var/folders/n8/cvzdcwlj0vl4g_wtyz1ffy300000gn/T//ccWzOoQ9.s 			page 1


   1              		.cpu cortex-m7
   2              		.eabi_attribute 27, 1
   3              		.eabi_attribute 28, 1
   4              		.eabi_attribute 20, 1
   5              		.eabi_attribute 21, 1
   6              		.eabi_attribute 23, 3
   7              		.eabi_attribute 24, 1
   8              		.eabi_attribute 25, 1
   9              		.eabi_attribute 26, 1
  10              		.eabi_attribute 30, 6
  11              		.eabi_attribute 34, 1
  12              		.eabi_attribute 18, 4
  13              		.file	"SwitchPage.c"
  14              		.text
  15              	.Ltext0:
  16              		.cfi_sections	.debug_frame
  17              		.section	.bss.s_ActiveSwitchPage,"aw",%nobits
  18              		.align	2
  21              	s_ActiveSwitchPage:
  22 0000 00000000 		.space	4
  23              		.section	.text.SwitchPage__Initializer,"ax",%progbits
  24              		.align	1
  25              		.global	SwitchPage__Initializer
  26              		.syntax unified
  27              		.thumb
  28              		.thumb_func
  29              		.fpu fpv5-sp-d16
  31              	SwitchPage__Initializer:
  32              	.LFB3:
  33              		.file 1 "FT_Esd_Widgets/SwitchPage.c"
   1:FT_Esd_Widgets/SwitchPage.c **** #include "SwitchPage.h"
   2:FT_Esd_Widgets/SwitchPage.c **** 
   3:FT_Esd_Widgets/SwitchPage.c **** static SwitchPage *s_ActiveSwitchPage = 0;
   4:FT_Esd_Widgets/SwitchPage.c **** 
   5:FT_Esd_Widgets/SwitchPage.c **** void SwitchPage__Initializer(SwitchPage *context)
   6:FT_Esd_Widgets/SwitchPage.c **** {
  34              		.loc 1 6 0
  35              		.cfi_startproc
  36              		@ args = 0, pretend = 0, frame = 8
  37              		@ frame_needed = 1, uses_anonymous_args = 0
  38              		@ link register save eliminated.
  39 0000 80B4     		push	{r7}
  40              	.LCFI0:
  41              		.cfi_def_cfa_offset 4
  42              		.cfi_offset 7, -4
  43 0002 83B0     		sub	sp, sp, #12
  44              	.LCFI1:
  45              		.cfi_def_cfa_offset 16
  46 0004 00AF     		add	r7, sp, #0
  47              	.LCFI2:
  48              		.cfi_def_cfa_register 7
  49 0006 7860     		str	r0, [r7, #4]
   7:FT_Esd_Widgets/SwitchPage.c **** 	context->Parent = 0;
  50              		.loc 1 7 0
  51 0008 7B68     		ldr	r3, [r7, #4]
  52 000a 0022     		movs	r2, #0
  53 000c 1A60     		str	r2, [r3]
ARM GAS  /var/folders/n8/cvzdcwlj0vl4g_wtyz1ffy300000gn/T//ccWzOoQ9.s 			page 2


   8:FT_Esd_Widgets/SwitchPage.c **** }
  54              		.loc 1 8 0
  55 000e 00BF     		nop
  56 0010 0C37     		adds	r7, r7, #12
  57              	.LCFI3:
  58              		.cfi_def_cfa_offset 4
  59 0012 BD46     		mov	sp, r7
  60              	.LCFI4:
  61              		.cfi_def_cfa_register 13
  62              		@ sp needed
  63 0014 5DF8047B 		ldr	r7, [sp], #4
  64              	.LCFI5:
  65              		.cfi_restore 7
  66              		.cfi_def_cfa_offset 0
  67 0018 7047     		bx	lr
  68              		.cfi_endproc
  69              	.LFE3:
  71              		.section	.text.SwitchPage_Activate,"ax",%progbits
  72              		.align	1
  73              		.global	SwitchPage_Activate
  74              		.syntax unified
  75              		.thumb
  76              		.thumb_func
  77              		.fpu fpv5-sp-d16
  79              	SwitchPage_Activate:
  80              	.LFB4:
   9:FT_Esd_Widgets/SwitchPage.c **** 
  10:FT_Esd_Widgets/SwitchPage.c **** void SwitchPage_Activate(SwitchPage *context)
  11:FT_Esd_Widgets/SwitchPage.c **** {
  81              		.loc 1 11 0
  82              		.cfi_startproc
  83              		@ args = 0, pretend = 0, frame = 8
  84              		@ frame_needed = 1, uses_anonymous_args = 0
  85              		@ link register save eliminated.
  86 0000 80B4     		push	{r7}
  87              	.LCFI6:
  88              		.cfi_def_cfa_offset 4
  89              		.cfi_offset 7, -4
  90 0002 83B0     		sub	sp, sp, #12
  91              	.LCFI7:
  92              		.cfi_def_cfa_offset 16
  93 0004 00AF     		add	r7, sp, #0
  94              	.LCFI8:
  95              		.cfi_def_cfa_register 7
  96 0006 7860     		str	r0, [r7, #4]
  12:FT_Esd_Widgets/SwitchPage.c **** 	s_ActiveSwitchPage = context;
  97              		.loc 1 12 0
  98 0008 044A     		ldr	r2, .L3
  99 000a 7B68     		ldr	r3, [r7, #4]
 100 000c 1360     		str	r3, [r2]
  13:FT_Esd_Widgets/SwitchPage.c **** }
 101              		.loc 1 13 0
 102 000e 00BF     		nop
 103 0010 0C37     		adds	r7, r7, #12
 104              	.LCFI9:
 105              		.cfi_def_cfa_offset 4
 106 0012 BD46     		mov	sp, r7
ARM GAS  /var/folders/n8/cvzdcwlj0vl4g_wtyz1ffy300000gn/T//ccWzOoQ9.s 			page 3


 107              	.LCFI10:
 108              		.cfi_def_cfa_register 13
 109              		@ sp needed
 110 0014 5DF8047B 		ldr	r7, [sp], #4
 111              	.LCFI11:
 112              		.cfi_restore 7
 113              		.cfi_def_cfa_offset 0
 114 0018 7047     		bx	lr
 115              	.L4:
 116 001a 00BF     		.align	2
 117              	.L3:
 118 001c 00000000 		.word	s_ActiveSwitchPage
 119              		.cfi_endproc
 120              	.LFE4:
 122              		.section	.text.SwitchPage_Active,"ax",%progbits
 123              		.align	1
 124              		.global	SwitchPage_Active
 125              		.syntax unified
 126              		.thumb
 127              		.thumb_func
 128              		.fpu fpv5-sp-d16
 130              	SwitchPage_Active:
 131              	.LFB5:
  14:FT_Esd_Widgets/SwitchPage.c **** 
  15:FT_Esd_Widgets/SwitchPage.c **** int SwitchPage_Active(SwitchPage *context)
  16:FT_Esd_Widgets/SwitchPage.c **** {
 132              		.loc 1 16 0
 133              		.cfi_startproc
 134              		@ args = 0, pretend = 0, frame = 8
 135              		@ frame_needed = 1, uses_anonymous_args = 0
 136              		@ link register save eliminated.
 137 0000 80B4     		push	{r7}
 138              	.LCFI12:
 139              		.cfi_def_cfa_offset 4
 140              		.cfi_offset 7, -4
 141 0002 83B0     		sub	sp, sp, #12
 142              	.LCFI13:
 143              		.cfi_def_cfa_offset 16
 144 0004 00AF     		add	r7, sp, #0
 145              	.LCFI14:
 146              		.cfi_def_cfa_register 7
 147 0006 7860     		str	r0, [r7, #4]
  17:FT_Esd_Widgets/SwitchPage.c **** 	return context == s_ActiveSwitchPage;
 148              		.loc 1 17 0
 149 0008 064B     		ldr	r3, .L7
 150 000a 1B68     		ldr	r3, [r3]
 151 000c 7A68     		ldr	r2, [r7, #4]
 152 000e 9A42     		cmp	r2, r3
 153 0010 0CBF     		ite	eq
 154 0012 0123     		moveq	r3, #1
 155 0014 0023     		movne	r3, #0
 156 0016 DBB2     		uxtb	r3, r3
  18:FT_Esd_Widgets/SwitchPage.c **** }
 157              		.loc 1 18 0
 158 0018 1846     		mov	r0, r3
 159 001a 0C37     		adds	r7, r7, #12
 160              	.LCFI15:
ARM GAS  /var/folders/n8/cvzdcwlj0vl4g_wtyz1ffy300000gn/T//ccWzOoQ9.s 			page 4


 161              		.cfi_def_cfa_offset 4
 162 001c BD46     		mov	sp, r7
 163              	.LCFI16:
 164              		.cfi_def_cfa_register 13
 165              		@ sp needed
 166 001e 5DF8047B 		ldr	r7, [sp], #4
 167              	.LCFI17:
 168              		.cfi_restore 7
 169              		.cfi_def_cfa_offset 0
 170 0022 7047     		bx	lr
 171              	.L8:
 172              		.align	2
 173              	.L7:
 174 0024 00000000 		.word	s_ActiveSwitchPage
 175              		.cfi_endproc
 176              	.LFE5:
 178              		.text
 179              	.Letext0:
 180              		.file 2 "/usr/local/Cellar/arm-none-eabi-gcc/20180627/arm-none-eabi/include/sys/lock.h"
 181              		.file 3 "/usr/local/Cellar/arm-none-eabi-gcc/20180627/arm-none-eabi/include/sys/_types.h"
 182              		.file 4 "/usr/local/Cellar/arm-none-eabi-gcc/20180627/lib/gcc/arm-none-eabi/7.3.1/include/stddef.h
 183              		.file 5 "/usr/local/Cellar/arm-none-eabi-gcc/20180627/arm-none-eabi/include/sys/unistd.h"
 184              		.file 6 "/usr/local/Cellar/arm-none-eabi-gcc/20180627/arm-none-eabi/include/sys/reent.h"
 185              		.file 7 "/usr/local/Cellar/arm-none-eabi-gcc/20180627/arm-none-eabi/include/stdlib.h"
 186              		.file 8 "FT_Esd_Widgets/SwitchPage.h"
ARM GAS  /var/folders/n8/cvzdcwlj0vl4g_wtyz1ffy300000gn/T//ccWzOoQ9.s 			page 5

