ARM GAS  /var/folders/n8/cvzdcwlj0vl4g_wtyz1ffy300000gn/T//cc52E0ZL.s 			page 1


   1              		.cpu cortex-m7
   2              		.eabi_attribute 27, 1
   3              		.eabi_attribute 28, 1
   4              		.eabi_attribute 20, 1
   5              		.eabi_attribute 21, 1
   6              		.eabi_attribute 23, 3
   7              		.eabi_attribute 24, 1
   8              		.eabi_attribute 25, 1
   9              		.eabi_attribute 26, 1
  10              		.eabi_attribute 30, 6
  11              		.eabi_attribute 34, 1
  12              		.eabi_attribute 18, 4
  13              		.file	"SwitchBool__Generated.c"
  14              		.text
  15              	.Ltext0:
  16              		.cfi_sections	.debug_frame
  17              		.section	.text.SwitchBool__Initializer,"ax",%progbits
  18              		.align	1
  19              		.global	SwitchBool__Initializer
  20              		.syntax unified
  21              		.thumb
  22              		.thumb_func
  23              		.fpu fpv5-sp-d16
  25              	SwitchBool__Initializer:
  26              	.LFB3:
  27              		.file 1 "FT_Esd_Widgets/SwitchBool__Generated.c"
   1:FT_Esd_Widgets/SwitchBool__Generated.c **** /*
   2:FT_Esd_Widgets/SwitchBool__Generated.c **** This file is automatically generated
   3:FT_Esd_Widgets/SwitchBool__Generated.c **** SwitchBool
   4:FT_Esd_Widgets/SwitchBool__Generated.c **** C Source
   5:FT_Esd_Widgets/SwitchBool__Generated.c **** */
   6:FT_Esd_Widgets/SwitchBool__Generated.c **** 
   7:FT_Esd_Widgets/SwitchBool__Generated.c **** #include "SwitchBool.h"
   8:FT_Esd_Widgets/SwitchBool__Generated.c **** 
   9:FT_Esd_Widgets/SwitchBool__Generated.c **** extern void Ft_Esd_Noop(void *context);
  10:FT_Esd_Widgets/SwitchBool__Generated.c **** 
  11:FT_Esd_Widgets/SwitchBool__Generated.c **** 
  12:FT_Esd_Widgets/SwitchBool__Generated.c **** 
  13:FT_Esd_Widgets/SwitchBool__Generated.c **** void SwitchBool__Initializer(SwitchBool *context)
  14:FT_Esd_Widgets/SwitchBool__Generated.c **** {
  28              		.loc 1 14 0
  29              		.cfi_startproc
  30              		@ args = 0, pretend = 0, frame = 8
  31              		@ frame_needed = 1, uses_anonymous_args = 0
  32              		@ link register save eliminated.
  33 0000 80B4     		push	{r7}
  34              	.LCFI0:
  35              		.cfi_def_cfa_offset 4
  36              		.cfi_offset 7, -4
  37 0002 83B0     		sub	sp, sp, #12
  38              	.LCFI1:
  39              		.cfi_def_cfa_offset 16
  40 0004 00AF     		add	r7, sp, #0
  41              	.LCFI2:
  42              		.cfi_def_cfa_register 7
  43 0006 7860     		str	r0, [r7, #4]
  15:FT_Esd_Widgets/SwitchBool__Generated.c **** 	context->Parent = 0;
ARM GAS  /var/folders/n8/cvzdcwlj0vl4g_wtyz1ffy300000gn/T//cc52E0ZL.s 			page 2


  44              		.loc 1 15 0
  45 0008 7B68     		ldr	r3, [r7, #4]
  46 000a 0022     		movs	r2, #0
  47 000c 1A60     		str	r2, [r3]
  16:FT_Esd_Widgets/SwitchBool__Generated.c **** 	context->Boolean = 0;
  48              		.loc 1 16 0
  49 000e 7B68     		ldr	r3, [r7, #4]
  50 0010 0022     		movs	r2, #0
  51 0012 1A71     		strb	r2, [r3, #4]
  17:FT_Esd_Widgets/SwitchBool__Generated.c **** }
  52              		.loc 1 17 0
  53 0014 00BF     		nop
  54 0016 0C37     		adds	r7, r7, #12
  55              	.LCFI3:
  56              		.cfi_def_cfa_offset 4
  57 0018 BD46     		mov	sp, r7
  58              	.LCFI4:
  59              		.cfi_def_cfa_register 13
  60              		@ sp needed
  61 001a 5DF8047B 		ldr	r7, [sp], #4
  62              	.LCFI5:
  63              		.cfi_restore 7
  64              		.cfi_def_cfa_offset 0
  65 001e 7047     		bx	lr
  66              		.cfi_endproc
  67              	.LFE3:
  69              		.section	.text.SwitchBool_SetTrue,"ax",%progbits
  70              		.align	1
  71              		.global	SwitchBool_SetTrue
  72              		.syntax unified
  73              		.thumb
  74              		.thumb_func
  75              		.fpu fpv5-sp-d16
  77              	SwitchBool_SetTrue:
  78              	.LFB4:
  18:FT_Esd_Widgets/SwitchBool__Generated.c **** 
  19:FT_Esd_Widgets/SwitchBool__Generated.c **** void SwitchBool_SetTrue(SwitchBool *context)
  20:FT_Esd_Widgets/SwitchBool__Generated.c **** {
  79              		.loc 1 20 0
  80              		.cfi_startproc
  81              		@ args = 0, pretend = 0, frame = 16
  82              		@ frame_needed = 1, uses_anonymous_args = 0
  83              		@ link register save eliminated.
  84 0000 80B4     		push	{r7}
  85              	.LCFI6:
  86              		.cfi_def_cfa_offset 4
  87              		.cfi_offset 7, -4
  88 0002 85B0     		sub	sp, sp, #20
  89              	.LCFI7:
  90              		.cfi_def_cfa_offset 24
  91 0004 00AF     		add	r7, sp, #0
  92              	.LCFI8:
  93              		.cfi_def_cfa_register 7
  94 0006 7860     		str	r0, [r7, #4]
  21:FT_Esd_Widgets/SwitchBool__Generated.c **** 	void *parent = context->Parent;
  95              		.loc 1 21 0
  96 0008 7B68     		ldr	r3, [r7, #4]
ARM GAS  /var/folders/n8/cvzdcwlj0vl4g_wtyz1ffy300000gn/T//cc52E0ZL.s 			page 3


  97 000a 1B68     		ldr	r3, [r3]
  98 000c FB60     		str	r3, [r7, #12]
  22:FT_Esd_Widgets/SwitchBool__Generated.c **** 	ft_bool_t set_variable = 1;
  99              		.loc 1 22 0
 100 000e 0123     		movs	r3, #1
 101 0010 FB72     		strb	r3, [r7, #11]
  23:FT_Esd_Widgets/SwitchBool__Generated.c **** 	context->Boolean = set_variable;
 102              		.loc 1 23 0
 103 0012 7B68     		ldr	r3, [r7, #4]
 104 0014 FA7A     		ldrb	r2, [r7, #11]
 105 0016 1A71     		strb	r2, [r3, #4]
  24:FT_Esd_Widgets/SwitchBool__Generated.c **** }
 106              		.loc 1 24 0
 107 0018 00BF     		nop
 108 001a 1437     		adds	r7, r7, #20
 109              	.LCFI9:
 110              		.cfi_def_cfa_offset 4
 111 001c BD46     		mov	sp, r7
 112              	.LCFI10:
 113              		.cfi_def_cfa_register 13
 114              		@ sp needed
 115 001e 5DF8047B 		ldr	r7, [sp], #4
 116              	.LCFI11:
 117              		.cfi_restore 7
 118              		.cfi_def_cfa_offset 0
 119 0022 7047     		bx	lr
 120              		.cfi_endproc
 121              	.LFE4:
 123              		.section	.text.SwitchBool_Value,"ax",%progbits
 124              		.align	1
 125              		.global	SwitchBool_Value
 126              		.syntax unified
 127              		.thumb
 128              		.thumb_func
 129              		.fpu fpv5-sp-d16
 131              	SwitchBool_Value:
 132              	.LFB5:
  25:FT_Esd_Widgets/SwitchBool__Generated.c **** 
  26:FT_Esd_Widgets/SwitchBool__Generated.c **** ft_bool_t SwitchBool_Value(SwitchBool *context)
  27:FT_Esd_Widgets/SwitchBool__Generated.c **** {
 133              		.loc 1 27 0
 134              		.cfi_startproc
 135              		@ args = 0, pretend = 0, frame = 16
 136              		@ frame_needed = 1, uses_anonymous_args = 0
 137              		@ link register save eliminated.
 138 0000 80B4     		push	{r7}
 139              	.LCFI12:
 140              		.cfi_def_cfa_offset 4
 141              		.cfi_offset 7, -4
 142 0002 85B0     		sub	sp, sp, #20
 143              	.LCFI13:
 144              		.cfi_def_cfa_offset 24
 145 0004 00AF     		add	r7, sp, #0
 146              	.LCFI14:
 147              		.cfi_def_cfa_register 7
 148 0006 7860     		str	r0, [r7, #4]
  28:FT_Esd_Widgets/SwitchBool__Generated.c **** 	void *parent = context->Parent;
ARM GAS  /var/folders/n8/cvzdcwlj0vl4g_wtyz1ffy300000gn/T//cc52E0ZL.s 			page 4


 149              		.loc 1 28 0
 150 0008 7B68     		ldr	r3, [r7, #4]
 151 000a 1B68     		ldr	r3, [r3]
 152 000c FB60     		str	r3, [r7, #12]
  29:FT_Esd_Widgets/SwitchBool__Generated.c **** 	return context->Boolean;
 153              		.loc 1 29 0
 154 000e 7B68     		ldr	r3, [r7, #4]
 155 0010 1B79     		ldrb	r3, [r3, #4]	@ zero_extendqisi2
  30:FT_Esd_Widgets/SwitchBool__Generated.c **** }
 156              		.loc 1 30 0
 157 0012 1846     		mov	r0, r3
 158 0014 1437     		adds	r7, r7, #20
 159              	.LCFI15:
 160              		.cfi_def_cfa_offset 4
 161 0016 BD46     		mov	sp, r7
 162              	.LCFI16:
 163              		.cfi_def_cfa_register 13
 164              		@ sp needed
 165 0018 5DF8047B 		ldr	r7, [sp], #4
 166              	.LCFI17:
 167              		.cfi_restore 7
 168              		.cfi_def_cfa_offset 0
 169 001c 7047     		bx	lr
 170              		.cfi_endproc
 171              	.LFE5:
 173              		.section	.text.SwitchBool_SetFalse,"ax",%progbits
 174              		.align	1
 175              		.global	SwitchBool_SetFalse
 176              		.syntax unified
 177              		.thumb
 178              		.thumb_func
 179              		.fpu fpv5-sp-d16
 181              	SwitchBool_SetFalse:
 182              	.LFB6:
  31:FT_Esd_Widgets/SwitchBool__Generated.c **** 
  32:FT_Esd_Widgets/SwitchBool__Generated.c **** void SwitchBool_SetFalse(SwitchBool *context)
  33:FT_Esd_Widgets/SwitchBool__Generated.c **** {
 183              		.loc 1 33 0
 184              		.cfi_startproc
 185              		@ args = 0, pretend = 0, frame = 16
 186              		@ frame_needed = 1, uses_anonymous_args = 0
 187              		@ link register save eliminated.
 188 0000 80B4     		push	{r7}
 189              	.LCFI18:
 190              		.cfi_def_cfa_offset 4
 191              		.cfi_offset 7, -4
 192 0002 85B0     		sub	sp, sp, #20
 193              	.LCFI19:
 194              		.cfi_def_cfa_offset 24
 195 0004 00AF     		add	r7, sp, #0
 196              	.LCFI20:
 197              		.cfi_def_cfa_register 7
 198 0006 7860     		str	r0, [r7, #4]
  34:FT_Esd_Widgets/SwitchBool__Generated.c **** 	void *parent = context->Parent;
 199              		.loc 1 34 0
 200 0008 7B68     		ldr	r3, [r7, #4]
 201 000a 1B68     		ldr	r3, [r3]
ARM GAS  /var/folders/n8/cvzdcwlj0vl4g_wtyz1ffy300000gn/T//cc52E0ZL.s 			page 5


 202 000c FB60     		str	r3, [r7, #12]
  35:FT_Esd_Widgets/SwitchBool__Generated.c **** 	ft_bool_t set_variable_1 = 0;
 203              		.loc 1 35 0
 204 000e 0023     		movs	r3, #0
 205 0010 FB72     		strb	r3, [r7, #11]
  36:FT_Esd_Widgets/SwitchBool__Generated.c **** 	context->Boolean = set_variable_1;
 206              		.loc 1 36 0
 207 0012 7B68     		ldr	r3, [r7, #4]
 208 0014 FA7A     		ldrb	r2, [r7, #11]
 209 0016 1A71     		strb	r2, [r3, #4]
  37:FT_Esd_Widgets/SwitchBool__Generated.c **** }
 210              		.loc 1 37 0
 211 0018 00BF     		nop
 212 001a 1437     		adds	r7, r7, #20
 213              	.LCFI21:
 214              		.cfi_def_cfa_offset 4
 215 001c BD46     		mov	sp, r7
 216              	.LCFI22:
 217              		.cfi_def_cfa_register 13
 218              		@ sp needed
 219 001e 5DF8047B 		ldr	r7, [sp], #4
 220              	.LCFI23:
 221              		.cfi_restore 7
 222              		.cfi_def_cfa_offset 0
 223 0022 7047     		bx	lr
 224              		.cfi_endproc
 225              	.LFE6:
 227              		.section	.text.SwitchBool_Switch,"ax",%progbits
 228              		.align	1
 229              		.global	SwitchBool_Switch
 230              		.syntax unified
 231              		.thumb
 232              		.thumb_func
 233              		.fpu fpv5-sp-d16
 235              	SwitchBool_Switch:
 236              	.LFB7:
  38:FT_Esd_Widgets/SwitchBool__Generated.c **** 
  39:FT_Esd_Widgets/SwitchBool__Generated.c **** void SwitchBool_Switch(SwitchBool *context)
  40:FT_Esd_Widgets/SwitchBool__Generated.c **** {
 237              		.loc 1 40 0
 238              		.cfi_startproc
 239              		@ args = 0, pretend = 0, frame = 24
 240              		@ frame_needed = 1, uses_anonymous_args = 0
 241              		@ link register save eliminated.
 242 0000 80B4     		push	{r7}
 243              	.LCFI24:
 244              		.cfi_def_cfa_offset 4
 245              		.cfi_offset 7, -4
 246 0002 87B0     		sub	sp, sp, #28
 247              	.LCFI25:
 248              		.cfi_def_cfa_offset 32
 249 0004 00AF     		add	r7, sp, #0
 250              	.LCFI26:
 251              		.cfi_def_cfa_register 7
 252 0006 7860     		str	r0, [r7, #4]
  41:FT_Esd_Widgets/SwitchBool__Generated.c **** 	void *parent = context->Parent;
 253              		.loc 1 41 0
ARM GAS  /var/folders/n8/cvzdcwlj0vl4g_wtyz1ffy300000gn/T//cc52E0ZL.s 			page 6


 254 0008 7B68     		ldr	r3, [r7, #4]
 255 000a 1B68     		ldr	r3, [r3]
 256 000c 7B61     		str	r3, [r7, #20]
  42:FT_Esd_Widgets/SwitchBool__Generated.c **** 	ft_bool_t value = context->Boolean;
 257              		.loc 1 42 0
 258 000e 7B68     		ldr	r3, [r7, #4]
 259 0010 1B79     		ldrb	r3, [r3, #4]
 260 0012 FB74     		strb	r3, [r7, #19]
  43:FT_Esd_Widgets/SwitchBool__Generated.c **** 	int set_variable_2 = !value;
 261              		.loc 1 43 0
 262 0014 FB7C     		ldrb	r3, [r7, #19]	@ zero_extendqisi2
 263 0016 002B     		cmp	r3, #0
 264 0018 0CBF     		ite	eq
 265 001a 0123     		moveq	r3, #1
 266 001c 0023     		movne	r3, #0
 267 001e DBB2     		uxtb	r3, r3
 268 0020 FB60     		str	r3, [r7, #12]
  44:FT_Esd_Widgets/SwitchBool__Generated.c **** 	context->Boolean = set_variable_2;
 269              		.loc 1 44 0
 270 0022 FB68     		ldr	r3, [r7, #12]
 271 0024 DAB2     		uxtb	r2, r3
 272 0026 7B68     		ldr	r3, [r7, #4]
 273 0028 1A71     		strb	r2, [r3, #4]
  45:FT_Esd_Widgets/SwitchBool__Generated.c **** }
 274              		.loc 1 45 0
 275 002a 00BF     		nop
 276 002c 1C37     		adds	r7, r7, #28
 277              	.LCFI27:
 278              		.cfi_def_cfa_offset 4
 279 002e BD46     		mov	sp, r7
 280              	.LCFI28:
 281              		.cfi_def_cfa_register 13
 282              		@ sp needed
 283 0030 5DF8047B 		ldr	r7, [sp], #4
 284              	.LCFI29:
 285              		.cfi_restore 7
 286              		.cfi_def_cfa_offset 0
 287 0034 7047     		bx	lr
 288              		.cfi_endproc
 289              	.LFE7:
 291              		.text
 292              	.Letext0:
 293              		.file 2 "FT_Eve_Hal/FT_DataTypes.h"
 294              		.file 3 "/usr/local/Cellar/arm-none-eabi-gcc/20180627/arm-none-eabi/include/sys/lock.h"
 295              		.file 4 "/usr/local/Cellar/arm-none-eabi-gcc/20180627/arm-none-eabi/include/sys/_types.h"
 296              		.file 5 "/usr/local/Cellar/arm-none-eabi-gcc/20180627/lib/gcc/arm-none-eabi/7.3.1/include/stddef.h
 297              		.file 6 "/usr/local/Cellar/arm-none-eabi-gcc/20180627/arm-none-eabi/include/sys/unistd.h"
 298              		.file 7 "/usr/local/Cellar/arm-none-eabi-gcc/20180627/arm-none-eabi/include/sys/reent.h"
 299              		.file 8 "/usr/local/Cellar/arm-none-eabi-gcc/20180627/arm-none-eabi/include/stdlib.h"
 300              		.file 9 "FT_Esd_Widgets/SwitchBool.h"
ARM GAS  /var/folders/n8/cvzdcwlj0vl4g_wtyz1ffy300000gn/T//cc52E0ZL.s 			page 7

